
Allocating common symbols
Common symbol       size              file

netbufpool          0x4               binaries/net.o
readylist           0x2               binaries/ready.o
rfltab              0x5a0             binaries/rflinit.o
queueArr            0x28              binaries/initialize.o
sleepq              0x2               binaries/clkinit.o
nnames              0x4               binaries/naminit.o
udptab              0x168             binaries/udp.o
minheap             0x4               binaries/meminit.o
marks               0x50              binaries/mark.o
currpid             0x4               binaries/initialize.o
Lf_data             0x20c             binaries/lfsinit.o
porttab             0x2d0             binaries/ptinit.o
girmask             0x2               binaries/evec.o
ttytab              0x10c             binaries/ttyinit.o
victimglobal        0x4               binaries/myhacker.o
proctab             0x1c20            binaries/initialize.o
prcount             0x4               binaries/initialize.o
victimsRetAddress   0x4               binaries/myhacker.o
lfltab              0xf00             binaries/lflinit.o
rdstab              0x8c              binaries/rdsinit.o
ethertab            0x138             binaries/ethinit.o
NetData             0xa8              binaries/net.o
nmarks              0x4               binaries/mark.o
Defer               0x8               binaries/resched.o
semtab              0x4b0             binaries/initialize.o
maxheap             0x4               binaries/meminit.o
preempt             0x4               binaries/clkinit.o
buftab              0xf0              binaries/bufinit.o
Rf_data             0x18              binaries/rfsinit.o
myqueuetab          0xca0             binaries/myqueue.o
mkmutex             0x4               binaries/mark.o
clktimemsec         0x4               binaries/clkinit.o
clktime             0x4               binaries/clkinit.o
arpcache            0x140             binaries/arp.o
icmptab             0x230             binaries/icmp.o
nbpools             0x4               binaries/bufinit.o
queuetab            0xca0             binaries/queue.o
ptnextid            0x4               binaries/ptinit.o
Ram                 0x19000           binaries/raminit.o
ipoqueue            0x2c              binaries/ip.o
memlist             0x8               binaries/initialize.o
nametab             0x19a0            binaries/naminit.o
ptfree              0x4               binaries/ptinit.o

Memory Configuration

Name             Origin             Length             Attributes
*default*        0x0000000000000000 0xffffffffffffffff

Linker script and memory map

                0x0000000000100000                physbase = 0x100000
                0x0000000000100000                . = physbase
                0x0000000000100000                . = ALIGN (0x1000)

.text           0x0000000000100000    0x18000
                0x0000000000100000                text = ABSOLUTE (.)
 *(.text .text.*)
 .text          0x0000000000100000      0x1ac binaries/start.o
                0x0000000000100028                start
                0x00000000001000fa                inb
                0x0000000000100102                inw
                0x000000000010010b                inl
                0x0000000000100113                outb
                0x000000000010011d                outw
                0x0000000000100128                outl
                0x0000000000100132                _rtcin
                0x000000000010013d                ___udivsi3
                0x0000000000100148                ___divsi3
                0x0000000000100154                sbzero
                0x0000000000100164                bcopy
                0x0000000000100178                insw
                0x000000000010018e                outsw
                0x00000000001001a4                lidt
 .text          0x00000000001001ac       0x35 binaries/app1.o
                0x00000000001001ac                app1
 .text          0x00000000001001e1       0x8f binaries/app2.o
                0x00000000001001e1                app2
 .text          0x0000000000100270       0x67 binaries/app3.o
                0x0000000000100270                app3
 .text          0x00000000001002d7      0x2b9 binaries/ascdate.o
                0x00000000001002d7                ascdate
 .text          0x0000000000100590       0x14 binaries/bufinit.o
                0x0000000000100590                bufinit
 .text          0x00000000001005a4       0x6a binaries/chprio.o
                0x00000000001005a4                chprio
 .text          0x000000000010060e       0x90 binaries/clkhandler.o
                0x000000000010060e                clkhandler
 .text          0x000000000010069e       0x67 binaries/clkinit.o
                0x000000000010069e                clkinit
 .text          0x0000000000100705       0x56 binaries/close.o
                0x0000000000100705                close
 .text          0x000000000010075b        0x0 binaries/conf.o
 .text          0x000000000010075b       0x5c binaries/control.o
                0x000000000010075b                control
 .text          0x00000000001007b7      0x122 binaries/cpubound.o
                0x00000000001007b7                cpubound
 .text          0x00000000001008d9      0x260 binaries/create.o
                0x00000000001008d9                create
 .text          0x0000000000100b39      0x20e binaries/early_imr.o
                0x0000000000100b39                intel_cln_early_sb_read_reg
                0x0000000000100b90                intel_cln_early_sb_write_reg
                0x0000000000100c4a                remove_irm_protections
 .text          0x0000000000100d47      0x2e0 binaries/evec.o
                0x0000000000100d47                setirmask
                0x0000000000100d7f                set_evec
                0x0000000000100dda                initevec
                0x0000000000100eac                trap
 .text          0x0000000000101027       0x30 binaries/factorial.o
                0x0000000000101027                factorial
 .text          0x0000000000101057       0x7f binaries/freebuf.o
                0x0000000000101057                freebuf
 .text          0x00000000001010d6      0x108 binaries/freemem.o
                0x00000000001010d6                freemem
 .text          0x00000000001011de       0x6e binaries/getbuf.o
                0x00000000001011de                getbuf
 .text          0x000000000010124c       0x56 binaries/getc.o
                0x000000000010124c                getc
 .text          0x00000000001012a2       0x69 binaries/getdev.o
                0x00000000001012a2                getdev
 .text          0x000000000010130b      0x104 binaries/getitem.o
                0x000000000010130b                getitem
                0x000000000010133a                getfirst
                0x0000000000101361                getlast
                0x000000000010138d                mygetitem
                0x00000000001013bc                mygetfirst
                0x00000000001013e3                mygetlast
 .text          0x000000000010140f       0xc2 binaries/getmem.o
                0x000000000010140f                getmem
 .text          0x00000000001014d1        0xa binaries/getpid.o
                0x00000000001014d1                getpid
 .text          0x00000000001014db       0x12 binaries/getpname.o
                0x00000000001014db                getpname
 .text          0x00000000001014ed       0x14 binaries/getppid.o
                0x00000000001014ed                getppid
 .text          0x0000000000101501       0x54 binaries/getprio.o
                0x0000000000101501                getprio
 .text          0x0000000000101555       0xac binaries/getstk.o
                0x0000000000101555                getstk
 .text          0x0000000000101601       0x32 binaries/gettime.o
                0x0000000000101601                gettime
 .text          0x0000000000101633      0x188 binaries/getutime.o
                0x0000000000101633                getutime
 .text          0x00000000001017bb       0x10 binaries/host2netlb.o
                0x00000000001017bb                host2netlb
 .text          0x00000000001017cb       0x56 binaries/init.o
                0x00000000001017cb                init
 .text          0x0000000000101821      0x2e7 binaries/initialize.o
                0x0000000000101821                nulluser
                0x0000000000101abe                stop
                0x0000000000101ae2                delay
 .text          0x0000000000101b08       0xba binaries/insert.o
                0x0000000000101b08                insert
 .text          0x0000000000101bc2       0xe7 binaries/insertd.o
                0x0000000000101bc2                insertd
 .text          0x0000000000101ca9       0xbc binaries/iobound.o
                0x0000000000101ca9                iobound
 .text          0x0000000000101d65        0xa binaries/ioerr.o
                0x0000000000101d65                ioerr
 .text          0x0000000000101d6f        0xa binaries/ionull.o
                0x0000000000101d6f                ionull
 .text          0x0000000000101d79      0x165 binaries/kill.o
                0x0000000000101d79                kill
 .text          0x0000000000101ede       0xa9 binaries/kprintf.o
                0x0000000000101ede                kputc
                0x0000000000101f10                console_init
                0x0000000000101f43                kgetc
                0x0000000000101f69                kprintf
 .text          0x0000000000101f87      0x3af binaries/lab2q3.o
                0x0000000000101f87                workerProcessTypeA
                0x0000000000101f8c                workerProcessTypeB
                0x0000000000101fa9                monitorProcess
                0x000000000010201c                lab2q3t1
                0x000000000010207b                lab2q3t2
                0x0000000000102164                lab2q3t3
                0x000000000010224d                lab2q3t4
 .text          0x0000000000102336      0x804 binaries/lab2q4.o
                0x0000000000102336                lab2q4t1
                0x0000000000102502                lab2q4t2
                0x00000000001026bc                lab2q4t3
                0x000000000010287f                lab2q4t4
                0x0000000000102968                lab2q4t5
                0x0000000000102a51                lab2q4t6
 .text          0x0000000000102b3a      0x1e3 binaries/lab2q5.o
                0x0000000000102b3a                lab2q5t1
 .text          0x0000000000102d1d      0x1f0 binaries/main.o
                0x0000000000102d1d                testReceive
                0x0000000000102d54                testASender
                0x0000000000102de3                main
 .text          0x0000000000102f0d       0x99 binaries/mark.o
                0x0000000000102f0d                markinit
                0x0000000000102f2e                mark
 .text          0x0000000000102fa6      0x1ff binaries/meminit.o
                0x0000000000102fa6                meminit
                0x0000000000103135                setsegs
 .text          0x00000000001031a5      0x122 binaries/mkbufpool.o
                0x00000000001031a5                mkbufpool
 .text          0x00000000001032c7       0x91 binaries/multilevelfbq.o
                0x00000000001032c7                multifeedbackDQ
                0x000000000010330d                printMFQ
 .text          0x0000000000103358       0xa9 binaries/myappA.o
                0x0000000000103358                myappA
 .text          0x0000000000103401       0x23 binaries/myfuncA.o
                0x0000000000103401                myfuncA
 .text          0x0000000000103424       0x84 binaries/myhacker.o
                0x0000000000103424                myhackermalware
                0x0000000000103450                getretaddrbydepth
                0x000000000010347e                myhacker
 .text          0x00000000001034a8      0x167 binaries/myqueue.o
                0x00000000001034a8                myenqueue
                0x000000000010354e                mydequeue
                0x0000000000103599                myprintQueue
 .text          0x000000000010360f       0x9b binaries/myvictim.o
                0x000000000010360f                makevictimsleep
                0x000000000010363a                invokevictimsleep
                0x0000000000103665                myvictim
 .text          0x00000000001036aa       0x5f binaries/mywelcomemsg.o
                0x00000000001036aa                mywelcomemsg
 .text          0x0000000000103709       0xc6 binaries/newqueue.o
                0x0000000000103709                newqueue
                0x000000000010376c                mynewqueue
 .text          0x00000000001037cf       0x5c binaries/open.o
                0x00000000001037cf                open
 .text          0x000000000010382b       0x20 binaries/panic.o
                0x000000000010382b                panic
 .text          0x000000000010384b      0x282 binaries/pci.o
                0x000000000010384b                pci_init
                0x0000000000103855                find_pci_device
                0x0000000000103914                pci_read_config_byte
                0x0000000000103952                pci_read_config_word
                0x0000000000103992                pci_read_config_dword
                0x00000000001039d0                pci_write_config_byte
                0x0000000000103a0c                pci_write_config_word
                0x0000000000103a49                pci_write_config_dword
                0x0000000000103a85                pci_get_dev_mmio_base_addr
 .text          0x0000000000103acd       0x50 binaries/platinit.o
                0x0000000000103acd                platinit
 .text          0x0000000000103b1d       0xa7 binaries/printsegaddr.o
                0x0000000000103b1d                printsegaddr
 .text          0x0000000000103bc4      0x3ec binaries/process_state.o
                0x0000000000103bc4                process_state
 .text          0x0000000000103fb0       0xa9 binaries/ptclear.o
                0x0000000000103fb0                _ptclear
 .text          0x0000000000104059       0x85 binaries/ptcount.o
                0x0000000000104059                ptcount
 .text          0x00000000001040de       0xfe binaries/ptcreate.o
                0x00000000001040de                ptcreate
 .text          0x00000000001041dc       0x63 binaries/ptdelete.o
                0x00000000001041dc                ptdelete
 .text          0x000000000010423f       0x91 binaries/ptinit.o
                0x000000000010423f                ptinit
 .text          0x00000000001042d0       0xf5 binaries/ptrecv.o
                0x00000000001042d0                ptrecv
 .text          0x00000000001043c5       0x66 binaries/ptreset.o
                0x00000000001043c5                ptreset
 .text          0x000000000010442b      0x115 binaries/ptsend.o
                0x000000000010442b                ptsend
 .text          0x0000000000104540       0x64 binaries/putc.o
                0x0000000000104540                putc
 .text          0x00000000001045a4       0xb3 binaries/quark_irq.o
                0x00000000001045a4                quark_irq_routing
 .text          0x0000000000104657      0x19a binaries/quark_pdat.o
                0x0000000000104657                get_quark_pdat_entry_data_by_id
                0x0000000000104721                get_quark_pdat_entry_data_by_desc
 .text          0x00000000001047f1      0x167 binaries/queue.o
                0x00000000001047f1                enqueue
                0x0000000000104897                dequeue
                0x00000000001048e2                printQueue
 .text          0x0000000000104958       0x5c binaries/read.o
                0x0000000000104958                read
 .text          0x00000000001049b4       0xed binaries/ready.o
                0x00000000001049b4                ready
 .text          0x0000000000104aa1       0x5e binaries/receive.o
                0x0000000000104aa1                receive
 .text          0x0000000000104aff      0x11c binaries/receivebt.o
                0x0000000000104aff                receivebt
 .text          0x0000000000104c1b       0x4f binaries/recvclr.o
                0x0000000000104c1b                recvclr
 .text          0x0000000000104c6a       0xb6 binaries/recvtime.o
                0x0000000000104c6a                recvtime
 .text          0x0000000000104d20      0x496 binaries/resched.o
                0x0000000000104d20                currproc_eligible
                0x0000000000104d76                resched_lab3
                0x0000000000104eb6                resched_lab1
                0x0000000000104f73                reward_ready_waiting
                0x0000000000104fa9                resched_lab2
                0x000000000010511a                resched
                0x0000000000105144                resched_cntl
 .text          0x00000000001051b6       0x7c binaries/resume.o
                0x00000000001051b6                resume
 .text          0x0000000000105232       0x59 binaries/seek.o
                0x0000000000105232                seek
 .text          0x000000000010528b       0x51 binaries/semcount.o
                0x000000000010528b                semcount
 .text          0x00000000001052dc       0x93 binaries/semcreate.o
                0x00000000001052dc                semcreate
 .text          0x000000000010536f       0xd1 binaries/semdelete.o
                0x000000000010536f                semdelete
 .text          0x0000000000105440       0xa8 binaries/semreset.o
                0x0000000000105440                semreset
 .text          0x00000000001054e8       0xb0 binaries/send.o
                0x00000000001054e8                send
 .text          0x0000000000105598      0x232 binaries/sendbt.o
                0x0000000000105598                sendbt
 .text          0x00000000001057ca       0x95 binaries/signal.o
                0x00000000001057ca                signal
 .text          0x000000000010585f       0xc2 binaries/signaln.o
                0x000000000010585f                signaln
 .text          0x0000000000105921       0xbe binaries/sleep.o
                0x0000000000105921                sleepms
                0x00000000001059a9                sleep
 .text          0x00000000001059df       0x95 binaries/stackdepth.o
                0x00000000001059df                stackdepth
 .text          0x0000000000105a74      0x17e binaries/stacktrace.o
                0x0000000000105a74                stacktrace
 .text          0x0000000000105bf2       0xaa binaries/suspend.o
                0x0000000000105bf2                suspend
 .text          0x0000000000105c9c       0x27 binaries/teststackdepth.o
                0x0000000000105c9c                teststackdepth
 .text          0x0000000000105cc3        0x0 binaries/tsdtab.o
 .text          0x0000000000105cc3       0x90 binaries/unsleep.o
                0x0000000000105cc3                unsleep
 .text          0x0000000000105d53       0x19 binaries/userret.o
                0x0000000000105d53                userret
 .text          0x0000000000105d6c       0xb1 binaries/wait.o
                0x0000000000105d6c                wait
 .text          0x0000000000105e1d       0x71 binaries/wakeup.o
                0x0000000000105e1d                wakeup
 .text          0x0000000000105e8e       0x5c binaries/write.o
                0x0000000000105e8e                write
 .text          0x0000000000105eea       0x1a binaries/xdone.o
                0x0000000000105eea                xdone
 .text          0x0000000000105f04       0x26 binaries/yield.o
                0x0000000000105f04                yield
 .text          0x0000000000105f2a       0x11 binaries/abs.o
                0x0000000000105f2a                abs
 .text          0x0000000000105f3b       0x84 binaries/atoi.o
                0x0000000000105f3b                atoi
 .text          0x0000000000105fbf       0x84 binaries/atol.o
                0x0000000000105fbf                atol
 .text          0x0000000000106043       0x1a binaries/bzero.o
                0x0000000000106043                bzero
 .text          0x000000000010605d        0x0 binaries/ctype_.o
 .text          0x000000000010605d      0x6bf binaries/doprnt.o
                0x00000000001061b0                _doprnt
 .text          0x000000000010671c      0x5f2 binaries/doscan.o
                0x000000000010671c                _doscan
 .text          0x0000000000106d0e      0x64e binaries/fdoprnt.o
                0x0000000000106d93                _fdoprnt
 .text          0x000000000010735c       0x1c binaries/fgetc.o
                0x000000000010735c                fgetc
 .text          0x0000000000107378       0x61 binaries/fgets.o
                0x0000000000107378                fgets
 .text          0x00000000001073d9       0x21 binaries/fprintf.o
                0x00000000001073d9                fprintf
 .text          0x00000000001073fa       0x27 binaries/fputc.o
                0x00000000001073fa                fputc
 .text          0x0000000000107421       0x3a binaries/fputs.o
                0x0000000000107421                fputs
 .text          0x000000000010745b       0x6a binaries/fscanf.o
                0x0000000000107499                fscanf
 .text          0x00000000001074c5       0x1e binaries/getchar.o
                0x00000000001074c5                getchar
 .text          0x00000000001074e3       0x11 binaries/labs.o
                0x00000000001074e3                labs
 .text          0x00000000001074f4       0x36 binaries/memchr.o
                0x00000000001074f4                memchr
 .text          0x000000000010752a       0x4a binaries/memcmp.o
                0x000000000010752a                memcmp
 .text          0x0000000000107574       0x26 binaries/memcpy.o
                0x0000000000107574                memcpy
 .text          0x000000000010759a       0x1f binaries/memset.o
                0x000000000010759a                memset
 .text          0x00000000001075b9       0x2f binaries/printf.o
                0x00000000001075b9                printf
 .text          0x00000000001075e8       0x21 binaries/putchar.o
                0x00000000001075e8                putchar
 .text          0x0000000000107609      0x1cc binaries/qsort.o
                0x00000000001077ad                qsort
 .text          0x00000000001077d5       0x4c binaries/rand.o
                0x00000000001077d5                srand
                0x00000000001077e2                rand
 .text          0x0000000000107821       0x48 binaries/sprintf.o
                0x000000000010783a                sprintf
 .text          0x0000000000107869       0x5a binaries/sscanf.o
                0x0000000000107899                sscanf
 .text          0x00000000001078c3       0x2f binaries/strchr.o
                0x00000000001078c3                strchr
 .text          0x00000000001078f2       0x45 binaries/strcmp.o
                0x00000000001078f2                strcmp
 .text          0x0000000000107937       0x1c binaries/strcpy.o
                0x0000000000107937                strcpy
 .text          0x0000000000107953       0x20 binaries/strlen.o
                0x0000000000107953                strlen
 .text          0x0000000000107973       0x3d binaries/strncat.o
                0x0000000000107973                strncat
 .text          0x00000000001079b0       0x3b binaries/strncmp.o
                0x00000000001079b0                strncmp
 .text          0x00000000001079eb       0x59 binaries/strncpy.o
                0x00000000001079eb                strncpy
 .text          0x0000000000107a44       0x38 binaries/strnlen.o
                0x0000000000107a44                strnlen
 .text          0x0000000000107a7c       0x32 binaries/strrchr.o
                0x0000000000107a7c                strrchr
 .text          0x0000000000107aae       0x68 binaries/strstr.o
                0x0000000000107aae                strstr
 .text          0x0000000000107b16      0x112 binaries/ttycontrol.o
                0x0000000000107b16                ttycontrol
 .text          0x0000000000107c28       0xb0 binaries/ttygetc.o
                0x0000000000107c28                ttygetc
 .text          0x0000000000107cd8      0x4a3 binaries/ttyhandle_in.o
                0x0000000000107d9c                ttyhandle_in
 .text          0x000000000010817b      0x178 binaries/ttyhandle_out.o
                0x000000000010817b                ttyhandle_out
 .text          0x00000000001082f3       0x85 binaries/ttyhandler.o
                0x00000000001082f3                ttyhandler
 .text          0x0000000000108378      0x15d binaries/ttyinit.o
                0x0000000000108378                ttyinit
 .text          0x00000000001084d5        0xf binaries/ttykickout.o
                0x00000000001084d5                ttykickout
 .text          0x00000000001084e4       0xb2 binaries/ttyputc.o
                0x00000000001084e4                ttyputc
 .text          0x0000000000108596       0xff binaries/ttyread.o
                0x0000000000108596                ttyread
 .text          0x0000000000108695       0x4d binaries/ttywrite.o
                0x0000000000108695                ttywrite
 .text          0x00000000001086e2      0x129 binaries/mount.o
                0x00000000001086e2                namlen
                0x000000000010871e                mount
 .text          0x000000000010880b      0x1c4 binaries/naminit.o
                0x000000000010880b                naminit
 .text          0x00000000001089cf      0x1fe binaries/nammap.o
                0x00000000001089cf                namrepl
                0x0000000000108af2                namcpy
                0x0000000000108b40                nammap
 .text          0x0000000000108bcd       0x44 binaries/namopen.o
                0x0000000000108bcd                namopen
 .text          0x0000000000108c11       0xd4 binaries/colon2mac.o
                0x0000000000108c11                colon2mac
 .text          0x0000000000108ce5       0x7d binaries/ethcontrol.o
                0x0000000000108ce5                ethcontrol
 .text          0x0000000000108d62      0x17e binaries/ethhandler.o
                0x0000000000108d62                ethhandler
 .text          0x0000000000108ee0      0x548 binaries/ethinit.o
                0x0000000000108ee0                eth_phy_read
                0x0000000000108f20                eth_phy_write
                0x0000000000108f61                eth_phy_reset
                0x000000000010903b                ethinit
 .text          0x0000000000109428      0x107 binaries/ethmcast.o
                0x0000000000109428                ethmcast_add
                0x0000000000109474                ethmcast_remove
 .text          0x000000000010952f      0x172 binaries/ethread.o
                0x000000000010952f                ethread
 .text          0x00000000001096a1       0xc1 binaries/ethwrite.o
                0x00000000001096a1                ethwrite
 .text          0x0000000000109762       0x68 binaries/rdsbufalloc.o
                0x0000000000109762                rdsbufalloc
 .text          0x00000000001097ca       0xd6 binaries/rdsclose.o
                0x00000000001097ca                rdsclose
 .text          0x00000000001098a0      0x1df binaries/rdscomm.o
                0x00000000001098a0                rdscomm
 .text          0x0000000000109a7f      0x1c4 binaries/rdscontrol.o
                0x0000000000109a7f                rdscontrol
 .text          0x0000000000109c43      0x1f7 binaries/rdsinit.o
                0x0000000000109c43                rdsinit
 .text          0x0000000000109e3a      0x199 binaries/rdsopen.o
                0x0000000000109e3a                rdsopen
 .text          0x0000000000109fd3      0x2c5 binaries/rdsprocess.o
                0x0000000000109fd3                rdsprocess
 .text          0x000000000010a298      0x1d8 binaries/rdsread.o
                0x000000000010a298                rdsread
 .text          0x000000000010a470      0x1ae binaries/rdswrite.o
                0x000000000010a470                rdswrite
 .text          0x000000000010a61e        0xa binaries/ramclose.o
                0x000000000010a61e                ramclose
 .text          0x000000000010a628       0x35 binaries/raminit.o
                0x000000000010a628                raminit
 .text          0x000000000010a65d        0xa binaries/ramopen.o
                0x000000000010a65d                ramopen
 .text          0x000000000010a667       0x26 binaries/ramread.o
                0x000000000010a667                ramread
 .text          0x000000000010a68d       0x26 binaries/ramwrite.o
                0x000000000010a68d                ramwrite
 .text          0x000000000010a6b3       0x87 binaries/lfdballoc.o
                0x000000000010a6b3                lfdballoc
 .text          0x000000000010a73a       0x49 binaries/lfdbfree.o
                0x000000000010a73a                lfdbfree
 .text          0x000000000010a783       0xa1 binaries/lfflush.o
                0x000000000010a783                lfflush
 .text          0x000000000010a824       0x82 binaries/lfgetmode.o
                0x000000000010a824                lfgetmode
 .text          0x000000000010a8a6       0x60 binaries/lfiballoc.o
                0x000000000010a8a6                lfiballoc
 .text          0x000000000010a906       0x27 binaries/lfibclear.o
                0x000000000010a906                lfibclear
 .text          0x000000000010a92d       0x6c binaries/lfibget.o
                0x000000000010a92d                lfibget
 .text          0x000000000010a999       0x88 binaries/lfibput.o
                0x000000000010a999                lfibput
 .text          0x000000000010aa21       0xa4 binaries/lflclose.o
                0x000000000010aa21                lflclose
 .text          0x000000000010aac5       0xc2 binaries/lflcontrol.o
                0x000000000010aac5                lflcontrol
 .text          0x000000000010ab87       0xfd binaries/lflgetc.o
                0x000000000010ab87                lflgetc
 .text          0x000000000010ac84       0xe7 binaries/lflinit.o
                0x000000000010ac84                lflinit
 .text          0x000000000010ad6b      0x12f binaries/lflputc.o
                0x000000000010ad6b                lflputc
 .text          0x000000000010ae9a       0x6b binaries/lflread.o
                0x000000000010ae9a                lflread
 .text          0x000000000010af05       0xbd binaries/lflseek.o
                0x000000000010af05                lflseek
 .text          0x000000000010afc2       0x52 binaries/lflwrite.o
                0x000000000010afc2                lflwrite
 .text          0x000000000010b014      0x114 binaries/lfsckfmt.o
                0x000000000010b014                lfsckfmt
 .text          0x000000000010b128      0x1e6 binaries/lfscreate.o
                0x000000000010b128                lfscreate
 .text          0x000000000010b30e      0x1b1 binaries/lfsetup.o
                0x000000000010b30e                lfsetup
 .text          0x000000000010b4bf       0x45 binaries/lfsinit.o
                0x000000000010b4bf                lfsinit
 .text          0x000000000010b504      0x302 binaries/lfsopen.o
                0x000000000010b504                lfsopen
 .text          0x000000000010b806      0x112 binaries/lftruncate.o
                0x000000000010b806                lftruncate
 .text          0x000000000010b918       0x69 binaries/rflclose.o
                0x000000000010b918                rflclose
 .text          0x000000000010b981       0x29 binaries/rflgetc.o
                0x000000000010b981                rflgetc
 .text          0x000000000010b9aa       0x6c binaries/rflinit.o
                0x000000000010b9aa                rflinit
 .text          0x000000000010ba16       0x29 binaries/rflputc.o
                0x000000000010ba16                rflputc
 .text          0x000000000010ba3f      0x2b6 binaries/rflread.o
                0x000000000010ba3f                rflread
 .text          0x000000000010bcf5       0x68 binaries/rflseek.o
                0x000000000010bcf5                rflseek
 .text          0x000000000010bd5d      0x2fa binaries/rflwrite.o
                0x000000000010bd5d                rflwrite
 .text          0x000000000010c057      0x17d binaries/rfscomm.o
                0x000000000010c057                rfscomm
 .text          0x000000000010c1d4      0x22b binaries/rfscontrol.o
                0x000000000010c1d4                rfscontrol
 .text          0x000000000010c3ff       0x82 binaries/rfsgetmode.o
                0x000000000010c3ff                rfsgetmode
 .text          0x000000000010c481       0x7e binaries/rfsinit.o
                0x000000000010c481                rfsinit
 .text          0x000000000010c4ff       0xad binaries/rfsndmsg.o
                0x000000000010c4ff                rfsndmsg
 .text          0x000000000010c5ac      0x243 binaries/rfsopen.o
                0x000000000010c5ac                rfsopen
 .text          0x000000000010c7ef      0x626 binaries/arp.o
                0x000000000010c7ef                arp_init
                0x000000000010c80b                arp_alloc
                0x000000000010c8b2                arp_ntoh
                0x000000000010c91f                arp_hton
                0x000000000010c98c                arp_resolve
                0x000000000010cbdd                arp_in
 .text          0x000000000010ce15      0x5ed binaries/dhcp.o
                0x000000000010ce15                dhcp_get_opt_val
                0x000000000010ce69                dhcp_bld_bootp_msg
                0x000000000010cf3b                dhcp_bld_disc
                0x000000000010cf8d                dhcp_bld_req
                0x000000000010d028                getlocalip
 .text          0x000000000010d402       0xda binaries/dot2ip.o
                0x000000000010d402                dot2ip
 .text          0x000000000010d4dc      0x38c binaries/hexdump.o
                0x000000000010d4dc                hexdump
                0x000000000010d636                hexadump
 .text          0x000000000010d868      0x6f6 binaries/icmp.o
                0x000000000010d868                icmp_init
                0x000000000010d884                icmp_register
                0x000000000010d942                icmp_recv
                0x000000000010dae5                icmp_mkpkt
                0x000000000010dbb2                icmp_in
                0x000000000010dd4c                icmp_send
                0x000000000010ddbb                icmp_release
                0x000000000010ded6                icmp_cksum
                0x000000000010df30                icmp_hton
                0x000000000010df47                icmp_ntoh
 .text          0x000000000010df5e      0x5e2 binaries/ip.o
                0x000000000010df5e                ip_local
                0x000000000010df9e                ipcksum
                0x000000000010dff4                ip_ntoh
                0x000000000010e061                ip_in
                0x000000000010e186                ip_hton
                0x000000000010e1f3                ip_out
                0x000000000010e2a9                ip_send
                0x000000000010e3b4                ipout
                0x000000000010e4a7                ip_enqueue
 .text          0x000000000010e540      0x1b2 binaries/net.o
                0x000000000010e540                net_init
                0x000000000010e637                eth_hton
                0x000000000010e644                eth_ntoh
                0x000000000010e651                netin
 .text          0x000000000010e6f2       0xb9 binaries/netstart.o
                0x000000000010e6f2                netstart
 .text          0x000000000010e7ab      0xa30 binaries/pdump.o
                0x000000000010e7ab                pdump
                0x000000000010ed90                pdumph
 .text          0x000000000010f1db      0x5b8 binaries/tftp.o
                0x000000000010f1db                tftp_send1
                0x000000000010f2ef                tftpget_mb
                0x000000000010f770                tftpget
 .text          0x000000000010f793      0xa17 binaries/udp.o
                0x000000000010f793                udp_init
                0x000000000010f7d4                udp_in
                0x000000000010f8fd                udp_register
                0x000000000010fa0e                udp_recv
                0x000000000010fba7                udp_recvaddr
                0x000000000010fd54                udp_send
                0x000000000010ff02                udp_sendto
                0x000000000011006b                udp_release
                0x000000000011017c                udp_ntoh
                0x0000000000110193                udp_hton
 .text          0x00000000001101aa      0x11b binaries/addargs.o
                0x00000000001101aa                addargs
 .text          0x00000000001102c5      0x1db binaries/lexan.o
                0x00000000001102c5                lexan
 .text          0x00000000001104a0      0x656 binaries/shell.o
                0x00000000001104a0                shell
 .text          0x0000000000110af6       0x59 binaries/xsh_argecho.o
                0x0000000000110af6                xsh_argecho
 .text          0x0000000000110b4f      0x1fb binaries/xsh_arp.o
                0x0000000000110b4f                xsh_arp
 .text          0x0000000000110d4a      0x1e1 binaries/xsh_cat.o
                0x0000000000110d4a                xsh_cat
 .text          0x0000000000110f2b       0x50 binaries/xsh_clear.o
                0x0000000000110f2b                xsh_clear
 .text          0x0000000000110f7b      0x27d binaries/xsh_date.o
                0x0000000000110f7b                xsh_date
 .text          0x00000000001111f8       0x81 binaries/xsh_devdump.o
                0x00000000001111f8                xsh_devdump
 .text          0x0000000000111279       0x63 binaries/xsh_echo.o
                0x0000000000111279                xsh_echo
 .text          0x00000000001112dc        0xa binaries/xsh_exit.o
                0x00000000001112dc                xsh_exit
 .text          0x00000000001112e6      0x325 binaries/xsh_help.o
                0x00000000001112e6                xsh_help
 .text          0x000000000011160b      0x36b binaries/xsh_ipaddr.o
                0x000000000011160b                xsh_ipaddr
 .text          0x0000000000111976      0x1b6 binaries/xsh_kill.o
                0x0000000000111976                xsh_kill
 .text          0x0000000000111b2c      0x3c3 binaries/xsh_memdump.o
                0x0000000000111bf2                xsh_memdump
 .text          0x0000000000111eef      0x1ce binaries/xsh_memstat.o
                0x0000000000111eef                xsh_memstat
 .text          0x00000000001120bd      0x287 binaries/xsh_ping.o
                0x00000000001120bd                xsh_ping
 .text          0x0000000000112344      0x1ab binaries/xsh_ps.o
                0x0000000000112344                xsh_ps
 .text          0x00000000001124ef      0x1a8 binaries/xsh_sleep.o
                0x00000000001124ef                xsh_sleep
 .text          0x0000000000112697      0x1c5 binaries/xsh_udpdump.o
                0x0000000000112697                xsh_udpdump
 .text          0x000000000011285c      0x3b7 binaries/xsh_udpecho.o
                0x000000000011285c                xsh_udpecho
 .text          0x0000000000112c13      0x202 binaries/xsh_udpeserver.o
                0x0000000000112c13                xsh_udpeserver
 .text          0x0000000000112e15      0x1b2 binaries/xsh_uptime.o
                0x0000000000112e15                xsh_uptime
 .text          0x0000000000112fc7        0xe binaries/clkdisp.o
                0x0000000000112fc7                clkdisp
 .text          0x0000000000112fd5       0x19 binaries/ctxsw.o
                0x0000000000112fd5                ctxsw
 .text          0x0000000000112fee        0xa binaries/host2netla.o
                0x0000000000112fee                host2netla
 *fill*         0x0000000000112ff8        0x8 
 .text          0x0000000000113000       0x25 binaries/host2netlc.o
                0x0000000000113000                host2netlc
 .text.unlikely
                0x0000000000113025        0x0 binaries/host2netlc.o
 .text          0x0000000000113025      0x376 binaries/intr.o
                0x0000000000113025                disable
                0x000000000011302e                restore
                0x000000000011303c                enable
                0x000000000011303e                pause
                0x0000000000113045                idle
                0x0000000000113050                halt
                0x0000000000113056                spurious_irq7
                0x000000000011305b                spurious_irq15
                0x000000000011306a                _Xint0
                0x0000000000113075                _Xint1
                0x0000000000113080                _Xint2
                0x000000000011308b                _Xint3
                0x0000000000113096                _Xint4
                0x00000000001130a1                _Xint5
                0x00000000001130ac                _Xint6
                0x00000000001130b7                _Xint7
                0x00000000001130c2                _Xint8
                0x00000000001130cd                _Xint9
                0x00000000001130d8                _Xint10
                0x00000000001130e3                _Xint11
                0x00000000001130f1                _Xint12
                0x00000000001130ff                _Xint13
                0x000000000011310d                _Xint14
                0x000000000011311b                _Xint15
                0x0000000000113129                _Xint16
                0x0000000000113137                _Xint17
                0x0000000000113145                _Xint18
                0x0000000000113153                _Xint19
                0x0000000000113161                _Xint20
                0x000000000011316f                _Xint21
                0x000000000011317d                _Xint22
                0x000000000011318b                _Xint23
                0x0000000000113199                _Xint24
                0x00000000001131a7                _Xint25
                0x00000000001131b5                _Xint26
                0x00000000001131c3                _Xint27
                0x00000000001131d1                _Xint28
                0x00000000001131df                _Xint29
                0x00000000001131ed                _Xint30
                0x00000000001131fb                _Xint31
                0x0000000000113209                _Xint32
                0x0000000000113217                _Xint33
                0x0000000000113225                _Xint34
                0x0000000000113233                _Xint35
                0x0000000000113241                _Xint36
                0x000000000011324f                _Xint37
                0x000000000011325d                _Xint38
                0x000000000011326b                _Xint39
                0x0000000000113279                _Xint40
                0x0000000000113287                _Xint41
                0x0000000000113295                _Xint42
                0x00000000001132a3                _Xint43
                0x00000000001132b1                _Xint44
                0x00000000001132bf                _Xint45
                0x00000000001132cd                _Xint46
                0x00000000001132db                defevec
 .text          0x000000000011339b        0xf binaries/ttydispatch.o
                0x000000000011339b                ttydispatch
 .text          0x00000000001133aa       0x13 binaries/ethdispatch.o
                0x00000000001133aa                ethdispatch
 *(.rodata .rodata.*)
 .rodata.str1.1
                0x00000000001133bd       0x17 binaries/app1.o
 .rodata.str1.1
                0x00000000001133d4        0x5 binaries/app2.o
                                         0x1c (size before relaxing)
 *fill*         0x00000000001133d9        0x3 
 .rodata.str1.4
                0x00000000001133dc       0x2d binaries/app2.o
 *fill*         0x0000000000113409        0x3 
 .rodata.str1.4
                0x000000000011340c       0x4a binaries/app3.o
 .rodata.str1.1
                0x0000000000113456       0x29 binaries/app3.o
 .rodata.str1.1
                0x000000000011347f       0x54 binaries/ascdate.o
 *fill*         0x00000000001134d3        0x1 
 .rodata.str1.4
                0x00000000001134d4       0x22 binaries/ascdate.o
 *fill*         0x00000000001134f6        0x2 
 .rodata        0x00000000001134f8        0x4 binaries/clkhandler.o
                0x00000000001134f8                MAX_UINT32
 .rodata.str1.1
                0x00000000001134fc       0x5f binaries/conf.o
 *fill*         0x000000000011355b        0x1 
 .rodata.str1.4
                0x000000000011355c      0x134 binaries/cpubound.o
 .rodata.str1.1
                0x0000000000113690        0x7 binaries/create.o
 *fill*         0x0000000000113697        0x1 
 .rodata.str1.4
                0x0000000000113698       0x4f binaries/early_imr.o
 *fill*         0x00000000001136e7        0x1 
 .rodata        0x00000000001136e8       0x33 binaries/early_imr.o
 .rodata.str1.1
                0x000000000011371b      0x20c binaries/evec.o
 *fill*         0x0000000000113927        0x1 
 .rodata.str1.4
                0x0000000000113928       0x23 binaries/evec.o
 .rodata.str1.1
                0x000000000011394b        0xb binaries/getutime.o
 *fill*         0x0000000000113956        0x2 
 .rodata.str1.4
                0x0000000000113958       0x54 binaries/getutime.o
 .rodata.str1.1
                0x00000000001139ac       0x64 binaries/initialize.o
                                         0x6f (size before relaxing)
 .rodata.str1.4
                0x0000000000113a10      0x168 binaries/initialize.o
 .rodata        0x0000000000113b78        0x4 binaries/initialize.o
                0x0000000000113b78                MAX_INT32
 .rodata.str1.1
                0x0000000000113b7c       0x18 binaries/insert.o
 .rodata.str1.4
                0x0000000000113b94       0x80 binaries/iobound.o
 .rodata        0x0000000000113b94       0x20 binaries/kill.o
 .rodata.str1.1
                0x0000000000113bb4       0x7a binaries/lab2q3.o
 *fill*         0x0000000000113c2e        0x2 
 .rodata.str1.4
                0x0000000000113c30      0x23b binaries/lab2q3.o
 .rodata.str1.1
                0x0000000000113e6b       0x7e binaries/lab2q4.o
                                         0xf8 (size before relaxing)
 *fill*         0x0000000000113ee9        0x3 
 .rodata.str1.4
                0x0000000000113eec      0x1fb binaries/lab2q4.o
                                        0x28f (size before relaxing)
 .rodata.str1.1
                0x00000000001140e7       0x42 binaries/lab2q5.o
 .rodata.str1.1
                0x00000000001140e7       0x57 binaries/main.o
                                         0x5f (size before relaxing)
 *fill*         0x000000000011413e        0x2 
 .rodata.str1.4
                0x0000000000114140       0xc3 binaries/main.o
 *fill*         0x0000000000114203        0x1 
 .rodata.str1.4
                0x0000000000114204       0x23 binaries/meminit.o
 .rodata.str1.1
                0x0000000000114227       0x1b binaries/meminit.o
 *fill*         0x0000000000114242        0x2 
 .rodata.str1.4
                0x0000000000114244       0x1f binaries/multilevelfbq.o
 *fill*         0x0000000000114263        0x1 
 .rodata.str1.4
                0x0000000000114264      0x103 binaries/myappA.o
 *fill*         0x0000000000114367        0x1 
 .rodata.str1.4
                0x0000000000114368       0x57 binaries/myfuncA.o
 *fill*         0x00000000001143bf        0x1 
 .rodata.str1.4
                0x00000000001143c0       0x4c binaries/myhacker.o
 .rodata.str1.1
                0x000000000011440c       0x1b binaries/myqueue.o
                                         0x2f (size before relaxing)
 *fill*         0x0000000000114427        0x1 
 .rodata.str1.4
                0x0000000000114428      0x178 binaries/myvictim.o
 .rodata.str1.4
                0x00000000001145a0      0x19b binaries/mywelcomemsg.o
 .rodata.str1.1
                0x000000000011473b       0x16 binaries/mywelcomemsg.o
 .rodata.str1.1
                0x0000000000114751        0xf binaries/panic.o
 .rodata.str1.4
                0x0000000000114760       0xe1 binaries/printsegaddr.o
 .rodata.str1.1
                0x0000000000114841       0x94 binaries/process_state.o
                                         0xce (size before relaxing)
 *fill*         0x00000000001148d5        0x3 
 .rodata.str1.4
                0x00000000001148d8       0x97 binaries/process_state.o
 *fill*         0x000000000011496f       0x11 
 .rodata        0x0000000000114980      0x1b0 binaries/process_state.o
 .rodata.str1.1
                0x0000000000114b30       0x1c binaries/ptinit.o
 .rodata.str1.4
                0x0000000000114b4c       0x25 binaries/ptsend.o
 .rodata.str1.1
                0x0000000000114b71       0x22 binaries/quark_pdat.o
 .rodata.str1.1
                0x0000000000114b93       0x2f binaries/queue.o
 .rodata.str1.1
                0x0000000000114b93       0x51 binaries/receivebt.o
 .rodata.str1.1
                0x0000000000114be4       0x1d binaries/sendbt.o
 *fill*         0x0000000000114c01        0x3 
 .rodata.str1.4
                0x0000000000114c04       0x7b binaries/sendbt.o
 *fill*         0x0000000000114c7f        0x1 
 .rodata.str1.4
                0x0000000000114c80       0x58 binaries/stackdepth.o
 .rodata.str1.1
                0x0000000000114cd8       0x18 binaries/stackdepth.o
                                         0x1b (size before relaxing)
 .rodata.str1.4
                0x0000000000114cf0       0x63 binaries/stacktrace.o
 .rodata.str1.1
                0x0000000000114d53       0x52 binaries/stacktrace.o
 .rodata.str1.1
                0x0000000000114da5       0x1c binaries/teststackdepth.o
 *fill*         0x0000000000114dc1        0x3 
 .rodata.str1.4
                0x0000000000114dc4       0x27 binaries/xdone.o
 *fill*         0x0000000000114deb       0x15 
 .rodata        0x0000000000114e00       0x81 binaries/ctype_.o
                0x0000000000114e00                _ctype_
 .rodata.str1.1
                0x0000000000114e81       0x29 binaries/doprnt.o
 *fill*         0x0000000000114eaa        0x2 
 .rodata        0x0000000000114eac       0xc4 binaries/doprnt.o
 .rodata        0x0000000000114f70       0x98 binaries/doscan.o
 .rodata.str1.1
                0x0000000000115008       0x29 binaries/fdoprnt.o
 .rodata        0x0000000000115008       0x84 binaries/fdoprnt.o
 .rodata        0x000000000011508c       0x20 binaries/ttycontrol.o
 .rodata.str1.4
                0x00000000001150ac       0x4c binaries/naminit.o
 .rodata.str1.1
                0x00000000001150f8       0x32 binaries/naminit.o
                                         0x35 (size before relaxing)
 .rodata.str1.1
                0x000000000011512a       0x15 binaries/ethinit.o
 *fill*         0x000000000011513f        0x1 
 .rodata.str1.4
                0x0000000000115140       0x2e binaries/ethinit.o
 *fill*         0x000000000011516e        0x2 
 .rodata.str1.4
                0x0000000000115170       0x2c binaries/rdsbufalloc.o
 .rodata.str1.4
                0x000000000011519c       0x76 binaries/rdscomm.o
 *fill*         0x0000000000115212        0x2 
 .rodata.str1.4
                0x0000000000115214       0x48 binaries/rdscontrol.o
 .rodata.str1.4
                0x000000000011525c       0x7e binaries/rdsinit.o
 .rodata.str1.1
                0x00000000001152da       0x18 binaries/rdsinit.o
 *fill*         0x00000000001152f2        0x2 
 .rodata.str1.4
                0x00000000001152f4       0x22 binaries/rdsopen.o
 *fill*         0x0000000000115316        0x2 
 .rodata.str1.4
                0x0000000000115318       0x4d binaries/rdsprocess.o
 .rodata.str1.1
                0x0000000000115365        0x9 binaries/raminit.o
 .rodata.str1.1
                0x000000000011536e       0x13 binaries/lfdballoc.o
 *fill*         0x0000000000115381        0x3 
 .rodata.str1.4
                0x0000000000115384       0x23 binaries/lfdballoc.o
 .rodata.str1.1
                0x00000000001153a7       0x14 binaries/lfiballoc.o
 *fill*         0x00000000001153bb        0x1 
 .rodata.str1.4
                0x00000000001153bc       0x23 binaries/lflcontrol.o
 .rodata.str1.1
                0x00000000001153df       0x64 binaries/lfsckfmt.o
 *fill*         0x0000000000115443        0x1 
 .rodata.str1.4
                0x0000000000115444       0x51 binaries/lfsckfmt.o
 *fill*         0x0000000000115495        0x3 
 .rodata.str1.4
                0x0000000000115498       0x21 binaries/rflread.o
 .rodata.str1.4
                0x00000000001154b9       0x21 binaries/rflwrite.o
 *fill*         0x00000000001154b9        0x3 
 .rodata.str1.4
                0x00000000001154bc       0x75 binaries/rfscomm.o
 *fill*         0x0000000000115531        0x3 
 .rodata.str1.4
                0x0000000000115534       0x23 binaries/rfscontrol.o
 *fill*         0x0000000000115557        0x1 
 .rodata        0x0000000000115558       0x18 binaries/rfscontrol.o
 .rodata.str1.1
                0x0000000000115570       0x10 binaries/rfsinit.o
 .rodata.str1.4
                0x0000000000115570       0x57 binaries/rfsinit.o
 *fill*         0x00000000001155c7        0x1 
 .rodata.str1.4
                0x00000000001155c8       0x2a binaries/rfsndmsg.o
 .rodata.str1.4
                0x00000000001155f2       0x22 binaries/rfsopen.o
 .rodata.str1.1
                0x00000000001155f2       0x19 binaries/arp.o
 *fill*         0x000000000011560b        0x1 
 .rodata.str1.4
                0x000000000011560c       0x21 binaries/arp.o
 *fill*         0x000000000011562d        0x3 
 .rodata.str1.4
                0x0000000000115630       0xa6 binaries/dhcp.o
 .rodata.str1.1
                0x00000000001156d6       0x4a binaries/dhcp.o
 .rodata.str1.1
                0x0000000000115720       0x5a binaries/hexdump.o
                                         0x61 (size before relaxing)
 *fill*         0x000000000011577a        0x2 
 .rodata.str1.4
                0x000000000011577c       0x67 binaries/hexdump.o
 *fill*         0x00000000001157e3        0x1 
 .rodata.str1.4
                0x00000000001157e4       0x29 binaries/icmp.o
 .rodata.str1.1
                0x000000000011580d       0x4e binaries/ip.o
 *fill*         0x000000000011585b        0x1 
 .rodata.str1.4
                0x000000000011585c       0x20 binaries/ip.o
 .rodata.str1.4
                0x000000000011587c       0x28 binaries/net.o
 .rodata.str1.1
                0x00000000001158a4       0x27 binaries/net.o
 *fill*         0x00000000001158cb        0x1 
 .rodata.str1.4
                0x00000000001158cc       0xcf binaries/netstart.o
 .rodata.str1.1
                0x000000000011599b      0x141 binaries/pdump.o
                                        0x14b (size before relaxing)
 .rodata.str1.4
                0x0000000000115adc      0x126 binaries/pdump.o
 *fill*         0x0000000000115c02        0x2 
 .rodata.str1.4
                0x0000000000115c04      0x148 binaries/tftp.o
 .rodata.str1.1
                0x0000000000115d4c        0x6 binaries/tftp.o
                                          0xa (size before relaxing)
 .rodata.str1.1
                0x0000000000115d52       0xdd binaries/shell.o
                                         0xff (size before relaxing)
 *fill*         0x0000000000115e2f        0x1 
 .rodata.str1.4
                0x0000000000115e30      0x1e8 binaries/shell.o
 *fill*         0x0000000000116018        0x8 
 .rodata        0x0000000000116020       0xfc binaries/shell.o
                0x0000000000116020                cmdtab
 .rodata.str1.1
                0x000000000011611c       0x26 binaries/xsh_argecho.o
                                         0x28 (size before relaxing)
 .rodata.str1.1
                0x0000000000116142       0x70 binaries/xsh_arp.o
                                         0x72 (size before relaxing)
 *fill*         0x00000000001161b2        0x2 
 .rodata.str1.4
                0x00000000001161b4       0xb4 binaries/xsh_arp.o
 .rodata.str1.1
                0x0000000000116268       0x2d binaries/xsh_cat.o
                                         0x4f (size before relaxing)
 *fill*         0x0000000000116295        0x3 
 .rodata.str1.4
                0x0000000000116298       0x52 binaries/xsh_cat.o
                                         0x79 (size before relaxing)
 .rodata.str1.1
                0x00000000001162ea       0x15 binaries/xsh_clear.o
 .rodata.str1.1
                0x00000000001162ff       0x46 binaries/xsh_date.o
                                         0x5f (size before relaxing)
 *fill*         0x0000000000116345        0x3 
 .rodata.str1.4
                0x0000000000116348      0x163 binaries/xsh_date.o
 .rodata.str1.1
                0x00000000001164ab       0x5d binaries/xsh_devdump.o
 .rodata.str1.1
                0x0000000000116508        0x4 binaries/xsh_echo.o
                                          0x9 (size before relaxing)
 .rodata.str1.1
                0x000000000011650c       0x65 binaries/xsh_help.o
                                         0xa3 (size before relaxing)
 *fill*         0x0000000000116571        0x3 
 .rodata.str1.4
                0x0000000000116574       0x7c binaries/xsh_help.o
                                         0xc6 (size before relaxing)
 .rodata.str1.1
                0x00000000001165f0       0x9c binaries/xsh_ipaddr.o
                                         0xf8 (size before relaxing)
 .rodata.str1.4
                0x000000000011668c       0x4d binaries/xsh_ipaddr.o
                                         0x99 (size before relaxing)
 .rodata.str1.1
                0x00000000001166d9       0x78 binaries/xsh_kill.o
                                         0x97 (size before relaxing)
 *fill*         0x0000000000116751        0x3 
 .rodata.str1.4
                0x0000000000116754       0x4a binaries/xsh_kill.o
                                         0x96 (size before relaxing)
 .rodata.str1.1
                0x000000000011679e       0x84 binaries/xsh_memdump.o
                                         0xa8 (size before relaxing)
 *fill*         0x0000000000116822        0x2 
 .rodata.str1.4
                0x0000000000116824      0x15a binaries/xsh_memdump.o
                                        0x1aa (size before relaxing)
 .rodata.str1.1
                0x000000000011697e       0x40 binaries/xsh_memstat.o
                                         0x79 (size before relaxing)
 *fill*         0x00000000001169be        0x2 
 .rodata.str1.4
                0x00000000001169c0      0x187 binaries/xsh_memstat.o
                                        0x1af (size before relaxing)
 .rodata.str1.1
                0x0000000000116b47       0x90 binaries/xsh_ping.o
                                         0xaf (size before relaxing)
 *fill*         0x0000000000116bd7        0x1 
 .rodata.str1.4
                0x0000000000116bd8       0x77 binaries/xsh_ping.o
                                         0xc6 (size before relaxing)
 .rodata.str1.1
                0x0000000000116c4f        0x9 binaries/xsh_ps.o
                                         0xde (size before relaxing)
 .rodata.str1.4
                0x0000000000116c58       0x88 binaries/xsh_ps.o
                                         0xd8 (size before relaxing)
 .rodata        0x0000000000116ce0       0x20 binaries/xsh_ps.o
 .rodata.str1.1
                0x0000000000116d00       0x31 binaries/xsh_sleep.o
                                         0x72 (size before relaxing)
 *fill*         0x0000000000116d31        0x3 
 .rodata.str1.4
                0x0000000000116d34       0x2a binaries/xsh_sleep.o
                                         0x7a (size before relaxing)
 .rodata.str1.1
                0x0000000000116d5e       0x6b binaries/xsh_udpdump.o
                                         0xd2 (size before relaxing)
 *fill*         0x0000000000116dc9        0x3 
 .rodata.str1.4
                0x0000000000116dcc       0x94 binaries/xsh_udpdump.o
                                         0xe4 (size before relaxing)
 .rodata.str1.1
                0x0000000000116e60       0xdb binaries/xsh_udpecho.o
                                         0xfa (size before relaxing)
 *fill*         0x0000000000116f3b        0x1 
 .rodata.str1.4
                0x0000000000116f3c       0xc7 binaries/xsh_udpecho.o
                                        0x116 (size before relaxing)
 .rodata.str1.1
                0x0000000000117003       0x66 binaries/xsh_udpeserver.o
                                         0x8f (size before relaxing)
 *fill*         0x0000000000117069        0x3 
 .rodata.str1.4
                0x000000000011706c       0x29 binaries/xsh_udpeserver.o
                                         0x9f (size before relaxing)
 .rodata.str1.1
                0x0000000000117095       0x49 binaries/xsh_uptime.o
                                         0x8c (size before relaxing)
 *fill*         0x00000000001170de        0x2 
 .rodata.str1.4
                0x00000000001170e0       0x28 binaries/xsh_uptime.o
                                         0x76 (size before relaxing)
                0x0000000000117108                etext = ABSOLUTE (.)
                0x0000000000118000                . = ALIGN (0x1000)
 *fill*         0x0000000000117108      0xef8 

.eh_frame       0x0000000000118000     0x37c8
 .eh_frame      0x0000000000118000       0x3c binaries/app1.o
 .eh_frame      0x000000000011803c       0x28 binaries/app2.o
                                         0x40 (size before relaxing)
 .eh_frame      0x0000000000118064       0x24 binaries/app3.o
                                         0x3c (size before relaxing)
 .eh_frame      0x0000000000118088       0x30 binaries/ascdate.o
                                         0x48 (size before relaxing)
 .eh_frame      0x00000000001180b8       0x20 binaries/bufinit.o
                                         0x38 (size before relaxing)
 .eh_frame      0x00000000001180d8       0x2c binaries/chprio.o
                                         0x44 (size before relaxing)
 .eh_frame      0x0000000000118104       0x20 binaries/clkhandler.o
                                         0x38 (size before relaxing)
 .eh_frame      0x0000000000118124       0x20 binaries/clkinit.o
                                         0x38 (size before relaxing)
 .eh_frame      0x0000000000118144       0x28 binaries/close.o
                                         0x40 (size before relaxing)
 .eh_frame      0x000000000011816c       0x28 binaries/control.o
                                         0x40 (size before relaxing)
 .eh_frame      0x0000000000118194       0x30 binaries/cpubound.o
                                         0x48 (size before relaxing)
 .eh_frame      0x00000000001181c4       0x30 binaries/create.o
                                         0x48 (size before relaxing)
 .eh_frame      0x00000000001181f4       0x94 binaries/early_imr.o
                                         0xac (size before relaxing)
 .eh_frame      0x0000000000118288       0x94 binaries/evec.o
                                         0xac (size before relaxing)
 .eh_frame      0x000000000011831c       0x24 binaries/factorial.o
                                         0x3c (size before relaxing)
 .eh_frame      0x0000000000118340       0x2c binaries/freebuf.o
                                         0x44 (size before relaxing)
 .eh_frame      0x000000000011836c       0x2c binaries/freemem.o
                                         0x44 (size before relaxing)
 .eh_frame      0x0000000000118398       0x2c binaries/getbuf.o
                                         0x44 (size before relaxing)
 .eh_frame      0x00000000001183c4       0x28 binaries/getc.o
                                         0x40 (size before relaxing)
 .eh_frame      0x00000000001183ec       0x2c binaries/getdev.o
                                         0x44 (size before relaxing)
 .eh_frame      0x0000000000118418       0xc8 binaries/getitem.o
                                         0xe0 (size before relaxing)
 .eh_frame      0x00000000001184e0       0x28 binaries/getmem.o
                                         0x40 (size before relaxing)
 .eh_frame      0x0000000000118508       0x20 binaries/getpid.o
                                         0x38 (size before relaxing)
 .eh_frame      0x0000000000118528       0x20 binaries/getpname.o
                                         0x38 (size before relaxing)
 .eh_frame      0x0000000000118548       0x20 binaries/getppid.o
                                         0x38 (size before relaxing)
 .eh_frame      0x0000000000118568       0x24 binaries/getprio.o
                                         0x3c (size before relaxing)
 .eh_frame      0x000000000011858c       0x2c binaries/getstk.o
                                         0x44 (size before relaxing)
 .eh_frame      0x00000000001185b8       0x20 binaries/gettime.o
                                         0x38 (size before relaxing)
 .eh_frame      0x00000000001185d8       0x24 binaries/getutime.o
                                         0x3c (size before relaxing)
 .eh_frame      0x00000000001185fc       0x20 binaries/host2netlb.o
                                         0x38 (size before relaxing)
 .eh_frame      0x000000000011861c       0x28 binaries/init.o
                                         0x40 (size before relaxing)
 .eh_frame      0x0000000000118644       0x68 binaries/initialize.o
                                         0x80 (size before relaxing)
 .eh_frame      0x00000000001186ac       0x28 binaries/insert.o
                                         0x40 (size before relaxing)
 .eh_frame      0x00000000001186d4       0x2c binaries/insertd.o
                                         0x44 (size before relaxing)
 .eh_frame      0x0000000000118700       0x2c binaries/iobound.o
                                         0x44 (size before relaxing)
 .eh_frame      0x000000000011872c       0x20 binaries/ioerr.o
                                         0x38 (size before relaxing)
 .eh_frame      0x000000000011874c       0x20 binaries/ionull.o
                                         0x38 (size before relaxing)
 .eh_frame      0x000000000011876c       0x30 binaries/kill.o
                                         0x48 (size before relaxing)
 .eh_frame      0x000000000011879c       0x80 binaries/kprintf.o
                                         0x98 (size before relaxing)
 .eh_frame      0x000000000011881c      0x108 binaries/lab2q3.o
                                        0x120 (size before relaxing)
 .eh_frame      0x0000000000118924      0x114 binaries/lab2q4.o
                                        0x12c (size before relaxing)
 .eh_frame      0x0000000000118a38       0x30 binaries/lab2q5.o
                                         0x48 (size before relaxing)
 .eh_frame      0x0000000000118a68       0x70 binaries/main.o
                                         0x88 (size before relaxing)
 .eh_frame      0x0000000000118ad8       0x44 binaries/mark.o
                                         0x5c (size before relaxing)
 .eh_frame      0x0000000000118b1c       0x50 binaries/meminit.o
                                         0x68 (size before relaxing)
 .eh_frame      0x0000000000118b6c       0x30 binaries/mkbufpool.o
                                         0x48 (size before relaxing)
 .eh_frame      0x0000000000118b9c       0x44 binaries/multilevelfbq.o
                                         0x5c (size before relaxing)
 .eh_frame      0x0000000000118be0       0x2c binaries/myappA.o
                                         0x44 (size before relaxing)
 .eh_frame      0x0000000000118c0c       0x20 binaries/myfuncA.o
                                         0x38 (size before relaxing)
 .eh_frame      0x0000000000118c2c       0x64 binaries/myhacker.o
                                         0x7c (size before relaxing)
 .eh_frame      0x0000000000118c90       0x74 binaries/myqueue.o
                                         0x8c (size before relaxing)
 .eh_frame      0x0000000000118d04       0x60 binaries/myvictim.o
                                         0x78 (size before relaxing)
 .eh_frame      0x0000000000118d64       0x20 binaries/mywelcomemsg.o
                                         0x38 (size before relaxing)
 .eh_frame      0x0000000000118d84       0x40 binaries/newqueue.o
                                         0x58 (size before relaxing)
 .eh_frame      0x0000000000118dc4       0x28 binaries/open.o
                                         0x40 (size before relaxing)
 .eh_frame      0x0000000000118dec       0x1c binaries/panic.o
                                         0x34 (size before relaxing)
 .eh_frame      0x0000000000118e08      0x12c binaries/pci.o
                                        0x144 (size before relaxing)
 .eh_frame      0x0000000000118f34       0x20 binaries/platinit.o
                                         0x38 (size before relaxing)
 .eh_frame      0x0000000000118f54       0x20 binaries/printsegaddr.o
                                         0x38 (size before relaxing)
 .eh_frame      0x0000000000118f74       0x30 binaries/process_state.o
                                         0x48 (size before relaxing)
 .eh_frame      0x0000000000118fa4       0x2c binaries/ptclear.o
                                         0x44 (size before relaxing)
 .eh_frame      0x0000000000118fd0       0x2c binaries/ptcount.o
                                         0x44 (size before relaxing)
 .eh_frame      0x0000000000118ffc       0x2c binaries/ptcreate.o
                                         0x44 (size before relaxing)
 .eh_frame      0x0000000000119028       0x28 binaries/ptdelete.o
                                         0x40 (size before relaxing)
 .eh_frame      0x0000000000119050       0x28 binaries/ptinit.o
                                         0x40 (size before relaxing)
 .eh_frame      0x0000000000119078       0x2c binaries/ptrecv.o
                                         0x44 (size before relaxing)
 .eh_frame      0x00000000001190a4       0x28 binaries/ptreset.o
                                         0x40 (size before relaxing)
 .eh_frame      0x00000000001190cc       0x30 binaries/ptsend.o
                                         0x48 (size before relaxing)
 .eh_frame      0x00000000001190fc       0x2c binaries/putc.o
                                         0x44 (size before relaxing)
 .eh_frame      0x0000000000119128       0x24 binaries/quark_irq.o
                                         0x3c (size before relaxing)
 .eh_frame      0x000000000011914c       0x54 binaries/quark_pdat.o
                                         0x6c (size before relaxing)
 .eh_frame      0x00000000001191a0       0x74 binaries/queue.o
                                         0x8c (size before relaxing)
 .eh_frame      0x0000000000119214       0x28 binaries/read.o
                                         0x40 (size before relaxing)
 .eh_frame      0x000000000011923c       0x20 binaries/ready.o
                                         0x38 (size before relaxing)
 .eh_frame      0x000000000011925c       0x2c binaries/receive.o
                                         0x44 (size before relaxing)
 .eh_frame      0x0000000000119288       0x30 binaries/receivebt.o
                                         0x48 (size before relaxing)
 .eh_frame      0x00000000001192b8       0x24 binaries/recvclr.o
                                         0x3c (size before relaxing)
 .eh_frame      0x00000000001192dc       0x2c binaries/recvtime.o
                                         0x44 (size before relaxing)
 .eh_frame      0x0000000000119308      0x104 binaries/resched.o
                                        0x11c (size before relaxing)
 .eh_frame      0x000000000011940c       0x2c binaries/resume.o
                                         0x44 (size before relaxing)
 .eh_frame      0x0000000000119438       0x28 binaries/seek.o
                                         0x40 (size before relaxing)
 .eh_frame      0x0000000000119460       0x24 binaries/semcount.o
                                         0x3c (size before relaxing)
 .eh_frame      0x0000000000119484       0x2c binaries/semcreate.o
                                         0x44 (size before relaxing)
 .eh_frame      0x00000000001194b0       0x2c binaries/semdelete.o
                                         0x44 (size before relaxing)
 .eh_frame      0x00000000001194dc       0x2c binaries/semreset.o
                                         0x44 (size before relaxing)
 .eh_frame      0x0000000000119508       0x28 binaries/send.o
                                         0x40 (size before relaxing)
 .eh_frame      0x0000000000119530       0x30 binaries/sendbt.o
                                         0x48 (size before relaxing)
 .eh_frame      0x0000000000119560       0x28 binaries/signal.o
                                         0x40 (size before relaxing)
 .eh_frame      0x0000000000119588       0x2c binaries/signaln.o
                                         0x44 (size before relaxing)
 .eh_frame      0x00000000001195b4       0x48 binaries/sleep.o
                                         0x60 (size before relaxing)
 .eh_frame      0x00000000001195fc       0x2c binaries/stackdepth.o
                                         0x44 (size before relaxing)
 .eh_frame      0x0000000000119628       0x30 binaries/stacktrace.o
                                         0x48 (size before relaxing)
 .eh_frame      0x0000000000119658       0x28 binaries/suspend.o
                                         0x40 (size before relaxing)
 .eh_frame      0x0000000000119680       0x20 binaries/teststackdepth.o
                                         0x38 (size before relaxing)
 .eh_frame      0x00000000001196a0       0x28 binaries/unsleep.o
                                         0x40 (size before relaxing)
 .eh_frame      0x00000000001196c8       0x20 binaries/userret.o
                                         0x38 (size before relaxing)
 .eh_frame      0x00000000001196e8       0x28 binaries/wait.o
                                         0x40 (size before relaxing)
 .eh_frame      0x0000000000119710       0x20 binaries/wakeup.o
                                         0x38 (size before relaxing)
 .eh_frame      0x0000000000119730       0x28 binaries/write.o
                                         0x40 (size before relaxing)
 .eh_frame      0x0000000000119758       0x20 binaries/xdone.o
                                         0x38 (size before relaxing)
 .eh_frame      0x0000000000119778       0x24 binaries/yield.o
                                         0x3c (size before relaxing)
 .eh_frame      0x000000000011979c       0x20 binaries/abs.o
                                         0x38 (size before relaxing)
 .eh_frame      0x00000000001197bc       0x28 binaries/atoi.o
                                         0x40 (size before relaxing)
 .eh_frame      0x00000000001197e4       0x28 binaries/atol.o
                                         0x40 (size before relaxing)
 .eh_frame      0x000000000011980c       0x20 binaries/bzero.o
                                         0x38 (size before relaxing)
 .eh_frame      0x000000000011982c       0xac binaries/doprnt.o
                                         0xc4 (size before relaxing)
 .eh_frame      0x00000000001198d8       0x30 binaries/doscan.o
                                         0x48 (size before relaxing)
 .eh_frame      0x0000000000119908       0x5c binaries/fdoprnt.o
                                         0x74 (size before relaxing)
 .eh_frame      0x0000000000119964       0x20 binaries/fgetc.o
                                         0x38 (size before relaxing)
 .eh_frame      0x0000000000119984       0x2c binaries/fgets.o
                                         0x44 (size before relaxing)
 .eh_frame      0x00000000001199b0       0x20 binaries/fprintf.o
                                         0x38 (size before relaxing)
 .eh_frame      0x00000000001199d0       0x20 binaries/fputc.o
                                         0x38 (size before relaxing)
 .eh_frame      0x00000000001199f0       0x28 binaries/fputs.o
                                         0x40 (size before relaxing)
 .eh_frame      0x0000000000119a18       0x64 binaries/fscanf.o
                                         0x7c (size before relaxing)
 .eh_frame      0x0000000000119a7c       0x20 binaries/getchar.o
                                         0x38 (size before relaxing)
 .eh_frame      0x0000000000119a9c       0x20 binaries/labs.o
                                         0x38 (size before relaxing)
 .eh_frame      0x0000000000119abc       0x20 binaries/memchr.o
                                         0x38 (size before relaxing)
 .eh_frame      0x0000000000119adc       0x28 binaries/memcmp.o
                                         0x40 (size before relaxing)
 .eh_frame      0x0000000000119b04       0x28 binaries/memcpy.o
                                         0x40 (size before relaxing)
 .eh_frame      0x0000000000119b2c       0x24 binaries/memset.o
                                         0x3c (size before relaxing)
 .eh_frame      0x0000000000119b50       0x20 binaries/printf.o
                                         0x38 (size before relaxing)
 .eh_frame      0x0000000000119b70       0x20 binaries/putchar.o
                                         0x38 (size before relaxing)
 .eh_frame      0x0000000000119b90       0xa4 binaries/qsort.o
                                         0xbc (size before relaxing)
 .eh_frame      0x0000000000119c34       0x40 binaries/rand.o
                                         0x58 (size before relaxing)
 .eh_frame      0x0000000000119c74       0x48 binaries/sprintf.o
                                         0x60 (size before relaxing)
 .eh_frame      0x0000000000119cbc       0x60 binaries/sscanf.o
                                         0x78 (size before relaxing)
 .eh_frame      0x0000000000119d1c       0x24 binaries/strchr.o
                                         0x3c (size before relaxing)
 .eh_frame      0x0000000000119d40       0x24 binaries/strcmp.o
                                         0x3c (size before relaxing)
 .eh_frame      0x0000000000119d64       0x20 binaries/strcpy.o
                                         0x38 (size before relaxing)
 .eh_frame      0x0000000000119d84       0x20 binaries/strlen.o
                                         0x38 (size before relaxing)
 .eh_frame      0x0000000000119da4       0x2c binaries/strncat.o
                                         0x44 (size before relaxing)
 .eh_frame      0x0000000000119dd0       0x24 binaries/strncmp.o
                                         0x3c (size before relaxing)
 .eh_frame      0x0000000000119df4       0x2c binaries/strncpy.o
                                         0x44 (size before relaxing)
 .eh_frame      0x0000000000119e20       0x24 binaries/strnlen.o
                                         0x3c (size before relaxing)
 .eh_frame      0x0000000000119e44       0x24 binaries/strrchr.o
                                         0x3c (size before relaxing)
 .eh_frame      0x0000000000119e68       0x2c binaries/strstr.o
                                         0x44 (size before relaxing)
 .eh_frame      0x0000000000119e94       0x30 binaries/ttycontrol.o
                                         0x48 (size before relaxing)
 .eh_frame      0x0000000000119ec4       0x2c binaries/ttygetc.o
                                         0x44 (size before relaxing)
 .eh_frame      0x0000000000119ef0       0x84 binaries/ttyhandle_in.o
                                         0x9c (size before relaxing)
 .eh_frame      0x0000000000119f74       0x30 binaries/ttyhandle_out.o
                                         0x48 (size before relaxing)
 .eh_frame      0x0000000000119fa4       0x28 binaries/ttyhandler.o
                                         0x40 (size before relaxing)
 .eh_frame      0x0000000000119fcc       0x30 binaries/ttyinit.o
                                         0x48 (size before relaxing)
 .eh_frame      0x0000000000119ffc       0x20 binaries/ttykickout.o
                                         0x38 (size before relaxing)
 .eh_frame      0x000000000011a01c       0x2c binaries/ttyputc.o
                                         0x44 (size before relaxing)
 .eh_frame      0x000000000011a048       0x2c binaries/ttyread.o
                                         0x44 (size before relaxing)
 .eh_frame      0x000000000011a074       0x2c binaries/ttywrite.o
                                         0x44 (size before relaxing)
 .eh_frame      0x000000000011a0a0       0x4c binaries/mount.o
                                         0x64 (size before relaxing)
 .eh_frame      0x000000000011a0ec       0x30 binaries/naminit.o
                                         0x48 (size before relaxing)
 .eh_frame      0x000000000011a11c       0x84 binaries/nammap.o
                                         0x9c (size before relaxing)
 .eh_frame      0x000000000011a1a0       0x20 binaries/namopen.o
                                         0x38 (size before relaxing)
 .eh_frame      0x000000000011a1c0       0x2c binaries/colon2mac.o
                                         0x44 (size before relaxing)
 .eh_frame      0x000000000011a1ec       0x20 binaries/ethcontrol.o
                                         0x38 (size before relaxing)
 .eh_frame      0x000000000011a20c       0x30 binaries/ethhandler.o
                                         0x48 (size before relaxing)
 .eh_frame      0x000000000011a23c       0x98 binaries/ethinit.o
                                         0xb0 (size before relaxing)
 .eh_frame      0x000000000011a2d4       0x54 binaries/ethmcast.o
                                         0x6c (size before relaxing)
 .eh_frame      0x000000000011a328       0x30 binaries/ethread.o
                                         0x48 (size before relaxing)
 .eh_frame      0x000000000011a358       0x2c binaries/ethwrite.o
                                         0x44 (size before relaxing)
 .eh_frame      0x000000000011a384       0x24 binaries/rdsbufalloc.o
                                         0x3c (size before relaxing)
 .eh_frame      0x000000000011a3a8       0x2c binaries/rdsclose.o
                                         0x44 (size before relaxing)
 .eh_frame      0x000000000011a3d4       0x30 binaries/rdscomm.o
                                         0x48 (size before relaxing)
 .eh_frame      0x000000000011a404       0x30 binaries/rdscontrol.o
                                         0x48 (size before relaxing)
 .eh_frame      0x000000000011a434       0x30 binaries/rdsinit.o
                                         0x48 (size before relaxing)
 .eh_frame      0x000000000011a464       0x30 binaries/rdsopen.o
                                         0x48 (size before relaxing)
 .eh_frame      0x000000000011a494       0x20 binaries/rdsprocess.o
                                         0x38 (size before relaxing)
 .eh_frame      0x000000000011a4b4       0x30 binaries/rdsread.o
                                         0x48 (size before relaxing)
 .eh_frame      0x000000000011a4e4       0x30 binaries/rdswrite.o
                                         0x48 (size before relaxing)
 .eh_frame      0x000000000011a514       0x20 binaries/ramclose.o
                                         0x38 (size before relaxing)
 .eh_frame      0x000000000011a534       0x20 binaries/raminit.o
                                         0x38 (size before relaxing)
 .eh_frame      0x000000000011a554       0x20 binaries/ramopen.o
                                         0x38 (size before relaxing)
 .eh_frame      0x000000000011a574       0x20 binaries/ramread.o
                                         0x38 (size before relaxing)
 .eh_frame      0x000000000011a594       0x20 binaries/ramwrite.o
                                         0x38 (size before relaxing)
 .eh_frame      0x000000000011a5b4       0x28 binaries/lfdballoc.o
                                         0x40 (size before relaxing)
 .eh_frame      0x000000000011a5dc       0x24 binaries/lfdbfree.o
                                         0x3c (size before relaxing)
 .eh_frame      0x000000000011a600       0x24 binaries/lfflush.o
                                         0x3c (size before relaxing)
 .eh_frame      0x000000000011a624       0x20 binaries/lfgetmode.o
                                         0x38 (size before relaxing)
 .eh_frame      0x000000000011a644       0x24 binaries/lfiballoc.o
                                         0x3c (size before relaxing)
 .eh_frame      0x000000000011a668       0x20 binaries/lfibclear.o
                                         0x38 (size before relaxing)
 .eh_frame      0x000000000011a688       0x2c binaries/lfibget.o
                                         0x44 (size before relaxing)
 .eh_frame      0x000000000011a6b4       0x2c binaries/lfibput.o
                                         0x44 (size before relaxing)
 .eh_frame      0x000000000011a6e0       0x28 binaries/lflclose.o
                                         0x40 (size before relaxing)
 .eh_frame      0x000000000011a708       0x2c binaries/lflcontrol.o
                                         0x44 (size before relaxing)
 .eh_frame      0x000000000011a734       0x2c binaries/lflgetc.o
                                         0x44 (size before relaxing)
 .eh_frame      0x000000000011a760       0x2c binaries/lflinit.o
                                         0x44 (size before relaxing)
 .eh_frame      0x000000000011a78c       0x30 binaries/lflputc.o
                                         0x48 (size before relaxing)
 .eh_frame      0x000000000011a7bc       0x2c binaries/lflread.o
                                         0x44 (size before relaxing)
 .eh_frame      0x000000000011a7e8       0x2c binaries/lflseek.o
                                         0x44 (size before relaxing)
 .eh_frame      0x000000000011a814       0x2c binaries/lflwrite.o
                                         0x44 (size before relaxing)
 .eh_frame      0x000000000011a840       0x30 binaries/lfsckfmt.o
                                         0x48 (size before relaxing)
 .eh_frame      0x000000000011a870       0x30 binaries/lfscreate.o
                                         0x48 (size before relaxing)
 .eh_frame      0x000000000011a8a0       0x30 binaries/lfsetup.o
                                         0x48 (size before relaxing)
 .eh_frame      0x000000000011a8d0       0x20 binaries/lfsinit.o
                                         0x38 (size before relaxing)
 .eh_frame      0x000000000011a8f0       0x30 binaries/lfsopen.o
                                         0x48 (size before relaxing)
 .eh_frame      0x000000000011a920       0x30 binaries/lftruncate.o
                                         0x48 (size before relaxing)
 .eh_frame      0x000000000011a950       0x20 binaries/rflclose.o
                                         0x38 (size before relaxing)
 .eh_frame      0x000000000011a970       0x20 binaries/rflgetc.o
                                         0x38 (size before relaxing)
 .eh_frame      0x000000000011a990       0x24 binaries/rflinit.o
                                         0x3c (size before relaxing)
 .eh_frame      0x000000000011a9b4       0x20 binaries/rflputc.o
                                         0x38 (size before relaxing)
 .eh_frame      0x000000000011a9d4       0x30 binaries/rflread.o
                                         0x48 (size before relaxing)
 .eh_frame      0x000000000011aa04       0x20 binaries/rflseek.o
                                         0x38 (size before relaxing)
 .eh_frame      0x000000000011aa24       0x30 binaries/rflwrite.o
                                         0x48 (size before relaxing)
 .eh_frame      0x000000000011aa54       0x30 binaries/rfscomm.o
                                         0x48 (size before relaxing)
 .eh_frame      0x000000000011aa84       0x2c binaries/rfscontrol.o
                                         0x44 (size before relaxing)
 .eh_frame      0x000000000011aab0       0x20 binaries/rfsgetmode.o
                                         0x38 (size before relaxing)
 .eh_frame      0x000000000011aad0       0x20 binaries/rfsinit.o
                                         0x38 (size before relaxing)
 .eh_frame      0x000000000011aaf0       0x20 binaries/rfsndmsg.o
                                         0x38 (size before relaxing)
 .eh_frame      0x000000000011ab10       0x2c binaries/rfsopen.o
                                         0x44 (size before relaxing)
 .eh_frame      0x000000000011ab3c       0xec binaries/arp.o
                                        0x104 (size before relaxing)
 .eh_frame      0x000000000011ac28       0xd0 binaries/dhcp.o
                                         0xe8 (size before relaxing)
 .eh_frame      0x000000000011acf8       0x2c binaries/dot2ip.o
                                         0x44 (size before relaxing)
 .eh_frame      0x000000000011ad24       0x60 binaries/hexdump.o
                                         0x78 (size before relaxing)
 .eh_frame      0x000000000011ad84      0x198 binaries/icmp.o
                                        0x1b0 (size before relaxing)
 .eh_frame      0x000000000011af1c      0x148 binaries/ip.o
                                        0x160 (size before relaxing)
 .eh_frame      0x000000000011b064       0x7c binaries/net.o
                                         0x94 (size before relaxing)
 .eh_frame      0x000000000011b0e0       0x24 binaries/netstart.o
                                         0x3c (size before relaxing)
 .eh_frame      0x000000000011b104       0x50 binaries/pdump.o
                                         0x68 (size before relaxing)
 .eh_frame      0x000000000011b154       0x80 binaries/tftp.o
                                         0x98 (size before relaxing)
 .eh_frame      0x000000000011b1d4      0x1b0 binaries/udp.o
                                        0x1c8 (size before relaxing)
 .eh_frame      0x000000000011b384       0x30 binaries/addargs.o
                                         0x48 (size before relaxing)
 .eh_frame      0x000000000011b3b4       0x30 binaries/lexan.o
                                         0x48 (size before relaxing)
 .eh_frame      0x000000000011b3e4       0x30 binaries/shell.o
                                         0x48 (size before relaxing)
 .eh_frame      0x000000000011b414       0x2c binaries/xsh_argecho.o
                                         0x44 (size before relaxing)
 .eh_frame      0x000000000011b440       0x30 binaries/xsh_arp.o
                                         0x48 (size before relaxing)
 .eh_frame      0x000000000011b470       0x30 binaries/xsh_cat.o
                                         0x48 (size before relaxing)
 .eh_frame      0x000000000011b4a0       0x20 binaries/xsh_clear.o
                                         0x38 (size before relaxing)
 .eh_frame      0x000000000011b4c0       0x24 binaries/xsh_date.o
                                         0x3c (size before relaxing)
 .eh_frame      0x000000000011b4e4       0x28 binaries/xsh_devdump.o
                                         0x40 (size before relaxing)
 .eh_frame      0x000000000011b50c       0x2c binaries/xsh_echo.o
                                         0x44 (size before relaxing)
 .eh_frame      0x000000000011b538       0x20 binaries/xsh_exit.o
                                         0x38 (size before relaxing)
 .eh_frame      0x000000000011b558       0x30 binaries/xsh_help.o
                                         0x48 (size before relaxing)
 .eh_frame      0x000000000011b588       0x2c binaries/xsh_ipaddr.o
                                         0x44 (size before relaxing)
 .eh_frame      0x000000000011b5b4       0x2c binaries/xsh_kill.o
                                         0x44 (size before relaxing)
 .eh_frame      0x000000000011b5e0       0x58 binaries/xsh_memdump.o
                                         0x70 (size before relaxing)
 .eh_frame      0x000000000011b638       0x30 binaries/xsh_memstat.o
                                         0x48 (size before relaxing)
 .eh_frame      0x000000000011b668       0x30 binaries/xsh_ping.o
                                         0x48 (size before relaxing)
 .eh_frame      0x000000000011b698       0x30 binaries/xsh_ps.o
                                         0x48 (size before relaxing)
 .eh_frame      0x000000000011b6c8       0x30 binaries/xsh_sleep.o
                                         0x48 (size before relaxing)
 .eh_frame      0x000000000011b6f8       0x2c binaries/xsh_udpdump.o
                                         0x44 (size before relaxing)
 .eh_frame      0x000000000011b724       0x30 binaries/xsh_udpecho.o
                                         0x48 (size before relaxing)
 .eh_frame      0x000000000011b754       0x30 binaries/xsh_udpeserver.o
                                         0x48 (size before relaxing)
 .eh_frame      0x000000000011b784       0x30 binaries/xsh_uptime.o
                                         0x48 (size before relaxing)
 .eh_frame      0x000000000011b7b4       0x14 binaries/host2netlc.o
                                         0x2c (size before relaxing)

.iplt           0x000000000011b7d0        0x0
 .iplt          0x000000000011b7d0        0x0 binaries/start.o

.rel.dyn        0x000000000011b7c8        0x0
 .rel.iplt      0x000000000011b7c8        0x0 binaries/start.o
 .rel.text      0x000000000011b7c8        0x0 binaries/start.o
 .rel.data      0x000000000011b7c8        0x0 binaries/start.o
 .rel.rodata    0x000000000011b7c8        0x0 binaries/start.o

.data           0x000000000011b7e0     0x1820
                0x000000000011b7e0                data = ABSOLUTE (.)
 *(.data .data.*)
 .data          0x000000000011b7e0      0x85a binaries/start.o
                0x000000000011b7e0                gdt
                0x000000000011b830                idt
                0x000000000011c036                cpudelay
 .data          0x000000000011c03a        0x0 binaries/app1.o
 .data          0x000000000011c03a        0x0 binaries/app2.o
 .data          0x000000000011c03a        0x0 binaries/app3.o
 *fill*         0x000000000011c03a        0x6 
 .data          0x000000000011c040       0x88 binaries/ascdate.o
                0x000000000011c040                Date
 .data          0x000000000011c0c8        0x0 binaries/bufinit.o
 .data          0x000000000011c0c8        0x0 binaries/chprio.o
 .data          0x000000000011c0c8        0x4 binaries/clkhandler.o
 .data          0x000000000011c0cc        0x0 binaries/clkinit.o
 .data          0x000000000011c0cc        0x0 binaries/close.o
 *fill*         0x000000000011c0cc       0x14 
 .data          0x000000000011c0e0      0x30c binaries/conf.o
                0x000000000011c0e0                devtab
 .data          0x000000000011c3ec        0x0 binaries/control.o
 .data          0x000000000011c3ec        0x0 binaries/cpubound.o
 .data          0x000000000011c3ec        0x4 binaries/create.o
 .data          0x000000000011c3f0        0x0 binaries/early_imr.o
 *fill*         0x000000000011c3f0       0x10 
 .data          0x000000000011c400       0x40 binaries/evec.o
                0x000000000011c400                inames
 .data          0x000000000011c440        0x0 binaries/factorial.o
 .data          0x000000000011c440        0x0 binaries/freebuf.o
 .data          0x000000000011c440        0x0 binaries/freemem.o
 .data          0x000000000011c440        0x0 binaries/getbuf.o
 .data          0x000000000011c440        0x0 binaries/getc.o
 .data          0x000000000011c440        0x0 binaries/getdev.o
 .data          0x000000000011c440        0x0 binaries/getitem.o
 .data          0x000000000011c440        0x0 binaries/getmem.o
 .data          0x000000000011c440        0x0 binaries/getpid.o
 .data          0x000000000011c440        0x0 binaries/getpname.o
 .data          0x000000000011c440        0x0 binaries/getppid.o
 .data          0x000000000011c440        0x0 binaries/getprio.o
 .data          0x000000000011c440        0x0 binaries/getstk.o
 .data          0x000000000011c440        0x0 binaries/gettime.o
 .data          0x000000000011c440        0x0 binaries/getutime.o
 .data          0x000000000011c440        0x0 binaries/host2netlb.o
 .data          0x000000000011c440        0x0 binaries/init.o
 .data          0x000000000011c440        0x0 binaries/initialize.o
 .data          0x000000000011c440        0x0 binaries/insert.o
 .data          0x000000000011c440        0x0 binaries/insertd.o
 .data          0x000000000011c440        0x0 binaries/iobound.o
 .data          0x000000000011c440        0x0 binaries/ioerr.o
 .data          0x000000000011c440        0x0 binaries/ionull.o
 .data          0x000000000011c440        0x0 binaries/kill.o
 .data          0x000000000011c440        0x0 binaries/kprintf.o
 .data          0x000000000011c440        0x0 binaries/lab2q3.o
 .data          0x000000000011c440        0x0 binaries/lab2q4.o
 .data          0x000000000011c440        0x0 binaries/lab2q5.o
 .data          0x000000000011c440        0x4 binaries/main.o
                0x000000000011c440                lab
 .data          0x000000000011c444        0x0 binaries/mark.o
 *fill*         0x000000000011c444       0x1c 
 .data          0x000000000011c460       0x48 binaries/meminit.o
                0x000000000011c460                gdt_copy
                0x000000000011c4a0                bootinfo
                0x000000000011c4a4                bootsign
 .data          0x000000000011c4a8        0x0 binaries/mkbufpool.o
 .data          0x000000000011c4a8        0x0 binaries/multilevelfbq.o
 .data          0x000000000011c4a8        0x0 binaries/myappA.o
 .data          0x000000000011c4a8        0x0 binaries/myfuncA.o
 .data          0x000000000011c4a8        0x0 binaries/myhacker.o
 .data          0x000000000011c4a8        0x0 binaries/myqueue.o
 .data          0x000000000011c4a8        0x0 binaries/myvictim.o
 .data          0x000000000011c4a8        0x0 binaries/mywelcomemsg.o
 .data          0x000000000011c4a8        0x4 binaries/newqueue.o
 .data          0x000000000011c4ac        0x0 binaries/open.o
 .data          0x000000000011c4ac        0x0 binaries/panic.o
 .data          0x000000000011c4ac        0x0 binaries/pci.o
 .data          0x000000000011c4ac        0x0 binaries/platinit.o
 .data          0x000000000011c4ac        0x0 binaries/printsegaddr.o
 .data          0x000000000011c4ac        0x0 binaries/process_state.o
 .data          0x000000000011c4ac        0x0 binaries/ptclear.o
 .data          0x000000000011c4ac        0x0 binaries/ptcount.o
 .data          0x000000000011c4ac        0x0 binaries/ptcreate.o
 .data          0x000000000011c4ac        0x0 binaries/ptdelete.o
 .data          0x000000000011c4ac        0x0 binaries/ptinit.o
 .data          0x000000000011c4ac        0x0 binaries/ptrecv.o
 .data          0x000000000011c4ac        0x0 binaries/ptreset.o
 .data          0x000000000011c4ac        0x0 binaries/ptsend.o
 .data          0x000000000011c4ac        0x0 binaries/putc.o
 .data          0x000000000011c4ac        0x0 binaries/quark_irq.o
 .data          0x000000000011c4ac        0x0 binaries/quark_pdat.o
 .data          0x000000000011c4ac        0x0 binaries/queue.o
 .data          0x000000000011c4ac        0x0 binaries/read.o
 .data          0x000000000011c4ac        0x0 binaries/ready.o
 .data          0x000000000011c4ac        0x0 binaries/receive.o
 .data          0x000000000011c4ac        0x0 binaries/receivebt.o
 .data          0x000000000011c4ac        0x0 binaries/recvclr.o
 .data          0x000000000011c4ac        0x0 binaries/recvtime.o
 .data          0x000000000011c4ac        0x0 binaries/resched.o
 .data          0x000000000011c4ac        0x0 binaries/resume.o
 .data          0x000000000011c4ac        0x0 binaries/seek.o
 .data          0x000000000011c4ac        0x0 binaries/semcount.o
 .data          0x000000000011c4ac        0x0 binaries/semcreate.o
 .data          0x000000000011c4ac        0x0 binaries/semdelete.o
 .data          0x000000000011c4ac        0x0 binaries/semreset.o
 .data          0x000000000011c4ac        0x0 binaries/send.o
 .data          0x000000000011c4ac        0x0 binaries/sendbt.o
 .data          0x000000000011c4ac        0x0 binaries/signal.o
 .data          0x000000000011c4ac        0x0 binaries/signaln.o
 .data          0x000000000011c4ac        0x0 binaries/sleep.o
 .data          0x000000000011c4ac        0x0 binaries/stackdepth.o
 .data          0x000000000011c4ac        0x0 binaries/stacktrace.o
 .data          0x000000000011c4ac        0x0 binaries/suspend.o
 .data          0x000000000011c4ac        0x0 binaries/teststackdepth.o
 *fill*         0x000000000011c4ac       0x14 
 .data          0x000000000011c4c0       0xf0 binaries/tsdtab.o
                0x000000000011c4c0                tsdtab
 .data          0x000000000011c5b0        0x0 binaries/unsleep.o
 .data          0x000000000011c5b0        0x0 binaries/userret.o
 .data          0x000000000011c5b0        0x0 binaries/wait.o
 .data          0x000000000011c5b0        0x0 binaries/wakeup.o
 .data          0x000000000011c5b0        0x0 binaries/write.o
 .data          0x000000000011c5b0        0x0 binaries/xdone.o
 .data          0x000000000011c5b0        0x0 binaries/yield.o
 .data          0x000000000011c5b0        0x0 binaries/abs.o
 .data          0x000000000011c5b0        0x0 binaries/atoi.o
 .data          0x000000000011c5b0        0x0 binaries/atol.o
 .data          0x000000000011c5b0        0x0 binaries/bzero.o
 .data          0x000000000011c5b0        0x0 binaries/ctype_.o
 .data          0x000000000011c5b0        0x0 binaries/doprnt.o
 *fill*         0x000000000011c5b0       0x10 
 .data          0x000000000011c5c0       0x80 binaries/doscan.o
                0x000000000011c5c0                _sctab
 .data          0x000000000011c640        0x0 binaries/fdoprnt.o
 .data          0x000000000011c640        0x0 binaries/fgetc.o
 .data          0x000000000011c640        0x0 binaries/fgets.o
 .data          0x000000000011c640        0x0 binaries/fprintf.o
 .data          0x000000000011c640        0x0 binaries/fputc.o
 .data          0x000000000011c640        0x0 binaries/fputs.o
 .data          0x000000000011c640        0x0 binaries/fscanf.o
 .data          0x000000000011c640        0x0 binaries/getchar.o
 .data          0x000000000011c640        0x0 binaries/labs.o
 .data          0x000000000011c640        0x0 binaries/memchr.o
 .data          0x000000000011c640        0x0 binaries/memcmp.o
 .data          0x000000000011c640        0x0 binaries/memcpy.o
 .data          0x000000000011c640        0x0 binaries/memset.o
 .data          0x000000000011c640        0x0 binaries/printf.o
 .data          0x000000000011c640        0x0 binaries/putchar.o
 .data          0x000000000011c640        0x0 binaries/qsort.o
 .data          0x000000000011c640        0x4 binaries/rand.o
 .data          0x000000000011c644        0x0 binaries/sprintf.o
 .data          0x000000000011c644        0x0 binaries/sscanf.o
 .data          0x000000000011c644        0x0 binaries/strchr.o
 .data          0x000000000011c644        0x0 binaries/strcmp.o
 .data          0x000000000011c644        0x0 binaries/strcpy.o
 .data          0x000000000011c644        0x0 binaries/strlen.o
 .data          0x000000000011c644        0x0 binaries/strncat.o
 .data          0x000000000011c644        0x0 binaries/strncmp.o
 .data          0x000000000011c644        0x0 binaries/strncpy.o
 .data          0x000000000011c644        0x0 binaries/strnlen.o
 .data          0x000000000011c644        0x0 binaries/strrchr.o
 .data          0x000000000011c644        0x0 binaries/strstr.o
 .data          0x000000000011c644        0x0 binaries/ttycontrol.o
 .data          0x000000000011c644        0x0 binaries/ttygetc.o
 .data          0x000000000011c644        0x0 binaries/ttyhandle_in.o
 .data          0x000000000011c644        0x0 binaries/ttyhandle_out.o
 .data          0x000000000011c644        0x0 binaries/ttyhandler.o
 .data          0x000000000011c644        0x0 binaries/ttyinit.o
 .data          0x000000000011c644        0x0 binaries/ttykickout.o
 .data          0x000000000011c644        0x0 binaries/ttyputc.o
 .data          0x000000000011c644        0x0 binaries/ttyread.o
 .data          0x000000000011c644        0x0 binaries/ttywrite.o
 .data          0x000000000011c644        0x0 binaries/mount.o
 .data          0x000000000011c644        0x0 binaries/naminit.o
 .data          0x000000000011c644        0x0 binaries/nammap.o
 .data          0x000000000011c644        0x0 binaries/namopen.o
 .data          0x000000000011c644        0x0 binaries/colon2mac.o
 .data          0x000000000011c644        0x0 binaries/ethcontrol.o
 .data          0x000000000011c644        0x0 binaries/ethhandler.o
 .data          0x000000000011c644        0x0 binaries/ethinit.o
 .data          0x000000000011c644        0x0 binaries/ethmcast.o
 .data          0x000000000011c644        0x0 binaries/ethread.o
 .data          0x000000000011c644        0x0 binaries/ethwrite.o
 .data          0x000000000011c644        0x0 binaries/rdsbufalloc.o
 .data          0x000000000011c644        0x0 binaries/rdsclose.o
 .data          0x000000000011c644        0x0 binaries/rdscomm.o
 .data          0x000000000011c644        0x0 binaries/rdscontrol.o
 .data          0x000000000011c644        0x0 binaries/rdsinit.o
 .data          0x000000000011c644        0x0 binaries/rdsopen.o
 .data          0x000000000011c644        0x0 binaries/rdsprocess.o
 .data          0x000000000011c644        0x0 binaries/rdsread.o
 .data          0x000000000011c644        0x0 binaries/rdswrite.o
 .data          0x000000000011c644        0x0 binaries/ramclose.o
 .data          0x000000000011c644        0x0 binaries/raminit.o
 .data          0x000000000011c644        0x0 binaries/ramopen.o
 .data          0x000000000011c644        0x0 binaries/ramread.o
 .data          0x000000000011c644        0x0 binaries/ramwrite.o
 .data          0x000000000011c644        0x0 binaries/lfdballoc.o
 .data          0x000000000011c644        0x0 binaries/lfdbfree.o
 .data          0x000000000011c644        0x0 binaries/lfflush.o
 .data          0x000000000011c644        0x0 binaries/lfgetmode.o
 .data          0x000000000011c644        0x0 binaries/lfiballoc.o
 .data          0x000000000011c644        0x0 binaries/lfibclear.o
 .data          0x000000000011c644        0x0 binaries/lfibget.o
 .data          0x000000000011c644        0x0 binaries/lfibput.o
 .data          0x000000000011c644        0x0 binaries/lflclose.o
 .data          0x000000000011c644        0x0 binaries/lflcontrol.o
 .data          0x000000000011c644        0x0 binaries/lflgetc.o
 .data          0x000000000011c644        0x0 binaries/lflinit.o
 .data          0x000000000011c644        0x0 binaries/lflputc.o
 .data          0x000000000011c644        0x0 binaries/lflread.o
 .data          0x000000000011c644        0x0 binaries/lflseek.o
 .data          0x000000000011c644        0x0 binaries/lflwrite.o
 .data          0x000000000011c644        0x0 binaries/lfsckfmt.o
 .data          0x000000000011c644        0x0 binaries/lfscreate.o
 .data          0x000000000011c644        0x0 binaries/lfsetup.o
 .data          0x000000000011c644        0x0 binaries/lfsinit.o
 .data          0x000000000011c644        0x0 binaries/lfsopen.o
 .data          0x000000000011c644        0x0 binaries/lftruncate.o
 .data          0x000000000011c644        0x0 binaries/rflclose.o
 .data          0x000000000011c644        0x0 binaries/rflgetc.o
 .data          0x000000000011c644        0x0 binaries/rflinit.o
 .data          0x000000000011c644        0x0 binaries/rflputc.o
 .data          0x000000000011c644        0x0 binaries/rflread.o
 .data          0x000000000011c644        0x0 binaries/rflseek.o
 .data          0x000000000011c644        0x0 binaries/rflwrite.o
 .data          0x000000000011c644        0x0 binaries/rfscomm.o
 .data          0x000000000011c644        0x0 binaries/rfscontrol.o
 .data          0x000000000011c644        0x0 binaries/rfsgetmode.o
 .data          0x000000000011c644        0x0 binaries/rfsinit.o
 .data          0x000000000011c644        0x0 binaries/rfsndmsg.o
 .data          0x000000000011c644        0x0 binaries/rfsopen.o
 .data          0x000000000011c644        0x0 binaries/arp.o
 .data          0x000000000011c644        0x0 binaries/dhcp.o
 .data          0x000000000011c644        0x0 binaries/dot2ip.o
 .data          0x000000000011c644        0x0 binaries/hexdump.o
 .data          0x000000000011c644        0x4 binaries/icmp.o
 .data          0x000000000011c648        0x0 binaries/ip.o
 .data          0x000000000011c648        0x0 binaries/net.o
 .data          0x000000000011c648        0x0 binaries/netstart.o
 .data          0x000000000011c648        0x0 binaries/pdump.o
 .data          0x000000000011c648        0x0 binaries/tftp.o
 .data          0x000000000011c648        0x4 binaries/udp.o
 .data          0x000000000011c64c        0x0 binaries/addargs.o
 .data          0x000000000011c64c        0x0 binaries/lexan.o
 .data          0x000000000011c64c        0x4 binaries/shell.o
                0x000000000011c64c                ncmd
 .data          0x000000000011c650        0x0 binaries/xsh_argecho.o
 .data          0x000000000011c650        0x0 binaries/xsh_arp.o
 .data          0x000000000011c650        0x0 binaries/xsh_cat.o
 .data          0x000000000011c650        0x0 binaries/xsh_clear.o
 .data          0x000000000011c650        0x0 binaries/xsh_date.o
 .data          0x000000000011c650        0x0 binaries/xsh_devdump.o
 .data          0x000000000011c650        0x0 binaries/xsh_echo.o
 .data          0x000000000011c650        0x0 binaries/xsh_exit.o
 .data          0x000000000011c650        0x0 binaries/xsh_help.o
 .data          0x000000000011c650        0x0 binaries/xsh_ipaddr.o
 .data          0x000000000011c650        0x0 binaries/xsh_kill.o
 .data          0x000000000011c650        0x0 binaries/xsh_memdump.o
 .data          0x000000000011c650        0x0 binaries/xsh_memstat.o
 .data          0x000000000011c650        0x0 binaries/xsh_ping.o
 .data          0x000000000011c650        0x0 binaries/xsh_ps.o
 .data          0x000000000011c650        0x0 binaries/xsh_sleep.o
 .data          0x000000000011c650        0x0 binaries/xsh_udpdump.o
 .data          0x000000000011c650        0x0 binaries/xsh_udpecho.o
 .data          0x000000000011c650        0x0 binaries/xsh_udpeserver.o
 .data          0x000000000011c650        0x0 binaries/xsh_uptime.o
 .data          0x000000000011c650        0x0 binaries/clkdisp.o
 .data          0x000000000011c650        0x0 binaries/ctxsw.o
 .data          0x000000000011c650        0x0 binaries/host2netla.o
 .data          0x000000000011c650        0x0 binaries/host2netlc.o
 .data          0x000000000011c650        0x0 binaries/intr.o
 .data          0x000000000011c650        0x0 binaries/ttydispatch.o
 .data          0x000000000011c650        0x0 binaries/ethdispatch.o
                0x000000000011c650                edata = ABSOLUTE (.)
                0x000000000011d000                . = ALIGN (0x1000)
 *fill*         0x000000000011c650      0x9b0 

.igot.plt       0x000000000011d000        0x0
 .igot.plt      0x000000000011d000        0x0 binaries/start.o

.bss            0x000000000011d000    0x21000
                0x000000000011d000                bss = ABSOLUTE (.)
 *(.bss .bss.*)
 .bss           0x000000000011d000        0x0 binaries/start.o
 .bss           0x000000000011d000        0x0 binaries/app1.o
 .bss           0x000000000011d000        0x0 binaries/app2.o
 .bss           0x000000000011d000        0x0 binaries/app3.o
 .bss           0x000000000011d000        0x0 binaries/ascdate.o
 .bss           0x000000000011d000        0x0 binaries/bufinit.o
 .bss           0x000000000011d000        0x0 binaries/chprio.o
 .bss           0x000000000011d000        0x0 binaries/clkhandler.o
 .bss           0x000000000011d000        0x4 binaries/clkinit.o
                0x000000000011d000                ctr1000
 .bss           0x000000000011d004        0x0 binaries/close.o
 .bss           0x000000000011d004        0x0 binaries/conf.o
 .bss           0x000000000011d004        0x0 binaries/control.o
 .bss           0x000000000011d004        0x0 binaries/cpubound.o
 .bss           0x000000000011d004        0x0 binaries/create.o
 .bss           0x000000000011d004        0x0 binaries/early_imr.o
 .bss           0x000000000011d004        0x0 binaries/evec.o
 .bss           0x000000000011d004        0x0 binaries/factorial.o
 .bss           0x000000000011d004        0x0 binaries/freebuf.o
 .bss           0x000000000011d004        0x0 binaries/freemem.o
 .bss           0x000000000011d004        0x0 binaries/getbuf.o
 .bss           0x000000000011d004        0x0 binaries/getc.o
 .bss           0x000000000011d004        0x0 binaries/getdev.o
 .bss           0x000000000011d004        0x0 binaries/getitem.o
 .bss           0x000000000011d004        0x0 binaries/getmem.o
 .bss           0x000000000011d004        0x0 binaries/getpid.o
 .bss           0x000000000011d004        0x0 binaries/getpname.o
 .bss           0x000000000011d004        0x0 binaries/getppid.o
 .bss           0x000000000011d004        0x0 binaries/getprio.o
 .bss           0x000000000011d004        0x0 binaries/getstk.o
 .bss           0x000000000011d004        0x0 binaries/gettime.o
 .bss           0x000000000011d004        0x0 binaries/getutime.o
 .bss           0x000000000011d004        0x0 binaries/host2netlb.o
 .bss           0x000000000011d004        0x0 binaries/init.o
 .bss           0x000000000011d004        0x0 binaries/initialize.o
 .bss           0x000000000011d004        0x0 binaries/insert.o
 .bss           0x000000000011d004        0x0 binaries/insertd.o
 .bss           0x000000000011d004        0x0 binaries/iobound.o
 .bss           0x000000000011d004        0x0 binaries/ioerr.o
 .bss           0x000000000011d004        0x0 binaries/ionull.o
 .bss           0x000000000011d004        0x0 binaries/kill.o
 .bss           0x000000000011d004        0x0 binaries/kprintf.o
 .bss           0x000000000011d004        0x0 binaries/lab2q3.o
 .bss           0x000000000011d004        0x0 binaries/lab2q4.o
 .bss           0x000000000011d004        0x0 binaries/lab2q5.o
 .bss           0x000000000011d004        0x4 binaries/main.o
                0x000000000011d004                lab2flag
 .bss           0x000000000011d008        0x0 binaries/mark.o
 .bss           0x000000000011d008        0x0 binaries/meminit.o
 .bss           0x000000000011d008        0x0 binaries/mkbufpool.o
 .bss           0x000000000011d008        0x0 binaries/multilevelfbq.o
 .bss           0x000000000011d008        0x0 binaries/myappA.o
 .bss           0x000000000011d008        0x0 binaries/myfuncA.o
 .bss           0x000000000011d008        0x0 binaries/myhacker.o
 .bss           0x000000000011d008        0x0 binaries/myqueue.o
 .bss           0x000000000011d008        0x0 binaries/myvictim.o
 .bss           0x000000000011d008        0x0 binaries/mywelcomemsg.o
 .bss           0x000000000011d008        0x0 binaries/newqueue.o
 .bss           0x000000000011d008        0x0 binaries/open.o
 .bss           0x000000000011d008        0x0 binaries/panic.o
 .bss           0x000000000011d008        0x0 binaries/pci.o
 .bss           0x000000000011d008        0x0 binaries/platinit.o
 .bss           0x000000000011d008        0x0 binaries/printsegaddr.o
 .bss           0x000000000011d008        0x0 binaries/process_state.o
 .bss           0x000000000011d008        0x0 binaries/ptclear.o
 .bss           0x000000000011d008        0x0 binaries/ptcount.o
 .bss           0x000000000011d008        0x0 binaries/ptcreate.o
 .bss           0x000000000011d008        0x0 binaries/ptdelete.o
 .bss           0x000000000011d008        0x0 binaries/ptinit.o
 .bss           0x000000000011d008        0x0 binaries/ptrecv.o
 .bss           0x000000000011d008        0x0 binaries/ptreset.o
 .bss           0x000000000011d008        0x0 binaries/ptsend.o
 .bss           0x000000000011d008        0x0 binaries/putc.o
 .bss           0x000000000011d008        0x0 binaries/quark_irq.o
 .bss           0x000000000011d008        0x0 binaries/quark_pdat.o
 .bss           0x000000000011d008        0x0 binaries/queue.o
 .bss           0x000000000011d008        0x0 binaries/read.o
 .bss           0x000000000011d008        0x0 binaries/ready.o
 .bss           0x000000000011d008        0x0 binaries/receive.o
 .bss           0x000000000011d008        0x0 binaries/receivebt.o
 .bss           0x000000000011d008        0x0 binaries/recvclr.o
 .bss           0x000000000011d008        0x0 binaries/recvtime.o
 .bss           0x000000000011d008        0x0 binaries/resched.o
 .bss           0x000000000011d008        0x0 binaries/resume.o
 .bss           0x000000000011d008        0x0 binaries/seek.o
 .bss           0x000000000011d008        0x0 binaries/semcount.o
 .bss           0x000000000011d008        0x4 binaries/semcreate.o
 .bss           0x000000000011d00c        0x0 binaries/semdelete.o
 .bss           0x000000000011d00c        0x0 binaries/semreset.o
 .bss           0x000000000011d00c        0x0 binaries/send.o
 .bss           0x000000000011d00c        0x0 binaries/sendbt.o
 .bss           0x000000000011d00c        0x0 binaries/signal.o
 .bss           0x000000000011d00c        0x0 binaries/signaln.o
 .bss           0x000000000011d00c        0x0 binaries/sleep.o
 .bss           0x000000000011d00c        0x0 binaries/stackdepth.o
 .bss           0x000000000011d00c        0x8 binaries/stacktrace.o
 .bss           0x000000000011d014        0x0 binaries/suspend.o
 .bss           0x000000000011d014        0x0 binaries/teststackdepth.o
 .bss           0x000000000011d014        0x0 binaries/tsdtab.o
 .bss           0x000000000011d014        0x0 binaries/unsleep.o
 .bss           0x000000000011d014        0x0 binaries/userret.o
 .bss           0x000000000011d014        0x0 binaries/wait.o
 .bss           0x000000000011d014        0x0 binaries/wakeup.o
 .bss           0x000000000011d014        0x0 binaries/write.o
 .bss           0x000000000011d014        0x0 binaries/xdone.o
 .bss           0x000000000011d014        0x0 binaries/yield.o
 .bss           0x000000000011d014        0x0 binaries/abs.o
 .bss           0x000000000011d014        0x0 binaries/atoi.o
 .bss           0x000000000011d014        0x0 binaries/atol.o
 .bss           0x000000000011d014        0x0 binaries/bzero.o
 .bss           0x000000000011d014        0x0 binaries/ctype_.o
 .bss           0x000000000011d014        0x0 binaries/doprnt.o
 .bss           0x000000000011d014        0x0 binaries/doscan.o
 .bss           0x000000000011d014        0x0 binaries/fdoprnt.o
 .bss           0x000000000011d014        0x0 binaries/fgetc.o
 .bss           0x000000000011d014        0x0 binaries/fgets.o
 .bss           0x000000000011d014        0x0 binaries/fprintf.o
 .bss           0x000000000011d014        0x0 binaries/fputc.o
 .bss           0x000000000011d014        0x0 binaries/fputs.o
 .bss           0x000000000011d014        0x0 binaries/fscanf.o
 .bss           0x000000000011d014        0x0 binaries/getchar.o
 .bss           0x000000000011d014        0x0 binaries/labs.o
 .bss           0x000000000011d014        0x0 binaries/memchr.o
 .bss           0x000000000011d014        0x0 binaries/memcmp.o
 .bss           0x000000000011d014        0x0 binaries/memcpy.o
 .bss           0x000000000011d014        0x0 binaries/memset.o
 .bss           0x000000000011d014        0x0 binaries/printf.o
 .bss           0x000000000011d014        0x0 binaries/putchar.o
 .bss           0x000000000011d014        0x8 binaries/qsort.o
 .bss           0x000000000011d01c        0x0 binaries/rand.o
 .bss           0x000000000011d01c        0x0 binaries/sprintf.o
 .bss           0x000000000011d01c        0x0 binaries/sscanf.o
 .bss           0x000000000011d01c        0x0 binaries/strchr.o
 .bss           0x000000000011d01c        0x0 binaries/strcmp.o
 .bss           0x000000000011d01c        0x0 binaries/strcpy.o
 .bss           0x000000000011d01c        0x0 binaries/strlen.o
 .bss           0x000000000011d01c        0x0 binaries/strncat.o
 .bss           0x000000000011d01c        0x0 binaries/strncmp.o
 .bss           0x000000000011d01c        0x0 binaries/strncpy.o
 .bss           0x000000000011d01c        0x0 binaries/strnlen.o
 .bss           0x000000000011d01c        0x0 binaries/strrchr.o
 .bss           0x000000000011d01c        0x0 binaries/strstr.o
 .bss           0x000000000011d01c        0x0 binaries/ttycontrol.o
 .bss           0x000000000011d01c        0x0 binaries/ttygetc.o
 .bss           0x000000000011d01c        0x0 binaries/ttyhandle_in.o
 .bss           0x000000000011d01c        0x0 binaries/ttyhandle_out.o
 .bss           0x000000000011d01c        0x0 binaries/ttyhandler.o
 .bss           0x000000000011d01c        0x0 binaries/ttyinit.o
 .bss           0x000000000011d01c        0x0 binaries/ttykickout.o
 .bss           0x000000000011d01c        0x0 binaries/ttyputc.o
 .bss           0x000000000011d01c        0x0 binaries/ttyread.o
 .bss           0x000000000011d01c        0x0 binaries/ttywrite.o
 .bss           0x000000000011d01c        0x0 binaries/mount.o
 .bss           0x000000000011d01c        0x0 binaries/naminit.o
 .bss           0x000000000011d01c        0x0 binaries/nammap.o
 .bss           0x000000000011d01c        0x0 binaries/namopen.o
 .bss           0x000000000011d01c        0x0 binaries/colon2mac.o
 .bss           0x000000000011d01c        0x0 binaries/ethcontrol.o
 .bss           0x000000000011d01c        0x0 binaries/ethhandler.o
 .bss           0x000000000011d01c        0x0 binaries/ethinit.o
 .bss           0x000000000011d01c        0x0 binaries/ethmcast.o
 .bss           0x000000000011d01c        0x0 binaries/ethread.o
 .bss           0x000000000011d01c        0x0 binaries/ethwrite.o
 .bss           0x000000000011d01c        0x0 binaries/rdsbufalloc.o
 .bss           0x000000000011d01c        0x0 binaries/rdsclose.o
 .bss           0x000000000011d01c        0x0 binaries/rdscomm.o
 .bss           0x000000000011d01c        0x0 binaries/rdscontrol.o
 .bss           0x000000000011d01c        0x0 binaries/rdsinit.o
 .bss           0x000000000011d01c        0x0 binaries/rdsopen.o
 .bss           0x000000000011d01c        0x0 binaries/rdsprocess.o
 .bss           0x000000000011d01c        0x0 binaries/rdsread.o
 .bss           0x000000000011d01c        0x0 binaries/rdswrite.o
 .bss           0x000000000011d01c        0x0 binaries/ramclose.o
 .bss           0x000000000011d01c        0x0 binaries/raminit.o
 .bss           0x000000000011d01c        0x0 binaries/ramopen.o
 .bss           0x000000000011d01c        0x0 binaries/ramread.o
 .bss           0x000000000011d01c        0x0 binaries/ramwrite.o
 .bss           0x000000000011d01c        0x0 binaries/lfdballoc.o
 .bss           0x000000000011d01c        0x0 binaries/lfdbfree.o
 .bss           0x000000000011d01c        0x0 binaries/lfflush.o
 .bss           0x000000000011d01c        0x0 binaries/lfgetmode.o
 .bss           0x000000000011d01c        0x0 binaries/lfiballoc.o
 .bss           0x000000000011d01c        0x0 binaries/lfibclear.o
 .bss           0x000000000011d01c        0x0 binaries/lfibget.o
 .bss           0x000000000011d01c        0x0 binaries/lfibput.o
 .bss           0x000000000011d01c        0x0 binaries/lflclose.o
 .bss           0x000000000011d01c        0x0 binaries/lflcontrol.o
 .bss           0x000000000011d01c        0x0 binaries/lflgetc.o
 .bss           0x000000000011d01c        0x0 binaries/lflinit.o
 .bss           0x000000000011d01c        0x0 binaries/lflputc.o
 .bss           0x000000000011d01c        0x0 binaries/lflread.o
 .bss           0x000000000011d01c        0x0 binaries/lflseek.o
 .bss           0x000000000011d01c        0x0 binaries/lflwrite.o
 .bss           0x000000000011d01c        0x0 binaries/lfsckfmt.o
 .bss           0x000000000011d01c        0x0 binaries/lfscreate.o
 .bss           0x000000000011d01c        0x0 binaries/lfsetup.o
 .bss           0x000000000011d01c        0x0 binaries/lfsinit.o
 .bss           0x000000000011d01c        0x0 binaries/lfsopen.o
 .bss           0x000000000011d01c        0x0 binaries/lftruncate.o
 .bss           0x000000000011d01c        0x0 binaries/rflclose.o
 .bss           0x000000000011d01c        0x0 binaries/rflgetc.o
 .bss           0x000000000011d01c        0x0 binaries/rflinit.o
 .bss           0x000000000011d01c        0x0 binaries/rflputc.o
 .bss           0x000000000011d01c        0x0 binaries/rflread.o
 .bss           0x000000000011d01c        0x0 binaries/rflseek.o
 .bss           0x000000000011d01c        0x0 binaries/rflwrite.o
 .bss           0x000000000011d01c        0x0 binaries/rfscomm.o
 .bss           0x000000000011d01c        0x0 binaries/rfscontrol.o
 .bss           0x000000000011d01c        0x0 binaries/rfsgetmode.o
 .bss           0x000000000011d01c        0x0 binaries/rfsinit.o
 .bss           0x000000000011d01c        0x0 binaries/rfsndmsg.o
 .bss           0x000000000011d01c        0x0 binaries/rfsopen.o
 .bss           0x000000000011d01c        0x0 binaries/arp.o
 .bss           0x000000000011d01c        0x0 binaries/dhcp.o
 .bss           0x000000000011d01c        0x0 binaries/dot2ip.o
 .bss           0x000000000011d01c        0x0 binaries/hexdump.o
 .bss           0x000000000011d01c        0x0 binaries/icmp.o
 .bss           0x000000000011d01c        0x0 binaries/ip.o
 .bss           0x000000000011d01c        0x0 binaries/net.o
 .bss           0x000000000011d01c        0x0 binaries/netstart.o
 .bss           0x000000000011d01c        0x0 binaries/pdump.o
 .bss           0x000000000011d01c        0x0 binaries/tftp.o
 .bss           0x000000000011d01c        0x0 binaries/udp.o
 .bss           0x000000000011d01c        0x0 binaries/addargs.o
 .bss           0x000000000011d01c        0x0 binaries/lexan.o
 .bss           0x000000000011d01c        0x0 binaries/shell.o
 .bss           0x000000000011d01c        0x0 binaries/xsh_argecho.o
 .bss           0x000000000011d01c        0x0 binaries/xsh_arp.o
 .bss           0x000000000011d01c        0x0 binaries/xsh_cat.o
 .bss           0x000000000011d01c        0x0 binaries/xsh_clear.o
 .bss           0x000000000011d01c        0x0 binaries/xsh_date.o
 .bss           0x000000000011d01c        0x0 binaries/xsh_devdump.o
 .bss           0x000000000011d01c        0x0 binaries/xsh_echo.o
 .bss           0x000000000011d01c        0x0 binaries/xsh_exit.o
 .bss           0x000000000011d01c        0x0 binaries/xsh_help.o
 .bss           0x000000000011d01c        0x0 binaries/xsh_ipaddr.o
 .bss           0x000000000011d01c        0x0 binaries/xsh_kill.o
 .bss           0x000000000011d01c        0x0 binaries/xsh_memdump.o
 .bss           0x000000000011d01c        0x0 binaries/xsh_memstat.o
 .bss           0x000000000011d01c        0x4 binaries/xsh_ping.o
 .bss           0x000000000011d020        0x0 binaries/xsh_ps.o
 .bss           0x000000000011d020        0x0 binaries/xsh_sleep.o
 .bss           0x000000000011d020        0x0 binaries/xsh_udpdump.o
 .bss           0x000000000011d020        0x0 binaries/xsh_udpecho.o
 .bss           0x000000000011d020        0x0 binaries/xsh_udpeserver.o
 .bss           0x000000000011d020        0x0 binaries/xsh_uptime.o
 .bss           0x000000000011d020        0x0 binaries/clkdisp.o
 .bss           0x000000000011d020        0x0 binaries/ctxsw.o
 .bss           0x000000000011d020        0x0 binaries/host2netla.o
 .bss           0x000000000011d020        0x0 binaries/host2netlc.o
 .bss           0x000000000011d020        0x0 binaries/intr.o
 .bss           0x000000000011d020        0x0 binaries/ttydispatch.o
 .bss           0x000000000011d020        0x0 binaries/ethdispatch.o
 *(COMMON)
 COMMON         0x000000000011d020       0xf4 binaries/bufinit.o
                0x000000000011d020                buftab
                0x000000000011d110                nbpools
 COMMON         0x000000000011d114       0x10 binaries/clkinit.o
                0x000000000011d114                sleepq
                0x000000000011d118                preempt
                0x000000000011d11c                clktimemsec
                0x000000000011d120                clktime
 COMMON         0x000000000011d124        0x2 binaries/evec.o
                0x000000000011d124                girmask
 *fill*         0x000000000011d126       0x1a 
 COMMON         0x000000000011d140     0x2138 binaries/initialize.o
                0x000000000011d140                queueArr
                0x000000000011d168                currpid
                0x000000000011d180                proctab
                0x000000000011eda0                prcount
                0x000000000011edc0                semtab
                0x000000000011f270                memlist
 *fill*         0x000000000011f278        0x8 
 COMMON         0x000000000011f280       0x58 binaries/mark.o
                0x000000000011f280                marks
                0x000000000011f2d0                nmarks
                0x000000000011f2d4                mkmutex
 COMMON         0x000000000011f2d8        0x8 binaries/meminit.o
                0x000000000011f2d8                minheap
                0x000000000011f2dc                maxheap
 COMMON         0x000000000011f2e0        0x8 binaries/myhacker.o
                0x000000000011f2e0                victimglobal
                0x000000000011f2e4                victimsRetAddress
 *fill*         0x000000000011f2e8       0x18 
 COMMON         0x000000000011f300      0xca0 binaries/myqueue.o
                0x000000000011f300                myqueuetab
 COMMON         0x000000000011ffa0      0x2d8 binaries/ptinit.o
                0x000000000011ffa0                porttab
                0x0000000000120270                ptnextid
                0x0000000000120274                ptfree
 *fill*         0x0000000000120278        0x8 
 COMMON         0x0000000000120280      0xca0 binaries/queue.o
                0x0000000000120280                queuetab
 COMMON         0x0000000000120f20        0x2 binaries/ready.o
                0x0000000000120f20                readylist
 *fill*         0x0000000000120f22        0x2 
 COMMON         0x0000000000120f24        0x8 binaries/resched.o
                0x0000000000120f24                Defer
 *fill*         0x0000000000120f2c       0x14 
 COMMON         0x0000000000120f40      0x10c binaries/ttyinit.o
                0x0000000000120f40                ttytab
 *fill*         0x000000000012104c       0x14 
 COMMON         0x0000000000121060     0x19c0 binaries/naminit.o
                0x0000000000121060                nnames
                0x0000000000121080                nametab
 COMMON         0x0000000000122a20      0x138 binaries/ethinit.o
                0x0000000000122a20                ethertab
 *fill*         0x0000000000122b58        0x8 
 COMMON         0x0000000000122b60       0x8c binaries/rdsinit.o
                0x0000000000122b60                rdstab
 *fill*         0x0000000000122bec       0x14 
 COMMON         0x0000000000122c00    0x19000 binaries/raminit.o
                0x0000000000122c00                Ram
 COMMON         0x000000000013bc00      0xf00 binaries/lflinit.o
                0x000000000013bc00                lfltab
 COMMON         0x000000000013cb00      0x20c binaries/lfsinit.o
                0x000000000013cb00                Lf_data
 *fill*         0x000000000013cd0c       0x14 
 COMMON         0x000000000013cd20      0x5a0 binaries/rflinit.o
                0x000000000013cd20                rfltab
 COMMON         0x000000000013d2c0       0x18 binaries/rfsinit.o
                0x000000000013d2c0                Rf_data
 *fill*         0x000000000013d2d8        0x8 
 COMMON         0x000000000013d2e0      0x140 binaries/arp.o
                0x000000000013d2e0                arpcache
 COMMON         0x000000000013d420      0x230 binaries/icmp.o
                0x000000000013d420                icmptab
 *fill*         0x000000000013d650       0x10 
 COMMON         0x000000000013d660       0x2c binaries/ip.o
                0x000000000013d660                ipoqueue
 *fill*         0x000000000013d68c       0x14 
 COMMON         0x000000000013d6a0       0xc8 binaries/net.o
                0x000000000013d6a0                netbufpool
                0x000000000013d6c0                NetData
 *fill*         0x000000000013d768       0x18 
 COMMON         0x000000000013d780      0x168 binaries/udp.o
                0x000000000013d780                udptab
                0x000000000013d8e8                ebss = ABSOLUTE (.)
                0x000000000013e000                . = ALIGN (0x1000)
 *fill*         0x000000000013d8e8      0x718 
 */()
                0x000000000013e000                end = ABSOLUTE (.)
                0x000000000013e000                _end = ABSOLUTE (.)
                0x000000000013e000                . = ALIGN (0x1000)
LOAD binaries/start.o
LOAD binaries/app1.o
LOAD binaries/app2.o
LOAD binaries/app3.o
LOAD binaries/ascdate.o
LOAD binaries/bufinit.o
LOAD binaries/chprio.o
LOAD binaries/clkhandler.o
LOAD binaries/clkinit.o
LOAD binaries/close.o
LOAD binaries/conf.o
LOAD binaries/control.o
LOAD binaries/cpubound.o
LOAD binaries/create.o
LOAD binaries/early_imr.o
LOAD binaries/evec.o
LOAD binaries/factorial.o
LOAD binaries/freebuf.o
LOAD binaries/freemem.o
LOAD binaries/getbuf.o
LOAD binaries/getc.o
LOAD binaries/getdev.o
LOAD binaries/getitem.o
LOAD binaries/getmem.o
LOAD binaries/getpid.o
LOAD binaries/getpname.o
LOAD binaries/getppid.o
LOAD binaries/getprio.o
LOAD binaries/getstk.o
LOAD binaries/gettime.o
LOAD binaries/getutime.o
LOAD binaries/host2netlb.o
LOAD binaries/init.o
LOAD binaries/initialize.o
LOAD binaries/insert.o
LOAD binaries/insertd.o
LOAD binaries/iobound.o
LOAD binaries/ioerr.o
LOAD binaries/ionull.o
LOAD binaries/kill.o
LOAD binaries/kprintf.o
LOAD binaries/lab2q3.o
LOAD binaries/lab2q4.o
LOAD binaries/lab2q5.o
LOAD binaries/main.o
LOAD binaries/mark.o
LOAD binaries/meminit.o
LOAD binaries/mkbufpool.o
LOAD binaries/multilevelfbq.o
LOAD binaries/myappA.o
LOAD binaries/myfuncA.o
LOAD binaries/myhacker.o
LOAD binaries/myqueue.o
LOAD binaries/myvictim.o
LOAD binaries/mywelcomemsg.o
LOAD binaries/newqueue.o
LOAD binaries/open.o
LOAD binaries/panic.o
LOAD binaries/pci.o
LOAD binaries/platinit.o
LOAD binaries/printsegaddr.o
LOAD binaries/process_state.o
LOAD binaries/ptclear.o
LOAD binaries/ptcount.o
LOAD binaries/ptcreate.o
LOAD binaries/ptdelete.o
LOAD binaries/ptinit.o
LOAD binaries/ptrecv.o
LOAD binaries/ptreset.o
LOAD binaries/ptsend.o
LOAD binaries/putc.o
LOAD binaries/quark_irq.o
LOAD binaries/quark_pdat.o
LOAD binaries/queue.o
LOAD binaries/read.o
LOAD binaries/ready.o
LOAD binaries/receive.o
LOAD binaries/receivebt.o
LOAD binaries/recvclr.o
LOAD binaries/recvtime.o
LOAD binaries/resched.o
LOAD binaries/resume.o
LOAD binaries/seek.o
LOAD binaries/semcount.o
LOAD binaries/semcreate.o
LOAD binaries/semdelete.o
LOAD binaries/semreset.o
LOAD binaries/send.o
LOAD binaries/sendbt.o
LOAD binaries/signal.o
LOAD binaries/signaln.o
LOAD binaries/sleep.o
LOAD binaries/stackdepth.o
LOAD binaries/stacktrace.o
LOAD binaries/suspend.o
LOAD binaries/teststackdepth.o
LOAD binaries/tsdtab.o
LOAD binaries/unsleep.o
LOAD binaries/userret.o
LOAD binaries/wait.o
LOAD binaries/wakeup.o
LOAD binaries/write.o
LOAD binaries/xdone.o
LOAD binaries/yield.o
LOAD binaries/abs.o
LOAD binaries/atoi.o
LOAD binaries/atol.o
LOAD binaries/bzero.o
LOAD binaries/ctype_.o
LOAD binaries/doprnt.o
LOAD binaries/doscan.o
LOAD binaries/fdoprnt.o
LOAD binaries/fgetc.o
LOAD binaries/fgets.o
LOAD binaries/fprintf.o
LOAD binaries/fputc.o
LOAD binaries/fputs.o
LOAD binaries/fscanf.o
LOAD binaries/getchar.o
LOAD binaries/labs.o
LOAD binaries/memchr.o
LOAD binaries/memcmp.o
LOAD binaries/memcpy.o
LOAD binaries/memset.o
LOAD binaries/printf.o
LOAD binaries/putchar.o
LOAD binaries/qsort.o
LOAD binaries/rand.o
LOAD binaries/sprintf.o
LOAD binaries/sscanf.o
LOAD binaries/strchr.o
LOAD binaries/strcmp.o
LOAD binaries/strcpy.o
LOAD binaries/strlen.o
LOAD binaries/strncat.o
LOAD binaries/strncmp.o
LOAD binaries/strncpy.o
LOAD binaries/strnlen.o
LOAD binaries/strrchr.o
LOAD binaries/strstr.o
LOAD binaries/ttycontrol.o
LOAD binaries/ttygetc.o
LOAD binaries/ttyhandle_in.o
LOAD binaries/ttyhandle_out.o
LOAD binaries/ttyhandler.o
LOAD binaries/ttyinit.o
LOAD binaries/ttykickout.o
LOAD binaries/ttyputc.o
LOAD binaries/ttyread.o
LOAD binaries/ttywrite.o
LOAD binaries/mount.o
LOAD binaries/naminit.o
LOAD binaries/nammap.o
LOAD binaries/namopen.o
LOAD binaries/colon2mac.o
LOAD binaries/ethcontrol.o
LOAD binaries/ethhandler.o
LOAD binaries/ethinit.o
LOAD binaries/ethmcast.o
LOAD binaries/ethread.o
LOAD binaries/ethwrite.o
LOAD binaries/rdsbufalloc.o
LOAD binaries/rdsclose.o
LOAD binaries/rdscomm.o
LOAD binaries/rdscontrol.o
LOAD binaries/rdsinit.o
LOAD binaries/rdsopen.o
LOAD binaries/rdsprocess.o
LOAD binaries/rdsread.o
LOAD binaries/rdswrite.o
LOAD binaries/ramclose.o
LOAD binaries/raminit.o
LOAD binaries/ramopen.o
LOAD binaries/ramread.o
LOAD binaries/ramwrite.o
LOAD binaries/lfdballoc.o
LOAD binaries/lfdbfree.o
LOAD binaries/lfflush.o
LOAD binaries/lfgetmode.o
LOAD binaries/lfiballoc.o
LOAD binaries/lfibclear.o
LOAD binaries/lfibget.o
LOAD binaries/lfibput.o
LOAD binaries/lflclose.o
LOAD binaries/lflcontrol.o
LOAD binaries/lflgetc.o
LOAD binaries/lflinit.o
LOAD binaries/lflputc.o
LOAD binaries/lflread.o
LOAD binaries/lflseek.o
LOAD binaries/lflwrite.o
LOAD binaries/lfsckfmt.o
LOAD binaries/lfscreate.o
LOAD binaries/lfsetup.o
LOAD binaries/lfsinit.o
LOAD binaries/lfsopen.o
LOAD binaries/lftruncate.o
LOAD binaries/rflclose.o
LOAD binaries/rflgetc.o
LOAD binaries/rflinit.o
LOAD binaries/rflputc.o
LOAD binaries/rflread.o
LOAD binaries/rflseek.o
LOAD binaries/rflwrite.o
LOAD binaries/rfscomm.o
LOAD binaries/rfscontrol.o
LOAD binaries/rfsgetmode.o
LOAD binaries/rfsinit.o
LOAD binaries/rfsndmsg.o
LOAD binaries/rfsopen.o
LOAD binaries/arp.o
LOAD binaries/dhcp.o
LOAD binaries/dot2ip.o
LOAD binaries/hexdump.o
LOAD binaries/icmp.o
LOAD binaries/ip.o
LOAD binaries/net.o
LOAD binaries/netstart.o
LOAD binaries/pdump.o
LOAD binaries/tftp.o
LOAD binaries/udp.o
LOAD binaries/addargs.o
LOAD binaries/lexan.o
LOAD binaries/shell.o
LOAD binaries/xsh_argecho.o
LOAD binaries/xsh_arp.o
LOAD binaries/xsh_cat.o
LOAD binaries/xsh_clear.o
LOAD binaries/xsh_date.o
LOAD binaries/xsh_devdump.o
LOAD binaries/xsh_echo.o
LOAD binaries/xsh_exit.o
LOAD binaries/xsh_help.o
LOAD binaries/xsh_ipaddr.o
LOAD binaries/xsh_kill.o
LOAD binaries/xsh_memdump.o
LOAD binaries/xsh_memstat.o
LOAD binaries/xsh_ping.o
LOAD binaries/xsh_ps.o
LOAD binaries/xsh_sleep.o
LOAD binaries/xsh_udpdump.o
LOAD binaries/xsh_udpecho.o
LOAD binaries/xsh_udpeserver.o
LOAD binaries/xsh_uptime.o
LOAD binaries/clkdisp.o
LOAD binaries/ctxsw.o
LOAD binaries/host2netla.o
LOAD binaries/host2netlc.o
LOAD binaries/intr.o
LOAD binaries/ttydispatch.o
LOAD binaries/ethdispatch.o
OUTPUT(../compile/xinu elf32-i386)

.comment        0x0000000000000000       0x2a
 .comment       0x0000000000000000       0x2a binaries/app1.o
                                         0x2b (size before relaxing)
 .comment       0x000000000000002a       0x2b binaries/app2.o
 .comment       0x000000000000002a       0x2b binaries/app3.o
 .comment       0x000000000000002a       0x2b binaries/ascdate.o
 .comment       0x000000000000002a       0x2b binaries/bufinit.o
 .comment       0x000000000000002a       0x2b binaries/chprio.o
 .comment       0x000000000000002a       0x2b binaries/clkhandler.o
 .comment       0x000000000000002a       0x2b binaries/clkinit.o
 .comment       0x000000000000002a       0x2b binaries/close.o
 .comment       0x000000000000002a       0x2b binaries/conf.o
 .comment       0x000000000000002a       0x2b binaries/control.o
 .comment       0x000000000000002a       0x2b binaries/cpubound.o
 .comment       0x000000000000002a       0x2b binaries/create.o
 .comment       0x000000000000002a       0x2b binaries/early_imr.o
 .comment       0x000000000000002a       0x2b binaries/evec.o
 .comment       0x000000000000002a       0x2b binaries/factorial.o
 .comment       0x000000000000002a       0x2b binaries/freebuf.o
 .comment       0x000000000000002a       0x2b binaries/freemem.o
 .comment       0x000000000000002a       0x2b binaries/getbuf.o
 .comment       0x000000000000002a       0x2b binaries/getc.o
 .comment       0x000000000000002a       0x2b binaries/getdev.o
 .comment       0x000000000000002a       0x2b binaries/getitem.o
 .comment       0x000000000000002a       0x2b binaries/getmem.o
 .comment       0x000000000000002a       0x2b binaries/getpid.o
 .comment       0x000000000000002a       0x2b binaries/getpname.o
 .comment       0x000000000000002a       0x2b binaries/getppid.o
 .comment       0x000000000000002a       0x2b binaries/getprio.o
 .comment       0x000000000000002a       0x2b binaries/getstk.o
 .comment       0x000000000000002a       0x2b binaries/gettime.o
 .comment       0x000000000000002a       0x2b binaries/getutime.o
 .comment       0x000000000000002a       0x2b binaries/host2netlb.o
 .comment       0x000000000000002a       0x2b binaries/init.o
 .comment       0x000000000000002a       0x2b binaries/initialize.o
 .comment       0x000000000000002a       0x2b binaries/insert.o
 .comment       0x000000000000002a       0x2b binaries/insertd.o
 .comment       0x000000000000002a       0x2b binaries/iobound.o
 .comment       0x000000000000002a       0x2b binaries/ioerr.o
 .comment       0x000000000000002a       0x2b binaries/ionull.o
 .comment       0x000000000000002a       0x2b binaries/kill.o
 .comment       0x000000000000002a       0x2b binaries/kprintf.o
 .comment       0x000000000000002a       0x2b binaries/lab2q3.o
 .comment       0x000000000000002a       0x2b binaries/lab2q4.o
 .comment       0x000000000000002a       0x2b binaries/lab2q5.o
 .comment       0x000000000000002a       0x2b binaries/main.o
 .comment       0x000000000000002a       0x2b binaries/mark.o
 .comment       0x000000000000002a       0x2b binaries/meminit.o
 .comment       0x000000000000002a       0x2b binaries/mkbufpool.o
 .comment       0x000000000000002a       0x2b binaries/multilevelfbq.o
 .comment       0x000000000000002a       0x2b binaries/myappA.o
 .comment       0x000000000000002a       0x2b binaries/myfuncA.o
 .comment       0x000000000000002a       0x2b binaries/myhacker.o
 .comment       0x000000000000002a       0x2b binaries/myqueue.o
 .comment       0x000000000000002a       0x2b binaries/myvictim.o
 .comment       0x000000000000002a       0x2b binaries/mywelcomemsg.o
 .comment       0x000000000000002a       0x2b binaries/newqueue.o
 .comment       0x000000000000002a       0x2b binaries/open.o
 .comment       0x000000000000002a       0x2b binaries/panic.o
 .comment       0x000000000000002a       0x2b binaries/pci.o
 .comment       0x000000000000002a       0x2b binaries/platinit.o
 .comment       0x000000000000002a       0x2b binaries/printsegaddr.o
 .comment       0x000000000000002a       0x2b binaries/process_state.o
 .comment       0x000000000000002a       0x2b binaries/ptclear.o
 .comment       0x000000000000002a       0x2b binaries/ptcount.o
 .comment       0x000000000000002a       0x2b binaries/ptcreate.o
 .comment       0x000000000000002a       0x2b binaries/ptdelete.o
 .comment       0x000000000000002a       0x2b binaries/ptinit.o
 .comment       0x000000000000002a       0x2b binaries/ptrecv.o
 .comment       0x000000000000002a       0x2b binaries/ptreset.o
 .comment       0x000000000000002a       0x2b binaries/ptsend.o
 .comment       0x000000000000002a       0x2b binaries/putc.o
 .comment       0x000000000000002a       0x2b binaries/quark_irq.o
 .comment       0x000000000000002a       0x2b binaries/quark_pdat.o
 .comment       0x000000000000002a       0x2b binaries/queue.o
 .comment       0x000000000000002a       0x2b binaries/read.o
 .comment       0x000000000000002a       0x2b binaries/ready.o
 .comment       0x000000000000002a       0x2b binaries/receive.o
 .comment       0x000000000000002a       0x2b binaries/receivebt.o
 .comment       0x000000000000002a       0x2b binaries/recvclr.o
 .comment       0x000000000000002a       0x2b binaries/recvtime.o
 .comment       0x000000000000002a       0x2b binaries/resched.o
 .comment       0x000000000000002a       0x2b binaries/resume.o
 .comment       0x000000000000002a       0x2b binaries/seek.o
 .comment       0x000000000000002a       0x2b binaries/semcount.o
 .comment       0x000000000000002a       0x2b binaries/semcreate.o
 .comment       0x000000000000002a       0x2b binaries/semdelete.o
 .comment       0x000000000000002a       0x2b binaries/semreset.o
 .comment       0x000000000000002a       0x2b binaries/send.o
 .comment       0x000000000000002a       0x2b binaries/sendbt.o
 .comment       0x000000000000002a       0x2b binaries/signal.o
 .comment       0x000000000000002a       0x2b binaries/signaln.o
 .comment       0x000000000000002a       0x2b binaries/sleep.o
 .comment       0x000000000000002a       0x2b binaries/stackdepth.o
 .comment       0x000000000000002a       0x2b binaries/stacktrace.o
 .comment       0x000000000000002a       0x2b binaries/suspend.o
 .comment       0x000000000000002a       0x2b binaries/teststackdepth.o
 .comment       0x000000000000002a       0x2b binaries/tsdtab.o
 .comment       0x000000000000002a       0x2b binaries/unsleep.o
 .comment       0x000000000000002a       0x2b binaries/userret.o
 .comment       0x000000000000002a       0x2b binaries/wait.o
 .comment       0x000000000000002a       0x2b binaries/wakeup.o
 .comment       0x000000000000002a       0x2b binaries/write.o
 .comment       0x000000000000002a       0x2b binaries/xdone.o
 .comment       0x000000000000002a       0x2b binaries/yield.o
 .comment       0x000000000000002a       0x2b binaries/abs.o
 .comment       0x000000000000002a       0x2b binaries/atoi.o
 .comment       0x000000000000002a       0x2b binaries/atol.o
 .comment       0x000000000000002a       0x2b binaries/bzero.o
 .comment       0x000000000000002a       0x2b binaries/ctype_.o
 .comment       0x000000000000002a       0x2b binaries/doprnt.o
 .comment       0x000000000000002a       0x2b binaries/doscan.o
 .comment       0x000000000000002a       0x2b binaries/fdoprnt.o
 .comment       0x000000000000002a       0x2b binaries/fgetc.o
 .comment       0x000000000000002a       0x2b binaries/fgets.o
 .comment       0x000000000000002a       0x2b binaries/fprintf.o
 .comment       0x000000000000002a       0x2b binaries/fputc.o
 .comment       0x000000000000002a       0x2b binaries/fputs.o
 .comment       0x000000000000002a       0x2b binaries/fscanf.o
 .comment       0x000000000000002a       0x2b binaries/getchar.o
 .comment       0x000000000000002a       0x2b binaries/labs.o
 .comment       0x000000000000002a       0x2b binaries/memchr.o
 .comment       0x000000000000002a       0x2b binaries/memcmp.o
 .comment       0x000000000000002a       0x2b binaries/memcpy.o
 .comment       0x000000000000002a       0x2b binaries/memset.o
 .comment       0x000000000000002a       0x2b binaries/printf.o
 .comment       0x000000000000002a       0x2b binaries/putchar.o
 .comment       0x000000000000002a       0x2b binaries/qsort.o
 .comment       0x000000000000002a       0x2b binaries/rand.o
 .comment       0x000000000000002a       0x2b binaries/sprintf.o
 .comment       0x000000000000002a       0x2b binaries/sscanf.o
 .comment       0x000000000000002a       0x2b binaries/strchr.o
 .comment       0x000000000000002a       0x2b binaries/strcmp.o
 .comment       0x000000000000002a       0x2b binaries/strcpy.o
 .comment       0x000000000000002a       0x2b binaries/strlen.o
 .comment       0x000000000000002a       0x2b binaries/strncat.o
 .comment       0x000000000000002a       0x2b binaries/strncmp.o
 .comment       0x000000000000002a       0x2b binaries/strncpy.o
 .comment       0x000000000000002a       0x2b binaries/strnlen.o
 .comment       0x000000000000002a       0x2b binaries/strrchr.o
 .comment       0x000000000000002a       0x2b binaries/strstr.o
 .comment       0x000000000000002a       0x2b binaries/ttycontrol.o
 .comment       0x000000000000002a       0x2b binaries/ttygetc.o
 .comment       0x000000000000002a       0x2b binaries/ttyhandle_in.o
 .comment       0x000000000000002a       0x2b binaries/ttyhandle_out.o
 .comment       0x000000000000002a       0x2b binaries/ttyhandler.o
 .comment       0x000000000000002a       0x2b binaries/ttyinit.o
 .comment       0x000000000000002a       0x2b binaries/ttykickout.o
 .comment       0x000000000000002a       0x2b binaries/ttyputc.o
 .comment       0x000000000000002a       0x2b binaries/ttyread.o
 .comment       0x000000000000002a       0x2b binaries/ttywrite.o
 .comment       0x000000000000002a       0x2b binaries/mount.o
 .comment       0x000000000000002a       0x2b binaries/naminit.o
 .comment       0x000000000000002a       0x2b binaries/nammap.o
 .comment       0x000000000000002a       0x2b binaries/namopen.o
 .comment       0x000000000000002a       0x2b binaries/colon2mac.o
 .comment       0x000000000000002a       0x2b binaries/ethcontrol.o
 .comment       0x000000000000002a       0x2b binaries/ethhandler.o
 .comment       0x000000000000002a       0x2b binaries/ethinit.o
 .comment       0x000000000000002a       0x2b binaries/ethmcast.o
 .comment       0x000000000000002a       0x2b binaries/ethread.o
 .comment       0x000000000000002a       0x2b binaries/ethwrite.o
 .comment       0x000000000000002a       0x2b binaries/rdsbufalloc.o
 .comment       0x000000000000002a       0x2b binaries/rdsclose.o
 .comment       0x000000000000002a       0x2b binaries/rdscomm.o
 .comment       0x000000000000002a       0x2b binaries/rdscontrol.o
 .comment       0x000000000000002a       0x2b binaries/rdsinit.o
 .comment       0x000000000000002a       0x2b binaries/rdsopen.o
 .comment       0x000000000000002a       0x2b binaries/rdsprocess.o
 .comment       0x000000000000002a       0x2b binaries/rdsread.o
 .comment       0x000000000000002a       0x2b binaries/rdswrite.o
 .comment       0x000000000000002a       0x2b binaries/ramclose.o
 .comment       0x000000000000002a       0x2b binaries/raminit.o
 .comment       0x000000000000002a       0x2b binaries/ramopen.o
 .comment       0x000000000000002a       0x2b binaries/ramread.o
 .comment       0x000000000000002a       0x2b binaries/ramwrite.o
 .comment       0x000000000000002a       0x2b binaries/lfdballoc.o
 .comment       0x000000000000002a       0x2b binaries/lfdbfree.o
 .comment       0x000000000000002a       0x2b binaries/lfflush.o
 .comment       0x000000000000002a       0x2b binaries/lfgetmode.o
 .comment       0x000000000000002a       0x2b binaries/lfiballoc.o
 .comment       0x000000000000002a       0x2b binaries/lfibclear.o
 .comment       0x000000000000002a       0x2b binaries/lfibget.o
 .comment       0x000000000000002a       0x2b binaries/lfibput.o
 .comment       0x000000000000002a       0x2b binaries/lflclose.o
 .comment       0x000000000000002a       0x2b binaries/lflcontrol.o
 .comment       0x000000000000002a       0x2b binaries/lflgetc.o
 .comment       0x000000000000002a       0x2b binaries/lflinit.o
 .comment       0x000000000000002a       0x2b binaries/lflputc.o
 .comment       0x000000000000002a       0x2b binaries/lflread.o
 .comment       0x000000000000002a       0x2b binaries/lflseek.o
 .comment       0x000000000000002a       0x2b binaries/lflwrite.o
 .comment       0x000000000000002a       0x2b binaries/lfsckfmt.o
 .comment       0x000000000000002a       0x2b binaries/lfscreate.o
 .comment       0x000000000000002a       0x2b binaries/lfsetup.o
 .comment       0x000000000000002a       0x2b binaries/lfsinit.o
 .comment       0x000000000000002a       0x2b binaries/lfsopen.o
 .comment       0x000000000000002a       0x2b binaries/lftruncate.o
 .comment       0x000000000000002a       0x2b binaries/rflclose.o
 .comment       0x000000000000002a       0x2b binaries/rflgetc.o
 .comment       0x000000000000002a       0x2b binaries/rflinit.o
 .comment       0x000000000000002a       0x2b binaries/rflputc.o
 .comment       0x000000000000002a       0x2b binaries/rflread.o
 .comment       0x000000000000002a       0x2b binaries/rflseek.o
 .comment       0x000000000000002a       0x2b binaries/rflwrite.o
 .comment       0x000000000000002a       0x2b binaries/rfscomm.o
 .comment       0x000000000000002a       0x2b binaries/rfscontrol.o
 .comment       0x000000000000002a       0x2b binaries/rfsgetmode.o
 .comment       0x000000000000002a       0x2b binaries/rfsinit.o
 .comment       0x000000000000002a       0x2b binaries/rfsndmsg.o
 .comment       0x000000000000002a       0x2b binaries/rfsopen.o
 .comment       0x000000000000002a       0x2b binaries/arp.o
 .comment       0x000000000000002a       0x2b binaries/dhcp.o
 .comment       0x000000000000002a       0x2b binaries/dot2ip.o
 .comment       0x000000000000002a       0x2b binaries/hexdump.o
 .comment       0x000000000000002a       0x2b binaries/icmp.o
 .comment       0x000000000000002a       0x2b binaries/ip.o
 .comment       0x000000000000002a       0x2b binaries/net.o
 .comment       0x000000000000002a       0x2b binaries/netstart.o
 .comment       0x000000000000002a       0x2b binaries/pdump.o
 .comment       0x000000000000002a       0x2b binaries/tftp.o
 .comment       0x000000000000002a       0x2b binaries/udp.o
 .comment       0x000000000000002a       0x2b binaries/addargs.o
 .comment       0x000000000000002a       0x2b binaries/lexan.o
 .comment       0x000000000000002a       0x2b binaries/shell.o
 .comment       0x000000000000002a       0x2b binaries/xsh_argecho.o
 .comment       0x000000000000002a       0x2b binaries/xsh_arp.o
 .comment       0x000000000000002a       0x2b binaries/xsh_cat.o
 .comment       0x000000000000002a       0x2b binaries/xsh_clear.o
 .comment       0x000000000000002a       0x2b binaries/xsh_date.o
 .comment       0x000000000000002a       0x2b binaries/xsh_devdump.o
 .comment       0x000000000000002a       0x2b binaries/xsh_echo.o
 .comment       0x000000000000002a       0x2b binaries/xsh_exit.o
 .comment       0x000000000000002a       0x2b binaries/xsh_help.o
 .comment       0x000000000000002a       0x2b binaries/xsh_ipaddr.o
 .comment       0x000000000000002a       0x2b binaries/xsh_kill.o
 .comment       0x000000000000002a       0x2b binaries/xsh_memdump.o
 .comment       0x000000000000002a       0x2b binaries/xsh_memstat.o
 .comment       0x000000000000002a       0x2b binaries/xsh_ping.o
 .comment       0x000000000000002a       0x2b binaries/xsh_ps.o
 .comment       0x000000000000002a       0x2b binaries/xsh_sleep.o
 .comment       0x000000000000002a       0x2b binaries/xsh_udpdump.o
 .comment       0x000000000000002a       0x2b binaries/xsh_udpecho.o
 .comment       0x000000000000002a       0x2b binaries/xsh_udpeserver.o
 .comment       0x000000000000002a       0x2b binaries/xsh_uptime.o
 .comment       0x000000000000002a       0x2b binaries/host2netlc.o

.note.GNU-stack
                0x0000000000000000        0x0
 .note.GNU-stack
                0x0000000000000000        0x0 binaries/app1.o
 .note.GNU-stack
                0x0000000000000000        0x0 binaries/app2.o
 .note.GNU-stack
                0x0000000000000000        0x0 binaries/app3.o
 .note.GNU-stack
                0x0000000000000000        0x0 binaries/ascdate.o
 .note.GNU-stack
                0x0000000000000000        0x0 binaries/bufinit.o
 .note.GNU-stack
                0x0000000000000000        0x0 binaries/chprio.o
 .note.GNU-stack
                0x0000000000000000        0x0 binaries/clkhandler.o
 .note.GNU-stack
                0x0000000000000000        0x0 binaries/clkinit.o
 .note.GNU-stack
                0x0000000000000000        0x0 binaries/close.o
 .note.GNU-stack
                0x0000000000000000        0x0 binaries/conf.o
 .note.GNU-stack
                0x0000000000000000        0x0 binaries/control.o
 .note.GNU-stack
                0x0000000000000000        0x0 binaries/cpubound.o
 .note.GNU-stack
                0x0000000000000000        0x0 binaries/create.o
 .note.GNU-stack
                0x0000000000000000        0x0 binaries/early_imr.o
 .note.GNU-stack
                0x0000000000000000        0x0 binaries/evec.o
 .note.GNU-stack
                0x0000000000000000        0x0 binaries/factorial.o
 .note.GNU-stack
                0x0000000000000000        0x0 binaries/freebuf.o
 .note.GNU-stack
                0x0000000000000000        0x0 binaries/freemem.o
 .note.GNU-stack
                0x0000000000000000        0x0 binaries/getbuf.o
 .note.GNU-stack
                0x0000000000000000        0x0 binaries/getc.o
 .note.GNU-stack
                0x0000000000000000        0x0 binaries/getdev.o
 .note.GNU-stack
                0x0000000000000000        0x0 binaries/getitem.o
 .note.GNU-stack
                0x0000000000000000        0x0 binaries/getmem.o
 .note.GNU-stack
                0x0000000000000000        0x0 binaries/getpid.o
 .note.GNU-stack
                0x0000000000000000        0x0 binaries/getpname.o
 .note.GNU-stack
                0x0000000000000000        0x0 binaries/getppid.o
 .note.GNU-stack
                0x0000000000000000        0x0 binaries/getprio.o
 .note.GNU-stack
                0x0000000000000000        0x0 binaries/getstk.o
 .note.GNU-stack
                0x0000000000000000        0x0 binaries/gettime.o
 .note.GNU-stack
                0x0000000000000000        0x0 binaries/getutime.o
 .note.GNU-stack
                0x0000000000000000        0x0 binaries/host2netlb.o
 .note.GNU-stack
                0x0000000000000000        0x0 binaries/init.o
 .note.GNU-stack
                0x0000000000000000        0x0 binaries/initialize.o
 .note.GNU-stack
                0x0000000000000000        0x0 binaries/insert.o
 .note.GNU-stack
                0x0000000000000000        0x0 binaries/insertd.o
 .note.GNU-stack
                0x0000000000000000        0x0 binaries/iobound.o
 .note.GNU-stack
                0x0000000000000000        0x0 binaries/ioerr.o
 .note.GNU-stack
                0x0000000000000000        0x0 binaries/ionull.o
 .note.GNU-stack
                0x0000000000000000        0x0 binaries/kill.o
 .note.GNU-stack
                0x0000000000000000        0x0 binaries/kprintf.o
 .note.GNU-stack
                0x0000000000000000        0x0 binaries/lab2q3.o
 .note.GNU-stack
                0x0000000000000000        0x0 binaries/lab2q4.o
 .note.GNU-stack
                0x0000000000000000        0x0 binaries/lab2q5.o
 .note.GNU-stack
                0x0000000000000000        0x0 binaries/main.o
 .note.GNU-stack
                0x0000000000000000        0x0 binaries/mark.o
 .note.GNU-stack
                0x0000000000000000        0x0 binaries/meminit.o
 .note.GNU-stack
                0x0000000000000000        0x0 binaries/mkbufpool.o
 .note.GNU-stack
                0x0000000000000000        0x0 binaries/multilevelfbq.o
 .note.GNU-stack
                0x0000000000000000        0x0 binaries/myappA.o
 .note.GNU-stack
                0x0000000000000000        0x0 binaries/myfuncA.o
 .note.GNU-stack
                0x0000000000000000        0x0 binaries/myhacker.o
 .note.GNU-stack
                0x0000000000000000        0x0 binaries/myqueue.o
 .note.GNU-stack
                0x0000000000000000        0x0 binaries/myvictim.o
 .note.GNU-stack
                0x0000000000000000        0x0 binaries/mywelcomemsg.o
 .note.GNU-stack
                0x0000000000000000        0x0 binaries/newqueue.o
 .note.GNU-stack
                0x0000000000000000        0x0 binaries/open.o
 .note.GNU-stack
                0x0000000000000000        0x0 binaries/panic.o
 .note.GNU-stack
                0x0000000000000000        0x0 binaries/pci.o
 .note.GNU-stack
                0x0000000000000000        0x0 binaries/platinit.o
 .note.GNU-stack
                0x0000000000000000        0x0 binaries/printsegaddr.o
 .note.GNU-stack
                0x0000000000000000        0x0 binaries/process_state.o
 .note.GNU-stack
                0x0000000000000000        0x0 binaries/ptclear.o
 .note.GNU-stack
                0x0000000000000000        0x0 binaries/ptcount.o
 .note.GNU-stack
                0x0000000000000000        0x0 binaries/ptcreate.o
 .note.GNU-stack
                0x0000000000000000        0x0 binaries/ptdelete.o
 .note.GNU-stack
                0x0000000000000000        0x0 binaries/ptinit.o
 .note.GNU-stack
                0x0000000000000000        0x0 binaries/ptrecv.o
 .note.GNU-stack
                0x0000000000000000        0x0 binaries/ptreset.o
 .note.GNU-stack
                0x0000000000000000        0x0 binaries/ptsend.o
 .note.GNU-stack
                0x0000000000000000        0x0 binaries/putc.o
 .note.GNU-stack
                0x0000000000000000        0x0 binaries/quark_irq.o
 .note.GNU-stack
                0x0000000000000000        0x0 binaries/quark_pdat.o
 .note.GNU-stack
                0x0000000000000000        0x0 binaries/queue.o
 .note.GNU-stack
                0x0000000000000000        0x0 binaries/read.o
 .note.GNU-stack
                0x0000000000000000        0x0 binaries/ready.o
 .note.GNU-stack
                0x0000000000000000        0x0 binaries/receive.o
 .note.GNU-stack
                0x0000000000000000        0x0 binaries/receivebt.o
 .note.GNU-stack
                0x0000000000000000        0x0 binaries/recvclr.o
 .note.GNU-stack
                0x0000000000000000        0x0 binaries/recvtime.o
 .note.GNU-stack
                0x0000000000000000        0x0 binaries/resched.o
 .note.GNU-stack
                0x0000000000000000        0x0 binaries/resume.o
 .note.GNU-stack
                0x0000000000000000        0x0 binaries/seek.o
 .note.GNU-stack
                0x0000000000000000        0x0 binaries/semcount.o
 .note.GNU-stack
                0x0000000000000000        0x0 binaries/semcreate.o
 .note.GNU-stack
                0x0000000000000000        0x0 binaries/semdelete.o
 .note.GNU-stack
                0x0000000000000000        0x0 binaries/semreset.o
 .note.GNU-stack
                0x0000000000000000        0x0 binaries/send.o
 .note.GNU-stack
                0x0000000000000000        0x0 binaries/sendbt.o
 .note.GNU-stack
                0x0000000000000000        0x0 binaries/signal.o
 .note.GNU-stack
                0x0000000000000000        0x0 binaries/signaln.o
 .note.GNU-stack
                0x0000000000000000        0x0 binaries/sleep.o
 .note.GNU-stack
                0x0000000000000000        0x0 binaries/stackdepth.o
 .note.GNU-stack
                0x0000000000000000        0x0 binaries/stacktrace.o
 .note.GNU-stack
                0x0000000000000000        0x0 binaries/suspend.o
 .note.GNU-stack
                0x0000000000000000        0x0 binaries/teststackdepth.o
 .note.GNU-stack
                0x0000000000000000        0x0 binaries/tsdtab.o
 .note.GNU-stack
                0x0000000000000000        0x0 binaries/unsleep.o
 .note.GNU-stack
                0x0000000000000000        0x0 binaries/userret.o
 .note.GNU-stack
                0x0000000000000000        0x0 binaries/wait.o
 .note.GNU-stack
                0x0000000000000000        0x0 binaries/wakeup.o
 .note.GNU-stack
                0x0000000000000000        0x0 binaries/write.o
 .note.GNU-stack
                0x0000000000000000        0x0 binaries/xdone.o
 .note.GNU-stack
                0x0000000000000000        0x0 binaries/yield.o
 .note.GNU-stack
                0x0000000000000000        0x0 binaries/abs.o
 .note.GNU-stack
                0x0000000000000000        0x0 binaries/atoi.o
 .note.GNU-stack
                0x0000000000000000        0x0 binaries/atol.o
 .note.GNU-stack
                0x0000000000000000        0x0 binaries/bzero.o
 .note.GNU-stack
                0x0000000000000000        0x0 binaries/ctype_.o
 .note.GNU-stack
                0x0000000000000000        0x0 binaries/doprnt.o
 .note.GNU-stack
                0x0000000000000000        0x0 binaries/doscan.o
 .note.GNU-stack
                0x0000000000000000        0x0 binaries/fdoprnt.o
 .note.GNU-stack
                0x0000000000000000        0x0 binaries/fgetc.o
 .note.GNU-stack
                0x0000000000000000        0x0 binaries/fgets.o
 .note.GNU-stack
                0x0000000000000000        0x0 binaries/fprintf.o
 .note.GNU-stack
                0x0000000000000000        0x0 binaries/fputc.o
 .note.GNU-stack
                0x0000000000000000        0x0 binaries/fputs.o
 .note.GNU-stack
                0x0000000000000000        0x0 binaries/fscanf.o
 .note.GNU-stack
                0x0000000000000000        0x0 binaries/getchar.o
 .note.GNU-stack
                0x0000000000000000        0x0 binaries/labs.o
 .note.GNU-stack
                0x0000000000000000        0x0 binaries/memchr.o
 .note.GNU-stack
                0x0000000000000000        0x0 binaries/memcmp.o
 .note.GNU-stack
                0x0000000000000000        0x0 binaries/memcpy.o
 .note.GNU-stack
                0x0000000000000000        0x0 binaries/memset.o
 .note.GNU-stack
                0x0000000000000000        0x0 binaries/printf.o
 .note.GNU-stack
                0x0000000000000000        0x0 binaries/putchar.o
 .note.GNU-stack
                0x0000000000000000        0x0 binaries/qsort.o
 .note.GNU-stack
                0x0000000000000000        0x0 binaries/rand.o
 .note.GNU-stack
                0x0000000000000000        0x0 binaries/sprintf.o
 .note.GNU-stack
                0x0000000000000000        0x0 binaries/sscanf.o
 .note.GNU-stack
                0x0000000000000000        0x0 binaries/strchr.o
 .note.GNU-stack
                0x0000000000000000        0x0 binaries/strcmp.o
 .note.GNU-stack
                0x0000000000000000        0x0 binaries/strcpy.o
 .note.GNU-stack
                0x0000000000000000        0x0 binaries/strlen.o
 .note.GNU-stack
                0x0000000000000000        0x0 binaries/strncat.o
 .note.GNU-stack
                0x0000000000000000        0x0 binaries/strncmp.o
 .note.GNU-stack
                0x0000000000000000        0x0 binaries/strncpy.o
 .note.GNU-stack
                0x0000000000000000        0x0 binaries/strnlen.o
 .note.GNU-stack
                0x0000000000000000        0x0 binaries/strrchr.o
 .note.GNU-stack
                0x0000000000000000        0x0 binaries/strstr.o
 .note.GNU-stack
                0x0000000000000000        0x0 binaries/ttycontrol.o
 .note.GNU-stack
                0x0000000000000000        0x0 binaries/ttygetc.o
 .note.GNU-stack
                0x0000000000000000        0x0 binaries/ttyhandle_in.o
 .note.GNU-stack
                0x0000000000000000        0x0 binaries/ttyhandle_out.o
 .note.GNU-stack
                0x0000000000000000        0x0 binaries/ttyhandler.o
 .note.GNU-stack
                0x0000000000000000        0x0 binaries/ttyinit.o
 .note.GNU-stack
                0x0000000000000000        0x0 binaries/ttykickout.o
 .note.GNU-stack
                0x0000000000000000        0x0 binaries/ttyputc.o
 .note.GNU-stack
                0x0000000000000000        0x0 binaries/ttyread.o
 .note.GNU-stack
                0x0000000000000000        0x0 binaries/ttywrite.o
 .note.GNU-stack
                0x0000000000000000        0x0 binaries/mount.o
 .note.GNU-stack
                0x0000000000000000        0x0 binaries/naminit.o
 .note.GNU-stack
                0x0000000000000000        0x0 binaries/nammap.o
 .note.GNU-stack
                0x0000000000000000        0x0 binaries/namopen.o
 .note.GNU-stack
                0x0000000000000000        0x0 binaries/colon2mac.o
 .note.GNU-stack
                0x0000000000000000        0x0 binaries/ethcontrol.o
 .note.GNU-stack
                0x0000000000000000        0x0 binaries/ethhandler.o
 .note.GNU-stack
                0x0000000000000000        0x0 binaries/ethinit.o
 .note.GNU-stack
                0x0000000000000000        0x0 binaries/ethmcast.o
 .note.GNU-stack
                0x0000000000000000        0x0 binaries/ethread.o
 .note.GNU-stack
                0x0000000000000000        0x0 binaries/ethwrite.o
 .note.GNU-stack
                0x0000000000000000        0x0 binaries/rdsbufalloc.o
 .note.GNU-stack
                0x0000000000000000        0x0 binaries/rdsclose.o
 .note.GNU-stack
                0x0000000000000000        0x0 binaries/rdscomm.o
 .note.GNU-stack
                0x0000000000000000        0x0 binaries/rdscontrol.o
 .note.GNU-stack
                0x0000000000000000        0x0 binaries/rdsinit.o
 .note.GNU-stack
                0x0000000000000000        0x0 binaries/rdsopen.o
 .note.GNU-stack
                0x0000000000000000        0x0 binaries/rdsprocess.o
 .note.GNU-stack
                0x0000000000000000        0x0 binaries/rdsread.o
 .note.GNU-stack
                0x0000000000000000        0x0 binaries/rdswrite.o
 .note.GNU-stack
                0x0000000000000000        0x0 binaries/ramclose.o
 .note.GNU-stack
                0x0000000000000000        0x0 binaries/raminit.o
 .note.GNU-stack
                0x0000000000000000        0x0 binaries/ramopen.o
 .note.GNU-stack
                0x0000000000000000        0x0 binaries/ramread.o
 .note.GNU-stack
                0x0000000000000000        0x0 binaries/ramwrite.o
 .note.GNU-stack
                0x0000000000000000        0x0 binaries/lfdballoc.o
 .note.GNU-stack
                0x0000000000000000        0x0 binaries/lfdbfree.o
 .note.GNU-stack
                0x0000000000000000        0x0 binaries/lfflush.o
 .note.GNU-stack
                0x0000000000000000        0x0 binaries/lfgetmode.o
 .note.GNU-stack
                0x0000000000000000        0x0 binaries/lfiballoc.o
 .note.GNU-stack
                0x0000000000000000        0x0 binaries/lfibclear.o
 .note.GNU-stack
                0x0000000000000000        0x0 binaries/lfibget.o
 .note.GNU-stack
                0x0000000000000000        0x0 binaries/lfibput.o
 .note.GNU-stack
                0x0000000000000000        0x0 binaries/lflclose.o
 .note.GNU-stack
                0x0000000000000000        0x0 binaries/lflcontrol.o
 .note.GNU-stack
                0x0000000000000000        0x0 binaries/lflgetc.o
 .note.GNU-stack
                0x0000000000000000        0x0 binaries/lflinit.o
 .note.GNU-stack
                0x0000000000000000        0x0 binaries/lflputc.o
 .note.GNU-stack
                0x0000000000000000        0x0 binaries/lflread.o
 .note.GNU-stack
                0x0000000000000000        0x0 binaries/lflseek.o
 .note.GNU-stack
                0x0000000000000000        0x0 binaries/lflwrite.o
 .note.GNU-stack
                0x0000000000000000        0x0 binaries/lfsckfmt.o
 .note.GNU-stack
                0x0000000000000000        0x0 binaries/lfscreate.o
 .note.GNU-stack
                0x0000000000000000        0x0 binaries/lfsetup.o
 .note.GNU-stack
                0x0000000000000000        0x0 binaries/lfsinit.o
 .note.GNU-stack
                0x0000000000000000        0x0 binaries/lfsopen.o
 .note.GNU-stack
                0x0000000000000000        0x0 binaries/lftruncate.o
 .note.GNU-stack
                0x0000000000000000        0x0 binaries/rflclose.o
 .note.GNU-stack
                0x0000000000000000        0x0 binaries/rflgetc.o
 .note.GNU-stack
                0x0000000000000000        0x0 binaries/rflinit.o
 .note.GNU-stack
                0x0000000000000000        0x0 binaries/rflputc.o
 .note.GNU-stack
                0x0000000000000000        0x0 binaries/rflread.o
 .note.GNU-stack
                0x0000000000000000        0x0 binaries/rflseek.o
 .note.GNU-stack
                0x0000000000000000        0x0 binaries/rflwrite.o
 .note.GNU-stack
                0x0000000000000000        0x0 binaries/rfscomm.o
 .note.GNU-stack
                0x0000000000000000        0x0 binaries/rfscontrol.o
 .note.GNU-stack
                0x0000000000000000        0x0 binaries/rfsgetmode.o
 .note.GNU-stack
                0x0000000000000000        0x0 binaries/rfsinit.o
 .note.GNU-stack
                0x0000000000000000        0x0 binaries/rfsndmsg.o
 .note.GNU-stack
                0x0000000000000000        0x0 binaries/rfsopen.o
 .note.GNU-stack
                0x0000000000000000        0x0 binaries/arp.o
 .note.GNU-stack
                0x0000000000000000        0x0 binaries/dhcp.o
 .note.GNU-stack
                0x0000000000000000        0x0 binaries/dot2ip.o
 .note.GNU-stack
                0x0000000000000000        0x0 binaries/hexdump.o
 .note.GNU-stack
                0x0000000000000000        0x0 binaries/icmp.o
 .note.GNU-stack
                0x0000000000000000        0x0 binaries/ip.o
 .note.GNU-stack
                0x0000000000000000        0x0 binaries/net.o
 .note.GNU-stack
                0x0000000000000000        0x0 binaries/netstart.o
 .note.GNU-stack
                0x0000000000000000        0x0 binaries/pdump.o
 .note.GNU-stack
                0x0000000000000000        0x0 binaries/tftp.o
 .note.GNU-stack
                0x0000000000000000        0x0 binaries/udp.o
 .note.GNU-stack
                0x0000000000000000        0x0 binaries/addargs.o
 .note.GNU-stack
                0x0000000000000000        0x0 binaries/lexan.o
 .note.GNU-stack
                0x0000000000000000        0x0 binaries/shell.o
 .note.GNU-stack
                0x0000000000000000        0x0 binaries/xsh_argecho.o
 .note.GNU-stack
                0x0000000000000000        0x0 binaries/xsh_arp.o
 .note.GNU-stack
                0x0000000000000000        0x0 binaries/xsh_cat.o
 .note.GNU-stack
                0x0000000000000000        0x0 binaries/xsh_clear.o
 .note.GNU-stack
                0x0000000000000000        0x0 binaries/xsh_date.o
 .note.GNU-stack
                0x0000000000000000        0x0 binaries/xsh_devdump.o
 .note.GNU-stack
                0x0000000000000000        0x0 binaries/xsh_echo.o
 .note.GNU-stack
                0x0000000000000000        0x0 binaries/xsh_exit.o
 .note.GNU-stack
                0x0000000000000000        0x0 binaries/xsh_help.o
 .note.GNU-stack
                0x0000000000000000        0x0 binaries/xsh_ipaddr.o
 .note.GNU-stack
                0x0000000000000000        0x0 binaries/xsh_kill.o
 .note.GNU-stack
                0x0000000000000000        0x0 binaries/xsh_memdump.o
 .note.GNU-stack
                0x0000000000000000        0x0 binaries/xsh_memstat.o
 .note.GNU-stack
                0x0000000000000000        0x0 binaries/xsh_ping.o
 .note.GNU-stack
                0x0000000000000000        0x0 binaries/xsh_ps.o
 .note.GNU-stack
                0x0000000000000000        0x0 binaries/xsh_sleep.o
 .note.GNU-stack
                0x0000000000000000        0x0 binaries/xsh_udpdump.o
 .note.GNU-stack
                0x0000000000000000        0x0 binaries/xsh_udpecho.o
 .note.GNU-stack
                0x0000000000000000        0x0 binaries/xsh_udpeserver.o
 .note.GNU-stack
                0x0000000000000000        0x0 binaries/xsh_uptime.o
 .note.GNU-stack
                0x0000000000000000        0x0 binaries/host2netlc.o
