
Allocating common symbols
Common symbol       size              file

netbufpool          0x4               binaries/net.o
readylist           0x2               binaries/ready.o
rfltab              0x5a0             binaries/rflinit.o
sleepq              0x2               binaries/clkinit.o
nnames              0x4               binaries/naminit.o
udptab              0x168             binaries/udp.o
minheap             0x4               binaries/meminit.o
marks               0x50              binaries/mark.o
currpid             0x4               binaries/initialize.o
Lf_data             0x20c             binaries/lfsinit.o
porttab             0x2d0             binaries/ptinit.o
girmask             0x2               binaries/evec.o
ttytab              0x10c             binaries/ttyinit.o
proctab             0x1900            binaries/initialize.o
prcount             0x4               binaries/initialize.o
victimsRetAddress   0x4               binaries/main.o
lfltab              0xf00             binaries/lflinit.o
rdstab              0x8c              binaries/rdsinit.o
ethertab            0x138             binaries/ethinit.o
NetData             0xa8              binaries/net.o
nmarks              0x4               binaries/mark.o
Defer               0x8               binaries/resched.o
semtab              0x4b0             binaries/initialize.o
maxheap             0x4               binaries/meminit.o
preempt             0x4               binaries/clkinit.o
buftab              0xf0              binaries/bufinit.o
Rf_data             0x18              binaries/rfsinit.o
mkmutex             0x4               binaries/mark.o
clktimemsec         0x4               binaries/clkinit.o
clktime             0x4               binaries/clkinit.o
arpcache            0x140             binaries/arp.o
icmptab             0x230             binaries/icmp.o
nbpools             0x4               binaries/bufinit.o
queuetab            0x980             binaries/queue.o
ptnextid            0x4               binaries/ptinit.o
Ram                 0x19000           binaries/raminit.o
ipoqueue            0x2c              binaries/ip.o
memlist             0x8               binaries/initialize.o
nametab             0x19a0            binaries/naminit.o
ptfree              0x4               binaries/ptinit.o

Memory Configuration

Name             Origin             Length             Attributes
*default*        0x0000000000000000 0xffffffffffffffff

Linker script and memory map

                0x0000000000100000                physbase = 0x100000
                0x0000000000100000                . = physbase
                0x0000000000100000                . = ALIGN (0x1000)

.text           0x0000000000100000    0x15000
                0x0000000000100000                text = ABSOLUTE (.)
 *(.text .text.*)
 .text          0x0000000000100000      0x1ac binaries/start.o
                0x0000000000100028                start
                0x00000000001000fa                inb
                0x0000000000100102                inw
                0x000000000010010b                inl
                0x0000000000100113                outb
                0x000000000010011d                outw
                0x0000000000100128                outl
                0x0000000000100132                _rtcin
                0x000000000010013d                ___udivsi3
                0x0000000000100148                ___divsi3
                0x0000000000100154                sbzero
                0x0000000000100164                bcopy
                0x0000000000100178                insw
                0x000000000010018e                outsw
                0x00000000001001a4                lidt
 .text          0x00000000001001ac       0x35 binaries/app1.o
                0x00000000001001ac                app1
 .text          0x00000000001001e1       0x8f binaries/app2.o
                0x00000000001001e1                app2
 .text          0x0000000000100270       0x67 binaries/app3.o
                0x0000000000100270                app3
 .text          0x00000000001002d7      0x2b9 binaries/ascdate.o
                0x00000000001002d7                ascdate
 .text          0x0000000000100590       0x14 binaries/bufinit.o
                0x0000000000100590                bufinit
 .text          0x00000000001005a4       0x62 binaries/chprio.o
                0x00000000001005a4                chprio
 .text          0x0000000000100606       0x90 binaries/clkhandler.o
                0x0000000000100606                clkhandler
 .text          0x0000000000100696       0x67 binaries/clkinit.o
                0x0000000000100696                clkinit
 .text          0x00000000001006fd       0x56 binaries/close.o
                0x00000000001006fd                close
 .text          0x0000000000100753        0x0 binaries/conf.o
 .text          0x0000000000100753       0x5c binaries/control.o
                0x0000000000100753                control
 .text          0x00000000001007af      0x233 binaries/create.o
                0x00000000001007af                create
 .text          0x00000000001009e2      0x20e binaries/early_imr.o
                0x00000000001009e2                intel_cln_early_sb_read_reg
                0x0000000000100a39                intel_cln_early_sb_write_reg
                0x0000000000100af3                remove_irm_protections
 .text          0x0000000000100bf0      0x2e2 binaries/evec.o
                0x0000000000100bf0                setirmask
                0x0000000000100c28                set_evec
                0x0000000000100c83                initevec
                0x0000000000100d55                trap
 .text          0x0000000000100ed2       0x30 binaries/factorial.o
                0x0000000000100ed2                factorial
 .text          0x0000000000100f02       0x7f binaries/freebuf.o
                0x0000000000100f02                freebuf
 .text          0x0000000000100f81      0x108 binaries/freemem.o
                0x0000000000100f81                freemem
 .text          0x0000000000101089       0x6e binaries/getbuf.o
                0x0000000000101089                getbuf
 .text          0x00000000001010f7       0x56 binaries/getc.o
                0x00000000001010f7                getc
 .text          0x000000000010114d       0x69 binaries/getdev.o
                0x000000000010114d                getdev
 .text          0x00000000001011b6       0x82 binaries/getitem.o
                0x00000000001011b6                getitem
                0x00000000001011e5                getfirst
                0x000000000010120c                getlast
 .text          0x0000000000101238       0xc2 binaries/getmem.o
                0x0000000000101238                getmem
 .text          0x00000000001012fa        0xa binaries/getpid.o
                0x00000000001012fa                getpid
 .text          0x0000000000101304       0x10 binaries/getpname.o
                0x0000000000101304                getpname
 .text          0x0000000000101314       0x13 binaries/getppid.o
                0x0000000000101314                getppid
 .text          0x0000000000101327       0x54 binaries/getprio.o
                0x0000000000101327                getprio
 .text          0x000000000010137b       0xac binaries/getstk.o
                0x000000000010137b                getstk
 .text          0x0000000000101427       0x32 binaries/gettime.o
                0x0000000000101427                gettime
 .text          0x0000000000101459      0x186 binaries/getutime.o
                0x0000000000101459                getutime
 .text          0x00000000001015df       0x10 binaries/host2netlb.o
                0x00000000001015df                host2netlb
 .text          0x00000000001015ef       0x56 binaries/init.o
                0x00000000001015ef                init
 .text          0x0000000000101645      0x287 binaries/initialize.o
                0x0000000000101645                nulluser
                0x0000000000101882                stop
                0x00000000001018a6                delay
 .text          0x00000000001018cc       0x98 binaries/insert.o
                0x00000000001018cc                insert
 .text          0x0000000000101964       0xe8 binaries/insertd.o
                0x0000000000101964                insertd
 .text          0x0000000000101a4c        0xa binaries/ioerr.o
                0x0000000000101a4c                ioerr
 .text          0x0000000000101a56        0xa binaries/ionull.o
                0x0000000000101a56                ionull
 .text          0x0000000000101a60      0x161 binaries/kill.o
                0x0000000000101a60                kill
 .text          0x0000000000101bc1       0xa9 binaries/kprintf.o
                0x0000000000101bc1                kputc
                0x0000000000101bf3                console_init
                0x0000000000101c26                kgetc
                0x0000000000101c4c                kprintf
 .text          0x0000000000101c6a      0x2cd binaries/lab2q3.o
                0x0000000000101c6a                workerProcessTypeA
                0x0000000000101c6f                workerProcessTypeB
                0x0000000000101c8c                monitorProcess
                0x0000000000101d06                lab2q3t1
                0x0000000000101d65                lab2q3t2
                0x0000000000101e4e                lab2q3t3
 .text          0x0000000000101f37       0xd7 binaries/main.o
                0x0000000000101f37                main
 .text          0x000000000010200e       0x99 binaries/mark.o
                0x000000000010200e                markinit
                0x000000000010202f                mark
 .text          0x00000000001020a7      0x1ff binaries/meminit.o
                0x00000000001020a7                meminit
                0x0000000000102236                setsegs
 .text          0x00000000001022a6      0x122 binaries/mkbufpool.o
                0x00000000001022a6                mkbufpool
 .text          0x00000000001023c8       0x9c binaries/myappA.o
                0x00000000001023c8                myappA
 .text          0x0000000000102464       0x23 binaries/myfuncA.o
                0x0000000000102464                myfuncA
 .text          0x0000000000102487       0x83 binaries/myhacker.o
                0x0000000000102487                myhackermalware
                0x00000000001024b3                getretaddrbydepth
                0x00000000001024e1                myhacker
 .text          0x000000000010250a       0x9b binaries/myvictim.o
                0x000000000010250a                makevictimsleep
                0x0000000000102535                invokevictimsleep
                0x0000000000102560                myvictim
 .text          0x00000000001025a5       0x5f binaries/mywelcomemsg.o
                0x00000000001025a5                mywelcomemsg
 .text          0x0000000000102604       0x63 binaries/newqueue.o
                0x0000000000102604                newqueue
 .text          0x0000000000102667       0x5c binaries/open.o
                0x0000000000102667                open
 .text          0x00000000001026c3       0x20 binaries/panic.o
                0x00000000001026c3                panic
 .text          0x00000000001026e3      0x282 binaries/pci.o
                0x00000000001026e3                pci_init
                0x00000000001026ed                find_pci_device
                0x00000000001027ac                pci_read_config_byte
                0x00000000001027ea                pci_read_config_word
                0x000000000010282a                pci_read_config_dword
                0x0000000000102868                pci_write_config_byte
                0x00000000001028a4                pci_write_config_word
                0x00000000001028e1                pci_write_config_dword
                0x000000000010291d                pci_get_dev_mmio_base_addr
 .text          0x0000000000102965       0x50 binaries/platinit.o
                0x0000000000102965                platinit
 .text          0x00000000001029b5       0xa7 binaries/printsegaddr.o
                0x00000000001029b5                printsegaddr
 .text          0x0000000000102a5c       0xa9 binaries/ptclear.o
                0x0000000000102a5c                _ptclear
 .text          0x0000000000102b05       0x85 binaries/ptcount.o
                0x0000000000102b05                ptcount
 .text          0x0000000000102b8a       0xfe binaries/ptcreate.o
                0x0000000000102b8a                ptcreate
 .text          0x0000000000102c88       0x63 binaries/ptdelete.o
                0x0000000000102c88                ptdelete
 .text          0x0000000000102ceb       0x91 binaries/ptinit.o
                0x0000000000102ceb                ptinit
 .text          0x0000000000102d7c       0xf5 binaries/ptrecv.o
                0x0000000000102d7c                ptrecv
 .text          0x0000000000102e71       0x66 binaries/ptreset.o
                0x0000000000102e71                ptreset
 .text          0x0000000000102ed7      0x115 binaries/ptsend.o
                0x0000000000102ed7                ptsend
 .text          0x0000000000102fec       0x64 binaries/putc.o
                0x0000000000102fec                putc
 .text          0x0000000000103050       0xb3 binaries/quark_irq.o
                0x0000000000103050                quark_irq_routing
 .text          0x0000000000103103      0x19a binaries/quark_pdat.o
                0x0000000000103103                get_quark_pdat_entry_data_by_id
                0x00000000001031cd                get_quark_pdat_entry_data_by_desc
 .text          0x000000000010329d       0xae binaries/queue.o
                0x000000000010329d                enqueue
                0x0000000000103300                dequeue
 .text          0x000000000010334b       0x5c binaries/read.o
                0x000000000010334b                read
 .text          0x00000000001033a7       0x61 binaries/ready.o
                0x00000000001033a7                ready
 .text          0x0000000000103408       0x5a binaries/receive.o
                0x0000000000103408                receive
 .text          0x0000000000103462       0x42 binaries/recvclr.o
                0x0000000000103462                recvclr
 .text          0x00000000001034a4       0xad binaries/recvtime.o
                0x00000000001034a4                recvtime
 .text          0x0000000000103551      0x14f binaries/resched.o
                0x0000000000103551                resched
                0x000000000010362e                resched_cntl
 .text          0x00000000001036a0       0x7e binaries/resume.o
                0x00000000001036a0                resume
 .text          0x000000000010371e       0x59 binaries/seek.o
                0x000000000010371e                seek
 .text          0x0000000000103777       0x51 binaries/semcount.o
                0x0000000000103777                semcount
 .text          0x00000000001037c8       0x93 binaries/semcreate.o
                0x00000000001037c8                semcreate
 .text          0x000000000010385b       0xd1 binaries/semdelete.o
                0x000000000010385b                semdelete
 .text          0x000000000010392c       0xa8 binaries/semreset.o
                0x000000000010392c                semreset
 .text          0x00000000001039d4       0xb3 binaries/send.o
                0x00000000001039d4                send
 .text          0x0000000000103a87       0x95 binaries/signal.o
                0x0000000000103a87                signal
 .text          0x0000000000103b1c       0xc2 binaries/signaln.o
                0x0000000000103b1c                signaln
 .text          0x0000000000103bde       0xbd binaries/sleep.o
                0x0000000000103bde                sleepms
                0x0000000000103c65                sleep
 .text          0x0000000000103c9b       0x94 binaries/stackdepth.o
                0x0000000000103c9b                stackdepth
 .text          0x0000000000103d2f      0x17c binaries/stacktrace.o
                0x0000000000103d2f                stacktrace
 .text          0x0000000000103eab       0xac binaries/suspend.o
                0x0000000000103eab                suspend
 .text          0x0000000000103f57       0x27 binaries/teststackdepth.o
                0x0000000000103f57                teststackdepth
 .text          0x0000000000103f7e       0x91 binaries/unsleep.o
                0x0000000000103f7e                unsleep
 .text          0x000000000010400f       0x19 binaries/userret.o
                0x000000000010400f                userret
 .text          0x0000000000104028       0xac binaries/wait.o
                0x0000000000104028                wait
 .text          0x00000000001040d4       0x71 binaries/wakeup.o
                0x00000000001040d4                wakeup
 .text          0x0000000000104145       0x5c binaries/write.o
                0x0000000000104145                write
 .text          0x00000000001041a1       0x1a binaries/xdone.o
                0x00000000001041a1                xdone
 .text          0x00000000001041bb       0x26 binaries/yield.o
                0x00000000001041bb                yield
 .text          0x00000000001041e1       0x11 binaries/abs.o
                0x00000000001041e1                abs
 .text          0x00000000001041f2       0x84 binaries/atoi.o
                0x00000000001041f2                atoi
 .text          0x0000000000104276       0x84 binaries/atol.o
                0x0000000000104276                atol
 .text          0x00000000001042fa       0x1a binaries/bzero.o
                0x00000000001042fa                bzero
 .text          0x0000000000104314        0x0 binaries/ctype_.o
 .text          0x0000000000104314      0x6bf binaries/doprnt.o
                0x0000000000104467                _doprnt
 .text          0x00000000001049d3      0x5f2 binaries/doscan.o
                0x00000000001049d3                _doscan
 .text          0x0000000000104fc5      0x64e binaries/fdoprnt.o
                0x000000000010504a                _fdoprnt
 .text          0x0000000000105613       0x1c binaries/fgetc.o
                0x0000000000105613                fgetc
 .text          0x000000000010562f       0x61 binaries/fgets.o
                0x000000000010562f                fgets
 .text          0x0000000000105690       0x21 binaries/fprintf.o
                0x0000000000105690                fprintf
 .text          0x00000000001056b1       0x27 binaries/fputc.o
                0x00000000001056b1                fputc
 .text          0x00000000001056d8       0x3a binaries/fputs.o
                0x00000000001056d8                fputs
 .text          0x0000000000105712       0x6a binaries/fscanf.o
                0x0000000000105750                fscanf
 .text          0x000000000010577c       0x1d binaries/getchar.o
                0x000000000010577c                getchar
 .text          0x0000000000105799       0x11 binaries/labs.o
                0x0000000000105799                labs
 .text          0x00000000001057aa       0x36 binaries/memchr.o
                0x00000000001057aa                memchr
 .text          0x00000000001057e0       0x4a binaries/memcmp.o
                0x00000000001057e0                memcmp
 .text          0x000000000010582a       0x26 binaries/memcpy.o
                0x000000000010582a                memcpy
 .text          0x0000000000105850       0x1f binaries/memset.o
                0x0000000000105850                memset
 .text          0x000000000010586f       0x2e binaries/printf.o
                0x000000000010586f                printf
 .text          0x000000000010589d       0x20 binaries/putchar.o
                0x000000000010589d                putchar
 .text          0x00000000001058bd      0x1cc binaries/qsort.o
                0x0000000000105a61                qsort
 .text          0x0000000000105a89       0x4c binaries/rand.o
                0x0000000000105a89                srand
                0x0000000000105a96                rand
 .text          0x0000000000105ad5       0x48 binaries/sprintf.o
                0x0000000000105aee                sprintf
 .text          0x0000000000105b1d       0x5a binaries/sscanf.o
                0x0000000000105b4d                sscanf
 .text          0x0000000000105b77       0x2f binaries/strchr.o
                0x0000000000105b77                strchr
 .text          0x0000000000105ba6       0x45 binaries/strcmp.o
                0x0000000000105ba6                strcmp
 .text          0x0000000000105beb       0x1c binaries/strcpy.o
                0x0000000000105beb                strcpy
 .text          0x0000000000105c07       0x20 binaries/strlen.o
                0x0000000000105c07                strlen
 .text          0x0000000000105c27       0x3d binaries/strncat.o
                0x0000000000105c27                strncat
 .text          0x0000000000105c64       0x3b binaries/strncmp.o
                0x0000000000105c64                strncmp
 .text          0x0000000000105c9f       0x59 binaries/strncpy.o
                0x0000000000105c9f                strncpy
 .text          0x0000000000105cf8       0x38 binaries/strnlen.o
                0x0000000000105cf8                strnlen
 .text          0x0000000000105d30       0x32 binaries/strrchr.o
                0x0000000000105d30                strrchr
 .text          0x0000000000105d62       0x68 binaries/strstr.o
                0x0000000000105d62                strstr
 .text          0x0000000000105dca      0x112 binaries/ttycontrol.o
                0x0000000000105dca                ttycontrol
 .text          0x0000000000105edc       0xb0 binaries/ttygetc.o
                0x0000000000105edc                ttygetc
 .text          0x0000000000105f8c      0x4a3 binaries/ttyhandle_in.o
                0x0000000000106050                ttyhandle_in
 .text          0x000000000010642f      0x178 binaries/ttyhandle_out.o
                0x000000000010642f                ttyhandle_out
 .text          0x00000000001065a7       0x85 binaries/ttyhandler.o
                0x00000000001065a7                ttyhandler
 .text          0x000000000010662c      0x15d binaries/ttyinit.o
                0x000000000010662c                ttyinit
 .text          0x0000000000106789        0xf binaries/ttykickout.o
                0x0000000000106789                ttykickout
 .text          0x0000000000106798       0xb2 binaries/ttyputc.o
                0x0000000000106798                ttyputc
 .text          0x000000000010684a       0xff binaries/ttyread.o
                0x000000000010684a                ttyread
 .text          0x0000000000106949       0x4d binaries/ttywrite.o
                0x0000000000106949                ttywrite
 .text          0x0000000000106996      0x129 binaries/mount.o
                0x0000000000106996                namlen
                0x00000000001069d2                mount
 .text          0x0000000000106abf      0x1c4 binaries/naminit.o
                0x0000000000106abf                naminit
 .text          0x0000000000106c83      0x1fe binaries/nammap.o
                0x0000000000106c83                namrepl
                0x0000000000106da6                namcpy
                0x0000000000106df4                nammap
 .text          0x0000000000106e81       0x44 binaries/namopen.o
                0x0000000000106e81                namopen
 .text          0x0000000000106ec5       0xd4 binaries/colon2mac.o
                0x0000000000106ec5                colon2mac
 .text          0x0000000000106f99       0x7d binaries/ethcontrol.o
                0x0000000000106f99                ethcontrol
 .text          0x0000000000107016      0x17e binaries/ethhandler.o
                0x0000000000107016                ethhandler
 .text          0x0000000000107194      0x548 binaries/ethinit.o
                0x0000000000107194                eth_phy_read
                0x00000000001071d4                eth_phy_write
                0x0000000000107215                eth_phy_reset
                0x00000000001072ef                ethinit
 .text          0x00000000001076dc      0x107 binaries/ethmcast.o
                0x00000000001076dc                ethmcast_add
                0x0000000000107728                ethmcast_remove
 .text          0x00000000001077e3      0x172 binaries/ethread.o
                0x00000000001077e3                ethread
 .text          0x0000000000107955       0xc1 binaries/ethwrite.o
                0x0000000000107955                ethwrite
 .text          0x0000000000107a16       0x68 binaries/rdsbufalloc.o
                0x0000000000107a16                rdsbufalloc
 .text          0x0000000000107a7e       0xd6 binaries/rdsclose.o
                0x0000000000107a7e                rdsclose
 .text          0x0000000000107b54      0x1df binaries/rdscomm.o
                0x0000000000107b54                rdscomm
 .text          0x0000000000107d33      0x1c4 binaries/rdscontrol.o
                0x0000000000107d33                rdscontrol
 .text          0x0000000000107ef7      0x1f7 binaries/rdsinit.o
                0x0000000000107ef7                rdsinit
 .text          0x00000000001080ee      0x199 binaries/rdsopen.o
                0x00000000001080ee                rdsopen
 .text          0x0000000000108287      0x2c5 binaries/rdsprocess.o
                0x0000000000108287                rdsprocess
 .text          0x000000000010854c      0x1d8 binaries/rdsread.o
                0x000000000010854c                rdsread
 .text          0x0000000000108724      0x1ae binaries/rdswrite.o
                0x0000000000108724                rdswrite
 .text          0x00000000001088d2        0xa binaries/ramclose.o
                0x00000000001088d2                ramclose
 .text          0x00000000001088dc       0x35 binaries/raminit.o
                0x00000000001088dc                raminit
 .text          0x0000000000108911        0xa binaries/ramopen.o
                0x0000000000108911                ramopen
 .text          0x000000000010891b       0x26 binaries/ramread.o
                0x000000000010891b                ramread
 .text          0x0000000000108941       0x26 binaries/ramwrite.o
                0x0000000000108941                ramwrite
 .text          0x0000000000108967       0x87 binaries/lfdballoc.o
                0x0000000000108967                lfdballoc
 .text          0x00000000001089ee       0x49 binaries/lfdbfree.o
                0x00000000001089ee                lfdbfree
 .text          0x0000000000108a37       0xa1 binaries/lfflush.o
                0x0000000000108a37                lfflush
 .text          0x0000000000108ad8       0x82 binaries/lfgetmode.o
                0x0000000000108ad8                lfgetmode
 .text          0x0000000000108b5a       0x60 binaries/lfiballoc.o
                0x0000000000108b5a                lfiballoc
 .text          0x0000000000108bba       0x27 binaries/lfibclear.o
                0x0000000000108bba                lfibclear
 .text          0x0000000000108be1       0x6c binaries/lfibget.o
                0x0000000000108be1                lfibget
 .text          0x0000000000108c4d       0x88 binaries/lfibput.o
                0x0000000000108c4d                lfibput
 .text          0x0000000000108cd5       0xa4 binaries/lflclose.o
                0x0000000000108cd5                lflclose
 .text          0x0000000000108d79       0xc2 binaries/lflcontrol.o
                0x0000000000108d79                lflcontrol
 .text          0x0000000000108e3b       0xfd binaries/lflgetc.o
                0x0000000000108e3b                lflgetc
 .text          0x0000000000108f38       0xe7 binaries/lflinit.o
                0x0000000000108f38                lflinit
 .text          0x000000000010901f      0x12f binaries/lflputc.o
                0x000000000010901f                lflputc
 .text          0x000000000010914e       0x6b binaries/lflread.o
                0x000000000010914e                lflread
 .text          0x00000000001091b9       0xbd binaries/lflseek.o
                0x00000000001091b9                lflseek
 .text          0x0000000000109276       0x52 binaries/lflwrite.o
                0x0000000000109276                lflwrite
 .text          0x00000000001092c8      0x114 binaries/lfsckfmt.o
                0x00000000001092c8                lfsckfmt
 .text          0x00000000001093dc      0x1e6 binaries/lfscreate.o
                0x00000000001093dc                lfscreate
 .text          0x00000000001095c2      0x1b1 binaries/lfsetup.o
                0x00000000001095c2                lfsetup
 .text          0x0000000000109773       0x45 binaries/lfsinit.o
                0x0000000000109773                lfsinit
 .text          0x00000000001097b8      0x302 binaries/lfsopen.o
                0x00000000001097b8                lfsopen
 .text          0x0000000000109aba      0x112 binaries/lftruncate.o
                0x0000000000109aba                lftruncate
 .text          0x0000000000109bcc       0x69 binaries/rflclose.o
                0x0000000000109bcc                rflclose
 .text          0x0000000000109c35       0x29 binaries/rflgetc.o
                0x0000000000109c35                rflgetc
 .text          0x0000000000109c5e       0x6c binaries/rflinit.o
                0x0000000000109c5e                rflinit
 .text          0x0000000000109cca       0x29 binaries/rflputc.o
                0x0000000000109cca                rflputc
 .text          0x0000000000109cf3      0x2b6 binaries/rflread.o
                0x0000000000109cf3                rflread
 .text          0x0000000000109fa9       0x68 binaries/rflseek.o
                0x0000000000109fa9                rflseek
 .text          0x000000000010a011      0x2fa binaries/rflwrite.o
                0x000000000010a011                rflwrite
 .text          0x000000000010a30b      0x17d binaries/rfscomm.o
                0x000000000010a30b                rfscomm
 .text          0x000000000010a488      0x22b binaries/rfscontrol.o
                0x000000000010a488                rfscontrol
 .text          0x000000000010a6b3       0x82 binaries/rfsgetmode.o
                0x000000000010a6b3                rfsgetmode
 .text          0x000000000010a735       0x7e binaries/rfsinit.o
                0x000000000010a735                rfsinit
 .text          0x000000000010a7b3       0xad binaries/rfsndmsg.o
                0x000000000010a7b3                rfsndmsg
 .text          0x000000000010a860      0x243 binaries/rfsopen.o
                0x000000000010a860                rfsopen
 .text          0x000000000010aaa3      0x626 binaries/arp.o
                0x000000000010aaa3                arp_init
                0x000000000010aabf                arp_alloc
                0x000000000010ab66                arp_ntoh
                0x000000000010abd3                arp_hton
                0x000000000010ac40                arp_resolve
                0x000000000010ae91                arp_in
 .text          0x000000000010b0c9      0x5ed binaries/dhcp.o
                0x000000000010b0c9                dhcp_get_opt_val
                0x000000000010b11d                dhcp_bld_bootp_msg
                0x000000000010b1ef                dhcp_bld_disc
                0x000000000010b241                dhcp_bld_req
                0x000000000010b2dc                getlocalip
 .text          0x000000000010b6b6       0xda binaries/dot2ip.o
                0x000000000010b6b6                dot2ip
 .text          0x000000000010b790      0x38c binaries/hexdump.o
                0x000000000010b790                hexdump
                0x000000000010b8ea                hexadump
 .text          0x000000000010bb1c      0x6f6 binaries/icmp.o
                0x000000000010bb1c                icmp_init
                0x000000000010bb38                icmp_register
                0x000000000010bbf6                icmp_recv
                0x000000000010bd99                icmp_mkpkt
                0x000000000010be66                icmp_in
                0x000000000010c000                icmp_send
                0x000000000010c06f                icmp_release
                0x000000000010c18a                icmp_cksum
                0x000000000010c1e4                icmp_hton
                0x000000000010c1fb                icmp_ntoh
 .text          0x000000000010c212      0x5e2 binaries/ip.o
                0x000000000010c212                ip_local
                0x000000000010c252                ipcksum
                0x000000000010c2a8                ip_ntoh
                0x000000000010c315                ip_in
                0x000000000010c43a                ip_hton
                0x000000000010c4a7                ip_out
                0x000000000010c55d                ip_send
                0x000000000010c668                ipout
                0x000000000010c75b                ip_enqueue
 .text          0x000000000010c7f4      0x1b2 binaries/net.o
                0x000000000010c7f4                net_init
                0x000000000010c8eb                eth_hton
                0x000000000010c8f8                eth_ntoh
                0x000000000010c905                netin
 .text          0x000000000010c9a6       0xb9 binaries/netstart.o
                0x000000000010c9a6                netstart
 .text          0x000000000010ca5f      0xa30 binaries/pdump.o
                0x000000000010ca5f                pdump
                0x000000000010d044                pdumph
 .text          0x000000000010d48f      0x5b8 binaries/tftp.o
                0x000000000010d48f                tftp_send1
                0x000000000010d5a3                tftpget_mb
                0x000000000010da24                tftpget
 .text          0x000000000010da47      0xa17 binaries/udp.o
                0x000000000010da47                udp_init
                0x000000000010da88                udp_in
                0x000000000010dbb1                udp_register
                0x000000000010dcc2                udp_recv
                0x000000000010de5b                udp_recvaddr
                0x000000000010e008                udp_send
                0x000000000010e1b6                udp_sendto
                0x000000000010e31f                udp_release
                0x000000000010e430                udp_ntoh
                0x000000000010e447                udp_hton
 .text          0x000000000010e45e      0x10e binaries/addargs.o
                0x000000000010e45e                addargs
 .text          0x000000000010e56c      0x1db binaries/lexan.o
                0x000000000010e56c                lexan
 .text          0x000000000010e747      0x657 binaries/shell.o
                0x000000000010e747                shell
 .text          0x000000000010ed9e       0x59 binaries/xsh_argecho.o
                0x000000000010ed9e                xsh_argecho
 .text          0x000000000010edf7      0x1fb binaries/xsh_arp.o
                0x000000000010edf7                xsh_arp
 .text          0x000000000010eff2      0x1db binaries/xsh_cat.o
                0x000000000010eff2                xsh_cat
 .text          0x000000000010f1cd       0x4f binaries/xsh_clear.o
                0x000000000010f1cd                xsh_clear
 .text          0x000000000010f21c      0x278 binaries/xsh_date.o
                0x000000000010f21c                xsh_date
 .text          0x000000000010f494       0x80 binaries/xsh_devdump.o
                0x000000000010f494                xsh_devdump
 .text          0x000000000010f514       0x63 binaries/xsh_echo.o
                0x000000000010f514                xsh_echo
 .text          0x000000000010f577        0xa binaries/xsh_exit.o
                0x000000000010f577                xsh_exit
 .text          0x000000000010f581      0x323 binaries/xsh_help.o
                0x000000000010f581                xsh_help
 .text          0x000000000010f8a4      0x367 binaries/xsh_ipaddr.o
                0x000000000010f8a4                xsh_ipaddr
 .text          0x000000000010fc0b      0x1aa binaries/xsh_kill.o
                0x000000000010fc0b                xsh_kill
 .text          0x000000000010fdb5      0x3bd binaries/xsh_memdump.o
                0x000000000010fe7b                xsh_memdump
 .text          0x0000000000110172      0x1cc binaries/xsh_memstat.o
                0x0000000000110172                xsh_memstat
 .text          0x000000000011033e      0x27f binaries/xsh_ping.o
                0x000000000011033e                xsh_ping
 .text          0x00000000001105bd      0x1a9 binaries/xsh_ps.o
                0x00000000001105bd                xsh_ps
 .text          0x0000000000110766      0x1a3 binaries/xsh_sleep.o
                0x0000000000110766                xsh_sleep
 .text          0x0000000000110909      0x1c3 binaries/xsh_udpdump.o
                0x0000000000110909                xsh_udpdump
 .text          0x0000000000110acc      0x3ad binaries/xsh_udpecho.o
                0x0000000000110acc                xsh_udpecho
 .text          0x0000000000110e79      0x1fc binaries/xsh_udpeserver.o
                0x0000000000110e79                xsh_udpeserver
 .text          0x0000000000111075      0x1b0 binaries/xsh_uptime.o
                0x0000000000111075                xsh_uptime
 .text          0x0000000000111225        0xe binaries/clkdisp.o
                0x0000000000111225                clkdisp
 .text          0x0000000000111233       0x19 binaries/ctxsw.o
                0x0000000000111233                ctxsw
 .text          0x000000000011124c        0xa binaries/host2netla.o
                0x000000000011124c                host2netla
 *fill*         0x0000000000111256        0xa 
 .text          0x0000000000111260       0x25 binaries/host2netlc.o
                0x0000000000111260                host2netlc
 .text.unlikely
                0x0000000000111285        0x0 binaries/host2netlc.o
 .text          0x0000000000111285      0x376 binaries/intr.o
                0x0000000000111285                disable
                0x000000000011128e                restore
                0x000000000011129c                enable
                0x000000000011129e                pause
                0x00000000001112a5                idle
                0x00000000001112b0                halt
                0x00000000001112b6                spurious_irq7
                0x00000000001112bb                spurious_irq15
                0x00000000001112ca                _Xint0
                0x00000000001112d5                _Xint1
                0x00000000001112e0                _Xint2
                0x00000000001112eb                _Xint3
                0x00000000001112f6                _Xint4
                0x0000000000111301                _Xint5
                0x000000000011130c                _Xint6
                0x0000000000111317                _Xint7
                0x0000000000111322                _Xint8
                0x000000000011132d                _Xint9
                0x0000000000111338                _Xint10
                0x0000000000111343                _Xint11
                0x0000000000111351                _Xint12
                0x000000000011135f                _Xint13
                0x000000000011136d                _Xint14
                0x000000000011137b                _Xint15
                0x0000000000111389                _Xint16
                0x0000000000111397                _Xint17
                0x00000000001113a5                _Xint18
                0x00000000001113b3                _Xint19
                0x00000000001113c1                _Xint20
                0x00000000001113cf                _Xint21
                0x00000000001113dd                _Xint22
                0x00000000001113eb                _Xint23
                0x00000000001113f9                _Xint24
                0x0000000000111407                _Xint25
                0x0000000000111415                _Xint26
                0x0000000000111423                _Xint27
                0x0000000000111431                _Xint28
                0x000000000011143f                _Xint29
                0x000000000011144d                _Xint30
                0x000000000011145b                _Xint31
                0x0000000000111469                _Xint32
                0x0000000000111477                _Xint33
                0x0000000000111485                _Xint34
                0x0000000000111493                _Xint35
                0x00000000001114a1                _Xint36
                0x00000000001114af                _Xint37
                0x00000000001114bd                _Xint38
                0x00000000001114cb                _Xint39
                0x00000000001114d9                _Xint40
                0x00000000001114e7                _Xint41
                0x00000000001114f5                _Xint42
                0x0000000000111503                _Xint43
                0x0000000000111511                _Xint44
                0x000000000011151f                _Xint45
                0x000000000011152d                _Xint46
                0x000000000011153b                defevec
 .text          0x00000000001115fb        0xf binaries/ttydispatch.o
                0x00000000001115fb                ttydispatch
 .text          0x000000000011160a       0x13 binaries/ethdispatch.o
                0x000000000011160a                ethdispatch
 *(.rodata .rodata.*)
 .rodata.str1.1
                0x000000000011161d       0x17 binaries/app1.o
 .rodata.str1.1
                0x0000000000111634        0x5 binaries/app2.o
                                         0x1c (size before relaxing)
 *fill*         0x0000000000111639        0x3 
 .rodata.str1.4
                0x000000000011163c       0x2d binaries/app2.o
 *fill*         0x0000000000111669        0x3 
 .rodata.str1.4
                0x000000000011166c       0x4a binaries/app3.o
 .rodata.str1.1
                0x00000000001116b6       0x29 binaries/app3.o
 .rodata.str1.1
                0x00000000001116df       0x54 binaries/ascdate.o
 *fill*         0x0000000000111733        0x1 
 .rodata.str1.4
                0x0000000000111734       0x22 binaries/ascdate.o
 *fill*         0x0000000000111756        0x2 
 .rodata        0x0000000000111758        0x4 binaries/clkhandler.o
                0x0000000000111758                MAX_UINT32
 .rodata.str1.1
                0x000000000011175c       0x5f binaries/conf.o
 *fill*         0x00000000001117bb        0x1 
 .rodata.str1.4
                0x00000000001117bc       0x4f binaries/early_imr.o
 *fill*         0x000000000011180b        0x1 
 .rodata        0x000000000011180c       0x33 binaries/early_imr.o
 .rodata.str1.1
                0x000000000011183f      0x20c binaries/evec.o
 *fill*         0x0000000000111a4b        0x1 
 .rodata.str1.4
                0x0000000000111a4c       0x23 binaries/evec.o
 .rodata.str1.1
                0x0000000000111a6f        0xb binaries/getutime.o
 *fill*         0x0000000000111a7a        0x2 
 .rodata.str1.4
                0x0000000000111a7c       0x54 binaries/getutime.o
 .rodata.str1.1
                0x0000000000111ad0       0x6b binaries/initialize.o
                                         0x6f (size before relaxing)
 *fill*         0x0000000000111b3b        0x1 
 .rodata.str1.4
                0x0000000000111b3c       0xd4 binaries/initialize.o
 .rodata        0x0000000000111c10       0x20 binaries/kill.o
 .rodata.str1.1
                0x0000000000111c30       0x7a binaries/lab2q3.o
 *fill*         0x0000000000111caa        0x2 
 .rodata.str1.4
                0x0000000000111cac      0x1a3 binaries/lab2q3.o
 .rodata.str1.1
                0x0000000000111e4f       0x2c binaries/main.o
 *fill*         0x0000000000111e7b        0x1 
 .rodata.str1.4
                0x0000000000111e7c       0x23 binaries/meminit.o
 .rodata.str1.1
                0x0000000000111e9f       0x1b binaries/meminit.o
 *fill*         0x0000000000111eba        0x2 
 .rodata.str1.4
                0x0000000000111ebc      0x103 binaries/myappA.o
 *fill*         0x0000000000111fbf        0x1 
 .rodata.str1.4
                0x0000000000111fc0       0x57 binaries/myfuncA.o
 *fill*         0x0000000000112017        0x1 
 .rodata.str1.4
                0x0000000000112018       0x4c binaries/myhacker.o
 .rodata.str1.4
                0x0000000000112064      0x178 binaries/myvictim.o
 .rodata.str1.4
                0x00000000001121dc      0x19b binaries/mywelcomemsg.o
 .rodata.str1.1
                0x0000000000112377       0x16 binaries/mywelcomemsg.o
 .rodata.str1.1
                0x000000000011238d        0xf binaries/panic.o
 .rodata.str1.4
                0x000000000011239c       0xe1 binaries/printsegaddr.o
 .rodata.str1.1
                0x000000000011247d       0x1c binaries/ptinit.o
 *fill*         0x0000000000112499        0x3 
 .rodata.str1.4
                0x000000000011249c       0x25 binaries/ptsend.o
 .rodata.str1.1
                0x00000000001124c1       0x22 binaries/quark_pdat.o
 *fill*         0x00000000001124e3        0x1 
 .rodata.str1.4
                0x00000000001124e4       0x58 binaries/stackdepth.o
 .rodata.str1.1
                0x000000000011253c       0x1b binaries/stackdepth.o
 *fill*         0x0000000000112557        0x1 
 .rodata.str1.4
                0x0000000000112558       0x63 binaries/stacktrace.o
 .rodata.str1.1
                0x00000000001125bb       0x52 binaries/stacktrace.o
 .rodata.str1.1
                0x000000000011260d       0x1c binaries/teststackdepth.o
 *fill*         0x0000000000112629        0x3 
 .rodata.str1.4
                0x000000000011262c       0x27 binaries/xdone.o
 *fill*         0x0000000000112653        0xd 
 .rodata        0x0000000000112660       0x81 binaries/ctype_.o
                0x0000000000112660                _ctype_
 .rodata.str1.1
                0x00000000001126e1       0x29 binaries/doprnt.o
 *fill*         0x000000000011270a        0x2 
 .rodata        0x000000000011270c       0xc4 binaries/doprnt.o
 .rodata        0x00000000001127d0       0x98 binaries/doscan.o
 .rodata.str1.1
                0x0000000000112868       0x29 binaries/fdoprnt.o
 .rodata        0x0000000000112868       0x84 binaries/fdoprnt.o
 .rodata        0x00000000001128ec       0x20 binaries/ttycontrol.o
 .rodata.str1.4
                0x000000000011290c       0x4c binaries/naminit.o
 .rodata.str1.1
                0x0000000000112958       0x32 binaries/naminit.o
                                         0x35 (size before relaxing)
 .rodata.str1.1
                0x000000000011298a       0x15 binaries/ethinit.o
 *fill*         0x000000000011299f        0x1 
 .rodata.str1.4
                0x00000000001129a0       0x2e binaries/ethinit.o
 *fill*         0x00000000001129ce        0x2 
 .rodata.str1.4
                0x00000000001129d0       0x2c binaries/rdsbufalloc.o
 .rodata.str1.4
                0x00000000001129fc       0x76 binaries/rdscomm.o
 *fill*         0x0000000000112a72        0x2 
 .rodata.str1.4
                0x0000000000112a74       0x48 binaries/rdscontrol.o
 .rodata.str1.4
                0x0000000000112abc       0x7e binaries/rdsinit.o
 .rodata.str1.1
                0x0000000000112b3a       0x18 binaries/rdsinit.o
 *fill*         0x0000000000112b52        0x2 
 .rodata.str1.4
                0x0000000000112b54       0x22 binaries/rdsopen.o
 *fill*         0x0000000000112b76        0x2 
 .rodata.str1.4
                0x0000000000112b78       0x4d binaries/rdsprocess.o
 .rodata.str1.1
                0x0000000000112bc5        0x9 binaries/raminit.o
 .rodata.str1.1
                0x0000000000112bce       0x13 binaries/lfdballoc.o
 *fill*         0x0000000000112be1        0x3 
 .rodata.str1.4
                0x0000000000112be4       0x23 binaries/lfdballoc.o
 .rodata.str1.1
                0x0000000000112c07       0x14 binaries/lfiballoc.o
 *fill*         0x0000000000112c1b        0x1 
 .rodata.str1.4
                0x0000000000112c1c       0x23 binaries/lflcontrol.o
 .rodata.str1.1
                0x0000000000112c3f       0x64 binaries/lfsckfmt.o
 *fill*         0x0000000000112ca3        0x1 
 .rodata.str1.4
                0x0000000000112ca4       0x51 binaries/lfsckfmt.o
 *fill*         0x0000000000112cf5        0x3 
 .rodata.str1.4
                0x0000000000112cf8       0x21 binaries/rflread.o
 .rodata.str1.4
                0x0000000000112d19       0x21 binaries/rflwrite.o
 *fill*         0x0000000000112d19        0x3 
 .rodata.str1.4
                0x0000000000112d1c       0x75 binaries/rfscomm.o
 *fill*         0x0000000000112d91        0x3 
 .rodata.str1.4
                0x0000000000112d94       0x23 binaries/rfscontrol.o
 *fill*         0x0000000000112db7        0x1 
 .rodata        0x0000000000112db8       0x18 binaries/rfscontrol.o
 .rodata.str1.1
                0x0000000000112dd0       0x10 binaries/rfsinit.o
 .rodata.str1.4
                0x0000000000112dd0       0x57 binaries/rfsinit.o
 *fill*         0x0000000000112e27        0x1 
 .rodata.str1.4
                0x0000000000112e28       0x2a binaries/rfsndmsg.o
 .rodata.str1.4
                0x0000000000112e52       0x22 binaries/rfsopen.o
 .rodata.str1.1
                0x0000000000112e52       0x19 binaries/arp.o
 *fill*         0x0000000000112e6b        0x1 
 .rodata.str1.4
                0x0000000000112e6c       0x21 binaries/arp.o
 *fill*         0x0000000000112e8d        0x3 
 .rodata.str1.4
                0x0000000000112e90       0xa6 binaries/dhcp.o
 .rodata.str1.1
                0x0000000000112f36       0x4a binaries/dhcp.o
 .rodata.str1.1
                0x0000000000112f80       0x5a binaries/hexdump.o
                                         0x61 (size before relaxing)
 *fill*         0x0000000000112fda        0x2 
 .rodata.str1.4
                0x0000000000112fdc       0x67 binaries/hexdump.o
 *fill*         0x0000000000113043        0x1 
 .rodata.str1.4
                0x0000000000113044       0x29 binaries/icmp.o
 .rodata.str1.1
                0x000000000011306d       0x4e binaries/ip.o
 *fill*         0x00000000001130bb        0x1 
 .rodata.str1.4
                0x00000000001130bc       0x20 binaries/ip.o
 .rodata.str1.4
                0x00000000001130dc       0x28 binaries/net.o
 .rodata.str1.1
                0x0000000000113104       0x27 binaries/net.o
 *fill*         0x000000000011312b        0x1 
 .rodata.str1.4
                0x000000000011312c       0xcf binaries/netstart.o
 .rodata.str1.1
                0x00000000001131fb      0x141 binaries/pdump.o
                                        0x14b (size before relaxing)
 .rodata.str1.4
                0x000000000011333c      0x126 binaries/pdump.o
 *fill*         0x0000000000113462        0x2 
 .rodata.str1.4
                0x0000000000113464      0x148 binaries/tftp.o
 .rodata.str1.1
                0x00000000001135ac        0x6 binaries/tftp.o
                                          0xa (size before relaxing)
 .rodata.str1.1
                0x00000000001135b2       0xe3 binaries/shell.o
                                         0xff (size before relaxing)
 *fill*         0x0000000000113695        0x3 
 .rodata.str1.4
                0x0000000000113698      0x1e8 binaries/shell.o
 .rodata        0x0000000000113880       0xfc binaries/shell.o
                0x0000000000113880                cmdtab
 .rodata.str1.1
                0x000000000011397c       0x26 binaries/xsh_argecho.o
                                         0x28 (size before relaxing)
 .rodata.str1.1
                0x00000000001139a2       0x70 binaries/xsh_arp.o
                                         0x72 (size before relaxing)
 *fill*         0x0000000000113a12        0x2 
 .rodata.str1.4
                0x0000000000113a14       0xb4 binaries/xsh_arp.o
 .rodata.str1.1
                0x0000000000113ac8       0x2d binaries/xsh_cat.o
                                         0x4f (size before relaxing)
 *fill*         0x0000000000113af5        0x3 
 .rodata.str1.4
                0x0000000000113af8       0x52 binaries/xsh_cat.o
                                         0x79 (size before relaxing)
 .rodata.str1.1
                0x0000000000113b4a       0x15 binaries/xsh_clear.o
 .rodata.str1.1
                0x0000000000113b5f       0x46 binaries/xsh_date.o
                                         0x5f (size before relaxing)
 *fill*         0x0000000000113ba5        0x3 
 .rodata.str1.4
                0x0000000000113ba8      0x163 binaries/xsh_date.o
 .rodata.str1.1
                0x0000000000113d0b       0x5d binaries/xsh_devdump.o
 .rodata.str1.1
                0x0000000000113d68        0x4 binaries/xsh_echo.o
                                          0x9 (size before relaxing)
 .rodata.str1.1
                0x0000000000113d6c       0x65 binaries/xsh_help.o
                                         0xa3 (size before relaxing)
 *fill*         0x0000000000113dd1        0x3 
 .rodata.str1.4
                0x0000000000113dd4       0x7c binaries/xsh_help.o
                                         0xc6 (size before relaxing)
 .rodata.str1.1
                0x0000000000113e50       0x9c binaries/xsh_ipaddr.o
                                         0xf8 (size before relaxing)
 .rodata.str1.4
                0x0000000000113eec       0x4d binaries/xsh_ipaddr.o
                                         0x99 (size before relaxing)
 .rodata.str1.1
                0x0000000000113f39       0x78 binaries/xsh_kill.o
                                         0x97 (size before relaxing)
 *fill*         0x0000000000113fb1        0x3 
 .rodata.str1.4
                0x0000000000113fb4       0x4a binaries/xsh_kill.o
                                         0x96 (size before relaxing)
 .rodata.str1.1
                0x0000000000113ffe       0x84 binaries/xsh_memdump.o
                                         0xa8 (size before relaxing)
 *fill*         0x0000000000114082        0x2 
 .rodata.str1.4
                0x0000000000114084      0x15a binaries/xsh_memdump.o
                                        0x1aa (size before relaxing)
 .rodata.str1.1
                0x00000000001141de       0x40 binaries/xsh_memstat.o
                                         0x79 (size before relaxing)
 *fill*         0x000000000011421e        0x2 
 .rodata.str1.4
                0x0000000000114220      0x187 binaries/xsh_memstat.o
                                        0x1af (size before relaxing)
 .rodata.str1.1
                0x00000000001143a7       0x90 binaries/xsh_ping.o
                                         0xaf (size before relaxing)
 *fill*         0x0000000000114437        0x1 
 .rodata.str1.4
                0x0000000000114438       0x77 binaries/xsh_ping.o
                                         0xc6 (size before relaxing)
 .rodata.str1.1
                0x00000000001144af       0x6c binaries/xsh_ps.o
                                         0xde (size before relaxing)
 *fill*         0x000000000011451b        0x1 
 .rodata.str1.4
                0x000000000011451c       0x88 binaries/xsh_ps.o
                                         0xd8 (size before relaxing)
 *fill*         0x00000000001145a4       0x1c 
 .rodata        0x00000000001145c0       0x20 binaries/xsh_ps.o
 .rodata.str1.1
                0x00000000001145e0       0x31 binaries/xsh_sleep.o
                                         0x72 (size before relaxing)
 *fill*         0x0000000000114611        0x3 
 .rodata.str1.4
                0x0000000000114614       0x2a binaries/xsh_sleep.o
                                         0x7a (size before relaxing)
 .rodata.str1.1
                0x000000000011463e       0x6b binaries/xsh_udpdump.o
                                         0xd2 (size before relaxing)
 *fill*         0x00000000001146a9        0x3 
 .rodata.str1.4
                0x00000000001146ac       0x94 binaries/xsh_udpdump.o
                                         0xe4 (size before relaxing)
 .rodata.str1.1
                0x0000000000114740       0xdb binaries/xsh_udpecho.o
                                         0xfa (size before relaxing)
 *fill*         0x000000000011481b        0x1 
 .rodata.str1.4
                0x000000000011481c       0xc7 binaries/xsh_udpecho.o
                                        0x116 (size before relaxing)
 .rodata.str1.1
                0x00000000001148e3       0x66 binaries/xsh_udpeserver.o
                                         0x8f (size before relaxing)
 *fill*         0x0000000000114949        0x3 
 .rodata.str1.4
                0x000000000011494c       0x29 binaries/xsh_udpeserver.o
                                         0x9f (size before relaxing)
 .rodata.str1.1
                0x0000000000114975       0x49 binaries/xsh_uptime.o
                                         0x8c (size before relaxing)
 *fill*         0x00000000001149be        0x2 
 .rodata.str1.4
                0x00000000001149c0       0x28 binaries/xsh_uptime.o
                                         0x76 (size before relaxing)
                0x00000000001149e8                etext = ABSOLUTE (.)
                0x0000000000115000                . = ALIGN (0x1000)
 *fill*         0x00000000001149e8      0x618 

.eh_frame       0x0000000000115000     0x32fc
 .eh_frame      0x0000000000115000       0x3c binaries/app1.o
 .eh_frame      0x000000000011503c       0x28 binaries/app2.o
                                         0x40 (size before relaxing)
 .eh_frame      0x0000000000115064       0x24 binaries/app3.o
                                         0x3c (size before relaxing)
 .eh_frame      0x0000000000115088       0x30 binaries/ascdate.o
                                         0x48 (size before relaxing)
 .eh_frame      0x00000000001150b8       0x20 binaries/bufinit.o
                                         0x38 (size before relaxing)
 .eh_frame      0x00000000001150d8       0x2c binaries/chprio.o
                                         0x44 (size before relaxing)
 .eh_frame      0x0000000000115104       0x20 binaries/clkhandler.o
                                         0x38 (size before relaxing)
 .eh_frame      0x0000000000115124       0x20 binaries/clkinit.o
                                         0x38 (size before relaxing)
 .eh_frame      0x0000000000115144       0x28 binaries/close.o
                                         0x40 (size before relaxing)
 .eh_frame      0x000000000011516c       0x28 binaries/control.o
                                         0x40 (size before relaxing)
 .eh_frame      0x0000000000115194       0x30 binaries/create.o
                                         0x48 (size before relaxing)
 .eh_frame      0x00000000001151c4       0x94 binaries/early_imr.o
                                         0xac (size before relaxing)
 .eh_frame      0x0000000000115258       0x94 binaries/evec.o
                                         0xac (size before relaxing)
 .eh_frame      0x00000000001152ec       0x24 binaries/factorial.o
                                         0x3c (size before relaxing)
 .eh_frame      0x0000000000115310       0x2c binaries/freebuf.o
                                         0x44 (size before relaxing)
 .eh_frame      0x000000000011533c       0x2c binaries/freemem.o
                                         0x44 (size before relaxing)
 .eh_frame      0x0000000000115368       0x2c binaries/getbuf.o
                                         0x44 (size before relaxing)
 .eh_frame      0x0000000000115394       0x28 binaries/getc.o
                                         0x40 (size before relaxing)
 .eh_frame      0x00000000001153bc       0x2c binaries/getdev.o
                                         0x44 (size before relaxing)
 .eh_frame      0x00000000001153e8       0x64 binaries/getitem.o
                                         0x7c (size before relaxing)
 .eh_frame      0x000000000011544c       0x28 binaries/getmem.o
                                         0x40 (size before relaxing)
 .eh_frame      0x0000000000115474       0x20 binaries/getpid.o
                                         0x38 (size before relaxing)
 .eh_frame      0x0000000000115494       0x20 binaries/getpname.o
                                         0x38 (size before relaxing)
 .eh_frame      0x00000000001154b4       0x20 binaries/getppid.o
                                         0x38 (size before relaxing)
 .eh_frame      0x00000000001154d4       0x24 binaries/getprio.o
                                         0x3c (size before relaxing)
 .eh_frame      0x00000000001154f8       0x2c binaries/getstk.o
                                         0x44 (size before relaxing)
 .eh_frame      0x0000000000115524       0x20 binaries/gettime.o
                                         0x38 (size before relaxing)
 .eh_frame      0x0000000000115544       0x24 binaries/getutime.o
                                         0x3c (size before relaxing)
 .eh_frame      0x0000000000115568       0x20 binaries/host2netlb.o
                                         0x38 (size before relaxing)
 .eh_frame      0x0000000000115588       0x28 binaries/init.o
                                         0x40 (size before relaxing)
 .eh_frame      0x00000000001155b0       0x68 binaries/initialize.o
                                         0x80 (size before relaxing)
 .eh_frame      0x0000000000115618       0x28 binaries/insert.o
                                         0x40 (size before relaxing)
 .eh_frame      0x0000000000115640       0x2c binaries/insertd.o
                                         0x44 (size before relaxing)
 .eh_frame      0x000000000011566c       0x20 binaries/ioerr.o
                                         0x38 (size before relaxing)
 .eh_frame      0x000000000011568c       0x20 binaries/ionull.o
                                         0x38 (size before relaxing)
 .eh_frame      0x00000000001156ac       0x30 binaries/kill.o
                                         0x48 (size before relaxing)
 .eh_frame      0x00000000001156dc       0x80 binaries/kprintf.o
                                         0x98 (size before relaxing)
 .eh_frame      0x000000000011575c       0xdc binaries/lab2q3.o
                                         0xf4 (size before relaxing)
 .eh_frame      0x0000000000115838       0x2c binaries/main.o
                                         0x44 (size before relaxing)
 .eh_frame      0x0000000000115864       0x44 binaries/mark.o
                                         0x5c (size before relaxing)
 .eh_frame      0x00000000001158a8       0x50 binaries/meminit.o
                                         0x68 (size before relaxing)
 .eh_frame      0x00000000001158f8       0x30 binaries/mkbufpool.o
                                         0x48 (size before relaxing)
 .eh_frame      0x0000000000115928       0x2c binaries/myappA.o
                                         0x44 (size before relaxing)
 .eh_frame      0x0000000000115954       0x20 binaries/myfuncA.o
                                         0x38 (size before relaxing)
 .eh_frame      0x0000000000115974       0x64 binaries/myhacker.o
                                         0x7c (size before relaxing)
 .eh_frame      0x00000000001159d8       0x60 binaries/myvictim.o
                                         0x78 (size before relaxing)
 .eh_frame      0x0000000000115a38       0x20 binaries/mywelcomemsg.o
                                         0x38 (size before relaxing)
 .eh_frame      0x0000000000115a58       0x20 binaries/newqueue.o
                                         0x38 (size before relaxing)
 .eh_frame      0x0000000000115a78       0x28 binaries/open.o
                                         0x40 (size before relaxing)
 .eh_frame      0x0000000000115aa0       0x1c binaries/panic.o
                                         0x34 (size before relaxing)
 .eh_frame      0x0000000000115abc      0x12c binaries/pci.o
                                        0x144 (size before relaxing)
 .eh_frame      0x0000000000115be8       0x20 binaries/platinit.o
                                         0x38 (size before relaxing)
 .eh_frame      0x0000000000115c08       0x20 binaries/printsegaddr.o
                                         0x38 (size before relaxing)
 .eh_frame      0x0000000000115c28       0x2c binaries/ptclear.o
                                         0x44 (size before relaxing)
 .eh_frame      0x0000000000115c54       0x2c binaries/ptcount.o
                                         0x44 (size before relaxing)
 .eh_frame      0x0000000000115c80       0x2c binaries/ptcreate.o
                                         0x44 (size before relaxing)
 .eh_frame      0x0000000000115cac       0x28 binaries/ptdelete.o
                                         0x40 (size before relaxing)
 .eh_frame      0x0000000000115cd4       0x28 binaries/ptinit.o
                                         0x40 (size before relaxing)
 .eh_frame      0x0000000000115cfc       0x2c binaries/ptrecv.o
                                         0x44 (size before relaxing)
 .eh_frame      0x0000000000115d28       0x28 binaries/ptreset.o
                                         0x40 (size before relaxing)
 .eh_frame      0x0000000000115d50       0x30 binaries/ptsend.o
                                         0x48 (size before relaxing)
 .eh_frame      0x0000000000115d80       0x2c binaries/putc.o
                                         0x44 (size before relaxing)
 .eh_frame      0x0000000000115dac       0x24 binaries/quark_irq.o
                                         0x3c (size before relaxing)
 .eh_frame      0x0000000000115dd0       0x54 binaries/quark_pdat.o
                                         0x6c (size before relaxing)
 .eh_frame      0x0000000000115e24       0x40 binaries/queue.o
                                         0x58 (size before relaxing)
 .eh_frame      0x0000000000115e64       0x28 binaries/read.o
                                         0x40 (size before relaxing)
 .eh_frame      0x0000000000115e8c       0x20 binaries/ready.o
                                         0x38 (size before relaxing)
 .eh_frame      0x0000000000115eac       0x2c binaries/receive.o
                                         0x44 (size before relaxing)
 .eh_frame      0x0000000000115ed8       0x24 binaries/recvclr.o
                                         0x3c (size before relaxing)
 .eh_frame      0x0000000000115efc       0x2c binaries/recvtime.o
                                         0x44 (size before relaxing)
 .eh_frame      0x0000000000115f28       0x48 binaries/resched.o
                                         0x60 (size before relaxing)
 .eh_frame      0x0000000000115f70       0x2c binaries/resume.o
                                         0x44 (size before relaxing)
 .eh_frame      0x0000000000115f9c       0x28 binaries/seek.o
                                         0x40 (size before relaxing)
 .eh_frame      0x0000000000115fc4       0x24 binaries/semcount.o
                                         0x3c (size before relaxing)
 .eh_frame      0x0000000000115fe8       0x2c binaries/semcreate.o
                                         0x44 (size before relaxing)
 .eh_frame      0x0000000000116014       0x2c binaries/semdelete.o
                                         0x44 (size before relaxing)
 .eh_frame      0x0000000000116040       0x2c binaries/semreset.o
                                         0x44 (size before relaxing)
 .eh_frame      0x000000000011606c       0x28 binaries/send.o
                                         0x40 (size before relaxing)
 .eh_frame      0x0000000000116094       0x28 binaries/signal.o
                                         0x40 (size before relaxing)
 .eh_frame      0x00000000001160bc       0x2c binaries/signaln.o
                                         0x44 (size before relaxing)
 .eh_frame      0x00000000001160e8       0x48 binaries/sleep.o
                                         0x60 (size before relaxing)
 .eh_frame      0x0000000000116130       0x2c binaries/stackdepth.o
                                         0x44 (size before relaxing)
 .eh_frame      0x000000000011615c       0x30 binaries/stacktrace.o
                                         0x48 (size before relaxing)
 .eh_frame      0x000000000011618c       0x28 binaries/suspend.o
                                         0x40 (size before relaxing)
 .eh_frame      0x00000000001161b4       0x20 binaries/teststackdepth.o
                                         0x38 (size before relaxing)
 .eh_frame      0x00000000001161d4       0x28 binaries/unsleep.o
                                         0x40 (size before relaxing)
 .eh_frame      0x00000000001161fc       0x20 binaries/userret.o
                                         0x38 (size before relaxing)
 .eh_frame      0x000000000011621c       0x28 binaries/wait.o
                                         0x40 (size before relaxing)
 .eh_frame      0x0000000000116244       0x20 binaries/wakeup.o
                                         0x38 (size before relaxing)
 .eh_frame      0x0000000000116264       0x28 binaries/write.o
                                         0x40 (size before relaxing)
 .eh_frame      0x000000000011628c       0x20 binaries/xdone.o
                                         0x38 (size before relaxing)
 .eh_frame      0x00000000001162ac       0x24 binaries/yield.o
                                         0x3c (size before relaxing)
 .eh_frame      0x00000000001162d0       0x20 binaries/abs.o
                                         0x38 (size before relaxing)
 .eh_frame      0x00000000001162f0       0x28 binaries/atoi.o
                                         0x40 (size before relaxing)
 .eh_frame      0x0000000000116318       0x28 binaries/atol.o
                                         0x40 (size before relaxing)
 .eh_frame      0x0000000000116340       0x20 binaries/bzero.o
                                         0x38 (size before relaxing)
 .eh_frame      0x0000000000116360       0xac binaries/doprnt.o
                                         0xc4 (size before relaxing)
 .eh_frame      0x000000000011640c       0x30 binaries/doscan.o
                                         0x48 (size before relaxing)
 .eh_frame      0x000000000011643c       0x5c binaries/fdoprnt.o
                                         0x74 (size before relaxing)
 .eh_frame      0x0000000000116498       0x20 binaries/fgetc.o
                                         0x38 (size before relaxing)
 .eh_frame      0x00000000001164b8       0x2c binaries/fgets.o
                                         0x44 (size before relaxing)
 .eh_frame      0x00000000001164e4       0x20 binaries/fprintf.o
                                         0x38 (size before relaxing)
 .eh_frame      0x0000000000116504       0x20 binaries/fputc.o
                                         0x38 (size before relaxing)
 .eh_frame      0x0000000000116524       0x28 binaries/fputs.o
                                         0x40 (size before relaxing)
 .eh_frame      0x000000000011654c       0x64 binaries/fscanf.o
                                         0x7c (size before relaxing)
 .eh_frame      0x00000000001165b0       0x20 binaries/getchar.o
                                         0x38 (size before relaxing)
 .eh_frame      0x00000000001165d0       0x20 binaries/labs.o
                                         0x38 (size before relaxing)
 .eh_frame      0x00000000001165f0       0x20 binaries/memchr.o
                                         0x38 (size before relaxing)
 .eh_frame      0x0000000000116610       0x28 binaries/memcmp.o
                                         0x40 (size before relaxing)
 .eh_frame      0x0000000000116638       0x28 binaries/memcpy.o
                                         0x40 (size before relaxing)
 .eh_frame      0x0000000000116660       0x24 binaries/memset.o
                                         0x3c (size before relaxing)
 .eh_frame      0x0000000000116684       0x20 binaries/printf.o
                                         0x38 (size before relaxing)
 .eh_frame      0x00000000001166a4       0x20 binaries/putchar.o
                                         0x38 (size before relaxing)
 .eh_frame      0x00000000001166c4       0xa4 binaries/qsort.o
                                         0xbc (size before relaxing)
 .eh_frame      0x0000000000116768       0x40 binaries/rand.o
                                         0x58 (size before relaxing)
 .eh_frame      0x00000000001167a8       0x48 binaries/sprintf.o
                                         0x60 (size before relaxing)
 .eh_frame      0x00000000001167f0       0x60 binaries/sscanf.o
                                         0x78 (size before relaxing)
 .eh_frame      0x0000000000116850       0x24 binaries/strchr.o
                                         0x3c (size before relaxing)
 .eh_frame      0x0000000000116874       0x24 binaries/strcmp.o
                                         0x3c (size before relaxing)
 .eh_frame      0x0000000000116898       0x20 binaries/strcpy.o
                                         0x38 (size before relaxing)
 .eh_frame      0x00000000001168b8       0x20 binaries/strlen.o
                                         0x38 (size before relaxing)
 .eh_frame      0x00000000001168d8       0x2c binaries/strncat.o
                                         0x44 (size before relaxing)
 .eh_frame      0x0000000000116904       0x24 binaries/strncmp.o
                                         0x3c (size before relaxing)
 .eh_frame      0x0000000000116928       0x2c binaries/strncpy.o
                                         0x44 (size before relaxing)
 .eh_frame      0x0000000000116954       0x24 binaries/strnlen.o
                                         0x3c (size before relaxing)
 .eh_frame      0x0000000000116978       0x24 binaries/strrchr.o
                                         0x3c (size before relaxing)
 .eh_frame      0x000000000011699c       0x2c binaries/strstr.o
                                         0x44 (size before relaxing)
 .eh_frame      0x00000000001169c8       0x30 binaries/ttycontrol.o
                                         0x48 (size before relaxing)
 .eh_frame      0x00000000001169f8       0x2c binaries/ttygetc.o
                                         0x44 (size before relaxing)
 .eh_frame      0x0000000000116a24       0x84 binaries/ttyhandle_in.o
                                         0x9c (size before relaxing)
 .eh_frame      0x0000000000116aa8       0x30 binaries/ttyhandle_out.o
                                         0x48 (size before relaxing)
 .eh_frame      0x0000000000116ad8       0x28 binaries/ttyhandler.o
                                         0x40 (size before relaxing)
 .eh_frame      0x0000000000116b00       0x30 binaries/ttyinit.o
                                         0x48 (size before relaxing)
 .eh_frame      0x0000000000116b30       0x20 binaries/ttykickout.o
                                         0x38 (size before relaxing)
 .eh_frame      0x0000000000116b50       0x2c binaries/ttyputc.o
                                         0x44 (size before relaxing)
 .eh_frame      0x0000000000116b7c       0x2c binaries/ttyread.o
                                         0x44 (size before relaxing)
 .eh_frame      0x0000000000116ba8       0x2c binaries/ttywrite.o
                                         0x44 (size before relaxing)
 .eh_frame      0x0000000000116bd4       0x4c binaries/mount.o
                                         0x64 (size before relaxing)
 .eh_frame      0x0000000000116c20       0x30 binaries/naminit.o
                                         0x48 (size before relaxing)
 .eh_frame      0x0000000000116c50       0x84 binaries/nammap.o
                                         0x9c (size before relaxing)
 .eh_frame      0x0000000000116cd4       0x20 binaries/namopen.o
                                         0x38 (size before relaxing)
 .eh_frame      0x0000000000116cf4       0x2c binaries/colon2mac.o
                                         0x44 (size before relaxing)
 .eh_frame      0x0000000000116d20       0x20 binaries/ethcontrol.o
                                         0x38 (size before relaxing)
 .eh_frame      0x0000000000116d40       0x30 binaries/ethhandler.o
                                         0x48 (size before relaxing)
 .eh_frame      0x0000000000116d70       0x98 binaries/ethinit.o
                                         0xb0 (size before relaxing)
 .eh_frame      0x0000000000116e08       0x54 binaries/ethmcast.o
                                         0x6c (size before relaxing)
 .eh_frame      0x0000000000116e5c       0x30 binaries/ethread.o
                                         0x48 (size before relaxing)
 .eh_frame      0x0000000000116e8c       0x2c binaries/ethwrite.o
                                         0x44 (size before relaxing)
 .eh_frame      0x0000000000116eb8       0x24 binaries/rdsbufalloc.o
                                         0x3c (size before relaxing)
 .eh_frame      0x0000000000116edc       0x2c binaries/rdsclose.o
                                         0x44 (size before relaxing)
 .eh_frame      0x0000000000116f08       0x30 binaries/rdscomm.o
                                         0x48 (size before relaxing)
 .eh_frame      0x0000000000116f38       0x30 binaries/rdscontrol.o
                                         0x48 (size before relaxing)
 .eh_frame      0x0000000000116f68       0x30 binaries/rdsinit.o
                                         0x48 (size before relaxing)
 .eh_frame      0x0000000000116f98       0x30 binaries/rdsopen.o
                                         0x48 (size before relaxing)
 .eh_frame      0x0000000000116fc8       0x20 binaries/rdsprocess.o
                                         0x38 (size before relaxing)
 .eh_frame      0x0000000000116fe8       0x30 binaries/rdsread.o
                                         0x48 (size before relaxing)
 .eh_frame      0x0000000000117018       0x30 binaries/rdswrite.o
                                         0x48 (size before relaxing)
 .eh_frame      0x0000000000117048       0x20 binaries/ramclose.o
                                         0x38 (size before relaxing)
 .eh_frame      0x0000000000117068       0x20 binaries/raminit.o
                                         0x38 (size before relaxing)
 .eh_frame      0x0000000000117088       0x20 binaries/ramopen.o
                                         0x38 (size before relaxing)
 .eh_frame      0x00000000001170a8       0x20 binaries/ramread.o
                                         0x38 (size before relaxing)
 .eh_frame      0x00000000001170c8       0x20 binaries/ramwrite.o
                                         0x38 (size before relaxing)
 .eh_frame      0x00000000001170e8       0x28 binaries/lfdballoc.o
                                         0x40 (size before relaxing)
 .eh_frame      0x0000000000117110       0x24 binaries/lfdbfree.o
                                         0x3c (size before relaxing)
 .eh_frame      0x0000000000117134       0x24 binaries/lfflush.o
                                         0x3c (size before relaxing)
 .eh_frame      0x0000000000117158       0x20 binaries/lfgetmode.o
                                         0x38 (size before relaxing)
 .eh_frame      0x0000000000117178       0x24 binaries/lfiballoc.o
                                         0x3c (size before relaxing)
 .eh_frame      0x000000000011719c       0x20 binaries/lfibclear.o
                                         0x38 (size before relaxing)
 .eh_frame      0x00000000001171bc       0x2c binaries/lfibget.o
                                         0x44 (size before relaxing)
 .eh_frame      0x00000000001171e8       0x2c binaries/lfibput.o
                                         0x44 (size before relaxing)
 .eh_frame      0x0000000000117214       0x28 binaries/lflclose.o
                                         0x40 (size before relaxing)
 .eh_frame      0x000000000011723c       0x2c binaries/lflcontrol.o
                                         0x44 (size before relaxing)
 .eh_frame      0x0000000000117268       0x2c binaries/lflgetc.o
                                         0x44 (size before relaxing)
 .eh_frame      0x0000000000117294       0x2c binaries/lflinit.o
                                         0x44 (size before relaxing)
 .eh_frame      0x00000000001172c0       0x30 binaries/lflputc.o
                                         0x48 (size before relaxing)
 .eh_frame      0x00000000001172f0       0x2c binaries/lflread.o
                                         0x44 (size before relaxing)
 .eh_frame      0x000000000011731c       0x2c binaries/lflseek.o
                                         0x44 (size before relaxing)
 .eh_frame      0x0000000000117348       0x2c binaries/lflwrite.o
                                         0x44 (size before relaxing)
 .eh_frame      0x0000000000117374       0x30 binaries/lfsckfmt.o
                                         0x48 (size before relaxing)
 .eh_frame      0x00000000001173a4       0x30 binaries/lfscreate.o
                                         0x48 (size before relaxing)
 .eh_frame      0x00000000001173d4       0x30 binaries/lfsetup.o
                                         0x48 (size before relaxing)
 .eh_frame      0x0000000000117404       0x20 binaries/lfsinit.o
                                         0x38 (size before relaxing)
 .eh_frame      0x0000000000117424       0x30 binaries/lfsopen.o
                                         0x48 (size before relaxing)
 .eh_frame      0x0000000000117454       0x30 binaries/lftruncate.o
                                         0x48 (size before relaxing)
 .eh_frame      0x0000000000117484       0x20 binaries/rflclose.o
                                         0x38 (size before relaxing)
 .eh_frame      0x00000000001174a4       0x20 binaries/rflgetc.o
                                         0x38 (size before relaxing)
 .eh_frame      0x00000000001174c4       0x24 binaries/rflinit.o
                                         0x3c (size before relaxing)
 .eh_frame      0x00000000001174e8       0x20 binaries/rflputc.o
                                         0x38 (size before relaxing)
 .eh_frame      0x0000000000117508       0x30 binaries/rflread.o
                                         0x48 (size before relaxing)
 .eh_frame      0x0000000000117538       0x20 binaries/rflseek.o
                                         0x38 (size before relaxing)
 .eh_frame      0x0000000000117558       0x30 binaries/rflwrite.o
                                         0x48 (size before relaxing)
 .eh_frame      0x0000000000117588       0x30 binaries/rfscomm.o
                                         0x48 (size before relaxing)
 .eh_frame      0x00000000001175b8       0x2c binaries/rfscontrol.o
                                         0x44 (size before relaxing)
 .eh_frame      0x00000000001175e4       0x20 binaries/rfsgetmode.o
                                         0x38 (size before relaxing)
 .eh_frame      0x0000000000117604       0x20 binaries/rfsinit.o
                                         0x38 (size before relaxing)
 .eh_frame      0x0000000000117624       0x20 binaries/rfsndmsg.o
                                         0x38 (size before relaxing)
 .eh_frame      0x0000000000117644       0x2c binaries/rfsopen.o
                                         0x44 (size before relaxing)
 .eh_frame      0x0000000000117670       0xec binaries/arp.o
                                        0x104 (size before relaxing)
 .eh_frame      0x000000000011775c       0xd0 binaries/dhcp.o
                                         0xe8 (size before relaxing)
 .eh_frame      0x000000000011782c       0x2c binaries/dot2ip.o
                                         0x44 (size before relaxing)
 .eh_frame      0x0000000000117858       0x60 binaries/hexdump.o
                                         0x78 (size before relaxing)
 .eh_frame      0x00000000001178b8      0x198 binaries/icmp.o
                                        0x1b0 (size before relaxing)
 .eh_frame      0x0000000000117a50      0x148 binaries/ip.o
                                        0x160 (size before relaxing)
 .eh_frame      0x0000000000117b98       0x7c binaries/net.o
                                         0x94 (size before relaxing)
 .eh_frame      0x0000000000117c14       0x24 binaries/netstart.o
                                         0x3c (size before relaxing)
 .eh_frame      0x0000000000117c38       0x50 binaries/pdump.o
                                         0x68 (size before relaxing)
 .eh_frame      0x0000000000117c88       0x80 binaries/tftp.o
                                         0x98 (size before relaxing)
 .eh_frame      0x0000000000117d08      0x1b0 binaries/udp.o
                                        0x1c8 (size before relaxing)
 .eh_frame      0x0000000000117eb8       0x30 binaries/addargs.o
                                         0x48 (size before relaxing)
 .eh_frame      0x0000000000117ee8       0x30 binaries/lexan.o
                                         0x48 (size before relaxing)
 .eh_frame      0x0000000000117f18       0x30 binaries/shell.o
                                         0x48 (size before relaxing)
 .eh_frame      0x0000000000117f48       0x2c binaries/xsh_argecho.o
                                         0x44 (size before relaxing)
 .eh_frame      0x0000000000117f74       0x30 binaries/xsh_arp.o
                                         0x48 (size before relaxing)
 .eh_frame      0x0000000000117fa4       0x30 binaries/xsh_cat.o
                                         0x48 (size before relaxing)
 .eh_frame      0x0000000000117fd4       0x20 binaries/xsh_clear.o
                                         0x38 (size before relaxing)
 .eh_frame      0x0000000000117ff4       0x24 binaries/xsh_date.o
                                         0x3c (size before relaxing)
 .eh_frame      0x0000000000118018       0x28 binaries/xsh_devdump.o
                                         0x40 (size before relaxing)
 .eh_frame      0x0000000000118040       0x2c binaries/xsh_echo.o
                                         0x44 (size before relaxing)
 .eh_frame      0x000000000011806c       0x20 binaries/xsh_exit.o
                                         0x38 (size before relaxing)
 .eh_frame      0x000000000011808c       0x30 binaries/xsh_help.o
                                         0x48 (size before relaxing)
 .eh_frame      0x00000000001180bc       0x2c binaries/xsh_ipaddr.o
                                         0x44 (size before relaxing)
 .eh_frame      0x00000000001180e8       0x2c binaries/xsh_kill.o
                                         0x44 (size before relaxing)
 .eh_frame      0x0000000000118114       0x58 binaries/xsh_memdump.o
                                         0x70 (size before relaxing)
 .eh_frame      0x000000000011816c       0x30 binaries/xsh_memstat.o
                                         0x48 (size before relaxing)
 .eh_frame      0x000000000011819c       0x30 binaries/xsh_ping.o
                                         0x48 (size before relaxing)
 .eh_frame      0x00000000001181cc       0x30 binaries/xsh_ps.o
                                         0x48 (size before relaxing)
 .eh_frame      0x00000000001181fc       0x30 binaries/xsh_sleep.o
                                         0x48 (size before relaxing)
 .eh_frame      0x000000000011822c       0x2c binaries/xsh_udpdump.o
                                         0x44 (size before relaxing)
 .eh_frame      0x0000000000118258       0x30 binaries/xsh_udpecho.o
                                         0x48 (size before relaxing)
 .eh_frame      0x0000000000118288       0x30 binaries/xsh_udpeserver.o
                                         0x48 (size before relaxing)
 .eh_frame      0x00000000001182b8       0x30 binaries/xsh_uptime.o
                                         0x48 (size before relaxing)
 .eh_frame      0x00000000001182e8       0x14 binaries/host2netlc.o
                                         0x2c (size before relaxing)

.iplt           0x0000000000118300        0x0
 .iplt          0x0000000000118300        0x0 binaries/start.o

.rel.dyn        0x00000000001182fc        0x0
 .rel.iplt      0x00000000001182fc        0x0 binaries/start.o
 .rel.text      0x00000000001182fc        0x0 binaries/start.o
 .rel.data      0x00000000001182fc        0x0 binaries/start.o
 .rel.rodata    0x00000000001182fc        0x0 binaries/start.o

.data           0x0000000000118300     0x1d00
                0x0000000000118300                data = ABSOLUTE (.)
 *(.data .data.*)
 .data          0x0000000000118300      0x85a binaries/start.o
                0x0000000000118300                gdt
                0x0000000000118350                idt
                0x0000000000118b56                cpudelay
 .data          0x0000000000118b5a        0x0 binaries/app1.o
 .data          0x0000000000118b5a        0x0 binaries/app2.o
 .data          0x0000000000118b5a        0x0 binaries/app3.o
 *fill*         0x0000000000118b5a        0x6 
 .data          0x0000000000118b60       0x88 binaries/ascdate.o
                0x0000000000118b60                Date
 .data          0x0000000000118be8        0x0 binaries/bufinit.o
 .data          0x0000000000118be8        0x0 binaries/chprio.o
 .data          0x0000000000118be8        0x4 binaries/clkhandler.o
 .data          0x0000000000118bec        0x0 binaries/clkinit.o
 .data          0x0000000000118bec        0x0 binaries/close.o
 *fill*         0x0000000000118bec       0x14 
 .data          0x0000000000118c00      0x30c binaries/conf.o
                0x0000000000118c00                devtab
 .data          0x0000000000118f0c        0x0 binaries/control.o
 .data          0x0000000000118f0c        0x4 binaries/create.o
 .data          0x0000000000118f10        0x0 binaries/early_imr.o
 *fill*         0x0000000000118f10       0x10 
 .data          0x0000000000118f20       0x40 binaries/evec.o
                0x0000000000118f20                inames
 .data          0x0000000000118f60        0x0 binaries/factorial.o
 .data          0x0000000000118f60        0x0 binaries/freebuf.o
 .data          0x0000000000118f60        0x0 binaries/freemem.o
 .data          0x0000000000118f60        0x0 binaries/getbuf.o
 .data          0x0000000000118f60        0x0 binaries/getc.o
 .data          0x0000000000118f60        0x0 binaries/getdev.o
 .data          0x0000000000118f60        0x0 binaries/getitem.o
 .data          0x0000000000118f60        0x0 binaries/getmem.o
 .data          0x0000000000118f60        0x0 binaries/getpid.o
 .data          0x0000000000118f60        0x0 binaries/getpname.o
 .data          0x0000000000118f60        0x0 binaries/getppid.o
 .data          0x0000000000118f60        0x0 binaries/getprio.o
 .data          0x0000000000118f60        0x0 binaries/getstk.o
 .data          0x0000000000118f60        0x0 binaries/gettime.o
 .data          0x0000000000118f60        0x0 binaries/getutime.o
 .data          0x0000000000118f60        0x0 binaries/host2netlb.o
 .data          0x0000000000118f60        0x0 binaries/init.o
 .data          0x0000000000118f60        0x0 binaries/initialize.o
 .data          0x0000000000118f60        0x0 binaries/insert.o
 .data          0x0000000000118f60        0x0 binaries/insertd.o
 .data          0x0000000000118f60        0x0 binaries/ioerr.o
 .data          0x0000000000118f60        0x0 binaries/ionull.o
 .data          0x0000000000118f60        0x0 binaries/kill.o
 .data          0x0000000000118f60        0x0 binaries/kprintf.o
 .data          0x0000000000118f60        0x0 binaries/lab2q3.o
 .data          0x0000000000118f60        0x0 binaries/main.o
 .data          0x0000000000118f60        0x0 binaries/mark.o
 .data          0x0000000000118f60       0x48 binaries/meminit.o
                0x0000000000118f60                gdt_copy
                0x0000000000118fa0                bootinfo
                0x0000000000118fa4                bootsign
 .data          0x0000000000118fa8        0x0 binaries/mkbufpool.o
 .data          0x0000000000118fa8        0x0 binaries/myappA.o
 .data          0x0000000000118fa8        0x0 binaries/myfuncA.o
 .data          0x0000000000118fa8        0x0 binaries/myhacker.o
 .data          0x0000000000118fa8        0x0 binaries/myvictim.o
 .data          0x0000000000118fa8        0x0 binaries/mywelcomemsg.o
 .data          0x0000000000118fa8        0x2 binaries/newqueue.o
 .data          0x0000000000118faa        0x0 binaries/open.o
 .data          0x0000000000118faa        0x0 binaries/panic.o
 .data          0x0000000000118faa        0x0 binaries/pci.o
 .data          0x0000000000118faa        0x0 binaries/platinit.o
 .data          0x0000000000118faa        0x0 binaries/printsegaddr.o
 .data          0x0000000000118faa        0x0 binaries/ptclear.o
 .data          0x0000000000118faa        0x0 binaries/ptcount.o
 .data          0x0000000000118faa        0x0 binaries/ptcreate.o
 .data          0x0000000000118faa        0x0 binaries/ptdelete.o
 .data          0x0000000000118faa        0x0 binaries/ptinit.o
 .data          0x0000000000118faa        0x0 binaries/ptrecv.o
 .data          0x0000000000118faa        0x0 binaries/ptreset.o
 .data          0x0000000000118faa        0x0 binaries/ptsend.o
 .data          0x0000000000118faa        0x0 binaries/putc.o
 .data          0x0000000000118faa        0x0 binaries/quark_irq.o
 .data          0x0000000000118faa        0x0 binaries/quark_pdat.o
 .data          0x0000000000118faa        0x0 binaries/queue.o
 .data          0x0000000000118faa        0x0 binaries/read.o
 .data          0x0000000000118faa        0x0 binaries/ready.o
 .data          0x0000000000118faa        0x0 binaries/receive.o
 .data          0x0000000000118faa        0x0 binaries/recvclr.o
 .data          0x0000000000118faa        0x0 binaries/recvtime.o
 .data          0x0000000000118faa        0x0 binaries/resched.o
 .data          0x0000000000118faa        0x0 binaries/resume.o
 .data          0x0000000000118faa        0x0 binaries/seek.o
 .data          0x0000000000118faa        0x0 binaries/semcount.o
 .data          0x0000000000118faa        0x0 binaries/semcreate.o
 .data          0x0000000000118faa        0x0 binaries/semdelete.o
 .data          0x0000000000118faa        0x0 binaries/semreset.o
 .data          0x0000000000118faa        0x0 binaries/send.o
 .data          0x0000000000118faa        0x0 binaries/signal.o
 .data          0x0000000000118faa        0x0 binaries/signaln.o
 .data          0x0000000000118faa        0x0 binaries/sleep.o
 .data          0x0000000000118faa        0x0 binaries/stackdepth.o
 .data          0x0000000000118faa        0x0 binaries/stacktrace.o
 .data          0x0000000000118faa        0x0 binaries/suspend.o
 .data          0x0000000000118faa        0x0 binaries/teststackdepth.o
 .data          0x0000000000118faa        0x0 binaries/unsleep.o
 .data          0x0000000000118faa        0x0 binaries/userret.o
 .data          0x0000000000118faa        0x0 binaries/wait.o
 .data          0x0000000000118faa        0x0 binaries/wakeup.o
 .data          0x0000000000118faa        0x0 binaries/write.o
 .data          0x0000000000118faa        0x0 binaries/xdone.o
 .data          0x0000000000118faa        0x0 binaries/yield.o
 .data          0x0000000000118faa        0x0 binaries/abs.o
 .data          0x0000000000118faa        0x0 binaries/atoi.o
 .data          0x0000000000118faa        0x0 binaries/atol.o
 .data          0x0000000000118faa        0x0 binaries/bzero.o
 .data          0x0000000000118faa        0x0 binaries/ctype_.o
 .data          0x0000000000118faa        0x0 binaries/doprnt.o
 *fill*         0x0000000000118faa       0x16 
 .data          0x0000000000118fc0       0x80 binaries/doscan.o
                0x0000000000118fc0                _sctab
 .data          0x0000000000119040        0x0 binaries/fdoprnt.o
 .data          0x0000000000119040        0x0 binaries/fgetc.o
 .data          0x0000000000119040        0x0 binaries/fgets.o
 .data          0x0000000000119040        0x0 binaries/fprintf.o
 .data          0x0000000000119040        0x0 binaries/fputc.o
 .data          0x0000000000119040        0x0 binaries/fputs.o
 .data          0x0000000000119040        0x0 binaries/fscanf.o
 .data          0x0000000000119040        0x0 binaries/getchar.o
 .data          0x0000000000119040        0x0 binaries/labs.o
 .data          0x0000000000119040        0x0 binaries/memchr.o
 .data          0x0000000000119040        0x0 binaries/memcmp.o
 .data          0x0000000000119040        0x0 binaries/memcpy.o
 .data          0x0000000000119040        0x0 binaries/memset.o
 .data          0x0000000000119040        0x0 binaries/printf.o
 .data          0x0000000000119040        0x0 binaries/putchar.o
 .data          0x0000000000119040        0x0 binaries/qsort.o
 .data          0x0000000000119040        0x4 binaries/rand.o
 .data          0x0000000000119044        0x0 binaries/sprintf.o
 .data          0x0000000000119044        0x0 binaries/sscanf.o
 .data          0x0000000000119044        0x0 binaries/strchr.o
 .data          0x0000000000119044        0x0 binaries/strcmp.o
 .data          0x0000000000119044        0x0 binaries/strcpy.o
 .data          0x0000000000119044        0x0 binaries/strlen.o
 .data          0x0000000000119044        0x0 binaries/strncat.o
 .data          0x0000000000119044        0x0 binaries/strncmp.o
 .data          0x0000000000119044        0x0 binaries/strncpy.o
 .data          0x0000000000119044        0x0 binaries/strnlen.o
 .data          0x0000000000119044        0x0 binaries/strrchr.o
 .data          0x0000000000119044        0x0 binaries/strstr.o
 .data          0x0000000000119044        0x0 binaries/ttycontrol.o
 .data          0x0000000000119044        0x0 binaries/ttygetc.o
 .data          0x0000000000119044        0x0 binaries/ttyhandle_in.o
 .data          0x0000000000119044        0x0 binaries/ttyhandle_out.o
 .data          0x0000000000119044        0x0 binaries/ttyhandler.o
 .data          0x0000000000119044        0x0 binaries/ttyinit.o
 .data          0x0000000000119044        0x0 binaries/ttykickout.o
 .data          0x0000000000119044        0x0 binaries/ttyputc.o
 .data          0x0000000000119044        0x0 binaries/ttyread.o
 .data          0x0000000000119044        0x0 binaries/ttywrite.o
 .data          0x0000000000119044        0x0 binaries/mount.o
 .data          0x0000000000119044        0x0 binaries/naminit.o
 .data          0x0000000000119044        0x0 binaries/nammap.o
 .data          0x0000000000119044        0x0 binaries/namopen.o
 .data          0x0000000000119044        0x0 binaries/colon2mac.o
 .data          0x0000000000119044        0x0 binaries/ethcontrol.o
 .data          0x0000000000119044        0x0 binaries/ethhandler.o
 .data          0x0000000000119044        0x0 binaries/ethinit.o
 .data          0x0000000000119044        0x0 binaries/ethmcast.o
 .data          0x0000000000119044        0x0 binaries/ethread.o
 .data          0x0000000000119044        0x0 binaries/ethwrite.o
 .data          0x0000000000119044        0x0 binaries/rdsbufalloc.o
 .data          0x0000000000119044        0x0 binaries/rdsclose.o
 .data          0x0000000000119044        0x0 binaries/rdscomm.o
 .data          0x0000000000119044        0x0 binaries/rdscontrol.o
 .data          0x0000000000119044        0x0 binaries/rdsinit.o
 .data          0x0000000000119044        0x0 binaries/rdsopen.o
 .data          0x0000000000119044        0x0 binaries/rdsprocess.o
 .data          0x0000000000119044        0x0 binaries/rdsread.o
 .data          0x0000000000119044        0x0 binaries/rdswrite.o
 .data          0x0000000000119044        0x0 binaries/ramclose.o
 .data          0x0000000000119044        0x0 binaries/raminit.o
 .data          0x0000000000119044        0x0 binaries/ramopen.o
 .data          0x0000000000119044        0x0 binaries/ramread.o
 .data          0x0000000000119044        0x0 binaries/ramwrite.o
 .data          0x0000000000119044        0x0 binaries/lfdballoc.o
 .data          0x0000000000119044        0x0 binaries/lfdbfree.o
 .data          0x0000000000119044        0x0 binaries/lfflush.o
 .data          0x0000000000119044        0x0 binaries/lfgetmode.o
 .data          0x0000000000119044        0x0 binaries/lfiballoc.o
 .data          0x0000000000119044        0x0 binaries/lfibclear.o
 .data          0x0000000000119044        0x0 binaries/lfibget.o
 .data          0x0000000000119044        0x0 binaries/lfibput.o
 .data          0x0000000000119044        0x0 binaries/lflclose.o
 .data          0x0000000000119044        0x0 binaries/lflcontrol.o
 .data          0x0000000000119044        0x0 binaries/lflgetc.o
 .data          0x0000000000119044        0x0 binaries/lflinit.o
 .data          0x0000000000119044        0x0 binaries/lflputc.o
 .data          0x0000000000119044        0x0 binaries/lflread.o
 .data          0x0000000000119044        0x0 binaries/lflseek.o
 .data          0x0000000000119044        0x0 binaries/lflwrite.o
 .data          0x0000000000119044        0x0 binaries/lfsckfmt.o
 .data          0x0000000000119044        0x0 binaries/lfscreate.o
 .data          0x0000000000119044        0x0 binaries/lfsetup.o
 .data          0x0000000000119044        0x0 binaries/lfsinit.o
 .data          0x0000000000119044        0x0 binaries/lfsopen.o
 .data          0x0000000000119044        0x0 binaries/lftruncate.o
 .data          0x0000000000119044        0x0 binaries/rflclose.o
 .data          0x0000000000119044        0x0 binaries/rflgetc.o
 .data          0x0000000000119044        0x0 binaries/rflinit.o
 .data          0x0000000000119044        0x0 binaries/rflputc.o
 .data          0x0000000000119044        0x0 binaries/rflread.o
 .data          0x0000000000119044        0x0 binaries/rflseek.o
 .data          0x0000000000119044        0x0 binaries/rflwrite.o
 .data          0x0000000000119044        0x0 binaries/rfscomm.o
 .data          0x0000000000119044        0x0 binaries/rfscontrol.o
 .data          0x0000000000119044        0x0 binaries/rfsgetmode.o
 .data          0x0000000000119044        0x0 binaries/rfsinit.o
 .data          0x0000000000119044        0x0 binaries/rfsndmsg.o
 .data          0x0000000000119044        0x0 binaries/rfsopen.o
 .data          0x0000000000119044        0x0 binaries/arp.o
 .data          0x0000000000119044        0x0 binaries/dhcp.o
 .data          0x0000000000119044        0x0 binaries/dot2ip.o
 .data          0x0000000000119044        0x0 binaries/hexdump.o
 .data          0x0000000000119044        0x4 binaries/icmp.o
 .data          0x0000000000119048        0x0 binaries/ip.o
 .data          0x0000000000119048        0x0 binaries/net.o
 .data          0x0000000000119048        0x0 binaries/netstart.o
 .data          0x0000000000119048        0x0 binaries/pdump.o
 .data          0x0000000000119048        0x0 binaries/tftp.o
 .data          0x0000000000119048        0x4 binaries/udp.o
 .data          0x000000000011904c        0x0 binaries/addargs.o
 .data          0x000000000011904c        0x0 binaries/lexan.o
 .data          0x000000000011904c        0x4 binaries/shell.o
                0x000000000011904c                ncmd
 .data          0x0000000000119050        0x0 binaries/xsh_argecho.o
 .data          0x0000000000119050        0x0 binaries/xsh_arp.o
 .data          0x0000000000119050        0x0 binaries/xsh_cat.o
 .data          0x0000000000119050        0x0 binaries/xsh_clear.o
 .data          0x0000000000119050        0x0 binaries/xsh_date.o
 .data          0x0000000000119050        0x0 binaries/xsh_devdump.o
 .data          0x0000000000119050        0x0 binaries/xsh_echo.o
 .data          0x0000000000119050        0x0 binaries/xsh_exit.o
 .data          0x0000000000119050        0x0 binaries/xsh_help.o
 .data          0x0000000000119050        0x0 binaries/xsh_ipaddr.o
 .data          0x0000000000119050        0x0 binaries/xsh_kill.o
 .data          0x0000000000119050        0x0 binaries/xsh_memdump.o
 .data          0x0000000000119050        0x0 binaries/xsh_memstat.o
 .data          0x0000000000119050        0x0 binaries/xsh_ping.o
 .data          0x0000000000119050        0x0 binaries/xsh_ps.o
 .data          0x0000000000119050        0x0 binaries/xsh_sleep.o
 .data          0x0000000000119050        0x0 binaries/xsh_udpdump.o
 .data          0x0000000000119050        0x0 binaries/xsh_udpecho.o
 .data          0x0000000000119050        0x0 binaries/xsh_udpeserver.o
 .data          0x0000000000119050        0x0 binaries/xsh_uptime.o
 .data          0x0000000000119050        0x0 binaries/clkdisp.o
 .data          0x0000000000119050        0x0 binaries/ctxsw.o
 .data          0x0000000000119050        0x0 binaries/host2netla.o
 .data          0x0000000000119050        0x0 binaries/host2netlc.o
 .data          0x0000000000119050        0x0 binaries/intr.o
 .data          0x0000000000119050        0x0 binaries/ttydispatch.o
 .data          0x0000000000119050        0x0 binaries/ethdispatch.o
                0x0000000000119050                edata = ABSOLUTE (.)
                0x000000000011a000                . = ALIGN (0x1000)
 *fill*         0x0000000000119050      0xfb0 

.igot.plt       0x000000000011a000        0x0
 .igot.plt      0x000000000011a000        0x0 binaries/start.o

.bss            0x000000000011a000    0x20000
                0x000000000011a000                bss = ABSOLUTE (.)
 *(.bss .bss.*)
 .bss           0x000000000011a000        0x0 binaries/start.o
 .bss           0x000000000011a000        0x0 binaries/app1.o
 .bss           0x000000000011a000        0x0 binaries/app2.o
 .bss           0x000000000011a000        0x0 binaries/app3.o
 .bss           0x000000000011a000        0x0 binaries/ascdate.o
 .bss           0x000000000011a000        0x0 binaries/bufinit.o
 .bss           0x000000000011a000        0x0 binaries/chprio.o
 .bss           0x000000000011a000        0x0 binaries/clkhandler.o
 .bss           0x000000000011a000        0x4 binaries/clkinit.o
                0x000000000011a000                ctr1000
 .bss           0x000000000011a004        0x0 binaries/close.o
 .bss           0x000000000011a004        0x0 binaries/conf.o
 .bss           0x000000000011a004        0x0 binaries/control.o
 .bss           0x000000000011a004        0x0 binaries/create.o
 .bss           0x000000000011a004        0x0 binaries/early_imr.o
 .bss           0x000000000011a004        0x0 binaries/evec.o
 .bss           0x000000000011a004        0x0 binaries/factorial.o
 .bss           0x000000000011a004        0x0 binaries/freebuf.o
 .bss           0x000000000011a004        0x0 binaries/freemem.o
 .bss           0x000000000011a004        0x0 binaries/getbuf.o
 .bss           0x000000000011a004        0x0 binaries/getc.o
 .bss           0x000000000011a004        0x0 binaries/getdev.o
 .bss           0x000000000011a004        0x0 binaries/getitem.o
 .bss           0x000000000011a004        0x0 binaries/getmem.o
 .bss           0x000000000011a004        0x0 binaries/getpid.o
 .bss           0x000000000011a004        0x0 binaries/getpname.o
 .bss           0x000000000011a004        0x0 binaries/getppid.o
 .bss           0x000000000011a004        0x0 binaries/getprio.o
 .bss           0x000000000011a004        0x0 binaries/getstk.o
 .bss           0x000000000011a004        0x0 binaries/gettime.o
 .bss           0x000000000011a004        0x0 binaries/getutime.o
 .bss           0x000000000011a004        0x0 binaries/host2netlb.o
 .bss           0x000000000011a004        0x0 binaries/init.o
 .bss           0x000000000011a004        0x0 binaries/initialize.o
 .bss           0x000000000011a004        0x0 binaries/insert.o
 .bss           0x000000000011a004        0x0 binaries/insertd.o
 .bss           0x000000000011a004        0x0 binaries/ioerr.o
 .bss           0x000000000011a004        0x0 binaries/ionull.o
 .bss           0x000000000011a004        0x0 binaries/kill.o
 .bss           0x000000000011a004        0x0 binaries/kprintf.o
 .bss           0x000000000011a004        0x0 binaries/lab2q3.o
 .bss           0x000000000011a004        0x4 binaries/main.o
                0x000000000011a004                victimglobal
 .bss           0x000000000011a008        0x0 binaries/mark.o
 .bss           0x000000000011a008        0x0 binaries/meminit.o
 .bss           0x000000000011a008        0x0 binaries/mkbufpool.o
 .bss           0x000000000011a008        0x0 binaries/myappA.o
 .bss           0x000000000011a008        0x0 binaries/myfuncA.o
 .bss           0x000000000011a008        0x0 binaries/myhacker.o
 .bss           0x000000000011a008        0x0 binaries/myvictim.o
 .bss           0x000000000011a008        0x0 binaries/mywelcomemsg.o
 .bss           0x000000000011a008        0x0 binaries/newqueue.o
 .bss           0x000000000011a008        0x0 binaries/open.o
 .bss           0x000000000011a008        0x0 binaries/panic.o
 .bss           0x000000000011a008        0x0 binaries/pci.o
 .bss           0x000000000011a008        0x0 binaries/platinit.o
 .bss           0x000000000011a008        0x0 binaries/printsegaddr.o
 .bss           0x000000000011a008        0x0 binaries/ptclear.o
 .bss           0x000000000011a008        0x0 binaries/ptcount.o
 .bss           0x000000000011a008        0x0 binaries/ptcreate.o
 .bss           0x000000000011a008        0x0 binaries/ptdelete.o
 .bss           0x000000000011a008        0x0 binaries/ptinit.o
 .bss           0x000000000011a008        0x0 binaries/ptrecv.o
 .bss           0x000000000011a008        0x0 binaries/ptreset.o
 .bss           0x000000000011a008        0x0 binaries/ptsend.o
 .bss           0x000000000011a008        0x0 binaries/putc.o
 .bss           0x000000000011a008        0x0 binaries/quark_irq.o
 .bss           0x000000000011a008        0x0 binaries/quark_pdat.o
 .bss           0x000000000011a008        0x0 binaries/queue.o
 .bss           0x000000000011a008        0x0 binaries/read.o
 .bss           0x000000000011a008        0x0 binaries/ready.o
 .bss           0x000000000011a008        0x0 binaries/receive.o
 .bss           0x000000000011a008        0x0 binaries/recvclr.o
 .bss           0x000000000011a008        0x0 binaries/recvtime.o
 .bss           0x000000000011a008        0x0 binaries/resched.o
 .bss           0x000000000011a008        0x0 binaries/resume.o
 .bss           0x000000000011a008        0x0 binaries/seek.o
 .bss           0x000000000011a008        0x0 binaries/semcount.o
 .bss           0x000000000011a008        0x4 binaries/semcreate.o
 .bss           0x000000000011a00c        0x0 binaries/semdelete.o
 .bss           0x000000000011a00c        0x0 binaries/semreset.o
 .bss           0x000000000011a00c        0x0 binaries/send.o
 .bss           0x000000000011a00c        0x0 binaries/signal.o
 .bss           0x000000000011a00c        0x0 binaries/signaln.o
 .bss           0x000000000011a00c        0x0 binaries/sleep.o
 .bss           0x000000000011a00c        0x0 binaries/stackdepth.o
 .bss           0x000000000011a00c        0x8 binaries/stacktrace.o
 .bss           0x000000000011a014        0x0 binaries/suspend.o
 .bss           0x000000000011a014        0x0 binaries/teststackdepth.o
 .bss           0x000000000011a014        0x0 binaries/unsleep.o
 .bss           0x000000000011a014        0x0 binaries/userret.o
 .bss           0x000000000011a014        0x0 binaries/wait.o
 .bss           0x000000000011a014        0x0 binaries/wakeup.o
 .bss           0x000000000011a014        0x0 binaries/write.o
 .bss           0x000000000011a014        0x0 binaries/xdone.o
 .bss           0x000000000011a014        0x0 binaries/yield.o
 .bss           0x000000000011a014        0x0 binaries/abs.o
 .bss           0x000000000011a014        0x0 binaries/atoi.o
 .bss           0x000000000011a014        0x0 binaries/atol.o
 .bss           0x000000000011a014        0x0 binaries/bzero.o
 .bss           0x000000000011a014        0x0 binaries/ctype_.o
 .bss           0x000000000011a014        0x0 binaries/doprnt.o
 .bss           0x000000000011a014        0x0 binaries/doscan.o
 .bss           0x000000000011a014        0x0 binaries/fdoprnt.o
 .bss           0x000000000011a014        0x0 binaries/fgetc.o
 .bss           0x000000000011a014        0x0 binaries/fgets.o
 .bss           0x000000000011a014        0x0 binaries/fprintf.o
 .bss           0x000000000011a014        0x0 binaries/fputc.o
 .bss           0x000000000011a014        0x0 binaries/fputs.o
 .bss           0x000000000011a014        0x0 binaries/fscanf.o
 .bss           0x000000000011a014        0x0 binaries/getchar.o
 .bss           0x000000000011a014        0x0 binaries/labs.o
 .bss           0x000000000011a014        0x0 binaries/memchr.o
 .bss           0x000000000011a014        0x0 binaries/memcmp.o
 .bss           0x000000000011a014        0x0 binaries/memcpy.o
 .bss           0x000000000011a014        0x0 binaries/memset.o
 .bss           0x000000000011a014        0x0 binaries/printf.o
 .bss           0x000000000011a014        0x0 binaries/putchar.o
 .bss           0x000000000011a014        0x8 binaries/qsort.o
 .bss           0x000000000011a01c        0x0 binaries/rand.o
 .bss           0x000000000011a01c        0x0 binaries/sprintf.o
 .bss           0x000000000011a01c        0x0 binaries/sscanf.o
 .bss           0x000000000011a01c        0x0 binaries/strchr.o
 .bss           0x000000000011a01c        0x0 binaries/strcmp.o
 .bss           0x000000000011a01c        0x0 binaries/strcpy.o
 .bss           0x000000000011a01c        0x0 binaries/strlen.o
 .bss           0x000000000011a01c        0x0 binaries/strncat.o
 .bss           0x000000000011a01c        0x0 binaries/strncmp.o
 .bss           0x000000000011a01c        0x0 binaries/strncpy.o
 .bss           0x000000000011a01c        0x0 binaries/strnlen.o
 .bss           0x000000000011a01c        0x0 binaries/strrchr.o
 .bss           0x000000000011a01c        0x0 binaries/strstr.o
 .bss           0x000000000011a01c        0x0 binaries/ttycontrol.o
 .bss           0x000000000011a01c        0x0 binaries/ttygetc.o
 .bss           0x000000000011a01c        0x0 binaries/ttyhandle_in.o
 .bss           0x000000000011a01c        0x0 binaries/ttyhandle_out.o
 .bss           0x000000000011a01c        0x0 binaries/ttyhandler.o
 .bss           0x000000000011a01c        0x0 binaries/ttyinit.o
 .bss           0x000000000011a01c        0x0 binaries/ttykickout.o
 .bss           0x000000000011a01c        0x0 binaries/ttyputc.o
 .bss           0x000000000011a01c        0x0 binaries/ttyread.o
 .bss           0x000000000011a01c        0x0 binaries/ttywrite.o
 .bss           0x000000000011a01c        0x0 binaries/mount.o
 .bss           0x000000000011a01c        0x0 binaries/naminit.o
 .bss           0x000000000011a01c        0x0 binaries/nammap.o
 .bss           0x000000000011a01c        0x0 binaries/namopen.o
 .bss           0x000000000011a01c        0x0 binaries/colon2mac.o
 .bss           0x000000000011a01c        0x0 binaries/ethcontrol.o
 .bss           0x000000000011a01c        0x0 binaries/ethhandler.o
 .bss           0x000000000011a01c        0x0 binaries/ethinit.o
 .bss           0x000000000011a01c        0x0 binaries/ethmcast.o
 .bss           0x000000000011a01c        0x0 binaries/ethread.o
 .bss           0x000000000011a01c        0x0 binaries/ethwrite.o
 .bss           0x000000000011a01c        0x0 binaries/rdsbufalloc.o
 .bss           0x000000000011a01c        0x0 binaries/rdsclose.o
 .bss           0x000000000011a01c        0x0 binaries/rdscomm.o
 .bss           0x000000000011a01c        0x0 binaries/rdscontrol.o
 .bss           0x000000000011a01c        0x0 binaries/rdsinit.o
 .bss           0x000000000011a01c        0x0 binaries/rdsopen.o
 .bss           0x000000000011a01c        0x0 binaries/rdsprocess.o
 .bss           0x000000000011a01c        0x0 binaries/rdsread.o
 .bss           0x000000000011a01c        0x0 binaries/rdswrite.o
 .bss           0x000000000011a01c        0x0 binaries/ramclose.o
 .bss           0x000000000011a01c        0x0 binaries/raminit.o
 .bss           0x000000000011a01c        0x0 binaries/ramopen.o
 .bss           0x000000000011a01c        0x0 binaries/ramread.o
 .bss           0x000000000011a01c        0x0 binaries/ramwrite.o
 .bss           0x000000000011a01c        0x0 binaries/lfdballoc.o
 .bss           0x000000000011a01c        0x0 binaries/lfdbfree.o
 .bss           0x000000000011a01c        0x0 binaries/lfflush.o
 .bss           0x000000000011a01c        0x0 binaries/lfgetmode.o
 .bss           0x000000000011a01c        0x0 binaries/lfiballoc.o
 .bss           0x000000000011a01c        0x0 binaries/lfibclear.o
 .bss           0x000000000011a01c        0x0 binaries/lfibget.o
 .bss           0x000000000011a01c        0x0 binaries/lfibput.o
 .bss           0x000000000011a01c        0x0 binaries/lflclose.o
 .bss           0x000000000011a01c        0x0 binaries/lflcontrol.o
 .bss           0x000000000011a01c        0x0 binaries/lflgetc.o
 .bss           0x000000000011a01c        0x0 binaries/lflinit.o
 .bss           0x000000000011a01c        0x0 binaries/lflputc.o
 .bss           0x000000000011a01c        0x0 binaries/lflread.o
 .bss           0x000000000011a01c        0x0 binaries/lflseek.o
 .bss           0x000000000011a01c        0x0 binaries/lflwrite.o
 .bss           0x000000000011a01c        0x0 binaries/lfsckfmt.o
 .bss           0x000000000011a01c        0x0 binaries/lfscreate.o
 .bss           0x000000000011a01c        0x0 binaries/lfsetup.o
 .bss           0x000000000011a01c        0x0 binaries/lfsinit.o
 .bss           0x000000000011a01c        0x0 binaries/lfsopen.o
 .bss           0x000000000011a01c        0x0 binaries/lftruncate.o
 .bss           0x000000000011a01c        0x0 binaries/rflclose.o
 .bss           0x000000000011a01c        0x0 binaries/rflgetc.o
 .bss           0x000000000011a01c        0x0 binaries/rflinit.o
 .bss           0x000000000011a01c        0x0 binaries/rflputc.o
 .bss           0x000000000011a01c        0x0 binaries/rflread.o
 .bss           0x000000000011a01c        0x0 binaries/rflseek.o
 .bss           0x000000000011a01c        0x0 binaries/rflwrite.o
 .bss           0x000000000011a01c        0x0 binaries/rfscomm.o
 .bss           0x000000000011a01c        0x0 binaries/rfscontrol.o
 .bss           0x000000000011a01c        0x0 binaries/rfsgetmode.o
 .bss           0x000000000011a01c        0x0 binaries/rfsinit.o
 .bss           0x000000000011a01c        0x0 binaries/rfsndmsg.o
 .bss           0x000000000011a01c        0x0 binaries/rfsopen.o
 .bss           0x000000000011a01c        0x0 binaries/arp.o
 .bss           0x000000000011a01c        0x0 binaries/dhcp.o
 .bss           0x000000000011a01c        0x0 binaries/dot2ip.o
 .bss           0x000000000011a01c        0x0 binaries/hexdump.o
 .bss           0x000000000011a01c        0x0 binaries/icmp.o
 .bss           0x000000000011a01c        0x0 binaries/ip.o
 .bss           0x000000000011a01c        0x0 binaries/net.o
 .bss           0x000000000011a01c        0x0 binaries/netstart.o
 .bss           0x000000000011a01c        0x0 binaries/pdump.o
 .bss           0x000000000011a01c        0x0 binaries/tftp.o
 .bss           0x000000000011a01c        0x0 binaries/udp.o
 .bss           0x000000000011a01c        0x0 binaries/addargs.o
 .bss           0x000000000011a01c        0x0 binaries/lexan.o
 .bss           0x000000000011a01c        0x0 binaries/shell.o
 .bss           0x000000000011a01c        0x0 binaries/xsh_argecho.o
 .bss           0x000000000011a01c        0x0 binaries/xsh_arp.o
 .bss           0x000000000011a01c        0x0 binaries/xsh_cat.o
 .bss           0x000000000011a01c        0x0 binaries/xsh_clear.o
 .bss           0x000000000011a01c        0x0 binaries/xsh_date.o
 .bss           0x000000000011a01c        0x0 binaries/xsh_devdump.o
 .bss           0x000000000011a01c        0x0 binaries/xsh_echo.o
 .bss           0x000000000011a01c        0x0 binaries/xsh_exit.o
 .bss           0x000000000011a01c        0x0 binaries/xsh_help.o
 .bss           0x000000000011a01c        0x0 binaries/xsh_ipaddr.o
 .bss           0x000000000011a01c        0x0 binaries/xsh_kill.o
 .bss           0x000000000011a01c        0x0 binaries/xsh_memdump.o
 .bss           0x000000000011a01c        0x0 binaries/xsh_memstat.o
 .bss           0x000000000011a01c        0x4 binaries/xsh_ping.o
 .bss           0x000000000011a020        0x0 binaries/xsh_ps.o
 .bss           0x000000000011a020        0x0 binaries/xsh_sleep.o
 .bss           0x000000000011a020        0x0 binaries/xsh_udpdump.o
 .bss           0x000000000011a020        0x0 binaries/xsh_udpecho.o
 .bss           0x000000000011a020        0x0 binaries/xsh_udpeserver.o
 .bss           0x000000000011a020        0x0 binaries/xsh_uptime.o
 .bss           0x000000000011a020        0x0 binaries/clkdisp.o
 .bss           0x000000000011a020        0x0 binaries/ctxsw.o
 .bss           0x000000000011a020        0x0 binaries/host2netla.o
 .bss           0x000000000011a020        0x0 binaries/host2netlc.o
 .bss           0x000000000011a020        0x0 binaries/intr.o
 .bss           0x000000000011a020        0x0 binaries/ttydispatch.o
 .bss           0x000000000011a020        0x0 binaries/ethdispatch.o
 *(COMMON)
 COMMON         0x000000000011a020       0xf4 binaries/bufinit.o
                0x000000000011a020                buftab
                0x000000000011a110                nbpools
 COMMON         0x000000000011a114       0x10 binaries/clkinit.o
                0x000000000011a114                sleepq
                0x000000000011a118                preempt
                0x000000000011a11c                clktimemsec
                0x000000000011a120                clktime
 COMMON         0x000000000011a124        0x2 binaries/evec.o
                0x000000000011a124                girmask
 *fill*         0x000000000011a126       0x1a 
 COMMON         0x000000000011a140     0x1df8 binaries/initialize.o
                0x000000000011a140                currpid
                0x000000000011a160                proctab
                0x000000000011ba60                prcount
                0x000000000011ba80                semtab
                0x000000000011bf30                memlist
 COMMON         0x000000000011bf38        0x4 binaries/main.o
                0x000000000011bf38                victimsRetAddress
 *fill*         0x000000000011bf3c        0x4 
 COMMON         0x000000000011bf40       0x58 binaries/mark.o
                0x000000000011bf40                marks
                0x000000000011bf90                nmarks
                0x000000000011bf94                mkmutex
 COMMON         0x000000000011bf98        0x8 binaries/meminit.o
                0x000000000011bf98                minheap
                0x000000000011bf9c                maxheap
 COMMON         0x000000000011bfa0      0x2d8 binaries/ptinit.o
                0x000000000011bfa0                porttab
                0x000000000011c270                ptnextid
                0x000000000011c274                ptfree
 *fill*         0x000000000011c278        0x8 
 COMMON         0x000000000011c280      0x980 binaries/queue.o
                0x000000000011c280                queuetab
 COMMON         0x000000000011cc00        0x2 binaries/ready.o
                0x000000000011cc00                readylist
 *fill*         0x000000000011cc02        0x2 
 COMMON         0x000000000011cc04        0x8 binaries/resched.o
                0x000000000011cc04                Defer
 *fill*         0x000000000011cc0c       0x14 
 COMMON         0x000000000011cc20      0x10c binaries/ttyinit.o
                0x000000000011cc20                ttytab
 *fill*         0x000000000011cd2c       0x14 
 COMMON         0x000000000011cd40     0x19c0 binaries/naminit.o
                0x000000000011cd40                nnames
                0x000000000011cd60                nametab
 COMMON         0x000000000011e700      0x138 binaries/ethinit.o
                0x000000000011e700                ethertab
 *fill*         0x000000000011e838        0x8 
 COMMON         0x000000000011e840       0x8c binaries/rdsinit.o
                0x000000000011e840                rdstab
 *fill*         0x000000000011e8cc       0x14 
 COMMON         0x000000000011e8e0    0x19000 binaries/raminit.o
                0x000000000011e8e0                Ram
 COMMON         0x00000000001378e0      0xf00 binaries/lflinit.o
                0x00000000001378e0                lfltab
 COMMON         0x00000000001387e0      0x20c binaries/lfsinit.o
                0x00000000001387e0                Lf_data
 *fill*         0x00000000001389ec       0x14 
 COMMON         0x0000000000138a00      0x5a0 binaries/rflinit.o
                0x0000000000138a00                rfltab
 COMMON         0x0000000000138fa0       0x18 binaries/rfsinit.o
                0x0000000000138fa0                Rf_data
 *fill*         0x0000000000138fb8        0x8 
 COMMON         0x0000000000138fc0      0x140 binaries/arp.o
                0x0000000000138fc0                arpcache
 COMMON         0x0000000000139100      0x230 binaries/icmp.o
                0x0000000000139100                icmptab
 *fill*         0x0000000000139330       0x10 
 COMMON         0x0000000000139340       0x2c binaries/ip.o
                0x0000000000139340                ipoqueue
 *fill*         0x000000000013936c       0x14 
 COMMON         0x0000000000139380       0xc8 binaries/net.o
                0x0000000000139380                netbufpool
                0x00000000001393a0                NetData
 *fill*         0x0000000000139448       0x18 
 COMMON         0x0000000000139460      0x168 binaries/udp.o
                0x0000000000139460                udptab
                0x00000000001395c8                ebss = ABSOLUTE (.)
                0x000000000013a000                . = ALIGN (0x1000)
 *fill*         0x00000000001395c8      0xa38 
 */()
                0x000000000013a000                end = ABSOLUTE (.)
                0x000000000013a000                _end = ABSOLUTE (.)
                0x000000000013a000                . = ALIGN (0x1000)
LOAD binaries/start.o
LOAD binaries/app1.o
LOAD binaries/app2.o
LOAD binaries/app3.o
LOAD binaries/ascdate.o
LOAD binaries/bufinit.o
LOAD binaries/chprio.o
LOAD binaries/clkhandler.o
LOAD binaries/clkinit.o
LOAD binaries/close.o
LOAD binaries/conf.o
LOAD binaries/control.o
LOAD binaries/create.o
LOAD binaries/early_imr.o
LOAD binaries/evec.o
LOAD binaries/factorial.o
LOAD binaries/freebuf.o
LOAD binaries/freemem.o
LOAD binaries/getbuf.o
LOAD binaries/getc.o
LOAD binaries/getdev.o
LOAD binaries/getitem.o
LOAD binaries/getmem.o
LOAD binaries/getpid.o
LOAD binaries/getpname.o
LOAD binaries/getppid.o
LOAD binaries/getprio.o
LOAD binaries/getstk.o
LOAD binaries/gettime.o
LOAD binaries/getutime.o
LOAD binaries/host2netlb.o
LOAD binaries/init.o
LOAD binaries/initialize.o
LOAD binaries/insert.o
LOAD binaries/insertd.o
LOAD binaries/ioerr.o
LOAD binaries/ionull.o
LOAD binaries/kill.o
LOAD binaries/kprintf.o
LOAD binaries/lab2q3.o
LOAD binaries/main.o
LOAD binaries/mark.o
LOAD binaries/meminit.o
LOAD binaries/mkbufpool.o
LOAD binaries/myappA.o
LOAD binaries/myfuncA.o
LOAD binaries/myhacker.o
LOAD binaries/myvictim.o
LOAD binaries/mywelcomemsg.o
LOAD binaries/newqueue.o
LOAD binaries/open.o
LOAD binaries/panic.o
LOAD binaries/pci.o
LOAD binaries/platinit.o
LOAD binaries/printsegaddr.o
LOAD binaries/ptclear.o
LOAD binaries/ptcount.o
LOAD binaries/ptcreate.o
LOAD binaries/ptdelete.o
LOAD binaries/ptinit.o
LOAD binaries/ptrecv.o
LOAD binaries/ptreset.o
LOAD binaries/ptsend.o
LOAD binaries/putc.o
LOAD binaries/quark_irq.o
LOAD binaries/quark_pdat.o
LOAD binaries/queue.o
LOAD binaries/read.o
LOAD binaries/ready.o
LOAD binaries/receive.o
LOAD binaries/recvclr.o
LOAD binaries/recvtime.o
LOAD binaries/resched.o
LOAD binaries/resume.o
LOAD binaries/seek.o
LOAD binaries/semcount.o
LOAD binaries/semcreate.o
LOAD binaries/semdelete.o
LOAD binaries/semreset.o
LOAD binaries/send.o
LOAD binaries/signal.o
LOAD binaries/signaln.o
LOAD binaries/sleep.o
LOAD binaries/stackdepth.o
LOAD binaries/stacktrace.o
LOAD binaries/suspend.o
LOAD binaries/teststackdepth.o
LOAD binaries/unsleep.o
LOAD binaries/userret.o
LOAD binaries/wait.o
LOAD binaries/wakeup.o
LOAD binaries/write.o
LOAD binaries/xdone.o
LOAD binaries/yield.o
LOAD binaries/abs.o
LOAD binaries/atoi.o
LOAD binaries/atol.o
LOAD binaries/bzero.o
LOAD binaries/ctype_.o
LOAD binaries/doprnt.o
LOAD binaries/doscan.o
LOAD binaries/fdoprnt.o
LOAD binaries/fgetc.o
LOAD binaries/fgets.o
LOAD binaries/fprintf.o
LOAD binaries/fputc.o
LOAD binaries/fputs.o
LOAD binaries/fscanf.o
LOAD binaries/getchar.o
LOAD binaries/labs.o
LOAD binaries/memchr.o
LOAD binaries/memcmp.o
LOAD binaries/memcpy.o
LOAD binaries/memset.o
LOAD binaries/printf.o
LOAD binaries/putchar.o
LOAD binaries/qsort.o
LOAD binaries/rand.o
LOAD binaries/sprintf.o
LOAD binaries/sscanf.o
LOAD binaries/strchr.o
LOAD binaries/strcmp.o
LOAD binaries/strcpy.o
LOAD binaries/strlen.o
LOAD binaries/strncat.o
LOAD binaries/strncmp.o
LOAD binaries/strncpy.o
LOAD binaries/strnlen.o
LOAD binaries/strrchr.o
LOAD binaries/strstr.o
LOAD binaries/ttycontrol.o
LOAD binaries/ttygetc.o
LOAD binaries/ttyhandle_in.o
LOAD binaries/ttyhandle_out.o
LOAD binaries/ttyhandler.o
LOAD binaries/ttyinit.o
LOAD binaries/ttykickout.o
LOAD binaries/ttyputc.o
LOAD binaries/ttyread.o
LOAD binaries/ttywrite.o
LOAD binaries/mount.o
LOAD binaries/naminit.o
LOAD binaries/nammap.o
LOAD binaries/namopen.o
LOAD binaries/colon2mac.o
LOAD binaries/ethcontrol.o
LOAD binaries/ethhandler.o
LOAD binaries/ethinit.o
LOAD binaries/ethmcast.o
LOAD binaries/ethread.o
LOAD binaries/ethwrite.o
LOAD binaries/rdsbufalloc.o
LOAD binaries/rdsclose.o
LOAD binaries/rdscomm.o
LOAD binaries/rdscontrol.o
LOAD binaries/rdsinit.o
LOAD binaries/rdsopen.o
LOAD binaries/rdsprocess.o
LOAD binaries/rdsread.o
LOAD binaries/rdswrite.o
LOAD binaries/ramclose.o
LOAD binaries/raminit.o
LOAD binaries/ramopen.o
LOAD binaries/ramread.o
LOAD binaries/ramwrite.o
LOAD binaries/lfdballoc.o
LOAD binaries/lfdbfree.o
LOAD binaries/lfflush.o
LOAD binaries/lfgetmode.o
LOAD binaries/lfiballoc.o
LOAD binaries/lfibclear.o
LOAD binaries/lfibget.o
LOAD binaries/lfibput.o
LOAD binaries/lflclose.o
LOAD binaries/lflcontrol.o
LOAD binaries/lflgetc.o
LOAD binaries/lflinit.o
LOAD binaries/lflputc.o
LOAD binaries/lflread.o
LOAD binaries/lflseek.o
LOAD binaries/lflwrite.o
LOAD binaries/lfsckfmt.o
LOAD binaries/lfscreate.o
LOAD binaries/lfsetup.o
LOAD binaries/lfsinit.o
LOAD binaries/lfsopen.o
LOAD binaries/lftruncate.o
LOAD binaries/rflclose.o
LOAD binaries/rflgetc.o
LOAD binaries/rflinit.o
LOAD binaries/rflputc.o
LOAD binaries/rflread.o
LOAD binaries/rflseek.o
LOAD binaries/rflwrite.o
LOAD binaries/rfscomm.o
LOAD binaries/rfscontrol.o
LOAD binaries/rfsgetmode.o
LOAD binaries/rfsinit.o
LOAD binaries/rfsndmsg.o
LOAD binaries/rfsopen.o
LOAD binaries/arp.o
LOAD binaries/dhcp.o
LOAD binaries/dot2ip.o
LOAD binaries/hexdump.o
LOAD binaries/icmp.o
LOAD binaries/ip.o
LOAD binaries/net.o
LOAD binaries/netstart.o
LOAD binaries/pdump.o
LOAD binaries/tftp.o
LOAD binaries/udp.o
LOAD binaries/addargs.o
LOAD binaries/lexan.o
LOAD binaries/shell.o
LOAD binaries/xsh_argecho.o
LOAD binaries/xsh_arp.o
LOAD binaries/xsh_cat.o
LOAD binaries/xsh_clear.o
LOAD binaries/xsh_date.o
LOAD binaries/xsh_devdump.o
LOAD binaries/xsh_echo.o
LOAD binaries/xsh_exit.o
LOAD binaries/xsh_help.o
LOAD binaries/xsh_ipaddr.o
LOAD binaries/xsh_kill.o
LOAD binaries/xsh_memdump.o
LOAD binaries/xsh_memstat.o
LOAD binaries/xsh_ping.o
LOAD binaries/xsh_ps.o
LOAD binaries/xsh_sleep.o
LOAD binaries/xsh_udpdump.o
LOAD binaries/xsh_udpecho.o
LOAD binaries/xsh_udpeserver.o
LOAD binaries/xsh_uptime.o
LOAD binaries/clkdisp.o
LOAD binaries/ctxsw.o
LOAD binaries/host2netla.o
LOAD binaries/host2netlc.o
LOAD binaries/intr.o
LOAD binaries/ttydispatch.o
LOAD binaries/ethdispatch.o
OUTPUT(../compile/xinu elf32-i386)

.comment        0x0000000000000000       0x2a
 .comment       0x0000000000000000       0x2a binaries/app1.o
                                         0x2b (size before relaxing)
 .comment       0x000000000000002a       0x2b binaries/app2.o
 .comment       0x000000000000002a       0x2b binaries/app3.o
 .comment       0x000000000000002a       0x2b binaries/ascdate.o
 .comment       0x000000000000002a       0x2b binaries/bufinit.o
 .comment       0x000000000000002a       0x2b binaries/chprio.o
 .comment       0x000000000000002a       0x2b binaries/clkhandler.o
 .comment       0x000000000000002a       0x2b binaries/clkinit.o
 .comment       0x000000000000002a       0x2b binaries/close.o
 .comment       0x000000000000002a       0x2b binaries/conf.o
 .comment       0x000000000000002a       0x2b binaries/control.o
 .comment       0x000000000000002a       0x2b binaries/create.o
 .comment       0x000000000000002a       0x2b binaries/early_imr.o
 .comment       0x000000000000002a       0x2b binaries/evec.o
 .comment       0x000000000000002a       0x2b binaries/factorial.o
 .comment       0x000000000000002a       0x2b binaries/freebuf.o
 .comment       0x000000000000002a       0x2b binaries/freemem.o
 .comment       0x000000000000002a       0x2b binaries/getbuf.o
 .comment       0x000000000000002a       0x2b binaries/getc.o
 .comment       0x000000000000002a       0x2b binaries/getdev.o
 .comment       0x000000000000002a       0x2b binaries/getitem.o
 .comment       0x000000000000002a       0x2b binaries/getmem.o
 .comment       0x000000000000002a       0x2b binaries/getpid.o
 .comment       0x000000000000002a       0x2b binaries/getpname.o
 .comment       0x000000000000002a       0x2b binaries/getppid.o
 .comment       0x000000000000002a       0x2b binaries/getprio.o
 .comment       0x000000000000002a       0x2b binaries/getstk.o
 .comment       0x000000000000002a       0x2b binaries/gettime.o
 .comment       0x000000000000002a       0x2b binaries/getutime.o
 .comment       0x000000000000002a       0x2b binaries/host2netlb.o
 .comment       0x000000000000002a       0x2b binaries/init.o
 .comment       0x000000000000002a       0x2b binaries/initialize.o
 .comment       0x000000000000002a       0x2b binaries/insert.o
 .comment       0x000000000000002a       0x2b binaries/insertd.o
 .comment       0x000000000000002a       0x2b binaries/ioerr.o
 .comment       0x000000000000002a       0x2b binaries/ionull.o
 .comment       0x000000000000002a       0x2b binaries/kill.o
 .comment       0x000000000000002a       0x2b binaries/kprintf.o
 .comment       0x000000000000002a       0x2b binaries/lab2q3.o
 .comment       0x000000000000002a       0x2b binaries/main.o
 .comment       0x000000000000002a       0x2b binaries/mark.o
 .comment       0x000000000000002a       0x2b binaries/meminit.o
 .comment       0x000000000000002a       0x2b binaries/mkbufpool.o
 .comment       0x000000000000002a       0x2b binaries/myappA.o
 .comment       0x000000000000002a       0x2b binaries/myfuncA.o
 .comment       0x000000000000002a       0x2b binaries/myhacker.o
 .comment       0x000000000000002a       0x2b binaries/myvictim.o
 .comment       0x000000000000002a       0x2b binaries/mywelcomemsg.o
 .comment       0x000000000000002a       0x2b binaries/newqueue.o
 .comment       0x000000000000002a       0x2b binaries/open.o
 .comment       0x000000000000002a       0x2b binaries/panic.o
 .comment       0x000000000000002a       0x2b binaries/pci.o
 .comment       0x000000000000002a       0x2b binaries/platinit.o
 .comment       0x000000000000002a       0x2b binaries/printsegaddr.o
 .comment       0x000000000000002a       0x2b binaries/ptclear.o
 .comment       0x000000000000002a       0x2b binaries/ptcount.o
 .comment       0x000000000000002a       0x2b binaries/ptcreate.o
 .comment       0x000000000000002a       0x2b binaries/ptdelete.o
 .comment       0x000000000000002a       0x2b binaries/ptinit.o
 .comment       0x000000000000002a       0x2b binaries/ptrecv.o
 .comment       0x000000000000002a       0x2b binaries/ptreset.o
 .comment       0x000000000000002a       0x2b binaries/ptsend.o
 .comment       0x000000000000002a       0x2b binaries/putc.o
 .comment       0x000000000000002a       0x2b binaries/quark_irq.o
 .comment       0x000000000000002a       0x2b binaries/quark_pdat.o
 .comment       0x000000000000002a       0x2b binaries/queue.o
 .comment       0x000000000000002a       0x2b binaries/read.o
 .comment       0x000000000000002a       0x2b binaries/ready.o
 .comment       0x000000000000002a       0x2b binaries/receive.o
 .comment       0x000000000000002a       0x2b binaries/recvclr.o
 .comment       0x000000000000002a       0x2b binaries/recvtime.o
 .comment       0x000000000000002a       0x2b binaries/resched.o
 .comment       0x000000000000002a       0x2b binaries/resume.o
 .comment       0x000000000000002a       0x2b binaries/seek.o
 .comment       0x000000000000002a       0x2b binaries/semcount.o
 .comment       0x000000000000002a       0x2b binaries/semcreate.o
 .comment       0x000000000000002a       0x2b binaries/semdelete.o
 .comment       0x000000000000002a       0x2b binaries/semreset.o
 .comment       0x000000000000002a       0x2b binaries/send.o
 .comment       0x000000000000002a       0x2b binaries/signal.o
 .comment       0x000000000000002a       0x2b binaries/signaln.o
 .comment       0x000000000000002a       0x2b binaries/sleep.o
 .comment       0x000000000000002a       0x2b binaries/stackdepth.o
 .comment       0x000000000000002a       0x2b binaries/stacktrace.o
 .comment       0x000000000000002a       0x2b binaries/suspend.o
 .comment       0x000000000000002a       0x2b binaries/teststackdepth.o
 .comment       0x000000000000002a       0x2b binaries/unsleep.o
 .comment       0x000000000000002a       0x2b binaries/userret.o
 .comment       0x000000000000002a       0x2b binaries/wait.o
 .comment       0x000000000000002a       0x2b binaries/wakeup.o
 .comment       0x000000000000002a       0x2b binaries/write.o
 .comment       0x000000000000002a       0x2b binaries/xdone.o
 .comment       0x000000000000002a       0x2b binaries/yield.o
 .comment       0x000000000000002a       0x2b binaries/abs.o
 .comment       0x000000000000002a       0x2b binaries/atoi.o
 .comment       0x000000000000002a       0x2b binaries/atol.o
 .comment       0x000000000000002a       0x2b binaries/bzero.o
 .comment       0x000000000000002a       0x2b binaries/ctype_.o
 .comment       0x000000000000002a       0x2b binaries/doprnt.o
 .comment       0x000000000000002a       0x2b binaries/doscan.o
 .comment       0x000000000000002a       0x2b binaries/fdoprnt.o
 .comment       0x000000000000002a       0x2b binaries/fgetc.o
 .comment       0x000000000000002a       0x2b binaries/fgets.o
 .comment       0x000000000000002a       0x2b binaries/fprintf.o
 .comment       0x000000000000002a       0x2b binaries/fputc.o
 .comment       0x000000000000002a       0x2b binaries/fputs.o
 .comment       0x000000000000002a       0x2b binaries/fscanf.o
 .comment       0x000000000000002a       0x2b binaries/getchar.o
 .comment       0x000000000000002a       0x2b binaries/labs.o
 .comment       0x000000000000002a       0x2b binaries/memchr.o
 .comment       0x000000000000002a       0x2b binaries/memcmp.o
 .comment       0x000000000000002a       0x2b binaries/memcpy.o
 .comment       0x000000000000002a       0x2b binaries/memset.o
 .comment       0x000000000000002a       0x2b binaries/printf.o
 .comment       0x000000000000002a       0x2b binaries/putchar.o
 .comment       0x000000000000002a       0x2b binaries/qsort.o
 .comment       0x000000000000002a       0x2b binaries/rand.o
 .comment       0x000000000000002a       0x2b binaries/sprintf.o
 .comment       0x000000000000002a       0x2b binaries/sscanf.o
 .comment       0x000000000000002a       0x2b binaries/strchr.o
 .comment       0x000000000000002a       0x2b binaries/strcmp.o
 .comment       0x000000000000002a       0x2b binaries/strcpy.o
 .comment       0x000000000000002a       0x2b binaries/strlen.o
 .comment       0x000000000000002a       0x2b binaries/strncat.o
 .comment       0x000000000000002a       0x2b binaries/strncmp.o
 .comment       0x000000000000002a       0x2b binaries/strncpy.o
 .comment       0x000000000000002a       0x2b binaries/strnlen.o
 .comment       0x000000000000002a       0x2b binaries/strrchr.o
 .comment       0x000000000000002a       0x2b binaries/strstr.o
 .comment       0x000000000000002a       0x2b binaries/ttycontrol.o
 .comment       0x000000000000002a       0x2b binaries/ttygetc.o
 .comment       0x000000000000002a       0x2b binaries/ttyhandle_in.o
 .comment       0x000000000000002a       0x2b binaries/ttyhandle_out.o
 .comment       0x000000000000002a       0x2b binaries/ttyhandler.o
 .comment       0x000000000000002a       0x2b binaries/ttyinit.o
 .comment       0x000000000000002a       0x2b binaries/ttykickout.o
 .comment       0x000000000000002a       0x2b binaries/ttyputc.o
 .comment       0x000000000000002a       0x2b binaries/ttyread.o
 .comment       0x000000000000002a       0x2b binaries/ttywrite.o
 .comment       0x000000000000002a       0x2b binaries/mount.o
 .comment       0x000000000000002a       0x2b binaries/naminit.o
 .comment       0x000000000000002a       0x2b binaries/nammap.o
 .comment       0x000000000000002a       0x2b binaries/namopen.o
 .comment       0x000000000000002a       0x2b binaries/colon2mac.o
 .comment       0x000000000000002a       0x2b binaries/ethcontrol.o
 .comment       0x000000000000002a       0x2b binaries/ethhandler.o
 .comment       0x000000000000002a       0x2b binaries/ethinit.o
 .comment       0x000000000000002a       0x2b binaries/ethmcast.o
 .comment       0x000000000000002a       0x2b binaries/ethread.o
 .comment       0x000000000000002a       0x2b binaries/ethwrite.o
 .comment       0x000000000000002a       0x2b binaries/rdsbufalloc.o
 .comment       0x000000000000002a       0x2b binaries/rdsclose.o
 .comment       0x000000000000002a       0x2b binaries/rdscomm.o
 .comment       0x000000000000002a       0x2b binaries/rdscontrol.o
 .comment       0x000000000000002a       0x2b binaries/rdsinit.o
 .comment       0x000000000000002a       0x2b binaries/rdsopen.o
 .comment       0x000000000000002a       0x2b binaries/rdsprocess.o
 .comment       0x000000000000002a       0x2b binaries/rdsread.o
 .comment       0x000000000000002a       0x2b binaries/rdswrite.o
 .comment       0x000000000000002a       0x2b binaries/ramclose.o
 .comment       0x000000000000002a       0x2b binaries/raminit.o
 .comment       0x000000000000002a       0x2b binaries/ramopen.o
 .comment       0x000000000000002a       0x2b binaries/ramread.o
 .comment       0x000000000000002a       0x2b binaries/ramwrite.o
 .comment       0x000000000000002a       0x2b binaries/lfdballoc.o
 .comment       0x000000000000002a       0x2b binaries/lfdbfree.o
 .comment       0x000000000000002a       0x2b binaries/lfflush.o
 .comment       0x000000000000002a       0x2b binaries/lfgetmode.o
 .comment       0x000000000000002a       0x2b binaries/lfiballoc.o
 .comment       0x000000000000002a       0x2b binaries/lfibclear.o
 .comment       0x000000000000002a       0x2b binaries/lfibget.o
 .comment       0x000000000000002a       0x2b binaries/lfibput.o
 .comment       0x000000000000002a       0x2b binaries/lflclose.o
 .comment       0x000000000000002a       0x2b binaries/lflcontrol.o
 .comment       0x000000000000002a       0x2b binaries/lflgetc.o
 .comment       0x000000000000002a       0x2b binaries/lflinit.o
 .comment       0x000000000000002a       0x2b binaries/lflputc.o
 .comment       0x000000000000002a       0x2b binaries/lflread.o
 .comment       0x000000000000002a       0x2b binaries/lflseek.o
 .comment       0x000000000000002a       0x2b binaries/lflwrite.o
 .comment       0x000000000000002a       0x2b binaries/lfsckfmt.o
 .comment       0x000000000000002a       0x2b binaries/lfscreate.o
 .comment       0x000000000000002a       0x2b binaries/lfsetup.o
 .comment       0x000000000000002a       0x2b binaries/lfsinit.o
 .comment       0x000000000000002a       0x2b binaries/lfsopen.o
 .comment       0x000000000000002a       0x2b binaries/lftruncate.o
 .comment       0x000000000000002a       0x2b binaries/rflclose.o
 .comment       0x000000000000002a       0x2b binaries/rflgetc.o
 .comment       0x000000000000002a       0x2b binaries/rflinit.o
 .comment       0x000000000000002a       0x2b binaries/rflputc.o
 .comment       0x000000000000002a       0x2b binaries/rflread.o
 .comment       0x000000000000002a       0x2b binaries/rflseek.o
 .comment       0x000000000000002a       0x2b binaries/rflwrite.o
 .comment       0x000000000000002a       0x2b binaries/rfscomm.o
 .comment       0x000000000000002a       0x2b binaries/rfscontrol.o
 .comment       0x000000000000002a       0x2b binaries/rfsgetmode.o
 .comment       0x000000000000002a       0x2b binaries/rfsinit.o
 .comment       0x000000000000002a       0x2b binaries/rfsndmsg.o
 .comment       0x000000000000002a       0x2b binaries/rfsopen.o
 .comment       0x000000000000002a       0x2b binaries/arp.o
 .comment       0x000000000000002a       0x2b binaries/dhcp.o
 .comment       0x000000000000002a       0x2b binaries/dot2ip.o
 .comment       0x000000000000002a       0x2b binaries/hexdump.o
 .comment       0x000000000000002a       0x2b binaries/icmp.o
 .comment       0x000000000000002a       0x2b binaries/ip.o
 .comment       0x000000000000002a       0x2b binaries/net.o
 .comment       0x000000000000002a       0x2b binaries/netstart.o
 .comment       0x000000000000002a       0x2b binaries/pdump.o
 .comment       0x000000000000002a       0x2b binaries/tftp.o
 .comment       0x000000000000002a       0x2b binaries/udp.o
 .comment       0x000000000000002a       0x2b binaries/addargs.o
 .comment       0x000000000000002a       0x2b binaries/lexan.o
 .comment       0x000000000000002a       0x2b binaries/shell.o
 .comment       0x000000000000002a       0x2b binaries/xsh_argecho.o
 .comment       0x000000000000002a       0x2b binaries/xsh_arp.o
 .comment       0x000000000000002a       0x2b binaries/xsh_cat.o
 .comment       0x000000000000002a       0x2b binaries/xsh_clear.o
 .comment       0x000000000000002a       0x2b binaries/xsh_date.o
 .comment       0x000000000000002a       0x2b binaries/xsh_devdump.o
 .comment       0x000000000000002a       0x2b binaries/xsh_echo.o
 .comment       0x000000000000002a       0x2b binaries/xsh_exit.o
 .comment       0x000000000000002a       0x2b binaries/xsh_help.o
 .comment       0x000000000000002a       0x2b binaries/xsh_ipaddr.o
 .comment       0x000000000000002a       0x2b binaries/xsh_kill.o
 .comment       0x000000000000002a       0x2b binaries/xsh_memdump.o
 .comment       0x000000000000002a       0x2b binaries/xsh_memstat.o
 .comment       0x000000000000002a       0x2b binaries/xsh_ping.o
 .comment       0x000000000000002a       0x2b binaries/xsh_ps.o
 .comment       0x000000000000002a       0x2b binaries/xsh_sleep.o
 .comment       0x000000000000002a       0x2b binaries/xsh_udpdump.o
 .comment       0x000000000000002a       0x2b binaries/xsh_udpecho.o
 .comment       0x000000000000002a       0x2b binaries/xsh_udpeserver.o
 .comment       0x000000000000002a       0x2b binaries/xsh_uptime.o
 .comment       0x000000000000002a       0x2b binaries/host2netlc.o

.note.GNU-stack
                0x0000000000000000        0x0
 .note.GNU-stack
                0x0000000000000000        0x0 binaries/app1.o
 .note.GNU-stack
                0x0000000000000000        0x0 binaries/app2.o
 .note.GNU-stack
                0x0000000000000000        0x0 binaries/app3.o
 .note.GNU-stack
                0x0000000000000000        0x0 binaries/ascdate.o
 .note.GNU-stack
                0x0000000000000000        0x0 binaries/bufinit.o
 .note.GNU-stack
                0x0000000000000000        0x0 binaries/chprio.o
 .note.GNU-stack
                0x0000000000000000        0x0 binaries/clkhandler.o
 .note.GNU-stack
                0x0000000000000000        0x0 binaries/clkinit.o
 .note.GNU-stack
                0x0000000000000000        0x0 binaries/close.o
 .note.GNU-stack
                0x0000000000000000        0x0 binaries/conf.o
 .note.GNU-stack
                0x0000000000000000        0x0 binaries/control.o
 .note.GNU-stack
                0x0000000000000000        0x0 binaries/create.o
 .note.GNU-stack
                0x0000000000000000        0x0 binaries/early_imr.o
 .note.GNU-stack
                0x0000000000000000        0x0 binaries/evec.o
 .note.GNU-stack
                0x0000000000000000        0x0 binaries/factorial.o
 .note.GNU-stack
                0x0000000000000000        0x0 binaries/freebuf.o
 .note.GNU-stack
                0x0000000000000000        0x0 binaries/freemem.o
 .note.GNU-stack
                0x0000000000000000        0x0 binaries/getbuf.o
 .note.GNU-stack
                0x0000000000000000        0x0 binaries/getc.o
 .note.GNU-stack
                0x0000000000000000        0x0 binaries/getdev.o
 .note.GNU-stack
                0x0000000000000000        0x0 binaries/getitem.o
 .note.GNU-stack
                0x0000000000000000        0x0 binaries/getmem.o
 .note.GNU-stack
                0x0000000000000000        0x0 binaries/getpid.o
 .note.GNU-stack
                0x0000000000000000        0x0 binaries/getpname.o
 .note.GNU-stack
                0x0000000000000000        0x0 binaries/getppid.o
 .note.GNU-stack
                0x0000000000000000        0x0 binaries/getprio.o
 .note.GNU-stack
                0x0000000000000000        0x0 binaries/getstk.o
 .note.GNU-stack
                0x0000000000000000        0x0 binaries/gettime.o
 .note.GNU-stack
                0x0000000000000000        0x0 binaries/getutime.o
 .note.GNU-stack
                0x0000000000000000        0x0 binaries/host2netlb.o
 .note.GNU-stack
                0x0000000000000000        0x0 binaries/init.o
 .note.GNU-stack
                0x0000000000000000        0x0 binaries/initialize.o
 .note.GNU-stack
                0x0000000000000000        0x0 binaries/insert.o
 .note.GNU-stack
                0x0000000000000000        0x0 binaries/insertd.o
 .note.GNU-stack
                0x0000000000000000        0x0 binaries/ioerr.o
 .note.GNU-stack
                0x0000000000000000        0x0 binaries/ionull.o
 .note.GNU-stack
                0x0000000000000000        0x0 binaries/kill.o
 .note.GNU-stack
                0x0000000000000000        0x0 binaries/kprintf.o
 .note.GNU-stack
                0x0000000000000000        0x0 binaries/lab2q3.o
 .note.GNU-stack
                0x0000000000000000        0x0 binaries/main.o
 .note.GNU-stack
                0x0000000000000000        0x0 binaries/mark.o
 .note.GNU-stack
                0x0000000000000000        0x0 binaries/meminit.o
 .note.GNU-stack
                0x0000000000000000        0x0 binaries/mkbufpool.o
 .note.GNU-stack
                0x0000000000000000        0x0 binaries/myappA.o
 .note.GNU-stack
                0x0000000000000000        0x0 binaries/myfuncA.o
 .note.GNU-stack
                0x0000000000000000        0x0 binaries/myhacker.o
 .note.GNU-stack
                0x0000000000000000        0x0 binaries/myvictim.o
 .note.GNU-stack
                0x0000000000000000        0x0 binaries/mywelcomemsg.o
 .note.GNU-stack
                0x0000000000000000        0x0 binaries/newqueue.o
 .note.GNU-stack
                0x0000000000000000        0x0 binaries/open.o
 .note.GNU-stack
                0x0000000000000000        0x0 binaries/panic.o
 .note.GNU-stack
                0x0000000000000000        0x0 binaries/pci.o
 .note.GNU-stack
                0x0000000000000000        0x0 binaries/platinit.o
 .note.GNU-stack
                0x0000000000000000        0x0 binaries/printsegaddr.o
 .note.GNU-stack
                0x0000000000000000        0x0 binaries/ptclear.o
 .note.GNU-stack
                0x0000000000000000        0x0 binaries/ptcount.o
 .note.GNU-stack
                0x0000000000000000        0x0 binaries/ptcreate.o
 .note.GNU-stack
                0x0000000000000000        0x0 binaries/ptdelete.o
 .note.GNU-stack
                0x0000000000000000        0x0 binaries/ptinit.o
 .note.GNU-stack
                0x0000000000000000        0x0 binaries/ptrecv.o
 .note.GNU-stack
                0x0000000000000000        0x0 binaries/ptreset.o
 .note.GNU-stack
                0x0000000000000000        0x0 binaries/ptsend.o
 .note.GNU-stack
                0x0000000000000000        0x0 binaries/putc.o
 .note.GNU-stack
                0x0000000000000000        0x0 binaries/quark_irq.o
 .note.GNU-stack
                0x0000000000000000        0x0 binaries/quark_pdat.o
 .note.GNU-stack
                0x0000000000000000        0x0 binaries/queue.o
 .note.GNU-stack
                0x0000000000000000        0x0 binaries/read.o
 .note.GNU-stack
                0x0000000000000000        0x0 binaries/ready.o
 .note.GNU-stack
                0x0000000000000000        0x0 binaries/receive.o
 .note.GNU-stack
                0x0000000000000000        0x0 binaries/recvclr.o
 .note.GNU-stack
                0x0000000000000000        0x0 binaries/recvtime.o
 .note.GNU-stack
                0x0000000000000000        0x0 binaries/resched.o
 .note.GNU-stack
                0x0000000000000000        0x0 binaries/resume.o
 .note.GNU-stack
                0x0000000000000000        0x0 binaries/seek.o
 .note.GNU-stack
                0x0000000000000000        0x0 binaries/semcount.o
 .note.GNU-stack
                0x0000000000000000        0x0 binaries/semcreate.o
 .note.GNU-stack
                0x0000000000000000        0x0 binaries/semdelete.o
 .note.GNU-stack
                0x0000000000000000        0x0 binaries/semreset.o
 .note.GNU-stack
                0x0000000000000000        0x0 binaries/send.o
 .note.GNU-stack
                0x0000000000000000        0x0 binaries/signal.o
 .note.GNU-stack
                0x0000000000000000        0x0 binaries/signaln.o
 .note.GNU-stack
                0x0000000000000000        0x0 binaries/sleep.o
 .note.GNU-stack
                0x0000000000000000        0x0 binaries/stackdepth.o
 .note.GNU-stack
                0x0000000000000000        0x0 binaries/stacktrace.o
 .note.GNU-stack
                0x0000000000000000        0x0 binaries/suspend.o
 .note.GNU-stack
                0x0000000000000000        0x0 binaries/teststackdepth.o
 .note.GNU-stack
                0x0000000000000000        0x0 binaries/unsleep.o
 .note.GNU-stack
                0x0000000000000000        0x0 binaries/userret.o
 .note.GNU-stack
                0x0000000000000000        0x0 binaries/wait.o
 .note.GNU-stack
                0x0000000000000000        0x0 binaries/wakeup.o
 .note.GNU-stack
                0x0000000000000000        0x0 binaries/write.o
 .note.GNU-stack
                0x0000000000000000        0x0 binaries/xdone.o
 .note.GNU-stack
                0x0000000000000000        0x0 binaries/yield.o
 .note.GNU-stack
                0x0000000000000000        0x0 binaries/abs.o
 .note.GNU-stack
                0x0000000000000000        0x0 binaries/atoi.o
 .note.GNU-stack
                0x0000000000000000        0x0 binaries/atol.o
 .note.GNU-stack
                0x0000000000000000        0x0 binaries/bzero.o
 .note.GNU-stack
                0x0000000000000000        0x0 binaries/ctype_.o
 .note.GNU-stack
                0x0000000000000000        0x0 binaries/doprnt.o
 .note.GNU-stack
                0x0000000000000000        0x0 binaries/doscan.o
 .note.GNU-stack
                0x0000000000000000        0x0 binaries/fdoprnt.o
 .note.GNU-stack
                0x0000000000000000        0x0 binaries/fgetc.o
 .note.GNU-stack
                0x0000000000000000        0x0 binaries/fgets.o
 .note.GNU-stack
                0x0000000000000000        0x0 binaries/fprintf.o
 .note.GNU-stack
                0x0000000000000000        0x0 binaries/fputc.o
 .note.GNU-stack
                0x0000000000000000        0x0 binaries/fputs.o
 .note.GNU-stack
                0x0000000000000000        0x0 binaries/fscanf.o
 .note.GNU-stack
                0x0000000000000000        0x0 binaries/getchar.o
 .note.GNU-stack
                0x0000000000000000        0x0 binaries/labs.o
 .note.GNU-stack
                0x0000000000000000        0x0 binaries/memchr.o
 .note.GNU-stack
                0x0000000000000000        0x0 binaries/memcmp.o
 .note.GNU-stack
                0x0000000000000000        0x0 binaries/memcpy.o
 .note.GNU-stack
                0x0000000000000000        0x0 binaries/memset.o
 .note.GNU-stack
                0x0000000000000000        0x0 binaries/printf.o
 .note.GNU-stack
                0x0000000000000000        0x0 binaries/putchar.o
 .note.GNU-stack
                0x0000000000000000        0x0 binaries/qsort.o
 .note.GNU-stack
                0x0000000000000000        0x0 binaries/rand.o
 .note.GNU-stack
                0x0000000000000000        0x0 binaries/sprintf.o
 .note.GNU-stack
                0x0000000000000000        0x0 binaries/sscanf.o
 .note.GNU-stack
                0x0000000000000000        0x0 binaries/strchr.o
 .note.GNU-stack
                0x0000000000000000        0x0 binaries/strcmp.o
 .note.GNU-stack
                0x0000000000000000        0x0 binaries/strcpy.o
 .note.GNU-stack
                0x0000000000000000        0x0 binaries/strlen.o
 .note.GNU-stack
                0x0000000000000000        0x0 binaries/strncat.o
 .note.GNU-stack
                0x0000000000000000        0x0 binaries/strncmp.o
 .note.GNU-stack
                0x0000000000000000        0x0 binaries/strncpy.o
 .note.GNU-stack
                0x0000000000000000        0x0 binaries/strnlen.o
 .note.GNU-stack
                0x0000000000000000        0x0 binaries/strrchr.o
 .note.GNU-stack
                0x0000000000000000        0x0 binaries/strstr.o
 .note.GNU-stack
                0x0000000000000000        0x0 binaries/ttycontrol.o
 .note.GNU-stack
                0x0000000000000000        0x0 binaries/ttygetc.o
 .note.GNU-stack
                0x0000000000000000        0x0 binaries/ttyhandle_in.o
 .note.GNU-stack
                0x0000000000000000        0x0 binaries/ttyhandle_out.o
 .note.GNU-stack
                0x0000000000000000        0x0 binaries/ttyhandler.o
 .note.GNU-stack
                0x0000000000000000        0x0 binaries/ttyinit.o
 .note.GNU-stack
                0x0000000000000000        0x0 binaries/ttykickout.o
 .note.GNU-stack
                0x0000000000000000        0x0 binaries/ttyputc.o
 .note.GNU-stack
                0x0000000000000000        0x0 binaries/ttyread.o
 .note.GNU-stack
                0x0000000000000000        0x0 binaries/ttywrite.o
 .note.GNU-stack
                0x0000000000000000        0x0 binaries/mount.o
 .note.GNU-stack
                0x0000000000000000        0x0 binaries/naminit.o
 .note.GNU-stack
                0x0000000000000000        0x0 binaries/nammap.o
 .note.GNU-stack
                0x0000000000000000        0x0 binaries/namopen.o
 .note.GNU-stack
                0x0000000000000000        0x0 binaries/colon2mac.o
 .note.GNU-stack
                0x0000000000000000        0x0 binaries/ethcontrol.o
 .note.GNU-stack
                0x0000000000000000        0x0 binaries/ethhandler.o
 .note.GNU-stack
                0x0000000000000000        0x0 binaries/ethinit.o
 .note.GNU-stack
                0x0000000000000000        0x0 binaries/ethmcast.o
 .note.GNU-stack
                0x0000000000000000        0x0 binaries/ethread.o
 .note.GNU-stack
                0x0000000000000000        0x0 binaries/ethwrite.o
 .note.GNU-stack
                0x0000000000000000        0x0 binaries/rdsbufalloc.o
 .note.GNU-stack
                0x0000000000000000        0x0 binaries/rdsclose.o
 .note.GNU-stack
                0x0000000000000000        0x0 binaries/rdscomm.o
 .note.GNU-stack
                0x0000000000000000        0x0 binaries/rdscontrol.o
 .note.GNU-stack
                0x0000000000000000        0x0 binaries/rdsinit.o
 .note.GNU-stack
                0x0000000000000000        0x0 binaries/rdsopen.o
 .note.GNU-stack
                0x0000000000000000        0x0 binaries/rdsprocess.o
 .note.GNU-stack
                0x0000000000000000        0x0 binaries/rdsread.o
 .note.GNU-stack
                0x0000000000000000        0x0 binaries/rdswrite.o
 .note.GNU-stack
                0x0000000000000000        0x0 binaries/ramclose.o
 .note.GNU-stack
                0x0000000000000000        0x0 binaries/raminit.o
 .note.GNU-stack
                0x0000000000000000        0x0 binaries/ramopen.o
 .note.GNU-stack
                0x0000000000000000        0x0 binaries/ramread.o
 .note.GNU-stack
                0x0000000000000000        0x0 binaries/ramwrite.o
 .note.GNU-stack
                0x0000000000000000        0x0 binaries/lfdballoc.o
 .note.GNU-stack
                0x0000000000000000        0x0 binaries/lfdbfree.o
 .note.GNU-stack
                0x0000000000000000        0x0 binaries/lfflush.o
 .note.GNU-stack
                0x0000000000000000        0x0 binaries/lfgetmode.o
 .note.GNU-stack
                0x0000000000000000        0x0 binaries/lfiballoc.o
 .note.GNU-stack
                0x0000000000000000        0x0 binaries/lfibclear.o
 .note.GNU-stack
                0x0000000000000000        0x0 binaries/lfibget.o
 .note.GNU-stack
                0x0000000000000000        0x0 binaries/lfibput.o
 .note.GNU-stack
                0x0000000000000000        0x0 binaries/lflclose.o
 .note.GNU-stack
                0x0000000000000000        0x0 binaries/lflcontrol.o
 .note.GNU-stack
                0x0000000000000000        0x0 binaries/lflgetc.o
 .note.GNU-stack
                0x0000000000000000        0x0 binaries/lflinit.o
 .note.GNU-stack
                0x0000000000000000        0x0 binaries/lflputc.o
 .note.GNU-stack
                0x0000000000000000        0x0 binaries/lflread.o
 .note.GNU-stack
                0x0000000000000000        0x0 binaries/lflseek.o
 .note.GNU-stack
                0x0000000000000000        0x0 binaries/lflwrite.o
 .note.GNU-stack
                0x0000000000000000        0x0 binaries/lfsckfmt.o
 .note.GNU-stack
                0x0000000000000000        0x0 binaries/lfscreate.o
 .note.GNU-stack
                0x0000000000000000        0x0 binaries/lfsetup.o
 .note.GNU-stack
                0x0000000000000000        0x0 binaries/lfsinit.o
 .note.GNU-stack
                0x0000000000000000        0x0 binaries/lfsopen.o
 .note.GNU-stack
                0x0000000000000000        0x0 binaries/lftruncate.o
 .note.GNU-stack
                0x0000000000000000        0x0 binaries/rflclose.o
 .note.GNU-stack
                0x0000000000000000        0x0 binaries/rflgetc.o
 .note.GNU-stack
                0x0000000000000000        0x0 binaries/rflinit.o
 .note.GNU-stack
                0x0000000000000000        0x0 binaries/rflputc.o
 .note.GNU-stack
                0x0000000000000000        0x0 binaries/rflread.o
 .note.GNU-stack
                0x0000000000000000        0x0 binaries/rflseek.o
 .note.GNU-stack
                0x0000000000000000        0x0 binaries/rflwrite.o
 .note.GNU-stack
                0x0000000000000000        0x0 binaries/rfscomm.o
 .note.GNU-stack
                0x0000000000000000        0x0 binaries/rfscontrol.o
 .note.GNU-stack
                0x0000000000000000        0x0 binaries/rfsgetmode.o
 .note.GNU-stack
                0x0000000000000000        0x0 binaries/rfsinit.o
 .note.GNU-stack
                0x0000000000000000        0x0 binaries/rfsndmsg.o
 .note.GNU-stack
                0x0000000000000000        0x0 binaries/rfsopen.o
 .note.GNU-stack
                0x0000000000000000        0x0 binaries/arp.o
 .note.GNU-stack
                0x0000000000000000        0x0 binaries/dhcp.o
 .note.GNU-stack
                0x0000000000000000        0x0 binaries/dot2ip.o
 .note.GNU-stack
                0x0000000000000000        0x0 binaries/hexdump.o
 .note.GNU-stack
                0x0000000000000000        0x0 binaries/icmp.o
 .note.GNU-stack
                0x0000000000000000        0x0 binaries/ip.o
 .note.GNU-stack
                0x0000000000000000        0x0 binaries/net.o
 .note.GNU-stack
                0x0000000000000000        0x0 binaries/netstart.o
 .note.GNU-stack
                0x0000000000000000        0x0 binaries/pdump.o
 .note.GNU-stack
                0x0000000000000000        0x0 binaries/tftp.o
 .note.GNU-stack
                0x0000000000000000        0x0 binaries/udp.o
 .note.GNU-stack
                0x0000000000000000        0x0 binaries/addargs.o
 .note.GNU-stack
                0x0000000000000000        0x0 binaries/lexan.o
 .note.GNU-stack
                0x0000000000000000        0x0 binaries/shell.o
 .note.GNU-stack
                0x0000000000000000        0x0 binaries/xsh_argecho.o
 .note.GNU-stack
                0x0000000000000000        0x0 binaries/xsh_arp.o
 .note.GNU-stack
                0x0000000000000000        0x0 binaries/xsh_cat.o
 .note.GNU-stack
                0x0000000000000000        0x0 binaries/xsh_clear.o
 .note.GNU-stack
                0x0000000000000000        0x0 binaries/xsh_date.o
 .note.GNU-stack
                0x0000000000000000        0x0 binaries/xsh_devdump.o
 .note.GNU-stack
                0x0000000000000000        0x0 binaries/xsh_echo.o
 .note.GNU-stack
                0x0000000000000000        0x0 binaries/xsh_exit.o
 .note.GNU-stack
                0x0000000000000000        0x0 binaries/xsh_help.o
 .note.GNU-stack
                0x0000000000000000        0x0 binaries/xsh_ipaddr.o
 .note.GNU-stack
                0x0000000000000000        0x0 binaries/xsh_kill.o
 .note.GNU-stack
                0x0000000000000000        0x0 binaries/xsh_memdump.o
 .note.GNU-stack
                0x0000000000000000        0x0 binaries/xsh_memstat.o
 .note.GNU-stack
                0x0000000000000000        0x0 binaries/xsh_ping.o
 .note.GNU-stack
                0x0000000000000000        0x0 binaries/xsh_ps.o
 .note.GNU-stack
                0x0000000000000000        0x0 binaries/xsh_sleep.o
 .note.GNU-stack
                0x0000000000000000        0x0 binaries/xsh_udpdump.o
 .note.GNU-stack
                0x0000000000000000        0x0 binaries/xsh_udpecho.o
 .note.GNU-stack
                0x0000000000000000        0x0 binaries/xsh_udpeserver.o
 .note.GNU-stack
                0x0000000000000000        0x0 binaries/xsh_uptime.o
 .note.GNU-stack
                0x0000000000000000        0x0 binaries/host2netlc.o
