
Allocating common symbols
Common symbol       size              file

netbufpool          0x4               binaries/net.o
readylist           0x2               binaries/ready.o
rfltab              0x5a0             binaries/rflinit.o
queueArr            0x28              binaries/initialize.o
sleepq              0x2               binaries/clkinit.o
nnames              0x4               binaries/naminit.o
alarmq              0x2               binaries/clkinit.o
udptab              0x168             binaries/udp.o
minheap             0x4               binaries/meminit.o
marks               0x50              binaries/mark.o
currpid             0x4               binaries/initialize.o
Lf_data             0x20c             binaries/lfsinit.o
porttab             0x2d0             binaries/ptinit.o
girmask             0x2               binaries/evec.o
ttytab              0x10c             binaries/ttyinit.o
victimglobal        0x4               binaries/myhacker.o
proctab             0x2580            binaries/initialize.o
prcount             0x4               binaries/initialize.o
victimsRetAddress   0x4               binaries/myhacker.o
lfltab              0xf00             binaries/lflinit.o
rdstab              0x8c              binaries/rdsinit.o
ethertab            0x138             binaries/ethinit.o
NetData             0xa8              binaries/net.o
nmarks              0x4               binaries/mark.o
Defer               0x8               binaries/resched.o
semtab              0x4b0             binaries/initialize.o
useSigRecv          0x1               binaries/lab4q2.o
maxheap             0x4               binaries/meminit.o
preempt             0x4               binaries/clkinit.o
buftab              0xf0              binaries/bufinit.o
Rf_data             0x18              binaries/rfsinit.o
myqueuetab          0xca0             binaries/myqueue.o
mkmutex             0x4               binaries/mark.o
alarmqueuetab       0x960             binaries/alarmqueue.o
clktimemsec         0x4               binaries/clkinit.o
msgglob             0x4               binaries/lab4q2.o
clktime             0x4               binaries/clkinit.o
arpcache            0x140             binaries/arp.o
icmptab             0x230             binaries/icmp.o
nbpools             0x4               binaries/bufinit.o
queuetab            0xca0             binaries/queue.o
ptnextid            0x4               binaries/ptinit.o
Ram                 0x19000           binaries/raminit.o
ipoqueue            0x2c              binaries/ip.o
memlist             0x8               binaries/initialize.o
nametab             0x19a0            binaries/naminit.o
ptfree              0x4               binaries/ptinit.o

Memory Configuration

Name             Origin             Length             Attributes
*default*        0x0000000000000000 0xffffffffffffffff

Linker script and memory map

                0x0000000000100000                physbase = 0x100000
                0x0000000000100000                . = physbase
                0x0000000000100000                . = ALIGN (0x1000)

.text           0x0000000000100000    0x1a000
                0x0000000000100000                text = ABSOLUTE (.)
 *(.text .text.*)
 .text          0x0000000000100000      0x1ac binaries/start.o
                0x0000000000100028                start
                0x00000000001000fa                inb
                0x0000000000100102                inw
                0x000000000010010b                inl
                0x0000000000100113                outb
                0x000000000010011d                outw
                0x0000000000100128                outl
                0x0000000000100132                _rtcin
                0x000000000010013d                ___udivsi3
                0x0000000000100148                ___divsi3
                0x0000000000100154                sbzero
                0x0000000000100164                bcopy
                0x0000000000100178                insw
                0x000000000010018e                outsw
                0x00000000001001a4                lidt
 .text          0x00000000001001ac      0x132 binaries/alarm.o
                0x00000000001001ac                alarmms
                0x00000000001002a8                alarm
 .text          0x00000000001002de      0x376 binaries/alarmqueue.o
                0x00000000001002de                alarmenqueue
                0x0000000000100342                alarminsertd
                0x000000000010042e                alarmgetitem
                0x000000000010045d                alarmgetfirst
                0x0000000000100484                alarmdequeue
                0x00000000001004c9                alarmgetlast
                0x00000000001004f5                alarmnewqueue
                0x0000000000100558                alarmprintQueue
                0x00000000001005ce                alarmcontains
 .text          0x0000000000100654       0xbf binaries/alarmwakeup.o
                0x0000000000100654                alarmwakeup
 .text          0x0000000000100713       0x35 binaries/app1.o
                0x0000000000100713                app1
 .text          0x0000000000100748       0x8f binaries/app2.o
                0x0000000000100748                app2
 .text          0x00000000001007d7       0x67 binaries/app3.o
                0x00000000001007d7                app3
 .text          0x000000000010083e      0x2b9 binaries/ascdate.o
                0x000000000010083e                ascdate
 .text          0x0000000000100af7       0x14 binaries/bufinit.o
                0x0000000000100af7                bufinit
 .text          0x0000000000100b0b       0x69 binaries/chprio.o
                0x0000000000100b0b                chprio
 .text          0x0000000000100b74      0x100 binaries/clkhandler.o
                0x0000000000100b74                clkhandler
 .text          0x0000000000100c74       0x72 binaries/clkinit.o
                0x0000000000100c74                clkinit
 .text          0x0000000000100ce6       0x56 binaries/close.o
                0x0000000000100ce6                close
 .text          0x0000000000100d3c        0x0 binaries/conf.o
 .text          0x0000000000100d3c       0x5c binaries/control.o
                0x0000000000100d3c                control
 .text          0x0000000000100d98      0x125 binaries/cpubound.o
                0x0000000000100d98                cpubound
 .text          0x0000000000100ebd      0x2be binaries/create.o
                0x0000000000100ebd                create
 .text          0x000000000010117b      0x20e binaries/early_imr.o
                0x000000000010117b                intel_cln_early_sb_read_reg
                0x00000000001011d2                intel_cln_early_sb_write_reg
                0x000000000010128c                remove_irm_protections
 .text          0x0000000000101389      0x2e4 binaries/evec.o
                0x0000000000101389                setirmask
                0x00000000001013c1                set_evec
                0x000000000010141c                initevec
                0x00000000001014ee                trap
 .text          0x000000000010166d       0x30 binaries/factorial.o
                0x000000000010166d                factorial
 .text          0x000000000010169d       0x7f binaries/freebuf.o
                0x000000000010169d                freebuf
 .text          0x000000000010171c      0x108 binaries/freemem.o
                0x000000000010171c                freemem
 .text          0x0000000000101824       0x6e binaries/getbuf.o
                0x0000000000101824                getbuf
 .text          0x0000000000101892       0x56 binaries/getc.o
                0x0000000000101892                getc
 .text          0x00000000001018e8       0x69 binaries/getdev.o
                0x00000000001018e8                getdev
 .text          0x0000000000101951      0x104 binaries/getitem.o
                0x0000000000101951                getitem
                0x0000000000101980                getfirst
                0x00000000001019a7                getlast
                0x00000000001019d3                mygetitem
                0x0000000000101a02                mygetfirst
                0x0000000000101a29                mygetlast
 .text          0x0000000000101a55       0xc2 binaries/getmem.o
                0x0000000000101a55                getmem
 .text          0x0000000000101b17        0xa binaries/getpid.o
                0x0000000000101b17                getpid
 .text          0x0000000000101b21       0x13 binaries/getpname.o
                0x0000000000101b21                getpname
 .text          0x0000000000101b34       0x16 binaries/getppid.o
                0x0000000000101b34                getppid
 .text          0x0000000000101b4a       0x58 binaries/getprio.o
                0x0000000000101b4a                getprio
 .text          0x0000000000101ba2       0xac binaries/getstk.o
                0x0000000000101ba2                getstk
 .text          0x0000000000101c4e       0x32 binaries/gettime.o
                0x0000000000101c4e                gettime
 .text          0x0000000000101c80      0x18c binaries/getutime.o
                0x0000000000101c80                getutime
 .text          0x0000000000101e0c       0x10 binaries/host2netlb.o
                0x0000000000101e0c                host2netlb
 .text          0x0000000000101e1c       0x56 binaries/init.o
                0x0000000000101e1c                init
 .text          0x0000000000101e72      0x35d binaries/initialize.o
                0x0000000000101e72                nulluser
                0x0000000000102185                stop
                0x00000000001021a9                delay
 .text          0x00000000001021cf       0xbc binaries/insert.o
                0x00000000001021cf                insert
 .text          0x000000000010228b       0xec binaries/insertd.o
                0x000000000010228b                insertd
 .text          0x0000000000102377       0xbe binaries/iobound.o
                0x0000000000102377                iobound
 .text          0x0000000000102435        0xa binaries/ioerr.o
                0x0000000000102435                ioerr
 .text          0x000000000010243f        0xa binaries/ionull.o
                0x000000000010243f                ionull
 .text          0x0000000000102449      0x16d binaries/kill.o
                0x0000000000102449                kill
 .text          0x00000000001025b6       0xa9 binaries/kprintf.o
                0x00000000001025b6                kputc
                0x00000000001025e8                console_init
                0x000000000010261b                kgetc
                0x0000000000102641                kprintf
 .text          0x000000000010265f      0x3af binaries/lab2q3.o
                0x000000000010265f                workerProcessTypeA
                0x0000000000102664                workerProcessTypeB
                0x0000000000102681                monitorProcess
                0x00000000001026f4                lab2q3t1
                0x0000000000102753                lab2q3t2
                0x000000000010283c                lab2q3t3
                0x0000000000102925                lab2q3t4
 .text          0x0000000000102a0e      0x81f binaries/lab2q4.o
                0x0000000000102a0e                lab2q4t1
                0x0000000000102be3                lab2q4t2
                0x0000000000102da6                lab2q4t3
                0x0000000000102f72                lab2q4t4
                0x000000000010305b                lab2q4t5
                0x0000000000103144                lab2q4t6
 .text          0x000000000010322d      0x1ec binaries/lab2q5.o
                0x000000000010322d                lab2q5t1
 .text          0x0000000000103419      0x564 binaries/lab3q3.o
                0x0000000000103419                lab3q3t1
                0x00000000001035ee                lab3q3t2
                0x00000000001037b1                lab3q3t3
 .text          0x000000000010397d      0x46f binaries/lab3q4.o
                0x000000000010397d                testReceiver
                0x00000000001039a7                testSender
                0x0000000000103a55                AsynchronousSendTest1
                0x0000000000103aba                AsynchronousSendTest2
                0x0000000000103ba9                AsynchronousSendTest3
                0x0000000000103c98                AsynchronousSendTest4
                0x0000000000103d6f                lab3q4_AllTests
 .text          0x0000000000103dec      0x412 binaries/lab4q2.o
                0x0000000000103dec                myrecvhandler_NoReceive
                0x0000000000103df6                AsynchronousSender
                0x0000000000103e39                AsynchronousReceiver
                0x0000000000103ea1                AsynchronousReceiver_NoReceive
                0x0000000000103ecf                myrecvhandler
                0x0000000000103efd                AsynchronousTest1
                0x0000000000103f85                AsynchronousTest2
                0x0000000000104025                AsynchronousTest3
                0x00000000001041bb                lab4q2_AllTests
 .text          0x00000000001041fe      0x490 binaries/lab4q3.o
                0x00000000001041fe                myalarmhandler
                0x000000000010421f                myxcpuhandler
                0x0000000000104254                myxcpuhandler_alternate
                0x0000000000104289                mixedTest
                0x0000000000104359                lab4q3_AllTests
                0x00000000001044a4                registerSignal
                0x0000000000104599                AlarmTest1
                0x00000000001045c6                AlarmTest2
                0x00000000001045ff                XCputest1
                0x0000000000104616                XCputest2
                0x0000000000104654                mixedProcess
 .text          0x000000000010468e       0x36 binaries/main.o
                0x000000000010468e                main
 .text          0x00000000001046c4       0x99 binaries/mark.o
                0x00000000001046c4                markinit
                0x00000000001046e5                mark
 .text          0x000000000010475d      0x1ff binaries/meminit.o
                0x000000000010475d                meminit
                0x00000000001048ec                setsegs
 .text          0x000000000010495c      0x122 binaries/mkbufpool.o
                0x000000000010495c                mkbufpool
 .text          0x0000000000104a7e       0x91 binaries/multilevelfbq.o
                0x0000000000104a7e                multifeedbackDQ
                0x0000000000104ac4                printMFQ
 .text          0x0000000000104b0f       0xa2 binaries/myappA.o
                0x0000000000104b0f                myappA
 .text          0x0000000000104bb1       0x23 binaries/myfuncA.o
                0x0000000000104bb1                myfuncA
 .text          0x0000000000104bd4       0x86 binaries/myhacker.o
                0x0000000000104bd4                myhackermalware
                0x0000000000104c00                getretaddrbydepth
                0x0000000000104c2e                myhacker
 .text          0x0000000000104c5a      0x16b binaries/myqueue.o
                0x0000000000104c5a                myenqueue
                0x0000000000104d04                mydequeue
                0x0000000000104d4f                myprintQueue
 .text          0x0000000000104dc5       0x9b binaries/myvictim.o
                0x0000000000104dc5                makevictimsleep
                0x0000000000104df0                invokevictimsleep
                0x0000000000104e1b                myvictim
 .text          0x0000000000104e60       0x5f binaries/mywelcomemsg.o
                0x0000000000104e60                mywelcomemsg
 .text          0x0000000000104ebf       0xc6 binaries/newqueue.o
                0x0000000000104ebf                newqueue
                0x0000000000104f22                mynewqueue
 .text          0x0000000000104f85       0x5c binaries/open.o
                0x0000000000104f85                open
 .text          0x0000000000104fe1       0x20 binaries/panic.o
                0x0000000000104fe1                panic
 .text          0x0000000000105001      0x282 binaries/pci.o
                0x0000000000105001                pci_init
                0x000000000010500b                find_pci_device
                0x00000000001050ca                pci_read_config_byte
                0x0000000000105108                pci_read_config_word
                0x0000000000105148                pci_read_config_dword
                0x0000000000105186                pci_write_config_byte
                0x00000000001051c2                pci_write_config_word
                0x00000000001051ff                pci_write_config_dword
                0x000000000010523b                pci_get_dev_mmio_base_addr
 .text          0x0000000000105283       0x50 binaries/platinit.o
                0x0000000000105283                platinit
 .text          0x00000000001052d3       0xa7 binaries/printsegaddr.o
                0x00000000001052d3                printsegaddr
 .text          0x000000000010537a      0x3ec binaries/process_state.o
                0x000000000010537a                process_state
 .text          0x0000000000105766       0xa9 binaries/ptclear.o
                0x0000000000105766                _ptclear
 .text          0x000000000010580f       0x85 binaries/ptcount.o
                0x000000000010580f                ptcount
 .text          0x0000000000105894       0xfe binaries/ptcreate.o
                0x0000000000105894                ptcreate
 .text          0x0000000000105992       0x63 binaries/ptdelete.o
                0x0000000000105992                ptdelete
 .text          0x00000000001059f5       0x91 binaries/ptinit.o
                0x00000000001059f5                ptinit
 .text          0x0000000000105a86       0xf5 binaries/ptrecv.o
                0x0000000000105a86                ptrecv
 .text          0x0000000000105b7b       0x66 binaries/ptreset.o
                0x0000000000105b7b                ptreset
 .text          0x0000000000105be1      0x115 binaries/ptsend.o
                0x0000000000105be1                ptsend
 .text          0x0000000000105cf6       0x64 binaries/putc.o
                0x0000000000105cf6                putc
 .text          0x0000000000105d5a       0xb3 binaries/quark_irq.o
                0x0000000000105d5a                quark_irq_routing
 .text          0x0000000000105e0d      0x19a binaries/quark_pdat.o
                0x0000000000105e0d                get_quark_pdat_entry_data_by_id
                0x0000000000105ed7                get_quark_pdat_entry_data_by_desc
 .text          0x0000000000105fa7      0x16b binaries/queue.o
                0x0000000000105fa7                enqueue
                0x0000000000106051                dequeue
                0x000000000010609c                printQueue
 .text          0x0000000000106112       0x5c binaries/read.o
                0x0000000000106112                read
 .text          0x000000000010616e       0xfc binaries/ready.o
                0x000000000010616e                ready
 .text          0x000000000010626a       0x62 binaries/receive.o
                0x000000000010626a                receive
 .text          0x00000000001062cc       0xf7 binaries/receivebt.o
                0x00000000001062cc                receivebt
 .text          0x00000000001063c3       0x4c binaries/recvclr.o
                0x00000000001063c3                recvclr
 .text          0x000000000010640f       0xb5 binaries/recvtime.o
                0x000000000010640f                recvtime
 .text          0x00000000001064c4       0x4e binaries/registercb.o
                0x00000000001064c4                registercb
 .text          0x0000000000106512      0x195 binaries/registercbsig.o
                0x0000000000106512                registercbsig
 .text          0x00000000001066a7      0x552 binaries/resched.o
                0x00000000001066a7                currproc_eligible
                0x00000000001066ff                handleCallback
                0x0000000000106786                resched_lab3
                0x00000000001068d6                resched_lab1
                0x00000000001069a0                reward_ready_waiting
                0x00000000001069d6                resched_lab2
                0x0000000000106b5d                resched
                0x0000000000106b87                resched_cntl
 .text          0x0000000000106bf9       0x80 binaries/resume.o
                0x0000000000106bf9                resume
 .text          0x0000000000106c79       0x59 binaries/seek.o
                0x0000000000106c79                seek
 .text          0x0000000000106cd2       0x51 binaries/semcount.o
                0x0000000000106cd2                semcount
 .text          0x0000000000106d23       0x93 binaries/semcreate.o
                0x0000000000106d23                semcreate
 .text          0x0000000000106db6       0xd1 binaries/semdelete.o
                0x0000000000106db6                semdelete
 .text          0x0000000000106e87       0xa8 binaries/semreset.o
                0x0000000000106e87                semreset
 .text          0x0000000000106f2f      0x109 binaries/send.o
                0x0000000000106f2f                send
 .text          0x0000000000107038      0x222 binaries/sendbt.o
                0x0000000000107038                sendbt
 .text          0x000000000010725a       0x95 binaries/signal.o
                0x000000000010725a                signal
 .text          0x00000000001072ef       0xc2 binaries/signaln.o
                0x00000000001072ef                signaln
 .text          0x00000000001073b1       0xc0 binaries/sleep.o
                0x00000000001073b1                sleepms
                0x000000000010743b                sleep
 .text          0x0000000000107471       0x97 binaries/stackdepth.o
                0x0000000000107471                stackdepth
 .text          0x0000000000107508      0x18e binaries/stacktrace.o
                0x0000000000107508                stacktrace
 .text          0x0000000000107696       0xb2 binaries/suspend.o
                0x0000000000107696                suspend
 .text          0x0000000000107748       0x27 binaries/teststackdepth.o
                0x0000000000107748                teststackdepth
 .text          0x000000000010776f        0x0 binaries/tsdtab.o
 .text          0x000000000010776f       0x92 binaries/unsleep.o
                0x000000000010776f                unsleep
 .text          0x0000000000107801       0x19 binaries/userret.o
                0x0000000000107801                userret
 .text          0x000000000010781a       0xb1 binaries/wait.o
                0x000000000010781a                wait
 .text          0x00000000001078cb       0x71 binaries/wakeup.o
                0x00000000001078cb                wakeup
 .text          0x000000000010793c       0x5c binaries/write.o
                0x000000000010793c                write
 .text          0x0000000000107998       0x1a binaries/xdone.o
                0x0000000000107998                xdone
 .text          0x00000000001079b2       0x26 binaries/yield.o
                0x00000000001079b2                yield
 .text          0x00000000001079d8       0x11 binaries/abs.o
                0x00000000001079d8                abs
 .text          0x00000000001079e9       0x84 binaries/atoi.o
                0x00000000001079e9                atoi
 .text          0x0000000000107a6d       0x84 binaries/atol.o
                0x0000000000107a6d                atol
 .text          0x0000000000107af1       0x1a binaries/bzero.o
                0x0000000000107af1                bzero
 .text          0x0000000000107b0b        0x0 binaries/ctype_.o
 .text          0x0000000000107b0b      0x6bf binaries/doprnt.o
                0x0000000000107c5e                _doprnt
 .text          0x00000000001081ca      0x5f2 binaries/doscan.o
                0x00000000001081ca                _doscan
 .text          0x00000000001087bc      0x64e binaries/fdoprnt.o
                0x0000000000108841                _fdoprnt
 .text          0x0000000000108e0a       0x1c binaries/fgetc.o
                0x0000000000108e0a                fgetc
 .text          0x0000000000108e26       0x61 binaries/fgets.o
                0x0000000000108e26                fgets
 .text          0x0000000000108e87       0x21 binaries/fprintf.o
                0x0000000000108e87                fprintf
 .text          0x0000000000108ea8       0x27 binaries/fputc.o
                0x0000000000108ea8                fputc
 .text          0x0000000000108ecf       0x3a binaries/fputs.o
                0x0000000000108ecf                fputs
 .text          0x0000000000108f09       0x6a binaries/fscanf.o
                0x0000000000108f47                fscanf
 .text          0x0000000000108f73       0x20 binaries/getchar.o
                0x0000000000108f73                getchar
 .text          0x0000000000108f93       0x11 binaries/labs.o
                0x0000000000108f93                labs
 .text          0x0000000000108fa4       0x36 binaries/memchr.o
                0x0000000000108fa4                memchr
 .text          0x0000000000108fda       0x4a binaries/memcmp.o
                0x0000000000108fda                memcmp
 .text          0x0000000000109024       0x26 binaries/memcpy.o
                0x0000000000109024                memcpy
 .text          0x000000000010904a       0x1f binaries/memset.o
                0x000000000010904a                memset
 .text          0x0000000000109069       0x31 binaries/printf.o
                0x0000000000109069                printf
 .text          0x000000000010909a       0x23 binaries/putchar.o
                0x000000000010909a                putchar
 .text          0x00000000001090bd      0x1cc binaries/qsort.o
                0x0000000000109261                qsort
 .text          0x0000000000109289       0x4c binaries/rand.o
                0x0000000000109289                srand
                0x0000000000109296                rand
 .text          0x00000000001092d5       0x48 binaries/sprintf.o
                0x00000000001092ee                sprintf
 .text          0x000000000010931d       0x5a binaries/sscanf.o
                0x000000000010934d                sscanf
 .text          0x0000000000109377       0x2f binaries/strchr.o
                0x0000000000109377                strchr
 .text          0x00000000001093a6       0x45 binaries/strcmp.o
                0x00000000001093a6                strcmp
 .text          0x00000000001093eb       0x1c binaries/strcpy.o
                0x00000000001093eb                strcpy
 .text          0x0000000000109407       0x20 binaries/strlen.o
                0x0000000000109407                strlen
 .text          0x0000000000109427       0x3d binaries/strncat.o
                0x0000000000109427                strncat
 .text          0x0000000000109464       0x3b binaries/strncmp.o
                0x0000000000109464                strncmp
 .text          0x000000000010949f       0x59 binaries/strncpy.o
                0x000000000010949f                strncpy
 .text          0x00000000001094f8       0x38 binaries/strnlen.o
                0x00000000001094f8                strnlen
 .text          0x0000000000109530       0x32 binaries/strrchr.o
                0x0000000000109530                strrchr
 .text          0x0000000000109562       0x68 binaries/strstr.o
                0x0000000000109562                strstr
 .text          0x00000000001095ca      0x112 binaries/ttycontrol.o
                0x00000000001095ca                ttycontrol
 .text          0x00000000001096dc       0xb0 binaries/ttygetc.o
                0x00000000001096dc                ttygetc
 .text          0x000000000010978c      0x4a3 binaries/ttyhandle_in.o
                0x0000000000109850                ttyhandle_in
 .text          0x0000000000109c2f      0x178 binaries/ttyhandle_out.o
                0x0000000000109c2f                ttyhandle_out
 .text          0x0000000000109da7       0x85 binaries/ttyhandler.o
                0x0000000000109da7                ttyhandler
 .text          0x0000000000109e2c      0x15d binaries/ttyinit.o
                0x0000000000109e2c                ttyinit
 .text          0x0000000000109f89        0xf binaries/ttykickout.o
                0x0000000000109f89                ttykickout
 .text          0x0000000000109f98       0xb2 binaries/ttyputc.o
                0x0000000000109f98                ttyputc
 .text          0x000000000010a04a       0xff binaries/ttyread.o
                0x000000000010a04a                ttyread
 .text          0x000000000010a149       0x4d binaries/ttywrite.o
                0x000000000010a149                ttywrite
 .text          0x000000000010a196      0x129 binaries/mount.o
                0x000000000010a196                namlen
                0x000000000010a1d2                mount
 .text          0x000000000010a2bf      0x1c4 binaries/naminit.o
                0x000000000010a2bf                naminit
 .text          0x000000000010a483      0x1fe binaries/nammap.o
                0x000000000010a483                namrepl
                0x000000000010a5a6                namcpy
                0x000000000010a5f4                nammap
 .text          0x000000000010a681       0x44 binaries/namopen.o
                0x000000000010a681                namopen
 .text          0x000000000010a6c5       0xd4 binaries/colon2mac.o
                0x000000000010a6c5                colon2mac
 .text          0x000000000010a799       0x7d binaries/ethcontrol.o
                0x000000000010a799                ethcontrol
 .text          0x000000000010a816      0x17e binaries/ethhandler.o
                0x000000000010a816                ethhandler
 .text          0x000000000010a994      0x548 binaries/ethinit.o
                0x000000000010a994                eth_phy_read
                0x000000000010a9d4                eth_phy_write
                0x000000000010aa15                eth_phy_reset
                0x000000000010aaef                ethinit
 .text          0x000000000010aedc      0x107 binaries/ethmcast.o
                0x000000000010aedc                ethmcast_add
                0x000000000010af28                ethmcast_remove
 .text          0x000000000010afe3      0x172 binaries/ethread.o
                0x000000000010afe3                ethread
 .text          0x000000000010b155       0xc1 binaries/ethwrite.o
                0x000000000010b155                ethwrite
 .text          0x000000000010b216       0x68 binaries/rdsbufalloc.o
                0x000000000010b216                rdsbufalloc
 .text          0x000000000010b27e       0xd6 binaries/rdsclose.o
                0x000000000010b27e                rdsclose
 .text          0x000000000010b354      0x1df binaries/rdscomm.o
                0x000000000010b354                rdscomm
 .text          0x000000000010b533      0x1c4 binaries/rdscontrol.o
                0x000000000010b533                rdscontrol
 .text          0x000000000010b6f7      0x1f7 binaries/rdsinit.o
                0x000000000010b6f7                rdsinit
 .text          0x000000000010b8ee      0x199 binaries/rdsopen.o
                0x000000000010b8ee                rdsopen
 .text          0x000000000010ba87      0x2c5 binaries/rdsprocess.o
                0x000000000010ba87                rdsprocess
 .text          0x000000000010bd4c      0x1d8 binaries/rdsread.o
                0x000000000010bd4c                rdsread
 .text          0x000000000010bf24      0x1ae binaries/rdswrite.o
                0x000000000010bf24                rdswrite
 .text          0x000000000010c0d2        0xa binaries/ramclose.o
                0x000000000010c0d2                ramclose
 .text          0x000000000010c0dc       0x35 binaries/raminit.o
                0x000000000010c0dc                raminit
 .text          0x000000000010c111        0xa binaries/ramopen.o
                0x000000000010c111                ramopen
 .text          0x000000000010c11b       0x26 binaries/ramread.o
                0x000000000010c11b                ramread
 .text          0x000000000010c141       0x26 binaries/ramwrite.o
                0x000000000010c141                ramwrite
 .text          0x000000000010c167       0x87 binaries/lfdballoc.o
                0x000000000010c167                lfdballoc
 .text          0x000000000010c1ee       0x49 binaries/lfdbfree.o
                0x000000000010c1ee                lfdbfree
 .text          0x000000000010c237       0xa1 binaries/lfflush.o
                0x000000000010c237                lfflush
 .text          0x000000000010c2d8       0x82 binaries/lfgetmode.o
                0x000000000010c2d8                lfgetmode
 .text          0x000000000010c35a       0x60 binaries/lfiballoc.o
                0x000000000010c35a                lfiballoc
 .text          0x000000000010c3ba       0x27 binaries/lfibclear.o
                0x000000000010c3ba                lfibclear
 .text          0x000000000010c3e1       0x6c binaries/lfibget.o
                0x000000000010c3e1                lfibget
 .text          0x000000000010c44d       0x88 binaries/lfibput.o
                0x000000000010c44d                lfibput
 .text          0x000000000010c4d5       0xa4 binaries/lflclose.o
                0x000000000010c4d5                lflclose
 .text          0x000000000010c579       0xc2 binaries/lflcontrol.o
                0x000000000010c579                lflcontrol
 .text          0x000000000010c63b       0xfd binaries/lflgetc.o
                0x000000000010c63b                lflgetc
 .text          0x000000000010c738       0xe7 binaries/lflinit.o
                0x000000000010c738                lflinit
 .text          0x000000000010c81f      0x12f binaries/lflputc.o
                0x000000000010c81f                lflputc
 .text          0x000000000010c94e       0x6b binaries/lflread.o
                0x000000000010c94e                lflread
 .text          0x000000000010c9b9       0xbd binaries/lflseek.o
                0x000000000010c9b9                lflseek
 .text          0x000000000010ca76       0x52 binaries/lflwrite.o
                0x000000000010ca76                lflwrite
 .text          0x000000000010cac8      0x114 binaries/lfsckfmt.o
                0x000000000010cac8                lfsckfmt
 .text          0x000000000010cbdc      0x1e6 binaries/lfscreate.o
                0x000000000010cbdc                lfscreate
 .text          0x000000000010cdc2      0x1b1 binaries/lfsetup.o
                0x000000000010cdc2                lfsetup
 .text          0x000000000010cf73       0x45 binaries/lfsinit.o
                0x000000000010cf73                lfsinit
 .text          0x000000000010cfb8      0x302 binaries/lfsopen.o
                0x000000000010cfb8                lfsopen
 .text          0x000000000010d2ba      0x112 binaries/lftruncate.o
                0x000000000010d2ba                lftruncate
 .text          0x000000000010d3cc       0x69 binaries/rflclose.o
                0x000000000010d3cc                rflclose
 .text          0x000000000010d435       0x29 binaries/rflgetc.o
                0x000000000010d435                rflgetc
 .text          0x000000000010d45e       0x6c binaries/rflinit.o
                0x000000000010d45e                rflinit
 .text          0x000000000010d4ca       0x29 binaries/rflputc.o
                0x000000000010d4ca                rflputc
 .text          0x000000000010d4f3      0x2b6 binaries/rflread.o
                0x000000000010d4f3                rflread
 .text          0x000000000010d7a9       0x68 binaries/rflseek.o
                0x000000000010d7a9                rflseek
 .text          0x000000000010d811      0x2fa binaries/rflwrite.o
                0x000000000010d811                rflwrite
 .text          0x000000000010db0b      0x17d binaries/rfscomm.o
                0x000000000010db0b                rfscomm
 .text          0x000000000010dc88      0x22b binaries/rfscontrol.o
                0x000000000010dc88                rfscontrol
 .text          0x000000000010deb3       0x82 binaries/rfsgetmode.o
                0x000000000010deb3                rfsgetmode
 .text          0x000000000010df35       0x7e binaries/rfsinit.o
                0x000000000010df35                rfsinit
 .text          0x000000000010dfb3       0xad binaries/rfsndmsg.o
                0x000000000010dfb3                rfsndmsg
 .text          0x000000000010e060      0x243 binaries/rfsopen.o
                0x000000000010e060                rfsopen
 .text          0x000000000010e2a3      0x626 binaries/arp.o
                0x000000000010e2a3                arp_init
                0x000000000010e2bf                arp_alloc
                0x000000000010e366                arp_ntoh
                0x000000000010e3d3                arp_hton
                0x000000000010e440                arp_resolve
                0x000000000010e691                arp_in
 .text          0x000000000010e8c9      0x5ed binaries/dhcp.o
                0x000000000010e8c9                dhcp_get_opt_val
                0x000000000010e91d                dhcp_bld_bootp_msg
                0x000000000010e9ef                dhcp_bld_disc
                0x000000000010ea41                dhcp_bld_req
                0x000000000010eadc                getlocalip
 .text          0x000000000010eeb6       0xda binaries/dot2ip.o
                0x000000000010eeb6                dot2ip
 .text          0x000000000010ef90      0x38c binaries/hexdump.o
                0x000000000010ef90                hexdump
                0x000000000010f0ea                hexadump
 .text          0x000000000010f31c      0x6f6 binaries/icmp.o
                0x000000000010f31c                icmp_init
                0x000000000010f338                icmp_register
                0x000000000010f3f6                icmp_recv
                0x000000000010f599                icmp_mkpkt
                0x000000000010f666                icmp_in
                0x000000000010f800                icmp_send
                0x000000000010f86f                icmp_release
                0x000000000010f98a                icmp_cksum
                0x000000000010f9e4                icmp_hton
                0x000000000010f9fb                icmp_ntoh
 .text          0x000000000010fa12      0x5e2 binaries/ip.o
                0x000000000010fa12                ip_local
                0x000000000010fa52                ipcksum
                0x000000000010faa8                ip_ntoh
                0x000000000010fb15                ip_in
                0x000000000010fc3a                ip_hton
                0x000000000010fca7                ip_out
                0x000000000010fd5d                ip_send
                0x000000000010fe68                ipout
                0x000000000010ff5b                ip_enqueue
 .text          0x000000000010fff4      0x1b2 binaries/net.o
                0x000000000010fff4                net_init
                0x00000000001100eb                eth_hton
                0x00000000001100f8                eth_ntoh
                0x0000000000110105                netin
 .text          0x00000000001101a6       0xb9 binaries/netstart.o
                0x00000000001101a6                netstart
 .text          0x000000000011025f      0xa30 binaries/pdump.o
                0x000000000011025f                pdump
                0x0000000000110844                pdumph
 .text          0x0000000000110c8f      0x5b8 binaries/tftp.o
                0x0000000000110c8f                tftp_send1
                0x0000000000110da3                tftpget_mb
                0x0000000000111224                tftpget
 .text          0x0000000000111247      0xa17 binaries/udp.o
                0x0000000000111247                udp_init
                0x0000000000111288                udp_in
                0x00000000001113b1                udp_register
                0x00000000001114c2                udp_recv
                0x000000000011165b                udp_recvaddr
                0x0000000000111808                udp_send
                0x00000000001119b6                udp_sendto
                0x0000000000111b1f                udp_release
                0x0000000000111c30                udp_ntoh
                0x0000000000111c47                udp_hton
 .text          0x0000000000111c5e      0x11c binaries/addargs.o
                0x0000000000111c5e                addargs
 .text          0x0000000000111d7a      0x1db binaries/lexan.o
                0x0000000000111d7a                lexan
 .text          0x0000000000111f55      0x658 binaries/shell.o
                0x0000000000111f55                shell
 .text          0x00000000001125ad       0x59 binaries/xsh_argecho.o
                0x00000000001125ad                xsh_argecho
 .text          0x0000000000112606      0x1fb binaries/xsh_arp.o
                0x0000000000112606                xsh_arp
 .text          0x0000000000112801      0x1ed binaries/xsh_cat.o
                0x0000000000112801                xsh_cat
 .text          0x00000000001129ee       0x52 binaries/xsh_clear.o
                0x00000000001129ee                xsh_clear
 .text          0x0000000000112a40      0x287 binaries/xsh_date.o
                0x0000000000112a40                xsh_date
 .text          0x0000000000112cc7       0x83 binaries/xsh_devdump.o
                0x0000000000112cc7                xsh_devdump
 .text          0x0000000000112d4a       0x63 binaries/xsh_echo.o
                0x0000000000112d4a                xsh_echo
 .text          0x0000000000112dad        0xa binaries/xsh_exit.o
                0x0000000000112dad                xsh_exit
 .text          0x0000000000112db7      0x329 binaries/xsh_help.o
                0x0000000000112db7                xsh_help
 .text          0x00000000001130e0      0x373 binaries/xsh_ipaddr.o
                0x00000000001130e0                xsh_ipaddr
 .text          0x0000000000113453      0x1c0 binaries/xsh_kill.o
                0x0000000000113453                xsh_kill
 .text          0x0000000000113613      0x3cf binaries/xsh_memdump.o
                0x00000000001136d9                xsh_memdump
 .text          0x00000000001139e2      0x1d2 binaries/xsh_memstat.o
                0x00000000001139e2                xsh_memstat
 .text          0x0000000000113bb4      0x297 binaries/xsh_ping.o
                0x0000000000113bb4                xsh_ping
 .text          0x0000000000113e4b      0x1af binaries/xsh_ps.o
                0x0000000000113e4b                xsh_ps
 .text          0x0000000000113ffa      0x1b2 binaries/xsh_sleep.o
                0x0000000000113ffa                xsh_sleep
 .text          0x00000000001141ac      0x1c9 binaries/xsh_udpdump.o
                0x00000000001141ac                xsh_udpdump
 .text          0x0000000000114375      0x3cb binaries/xsh_udpecho.o
                0x0000000000114375                xsh_udpecho
 .text          0x0000000000114740      0x20e binaries/xsh_udpeserver.o
                0x0000000000114740                xsh_udpeserver
 .text          0x000000000011494e      0x1b6 binaries/xsh_uptime.o
                0x000000000011494e                xsh_uptime
 .text          0x0000000000114b04        0xe binaries/clkdisp.o
                0x0000000000114b04                clkdisp
 .text          0x0000000000114b12       0x19 binaries/ctxsw.o
                0x0000000000114b12                ctxsw
 .text          0x0000000000114b2b        0xa binaries/host2netla.o
                0x0000000000114b2b                host2netla
 *fill*         0x0000000000114b35        0xb 
 .text          0x0000000000114b40       0x25 binaries/host2netlc.o
                0x0000000000114b40                host2netlc
 .text.unlikely
                0x0000000000114b65        0x0 binaries/host2netlc.o
 .text          0x0000000000114b65      0x376 binaries/intr.o
                0x0000000000114b65                disable
                0x0000000000114b6e                restore
                0x0000000000114b7c                enable
                0x0000000000114b7e                pause
                0x0000000000114b85                idle
                0x0000000000114b90                halt
                0x0000000000114b96                spurious_irq7
                0x0000000000114b9b                spurious_irq15
                0x0000000000114baa                _Xint0
                0x0000000000114bb5                _Xint1
                0x0000000000114bc0                _Xint2
                0x0000000000114bcb                _Xint3
                0x0000000000114bd6                _Xint4
                0x0000000000114be1                _Xint5
                0x0000000000114bec                _Xint6
                0x0000000000114bf7                _Xint7
                0x0000000000114c02                _Xint8
                0x0000000000114c0d                _Xint9
                0x0000000000114c18                _Xint10
                0x0000000000114c23                _Xint11
                0x0000000000114c31                _Xint12
                0x0000000000114c3f                _Xint13
                0x0000000000114c4d                _Xint14
                0x0000000000114c5b                _Xint15
                0x0000000000114c69                _Xint16
                0x0000000000114c77                _Xint17
                0x0000000000114c85                _Xint18
                0x0000000000114c93                _Xint19
                0x0000000000114ca1                _Xint20
                0x0000000000114caf                _Xint21
                0x0000000000114cbd                _Xint22
                0x0000000000114ccb                _Xint23
                0x0000000000114cd9                _Xint24
                0x0000000000114ce7                _Xint25
                0x0000000000114cf5                _Xint26
                0x0000000000114d03                _Xint27
                0x0000000000114d11                _Xint28
                0x0000000000114d1f                _Xint29
                0x0000000000114d2d                _Xint30
                0x0000000000114d3b                _Xint31
                0x0000000000114d49                _Xint32
                0x0000000000114d57                _Xint33
                0x0000000000114d65                _Xint34
                0x0000000000114d73                _Xint35
                0x0000000000114d81                _Xint36
                0x0000000000114d8f                _Xint37
                0x0000000000114d9d                _Xint38
                0x0000000000114dab                _Xint39
                0x0000000000114db9                _Xint40
                0x0000000000114dc7                _Xint41
                0x0000000000114dd5                _Xint42
                0x0000000000114de3                _Xint43
                0x0000000000114df1                _Xint44
                0x0000000000114dff                _Xint45
                0x0000000000114e0d                _Xint46
                0x0000000000114e1b                defevec
 .text          0x0000000000114edb        0xf binaries/ttydispatch.o
                0x0000000000114edb                ttydispatch
 .text          0x0000000000114eea       0x13 binaries/ethdispatch.o
                0x0000000000114eea                ethdispatch
 *(.rodata .rodata.*)
 *fill*         0x0000000000114efd        0x3 
 .rodata.str1.4
                0x0000000000114f00       0x26 binaries/alarm.o
 .rodata.str1.1
                0x0000000000114f26       0x1b binaries/alarmqueue.o
 .rodata.str1.1
                0x0000000000114f41       0x17 binaries/app1.o
 .rodata.str1.1
                0x0000000000114f58        0x5 binaries/app2.o
                                         0x1c (size before relaxing)
 *fill*         0x0000000000114f5d        0x3 
 .rodata.str1.4
                0x0000000000114f60       0x2d binaries/app2.o
 *fill*         0x0000000000114f8d        0x3 
 .rodata.str1.4
                0x0000000000114f90       0x4a binaries/app3.o
 .rodata.str1.1
                0x0000000000114fda       0x29 binaries/app3.o
 .rodata.str1.1
                0x0000000000115003       0x54 binaries/ascdate.o
 *fill*         0x0000000000115057        0x1 
 .rodata.str1.4
                0x0000000000115058       0x22 binaries/ascdate.o
 *fill*         0x000000000011507a        0x2 
 .rodata        0x000000000011507c        0x4 binaries/clkhandler.o
                0x000000000011507c                MAX_UINT32
 .rodata.str1.1
                0x0000000000115080       0x5f binaries/conf.o
 *fill*         0x00000000001150df        0x1 
 .rodata.str1.4
                0x00000000001150e0      0x134 binaries/cpubound.o
 .rodata.str1.1
                0x0000000000115214        0x7 binaries/create.o
 *fill*         0x000000000011521b        0x1 
 .rodata.str1.4
                0x000000000011521c       0x4f binaries/early_imr.o
 *fill*         0x000000000011526b        0x1 
 .rodata        0x000000000011526c       0x33 binaries/early_imr.o
 .rodata.str1.1
                0x000000000011529f      0x20c binaries/evec.o
 *fill*         0x00000000001154ab        0x1 
 .rodata.str1.4
                0x00000000001154ac       0x23 binaries/evec.o
 .rodata.str1.1
                0x00000000001154cf        0xb binaries/getutime.o
 *fill*         0x00000000001154da        0x2 
 .rodata.str1.4
                0x00000000001154dc       0x54 binaries/getutime.o
 .rodata.str1.1
                0x0000000000115530       0x64 binaries/initialize.o
                                         0x6f (size before relaxing)
 .rodata.str1.4
                0x0000000000115594      0x168 binaries/initialize.o
 .rodata        0x00000000001156fc        0x4 binaries/initialize.o
                0x00000000001156fc                MAX_INT32
 .rodata.str1.1
                0x0000000000115700       0x18 binaries/insert.o
 .rodata.str1.4
                0x0000000000115718       0x80 binaries/iobound.o
 .rodata        0x0000000000115718       0x20 binaries/kill.o
 .rodata.str1.1
                0x0000000000115738       0x7a binaries/lab2q3.o
 *fill*         0x00000000001157b2        0x2 
 .rodata.str1.4
                0x00000000001157b4      0x23b binaries/lab2q3.o
 .rodata.str1.1
                0x00000000001159ef       0x7e binaries/lab2q4.o
                                         0xf8 (size before relaxing)
 *fill*         0x0000000000115a6d        0x3 
 .rodata.str1.4
                0x0000000000115a70      0x1fb binaries/lab2q4.o
                                        0x28f (size before relaxing)
 .rodata.str1.1
                0x0000000000115c6b       0x42 binaries/lab2q5.o
 .rodata.str1.1
                0x0000000000115c6b       0xb7 binaries/lab3q3.o
 *fill*         0x0000000000115c6b        0x1 
 .rodata.str1.4
                0x0000000000115c6c       0xf0 binaries/lab3q3.o
 .rodata.str1.1
                0x0000000000115d5c       0xf2 binaries/lab3q4.o
 *fill*         0x0000000000115e4e        0x2 
 .rodata.str1.4
                0x0000000000115e50      0x20d binaries/lab3q4.o
 *fill*         0x000000000011605d        0x3 
 .rodata.str1.4
                0x0000000000116060       0x75 binaries/lab4q2.o
 .rodata.str1.1
                0x00000000001160d5       0xcf binaries/lab4q2.o
                                         0xf6 (size before relaxing)
 .rodata.str1.4
                0x00000000001161a4      0x15c binaries/lab4q3.o
                                        0x180 (size before relaxing)
 .rodata.str1.1
                0x0000000000116300       0xcb binaries/lab4q3.o
                                         0xd8 (size before relaxing)
 *fill*         0x00000000001163cb        0x1 
 .rodata.str1.4
                0x00000000001163cc       0x6f binaries/main.o
 *fill*         0x000000000011643b        0x1 
 .rodata.str1.4
                0x000000000011643c       0x23 binaries/meminit.o
 .rodata.str1.1
                0x000000000011645f       0x1b binaries/meminit.o
 *fill*         0x000000000011647a        0x2 
 .rodata.str1.4
                0x000000000011647c       0x1f binaries/multilevelfbq.o
 *fill*         0x000000000011649b        0x1 
 .rodata.str1.4
                0x000000000011649c      0x103 binaries/myappA.o
 *fill*         0x000000000011659f        0x1 
 .rodata.str1.4
                0x00000000001165a0       0x57 binaries/myfuncA.o
 *fill*         0x00000000001165f7        0x1 
 .rodata.str1.4
                0x00000000001165f8       0x4c binaries/myhacker.o
 .rodata.str1.1
                0x0000000000116644       0x1b binaries/myqueue.o
                                         0x2f (size before relaxing)
 .rodata.str1.4
                0x0000000000116644      0x178 binaries/myvictim.o
 .rodata.str1.4
                0x00000000001167bc      0x19b binaries/mywelcomemsg.o
 .rodata.str1.1
                0x0000000000116957       0x16 binaries/mywelcomemsg.o
 .rodata.str1.1
                0x000000000011696d        0xf binaries/panic.o
 .rodata.str1.4
                0x000000000011697c       0xe1 binaries/printsegaddr.o
 .rodata.str1.1
                0x0000000000116a5d       0x94 binaries/process_state.o
                                         0xce (size before relaxing)
 *fill*         0x0000000000116af1        0x3 
 .rodata.str1.4
                0x0000000000116af4       0x97 binaries/process_state.o
 *fill*         0x0000000000116b8b       0x15 
 .rodata        0x0000000000116ba0      0x1b0 binaries/process_state.o
 .rodata.str1.1
                0x0000000000116d50       0x1c binaries/ptinit.o
 .rodata.str1.4
                0x0000000000116d6c       0x25 binaries/ptsend.o
 .rodata.str1.1
                0x0000000000116d91       0x22 binaries/quark_pdat.o
 .rodata.str1.1
                0x0000000000116db3       0x2f binaries/queue.o
 *fill*         0x0000000000116db3        0x1 
 .rodata.str1.4
                0x0000000000116db4       0x81 binaries/registercbsig.o
                                         0xa5 (size before relaxing)
 *fill*         0x0000000000116e35        0x3 
 .rodata.str1.4
                0x0000000000116e38       0x80 binaries/send.o
 .rodata.str1.4
                0x0000000000116eb8       0x5a binaries/sendbt.o
 *fill*         0x0000000000116f12        0x2 
 .rodata.str1.4
                0x0000000000116f14       0x58 binaries/stackdepth.o
 .rodata.str1.1
                0x0000000000116f6c       0x18 binaries/stackdepth.o
                                         0x1b (size before relaxing)
 .rodata.str1.4
                0x0000000000116f84       0x63 binaries/stacktrace.o
 .rodata.str1.1
                0x0000000000116fe7       0x52 binaries/stacktrace.o
 .rodata.str1.1
                0x0000000000117039       0x1c binaries/teststackdepth.o
 *fill*         0x0000000000117055        0x3 
 .rodata.str1.4
                0x0000000000117058       0x27 binaries/xdone.o
 *fill*         0x000000000011707f        0x1 
 .rodata        0x0000000000117080       0x81 binaries/ctype_.o
                0x0000000000117080                _ctype_
 .rodata.str1.1
                0x0000000000117101       0x29 binaries/doprnt.o
 *fill*         0x000000000011712a        0x2 
 .rodata        0x000000000011712c       0xc4 binaries/doprnt.o
 .rodata        0x00000000001171f0       0x98 binaries/doscan.o
 .rodata.str1.1
                0x0000000000117288       0x29 binaries/fdoprnt.o
 .rodata        0x0000000000117288       0x84 binaries/fdoprnt.o
 .rodata        0x000000000011730c       0x20 binaries/ttycontrol.o
 .rodata.str1.4
                0x000000000011732c       0x4c binaries/naminit.o
 .rodata.str1.1
                0x0000000000117378       0x32 binaries/naminit.o
                                         0x35 (size before relaxing)
 .rodata.str1.1
                0x00000000001173aa       0x15 binaries/ethinit.o
 *fill*         0x00000000001173bf        0x1 
 .rodata.str1.4
                0x00000000001173c0       0x2e binaries/ethinit.o
 *fill*         0x00000000001173ee        0x2 
 .rodata.str1.4
                0x00000000001173f0       0x2c binaries/rdsbufalloc.o
 .rodata.str1.4
                0x000000000011741c       0x76 binaries/rdscomm.o
 *fill*         0x0000000000117492        0x2 
 .rodata.str1.4
                0x0000000000117494       0x48 binaries/rdscontrol.o
 .rodata.str1.4
                0x00000000001174dc       0x7e binaries/rdsinit.o
 .rodata.str1.1
                0x000000000011755a       0x18 binaries/rdsinit.o
 *fill*         0x0000000000117572        0x2 
 .rodata.str1.4
                0x0000000000117574       0x22 binaries/rdsopen.o
 *fill*         0x0000000000117596        0x2 
 .rodata.str1.4
                0x0000000000117598       0x4d binaries/rdsprocess.o
 .rodata.str1.1
                0x00000000001175e5        0x9 binaries/raminit.o
 .rodata.str1.1
                0x00000000001175ee       0x13 binaries/lfdballoc.o
 *fill*         0x0000000000117601        0x3 
 .rodata.str1.4
                0x0000000000117604       0x23 binaries/lfdballoc.o
 .rodata.str1.1
                0x0000000000117627       0x14 binaries/lfiballoc.o
 *fill*         0x000000000011763b        0x1 
 .rodata.str1.4
                0x000000000011763c       0x23 binaries/lflcontrol.o
 .rodata.str1.1
                0x000000000011765f       0x64 binaries/lfsckfmt.o
 *fill*         0x00000000001176c3        0x1 
 .rodata.str1.4
                0x00000000001176c4       0x51 binaries/lfsckfmt.o
 *fill*         0x0000000000117715        0x3 
 .rodata.str1.4
                0x0000000000117718       0x21 binaries/rflread.o
 .rodata.str1.4
                0x0000000000117739       0x21 binaries/rflwrite.o
 *fill*         0x0000000000117739        0x3 
 .rodata.str1.4
                0x000000000011773c       0x75 binaries/rfscomm.o
 *fill*         0x00000000001177b1        0x3 
 .rodata.str1.4
                0x00000000001177b4       0x23 binaries/rfscontrol.o
 *fill*         0x00000000001177d7        0x1 
 .rodata        0x00000000001177d8       0x18 binaries/rfscontrol.o
 .rodata.str1.1
                0x00000000001177f0       0x10 binaries/rfsinit.o
 .rodata.str1.4
                0x00000000001177f0       0x57 binaries/rfsinit.o
 *fill*         0x0000000000117847        0x1 
 .rodata.str1.4
                0x0000000000117848       0x2a binaries/rfsndmsg.o
 .rodata.str1.4
                0x0000000000117872       0x22 binaries/rfsopen.o
 .rodata.str1.1
                0x0000000000117872       0x19 binaries/arp.o
 *fill*         0x000000000011788b        0x1 
 .rodata.str1.4
                0x000000000011788c       0x21 binaries/arp.o
 *fill*         0x00000000001178ad        0x3 
 .rodata.str1.4
                0x00000000001178b0       0xa6 binaries/dhcp.o
 .rodata.str1.1
                0x0000000000117956       0x4a binaries/dhcp.o
 .rodata.str1.1
                0x00000000001179a0       0x5a binaries/hexdump.o
                                         0x61 (size before relaxing)
 *fill*         0x00000000001179fa        0x2 
 .rodata.str1.4
                0x00000000001179fc       0x67 binaries/hexdump.o
 *fill*         0x0000000000117a63        0x1 
 .rodata.str1.4
                0x0000000000117a64       0x29 binaries/icmp.o
 .rodata.str1.1
                0x0000000000117a8d       0x4e binaries/ip.o
 *fill*         0x0000000000117adb        0x1 
 .rodata.str1.4
                0x0000000000117adc       0x20 binaries/ip.o
 .rodata.str1.4
                0x0000000000117afc       0x28 binaries/net.o
 .rodata.str1.1
                0x0000000000117b24       0x27 binaries/net.o
 *fill*         0x0000000000117b4b        0x1 
 .rodata.str1.4
                0x0000000000117b4c       0xcf binaries/netstart.o
 .rodata.str1.1
                0x0000000000117c1b      0x141 binaries/pdump.o
                                        0x14b (size before relaxing)
 .rodata.str1.4
                0x0000000000117d5c      0x126 binaries/pdump.o
 *fill*         0x0000000000117e82        0x2 
 .rodata.str1.4
                0x0000000000117e84      0x148 binaries/tftp.o
 .rodata.str1.1
                0x0000000000117fcc        0x6 binaries/tftp.o
                                          0xa (size before relaxing)
 .rodata.str1.1
                0x0000000000117fd2       0xdd binaries/shell.o
                                         0xff (size before relaxing)
 *fill*         0x00000000001180af        0x1 
 .rodata.str1.4
                0x00000000001180b0      0x1e8 binaries/shell.o
 *fill*         0x0000000000118298        0x8 
 .rodata        0x00000000001182a0       0xfc binaries/shell.o
                0x00000000001182a0                cmdtab
 .rodata.str1.1
                0x000000000011839c       0x26 binaries/xsh_argecho.o
                                         0x28 (size before relaxing)
 .rodata.str1.1
                0x00000000001183c2       0x70 binaries/xsh_arp.o
                                         0x72 (size before relaxing)
 *fill*         0x0000000000118432        0x2 
 .rodata.str1.4
                0x0000000000118434       0xb4 binaries/xsh_arp.o
 .rodata.str1.1
                0x00000000001184e8       0x2d binaries/xsh_cat.o
                                         0x4f (size before relaxing)
 *fill*         0x0000000000118515        0x3 
 .rodata.str1.4
                0x0000000000118518       0x52 binaries/xsh_cat.o
                                         0x79 (size before relaxing)
 .rodata.str1.1
                0x000000000011856a       0x15 binaries/xsh_clear.o
 .rodata.str1.1
                0x000000000011857f       0x46 binaries/xsh_date.o
                                         0x5f (size before relaxing)
 *fill*         0x00000000001185c5        0x3 
 .rodata.str1.4
                0x00000000001185c8      0x163 binaries/xsh_date.o
 .rodata.str1.1
                0x000000000011872b       0x5d binaries/xsh_devdump.o
 .rodata.str1.1
                0x0000000000118788        0x4 binaries/xsh_echo.o
                                          0x9 (size before relaxing)
 .rodata.str1.1
                0x000000000011878c       0x65 binaries/xsh_help.o
                                         0xa3 (size before relaxing)
 *fill*         0x00000000001187f1        0x3 
 .rodata.str1.4
                0x00000000001187f4       0x7c binaries/xsh_help.o
                                         0xc6 (size before relaxing)
 .rodata.str1.1
                0x0000000000118870       0x9c binaries/xsh_ipaddr.o
                                         0xf8 (size before relaxing)
 .rodata.str1.4
                0x000000000011890c       0x4d binaries/xsh_ipaddr.o
                                         0x99 (size before relaxing)
 .rodata.str1.1
                0x0000000000118959       0x78 binaries/xsh_kill.o
                                         0x97 (size before relaxing)
 *fill*         0x00000000001189d1        0x3 
 .rodata.str1.4
                0x00000000001189d4       0x4a binaries/xsh_kill.o
                                         0x96 (size before relaxing)
 .rodata.str1.1
                0x0000000000118a1e       0x84 binaries/xsh_memdump.o
                                         0xa8 (size before relaxing)
 *fill*         0x0000000000118aa2        0x2 
 .rodata.str1.4
                0x0000000000118aa4      0x15a binaries/xsh_memdump.o
                                        0x1aa (size before relaxing)
 .rodata.str1.1
                0x0000000000118bfe       0x40 binaries/xsh_memstat.o
                                         0x79 (size before relaxing)
 *fill*         0x0000000000118c3e        0x2 
 .rodata.str1.4
                0x0000000000118c40      0x187 binaries/xsh_memstat.o
                                        0x1af (size before relaxing)
 .rodata.str1.1
                0x0000000000118dc7       0x90 binaries/xsh_ping.o
                                         0xaf (size before relaxing)
 *fill*         0x0000000000118e57        0x1 
 .rodata.str1.4
                0x0000000000118e58       0x77 binaries/xsh_ping.o
                                         0xc6 (size before relaxing)
 .rodata.str1.1
                0x0000000000118ecf        0x9 binaries/xsh_ps.o
                                         0xde (size before relaxing)
 .rodata.str1.4
                0x0000000000118ed8       0x88 binaries/xsh_ps.o
                                         0xd8 (size before relaxing)
 .rodata        0x0000000000118f60       0x20 binaries/xsh_ps.o
 .rodata.str1.1
                0x0000000000118f80       0x31 binaries/xsh_sleep.o
                                         0x72 (size before relaxing)
 *fill*         0x0000000000118fb1        0x3 
 .rodata.str1.4
                0x0000000000118fb4       0x2a binaries/xsh_sleep.o
                                         0x7a (size before relaxing)
 .rodata.str1.1
                0x0000000000118fde       0x6b binaries/xsh_udpdump.o
                                         0xd2 (size before relaxing)
 *fill*         0x0000000000119049        0x3 
 .rodata.str1.4
                0x000000000011904c       0x94 binaries/xsh_udpdump.o
                                         0xe4 (size before relaxing)
 .rodata.str1.1
                0x00000000001190e0       0xdb binaries/xsh_udpecho.o
                                         0xfa (size before relaxing)
 *fill*         0x00000000001191bb        0x1 
 .rodata.str1.4
                0x00000000001191bc       0xc7 binaries/xsh_udpecho.o
                                        0x116 (size before relaxing)
 .rodata.str1.1
                0x0000000000119283       0x66 binaries/xsh_udpeserver.o
                                         0x8f (size before relaxing)
 *fill*         0x00000000001192e9        0x3 
 .rodata.str1.4
                0x00000000001192ec       0x29 binaries/xsh_udpeserver.o
                                         0x9f (size before relaxing)
 .rodata.str1.1
                0x0000000000119315       0x49 binaries/xsh_uptime.o
                                         0x8c (size before relaxing)
 *fill*         0x000000000011935e        0x2 
 .rodata.str1.4
                0x0000000000119360       0x28 binaries/xsh_uptime.o
                                         0x76 (size before relaxing)
                0x0000000000119388                etext = ABSOLUTE (.)
                0x000000000011a000                . = ALIGN (0x1000)
 *fill*         0x0000000000119388      0xc78 

.eh_frame       0x000000000011a000     0x3e00
 .eh_frame      0x000000000011a000       0x64 binaries/alarm.o
 .eh_frame      0x000000000011a064      0x148 binaries/alarmqueue.o
                                        0x160 (size before relaxing)
 .eh_frame      0x000000000011a1ac       0x28 binaries/alarmwakeup.o
                                         0x40 (size before relaxing)
 .eh_frame      0x000000000011a1d4       0x24 binaries/app1.o
                                         0x3c (size before relaxing)
 .eh_frame      0x000000000011a1f8       0x28 binaries/app2.o
                                         0x40 (size before relaxing)
 .eh_frame      0x000000000011a220       0x24 binaries/app3.o
                                         0x3c (size before relaxing)
 .eh_frame      0x000000000011a244       0x30 binaries/ascdate.o
                                         0x48 (size before relaxing)
 .eh_frame      0x000000000011a274       0x20 binaries/bufinit.o
                                         0x38 (size before relaxing)
 .eh_frame      0x000000000011a294       0x2c binaries/chprio.o
                                         0x44 (size before relaxing)
 .eh_frame      0x000000000011a2c0       0x24 binaries/clkhandler.o
                                         0x3c (size before relaxing)
 .eh_frame      0x000000000011a2e4       0x20 binaries/clkinit.o
                                         0x38 (size before relaxing)
 .eh_frame      0x000000000011a304       0x28 binaries/close.o
                                         0x40 (size before relaxing)
 .eh_frame      0x000000000011a32c       0x28 binaries/control.o
                                         0x40 (size before relaxing)
 .eh_frame      0x000000000011a354       0x30 binaries/cpubound.o
                                         0x48 (size before relaxing)
 .eh_frame      0x000000000011a384       0x30 binaries/create.o
                                         0x48 (size before relaxing)
 .eh_frame      0x000000000011a3b4       0x94 binaries/early_imr.o
                                         0xac (size before relaxing)
 .eh_frame      0x000000000011a448       0x94 binaries/evec.o
                                         0xac (size before relaxing)
 .eh_frame      0x000000000011a4dc       0x24 binaries/factorial.o
                                         0x3c (size before relaxing)
 .eh_frame      0x000000000011a500       0x2c binaries/freebuf.o
                                         0x44 (size before relaxing)
 .eh_frame      0x000000000011a52c       0x2c binaries/freemem.o
                                         0x44 (size before relaxing)
 .eh_frame      0x000000000011a558       0x2c binaries/getbuf.o
                                         0x44 (size before relaxing)
 .eh_frame      0x000000000011a584       0x28 binaries/getc.o
                                         0x40 (size before relaxing)
 .eh_frame      0x000000000011a5ac       0x2c binaries/getdev.o
                                         0x44 (size before relaxing)
 .eh_frame      0x000000000011a5d8       0xc8 binaries/getitem.o
                                         0xe0 (size before relaxing)
 .eh_frame      0x000000000011a6a0       0x28 binaries/getmem.o
                                         0x40 (size before relaxing)
 .eh_frame      0x000000000011a6c8       0x20 binaries/getpid.o
                                         0x38 (size before relaxing)
 .eh_frame      0x000000000011a6e8       0x20 binaries/getpname.o
                                         0x38 (size before relaxing)
 .eh_frame      0x000000000011a708       0x20 binaries/getppid.o
                                         0x38 (size before relaxing)
 .eh_frame      0x000000000011a728       0x24 binaries/getprio.o
                                         0x3c (size before relaxing)
 .eh_frame      0x000000000011a74c       0x2c binaries/getstk.o
                                         0x44 (size before relaxing)
 .eh_frame      0x000000000011a778       0x20 binaries/gettime.o
                                         0x38 (size before relaxing)
 .eh_frame      0x000000000011a798       0x24 binaries/getutime.o
                                         0x3c (size before relaxing)
 .eh_frame      0x000000000011a7bc       0x20 binaries/host2netlb.o
                                         0x38 (size before relaxing)
 .eh_frame      0x000000000011a7dc       0x28 binaries/init.o
                                         0x40 (size before relaxing)
 .eh_frame      0x000000000011a804       0x68 binaries/initialize.o
                                         0x80 (size before relaxing)
 .eh_frame      0x000000000011a86c       0x28 binaries/insert.o
                                         0x40 (size before relaxing)
 .eh_frame      0x000000000011a894       0x2c binaries/insertd.o
                                         0x44 (size before relaxing)
 .eh_frame      0x000000000011a8c0       0x2c binaries/iobound.o
                                         0x44 (size before relaxing)
 .eh_frame      0x000000000011a8ec       0x20 binaries/ioerr.o
                                         0x38 (size before relaxing)
 .eh_frame      0x000000000011a90c       0x20 binaries/ionull.o
                                         0x38 (size before relaxing)
 .eh_frame      0x000000000011a92c       0x30 binaries/kill.o
                                         0x48 (size before relaxing)
 .eh_frame      0x000000000011a95c       0x80 binaries/kprintf.o
                                         0x98 (size before relaxing)
 .eh_frame      0x000000000011a9dc      0x108 binaries/lab2q3.o
                                        0x120 (size before relaxing)
 .eh_frame      0x000000000011aae4      0x114 binaries/lab2q4.o
                                        0x12c (size before relaxing)
 .eh_frame      0x000000000011abf8       0x30 binaries/lab2q5.o
                                         0x48 (size before relaxing)
 .eh_frame      0x000000000011ac28       0x90 binaries/lab3q3.o
                                         0xa8 (size before relaxing)
 .eh_frame      0x000000000011acb8      0x110 binaries/lab3q4.o
                                        0x128 (size before relaxing)
 .eh_frame      0x000000000011adc8      0x148 binaries/lab4q2.o
                                        0x160 (size before relaxing)
 .eh_frame      0x000000000011af10      0x15c binaries/lab4q3.o
                                        0x174 (size before relaxing)
 .eh_frame      0x000000000011b06c       0x24 binaries/main.o
                                         0x3c (size before relaxing)
 .eh_frame      0x000000000011b090       0x44 binaries/mark.o
                                         0x5c (size before relaxing)
 .eh_frame      0x000000000011b0d4       0x50 binaries/meminit.o
                                         0x68 (size before relaxing)
 .eh_frame      0x000000000011b124       0x30 binaries/mkbufpool.o
                                         0x48 (size before relaxing)
 .eh_frame      0x000000000011b154       0x44 binaries/multilevelfbq.o
                                         0x5c (size before relaxing)
 .eh_frame      0x000000000011b198       0x2c binaries/myappA.o
                                         0x44 (size before relaxing)
 .eh_frame      0x000000000011b1c4       0x20 binaries/myfuncA.o
                                         0x38 (size before relaxing)
 .eh_frame      0x000000000011b1e4       0x64 binaries/myhacker.o
                                         0x7c (size before relaxing)
 .eh_frame      0x000000000011b248       0x74 binaries/myqueue.o
                                         0x8c (size before relaxing)
 .eh_frame      0x000000000011b2bc       0x60 binaries/myvictim.o
                                         0x78 (size before relaxing)
 .eh_frame      0x000000000011b31c       0x20 binaries/mywelcomemsg.o
                                         0x38 (size before relaxing)
 .eh_frame      0x000000000011b33c       0x40 binaries/newqueue.o
                                         0x58 (size before relaxing)
 .eh_frame      0x000000000011b37c       0x28 binaries/open.o
                                         0x40 (size before relaxing)
 .eh_frame      0x000000000011b3a4       0x1c binaries/panic.o
                                         0x34 (size before relaxing)
 .eh_frame      0x000000000011b3c0      0x12c binaries/pci.o
                                        0x144 (size before relaxing)
 .eh_frame      0x000000000011b4ec       0x20 binaries/platinit.o
                                         0x38 (size before relaxing)
 .eh_frame      0x000000000011b50c       0x20 binaries/printsegaddr.o
                                         0x38 (size before relaxing)
 .eh_frame      0x000000000011b52c       0x30 binaries/process_state.o
                                         0x48 (size before relaxing)
 .eh_frame      0x000000000011b55c       0x2c binaries/ptclear.o
                                         0x44 (size before relaxing)
 .eh_frame      0x000000000011b588       0x2c binaries/ptcount.o
                                         0x44 (size before relaxing)
 .eh_frame      0x000000000011b5b4       0x2c binaries/ptcreate.o
                                         0x44 (size before relaxing)
 .eh_frame      0x000000000011b5e0       0x28 binaries/ptdelete.o
                                         0x40 (size before relaxing)
 .eh_frame      0x000000000011b608       0x28 binaries/ptinit.o
                                         0x40 (size before relaxing)
 .eh_frame      0x000000000011b630       0x2c binaries/ptrecv.o
                                         0x44 (size before relaxing)
 .eh_frame      0x000000000011b65c       0x28 binaries/ptreset.o
                                         0x40 (size before relaxing)
 .eh_frame      0x000000000011b684       0x30 binaries/ptsend.o
                                         0x48 (size before relaxing)
 .eh_frame      0x000000000011b6b4       0x2c binaries/putc.o
                                         0x44 (size before relaxing)
 .eh_frame      0x000000000011b6e0       0x24 binaries/quark_irq.o
                                         0x3c (size before relaxing)
 .eh_frame      0x000000000011b704       0x54 binaries/quark_pdat.o
                                         0x6c (size before relaxing)
 .eh_frame      0x000000000011b758       0x74 binaries/queue.o
                                         0x8c (size before relaxing)
 .eh_frame      0x000000000011b7cc       0x28 binaries/read.o
                                         0x40 (size before relaxing)
 .eh_frame      0x000000000011b7f4       0x20 binaries/ready.o
                                         0x38 (size before relaxing)
 .eh_frame      0x000000000011b814       0x2c binaries/receive.o
                                         0x44 (size before relaxing)
 .eh_frame      0x000000000011b840       0x2c binaries/receivebt.o
                                         0x44 (size before relaxing)
 .eh_frame      0x000000000011b86c       0x28 binaries/recvclr.o
                                         0x40 (size before relaxing)
 .eh_frame      0x000000000011b894       0x2c binaries/recvtime.o
                                         0x44 (size before relaxing)
 .eh_frame      0x000000000011b8c0       0x24 binaries/registercb.o
                                         0x3c (size before relaxing)
 .eh_frame      0x000000000011b8e4       0x30 binaries/registercbsig.o
                                         0x48 (size before relaxing)
 .eh_frame      0x000000000011b914      0x12c binaries/resched.o
                                        0x144 (size before relaxing)
 .eh_frame      0x000000000011ba40       0x2c binaries/resume.o
                                         0x44 (size before relaxing)
 .eh_frame      0x000000000011ba6c       0x28 binaries/seek.o
                                         0x40 (size before relaxing)
 .eh_frame      0x000000000011ba94       0x24 binaries/semcount.o
                                         0x3c (size before relaxing)
 .eh_frame      0x000000000011bab8       0x2c binaries/semcreate.o
                                         0x44 (size before relaxing)
 .eh_frame      0x000000000011bae4       0x2c binaries/semdelete.o
                                         0x44 (size before relaxing)
 .eh_frame      0x000000000011bb10       0x2c binaries/semreset.o
                                         0x44 (size before relaxing)
 .eh_frame      0x000000000011bb3c       0x2c binaries/send.o
                                         0x44 (size before relaxing)
 .eh_frame      0x000000000011bb68       0x30 binaries/sendbt.o
                                         0x48 (size before relaxing)
 .eh_frame      0x000000000011bb98       0x28 binaries/signal.o
                                         0x40 (size before relaxing)
 .eh_frame      0x000000000011bbc0       0x2c binaries/signaln.o
                                         0x44 (size before relaxing)
 .eh_frame      0x000000000011bbec       0x48 binaries/sleep.o
                                         0x60 (size before relaxing)
 .eh_frame      0x000000000011bc34       0x2c binaries/stackdepth.o
                                         0x44 (size before relaxing)
 .eh_frame      0x000000000011bc60       0x30 binaries/stacktrace.o
                                         0x48 (size before relaxing)
 .eh_frame      0x000000000011bc90       0x28 binaries/suspend.o
                                         0x40 (size before relaxing)
 .eh_frame      0x000000000011bcb8       0x20 binaries/teststackdepth.o
                                         0x38 (size before relaxing)
 .eh_frame      0x000000000011bcd8       0x28 binaries/unsleep.o
                                         0x40 (size before relaxing)
 .eh_frame      0x000000000011bd00       0x20 binaries/userret.o
                                         0x38 (size before relaxing)
 .eh_frame      0x000000000011bd20       0x28 binaries/wait.o
                                         0x40 (size before relaxing)
 .eh_frame      0x000000000011bd48       0x20 binaries/wakeup.o
                                         0x38 (size before relaxing)
 .eh_frame      0x000000000011bd68       0x28 binaries/write.o
                                         0x40 (size before relaxing)
 .eh_frame      0x000000000011bd90       0x20 binaries/xdone.o
                                         0x38 (size before relaxing)
 .eh_frame      0x000000000011bdb0       0x24 binaries/yield.o
                                         0x3c (size before relaxing)
 .eh_frame      0x000000000011bdd4       0x20 binaries/abs.o
                                         0x38 (size before relaxing)
 .eh_frame      0x000000000011bdf4       0x28 binaries/atoi.o
                                         0x40 (size before relaxing)
 .eh_frame      0x000000000011be1c       0x28 binaries/atol.o
                                         0x40 (size before relaxing)
 .eh_frame      0x000000000011be44       0x20 binaries/bzero.o
                                         0x38 (size before relaxing)
 .eh_frame      0x000000000011be64       0xac binaries/doprnt.o
                                         0xc4 (size before relaxing)
 .eh_frame      0x000000000011bf10       0x30 binaries/doscan.o
                                         0x48 (size before relaxing)
 .eh_frame      0x000000000011bf40       0x5c binaries/fdoprnt.o
                                         0x74 (size before relaxing)
 .eh_frame      0x000000000011bf9c       0x20 binaries/fgetc.o
                                         0x38 (size before relaxing)
 .eh_frame      0x000000000011bfbc       0x2c binaries/fgets.o
                                         0x44 (size before relaxing)
 .eh_frame      0x000000000011bfe8       0x20 binaries/fprintf.o
                                         0x38 (size before relaxing)
 .eh_frame      0x000000000011c008       0x20 binaries/fputc.o
                                         0x38 (size before relaxing)
 .eh_frame      0x000000000011c028       0x28 binaries/fputs.o
                                         0x40 (size before relaxing)
 .eh_frame      0x000000000011c050       0x64 binaries/fscanf.o
                                         0x7c (size before relaxing)
 .eh_frame      0x000000000011c0b4       0x20 binaries/getchar.o
                                         0x38 (size before relaxing)
 .eh_frame      0x000000000011c0d4       0x20 binaries/labs.o
                                         0x38 (size before relaxing)
 .eh_frame      0x000000000011c0f4       0x20 binaries/memchr.o
                                         0x38 (size before relaxing)
 .eh_frame      0x000000000011c114       0x28 binaries/memcmp.o
                                         0x40 (size before relaxing)
 .eh_frame      0x000000000011c13c       0x28 binaries/memcpy.o
                                         0x40 (size before relaxing)
 .eh_frame      0x000000000011c164       0x24 binaries/memset.o
                                         0x3c (size before relaxing)
 .eh_frame      0x000000000011c188       0x20 binaries/printf.o
                                         0x38 (size before relaxing)
 .eh_frame      0x000000000011c1a8       0x20 binaries/putchar.o
                                         0x38 (size before relaxing)
 .eh_frame      0x000000000011c1c8       0xa4 binaries/qsort.o
                                         0xbc (size before relaxing)
 .eh_frame      0x000000000011c26c       0x40 binaries/rand.o
                                         0x58 (size before relaxing)
 .eh_frame      0x000000000011c2ac       0x48 binaries/sprintf.o
                                         0x60 (size before relaxing)
 .eh_frame      0x000000000011c2f4       0x60 binaries/sscanf.o
                                         0x78 (size before relaxing)
 .eh_frame      0x000000000011c354       0x24 binaries/strchr.o
                                         0x3c (size before relaxing)
 .eh_frame      0x000000000011c378       0x24 binaries/strcmp.o
                                         0x3c (size before relaxing)
 .eh_frame      0x000000000011c39c       0x20 binaries/strcpy.o
                                         0x38 (size before relaxing)
 .eh_frame      0x000000000011c3bc       0x20 binaries/strlen.o
                                         0x38 (size before relaxing)
 .eh_frame      0x000000000011c3dc       0x2c binaries/strncat.o
                                         0x44 (size before relaxing)
 .eh_frame      0x000000000011c408       0x24 binaries/strncmp.o
                                         0x3c (size before relaxing)
 .eh_frame      0x000000000011c42c       0x2c binaries/strncpy.o
                                         0x44 (size before relaxing)
 .eh_frame      0x000000000011c458       0x24 binaries/strnlen.o
                                         0x3c (size before relaxing)
 .eh_frame      0x000000000011c47c       0x24 binaries/strrchr.o
                                         0x3c (size before relaxing)
 .eh_frame      0x000000000011c4a0       0x2c binaries/strstr.o
                                         0x44 (size before relaxing)
 .eh_frame      0x000000000011c4cc       0x30 binaries/ttycontrol.o
                                         0x48 (size before relaxing)
 .eh_frame      0x000000000011c4fc       0x2c binaries/ttygetc.o
                                         0x44 (size before relaxing)
 .eh_frame      0x000000000011c528       0x84 binaries/ttyhandle_in.o
                                         0x9c (size before relaxing)
 .eh_frame      0x000000000011c5ac       0x30 binaries/ttyhandle_out.o
                                         0x48 (size before relaxing)
 .eh_frame      0x000000000011c5dc       0x28 binaries/ttyhandler.o
                                         0x40 (size before relaxing)
 .eh_frame      0x000000000011c604       0x30 binaries/ttyinit.o
                                         0x48 (size before relaxing)
 .eh_frame      0x000000000011c634       0x20 binaries/ttykickout.o
                                         0x38 (size before relaxing)
 .eh_frame      0x000000000011c654       0x2c binaries/ttyputc.o
                                         0x44 (size before relaxing)
 .eh_frame      0x000000000011c680       0x2c binaries/ttyread.o
                                         0x44 (size before relaxing)
 .eh_frame      0x000000000011c6ac       0x2c binaries/ttywrite.o
                                         0x44 (size before relaxing)
 .eh_frame      0x000000000011c6d8       0x4c binaries/mount.o
                                         0x64 (size before relaxing)
 .eh_frame      0x000000000011c724       0x30 binaries/naminit.o
                                         0x48 (size before relaxing)
 .eh_frame      0x000000000011c754       0x84 binaries/nammap.o
                                         0x9c (size before relaxing)
 .eh_frame      0x000000000011c7d8       0x20 binaries/namopen.o
                                         0x38 (size before relaxing)
 .eh_frame      0x000000000011c7f8       0x2c binaries/colon2mac.o
                                         0x44 (size before relaxing)
 .eh_frame      0x000000000011c824       0x20 binaries/ethcontrol.o
                                         0x38 (size before relaxing)
 .eh_frame      0x000000000011c844       0x30 binaries/ethhandler.o
                                         0x48 (size before relaxing)
 .eh_frame      0x000000000011c874       0x98 binaries/ethinit.o
                                         0xb0 (size before relaxing)
 .eh_frame      0x000000000011c90c       0x54 binaries/ethmcast.o
                                         0x6c (size before relaxing)
 .eh_frame      0x000000000011c960       0x30 binaries/ethread.o
                                         0x48 (size before relaxing)
 .eh_frame      0x000000000011c990       0x2c binaries/ethwrite.o
                                         0x44 (size before relaxing)
 .eh_frame      0x000000000011c9bc       0x24 binaries/rdsbufalloc.o
                                         0x3c (size before relaxing)
 .eh_frame      0x000000000011c9e0       0x2c binaries/rdsclose.o
                                         0x44 (size before relaxing)
 .eh_frame      0x000000000011ca0c       0x30 binaries/rdscomm.o
                                         0x48 (size before relaxing)
 .eh_frame      0x000000000011ca3c       0x30 binaries/rdscontrol.o
                                         0x48 (size before relaxing)
 .eh_frame      0x000000000011ca6c       0x30 binaries/rdsinit.o
                                         0x48 (size before relaxing)
 .eh_frame      0x000000000011ca9c       0x30 binaries/rdsopen.o
                                         0x48 (size before relaxing)
 .eh_frame      0x000000000011cacc       0x20 binaries/rdsprocess.o
                                         0x38 (size before relaxing)
 .eh_frame      0x000000000011caec       0x30 binaries/rdsread.o
                                         0x48 (size before relaxing)
 .eh_frame      0x000000000011cb1c       0x30 binaries/rdswrite.o
                                         0x48 (size before relaxing)
 .eh_frame      0x000000000011cb4c       0x20 binaries/ramclose.o
                                         0x38 (size before relaxing)
 .eh_frame      0x000000000011cb6c       0x20 binaries/raminit.o
                                         0x38 (size before relaxing)
 .eh_frame      0x000000000011cb8c       0x20 binaries/ramopen.o
                                         0x38 (size before relaxing)
 .eh_frame      0x000000000011cbac       0x20 binaries/ramread.o
                                         0x38 (size before relaxing)
 .eh_frame      0x000000000011cbcc       0x20 binaries/ramwrite.o
                                         0x38 (size before relaxing)
 .eh_frame      0x000000000011cbec       0x28 binaries/lfdballoc.o
                                         0x40 (size before relaxing)
 .eh_frame      0x000000000011cc14       0x24 binaries/lfdbfree.o
                                         0x3c (size before relaxing)
 .eh_frame      0x000000000011cc38       0x24 binaries/lfflush.o
                                         0x3c (size before relaxing)
 .eh_frame      0x000000000011cc5c       0x20 binaries/lfgetmode.o
                                         0x38 (size before relaxing)
 .eh_frame      0x000000000011cc7c       0x24 binaries/lfiballoc.o
                                         0x3c (size before relaxing)
 .eh_frame      0x000000000011cca0       0x20 binaries/lfibclear.o
                                         0x38 (size before relaxing)
 .eh_frame      0x000000000011ccc0       0x2c binaries/lfibget.o
                                         0x44 (size before relaxing)
 .eh_frame      0x000000000011ccec       0x2c binaries/lfibput.o
                                         0x44 (size before relaxing)
 .eh_frame      0x000000000011cd18       0x28 binaries/lflclose.o
                                         0x40 (size before relaxing)
 .eh_frame      0x000000000011cd40       0x2c binaries/lflcontrol.o
                                         0x44 (size before relaxing)
 .eh_frame      0x000000000011cd6c       0x2c binaries/lflgetc.o
                                         0x44 (size before relaxing)
 .eh_frame      0x000000000011cd98       0x2c binaries/lflinit.o
                                         0x44 (size before relaxing)
 .eh_frame      0x000000000011cdc4       0x30 binaries/lflputc.o
                                         0x48 (size before relaxing)
 .eh_frame      0x000000000011cdf4       0x2c binaries/lflread.o
                                         0x44 (size before relaxing)
 .eh_frame      0x000000000011ce20       0x2c binaries/lflseek.o
                                         0x44 (size before relaxing)
 .eh_frame      0x000000000011ce4c       0x2c binaries/lflwrite.o
                                         0x44 (size before relaxing)
 .eh_frame      0x000000000011ce78       0x30 binaries/lfsckfmt.o
                                         0x48 (size before relaxing)
 .eh_frame      0x000000000011cea8       0x30 binaries/lfscreate.o
                                         0x48 (size before relaxing)
 .eh_frame      0x000000000011ced8       0x30 binaries/lfsetup.o
                                         0x48 (size before relaxing)
 .eh_frame      0x000000000011cf08       0x20 binaries/lfsinit.o
                                         0x38 (size before relaxing)
 .eh_frame      0x000000000011cf28       0x30 binaries/lfsopen.o
                                         0x48 (size before relaxing)
 .eh_frame      0x000000000011cf58       0x30 binaries/lftruncate.o
                                         0x48 (size before relaxing)
 .eh_frame      0x000000000011cf88       0x20 binaries/rflclose.o
                                         0x38 (size before relaxing)
 .eh_frame      0x000000000011cfa8       0x20 binaries/rflgetc.o
                                         0x38 (size before relaxing)
 .eh_frame      0x000000000011cfc8       0x24 binaries/rflinit.o
                                         0x3c (size before relaxing)
 .eh_frame      0x000000000011cfec       0x20 binaries/rflputc.o
                                         0x38 (size before relaxing)
 .eh_frame      0x000000000011d00c       0x30 binaries/rflread.o
                                         0x48 (size before relaxing)
 .eh_frame      0x000000000011d03c       0x20 binaries/rflseek.o
                                         0x38 (size before relaxing)
 .eh_frame      0x000000000011d05c       0x30 binaries/rflwrite.o
                                         0x48 (size before relaxing)
 .eh_frame      0x000000000011d08c       0x30 binaries/rfscomm.o
                                         0x48 (size before relaxing)
 .eh_frame      0x000000000011d0bc       0x2c binaries/rfscontrol.o
                                         0x44 (size before relaxing)
 .eh_frame      0x000000000011d0e8       0x20 binaries/rfsgetmode.o
                                         0x38 (size before relaxing)
 .eh_frame      0x000000000011d108       0x20 binaries/rfsinit.o
                                         0x38 (size before relaxing)
 .eh_frame      0x000000000011d128       0x20 binaries/rfsndmsg.o
                                         0x38 (size before relaxing)
 .eh_frame      0x000000000011d148       0x2c binaries/rfsopen.o
                                         0x44 (size before relaxing)
 .eh_frame      0x000000000011d174       0xec binaries/arp.o
                                        0x104 (size before relaxing)
 .eh_frame      0x000000000011d260       0xd0 binaries/dhcp.o
                                         0xe8 (size before relaxing)
 .eh_frame      0x000000000011d330       0x2c binaries/dot2ip.o
                                         0x44 (size before relaxing)
 .eh_frame      0x000000000011d35c       0x60 binaries/hexdump.o
                                         0x78 (size before relaxing)
 .eh_frame      0x000000000011d3bc      0x198 binaries/icmp.o
                                        0x1b0 (size before relaxing)
 .eh_frame      0x000000000011d554      0x148 binaries/ip.o
                                        0x160 (size before relaxing)
 .eh_frame      0x000000000011d69c       0x7c binaries/net.o
                                         0x94 (size before relaxing)
 .eh_frame      0x000000000011d718       0x24 binaries/netstart.o
                                         0x3c (size before relaxing)
 .eh_frame      0x000000000011d73c       0x50 binaries/pdump.o
                                         0x68 (size before relaxing)
 .eh_frame      0x000000000011d78c       0x80 binaries/tftp.o
                                         0x98 (size before relaxing)
 .eh_frame      0x000000000011d80c      0x1b0 binaries/udp.o
                                        0x1c8 (size before relaxing)
 .eh_frame      0x000000000011d9bc       0x30 binaries/addargs.o
                                         0x48 (size before relaxing)
 .eh_frame      0x000000000011d9ec       0x30 binaries/lexan.o
                                         0x48 (size before relaxing)
 .eh_frame      0x000000000011da1c       0x30 binaries/shell.o
                                         0x48 (size before relaxing)
 .eh_frame      0x000000000011da4c       0x2c binaries/xsh_argecho.o
                                         0x44 (size before relaxing)
 .eh_frame      0x000000000011da78       0x30 binaries/xsh_arp.o
                                         0x48 (size before relaxing)
 .eh_frame      0x000000000011daa8       0x30 binaries/xsh_cat.o
                                         0x48 (size before relaxing)
 .eh_frame      0x000000000011dad8       0x20 binaries/xsh_clear.o
                                         0x38 (size before relaxing)
 .eh_frame      0x000000000011daf8       0x24 binaries/xsh_date.o
                                         0x3c (size before relaxing)
 .eh_frame      0x000000000011db1c       0x28 binaries/xsh_devdump.o
                                         0x40 (size before relaxing)
 .eh_frame      0x000000000011db44       0x2c binaries/xsh_echo.o
                                         0x44 (size before relaxing)
 .eh_frame      0x000000000011db70       0x20 binaries/xsh_exit.o
                                         0x38 (size before relaxing)
 .eh_frame      0x000000000011db90       0x30 binaries/xsh_help.o
                                         0x48 (size before relaxing)
 .eh_frame      0x000000000011dbc0       0x2c binaries/xsh_ipaddr.o
                                         0x44 (size before relaxing)
 .eh_frame      0x000000000011dbec       0x2c binaries/xsh_kill.o
                                         0x44 (size before relaxing)
 .eh_frame      0x000000000011dc18       0x58 binaries/xsh_memdump.o
                                         0x70 (size before relaxing)
 .eh_frame      0x000000000011dc70       0x30 binaries/xsh_memstat.o
                                         0x48 (size before relaxing)
 .eh_frame      0x000000000011dca0       0x30 binaries/xsh_ping.o
                                         0x48 (size before relaxing)
 .eh_frame      0x000000000011dcd0       0x30 binaries/xsh_ps.o
                                         0x48 (size before relaxing)
 .eh_frame      0x000000000011dd00       0x30 binaries/xsh_sleep.o
                                         0x48 (size before relaxing)
 .eh_frame      0x000000000011dd30       0x2c binaries/xsh_udpdump.o
                                         0x44 (size before relaxing)
 .eh_frame      0x000000000011dd5c       0x30 binaries/xsh_udpecho.o
                                         0x48 (size before relaxing)
 .eh_frame      0x000000000011dd8c       0x30 binaries/xsh_udpeserver.o
                                         0x48 (size before relaxing)
 .eh_frame      0x000000000011ddbc       0x30 binaries/xsh_uptime.o
                                         0x48 (size before relaxing)
 .eh_frame      0x000000000011ddec       0x14 binaries/host2netlc.o
                                         0x2c (size before relaxing)

.iplt           0x000000000011de00        0x0
 .iplt          0x000000000011de00        0x0 binaries/start.o

.rel.dyn        0x000000000011de00        0x0
 .rel.iplt      0x000000000011de00        0x0 binaries/start.o
 .rel.text      0x000000000011de00        0x0 binaries/start.o
 .rel.data      0x000000000011de00        0x0 binaries/start.o
 .rel.rodata    0x000000000011de00        0x0 binaries/start.o

.data           0x000000000011de00     0x1200
                0x000000000011de00                data = ABSOLUTE (.)
 *(.data .data.*)
 .data          0x000000000011de00      0x85a binaries/start.o
                0x000000000011de00                gdt
                0x000000000011de50                idt
                0x000000000011e656                cpudelay
 .data          0x000000000011e65a        0x0 binaries/alarm.o
 .data          0x000000000011e65a        0x2 binaries/alarmqueue.o
 .data          0x000000000011e65c        0x0 binaries/alarmwakeup.o
 .data          0x000000000011e65c        0x0 binaries/app1.o
 .data          0x000000000011e65c        0x0 binaries/app2.o
 .data          0x000000000011e65c        0x0 binaries/app3.o
 *fill*         0x000000000011e65c        0x4 
 .data          0x000000000011e660       0x88 binaries/ascdate.o
                0x000000000011e660                Date
 .data          0x000000000011e6e8        0x0 binaries/bufinit.o
 .data          0x000000000011e6e8        0x0 binaries/chprio.o
 .data          0x000000000011e6e8        0x4 binaries/clkhandler.o
 .data          0x000000000011e6ec        0x0 binaries/clkinit.o
 .data          0x000000000011e6ec        0x0 binaries/close.o
 *fill*         0x000000000011e6ec       0x14 
 .data          0x000000000011e700      0x30c binaries/conf.o
                0x000000000011e700                devtab
 .data          0x000000000011ea0c        0x0 binaries/control.o
 .data          0x000000000011ea0c        0x0 binaries/cpubound.o
 .data          0x000000000011ea0c        0x4 binaries/create.o
 .data          0x000000000011ea10        0x0 binaries/early_imr.o
 *fill*         0x000000000011ea10       0x10 
 .data          0x000000000011ea20       0x40 binaries/evec.o
                0x000000000011ea20                inames
 .data          0x000000000011ea60        0x0 binaries/factorial.o
 .data          0x000000000011ea60        0x0 binaries/freebuf.o
 .data          0x000000000011ea60        0x0 binaries/freemem.o
 .data          0x000000000011ea60        0x0 binaries/getbuf.o
 .data          0x000000000011ea60        0x0 binaries/getc.o
 .data          0x000000000011ea60        0x0 binaries/getdev.o
 .data          0x000000000011ea60        0x0 binaries/getitem.o
 .data          0x000000000011ea60        0x0 binaries/getmem.o
 .data          0x000000000011ea60        0x0 binaries/getpid.o
 .data          0x000000000011ea60        0x0 binaries/getpname.o
 .data          0x000000000011ea60        0x0 binaries/getppid.o
 .data          0x000000000011ea60        0x0 binaries/getprio.o
 .data          0x000000000011ea60        0x0 binaries/getstk.o
 .data          0x000000000011ea60        0x0 binaries/gettime.o
 .data          0x000000000011ea60        0x0 binaries/getutime.o
 .data          0x000000000011ea60        0x0 binaries/host2netlb.o
 .data          0x000000000011ea60        0x0 binaries/init.o
 .data          0x000000000011ea60        0x0 binaries/initialize.o
 .data          0x000000000011ea60        0x0 binaries/insert.o
 .data          0x000000000011ea60        0x0 binaries/insertd.o
 .data          0x000000000011ea60        0x0 binaries/iobound.o
 .data          0x000000000011ea60        0x0 binaries/ioerr.o
 .data          0x000000000011ea60        0x0 binaries/ionull.o
 .data          0x000000000011ea60        0x0 binaries/kill.o
 .data          0x000000000011ea60        0x0 binaries/kprintf.o
 .data          0x000000000011ea60        0x0 binaries/lab2q3.o
 .data          0x000000000011ea60        0x0 binaries/lab2q4.o
 .data          0x000000000011ea60        0x0 binaries/lab2q5.o
 .data          0x000000000011ea60        0x0 binaries/lab3q3.o
 .data          0x000000000011ea60        0x0 binaries/lab3q4.o
 .data          0x000000000011ea60        0x0 binaries/lab4q2.o
 .data          0x000000000011ea60        0x0 binaries/lab4q3.o
 .data          0x000000000011ea60        0x4 binaries/main.o
                0x000000000011ea60                lab
 .data          0x000000000011ea64        0x0 binaries/mark.o
 *fill*         0x000000000011ea64       0x1c 
 .data          0x000000000011ea80       0x48 binaries/meminit.o
                0x000000000011ea80                gdt_copy
                0x000000000011eac0                bootinfo
                0x000000000011eac4                bootsign
 .data          0x000000000011eac8        0x0 binaries/mkbufpool.o
 .data          0x000000000011eac8        0x0 binaries/multilevelfbq.o
 .data          0x000000000011eac8        0x0 binaries/myappA.o
 .data          0x000000000011eac8        0x0 binaries/myfuncA.o
 .data          0x000000000011eac8        0x0 binaries/myhacker.o
 .data          0x000000000011eac8        0x0 binaries/myqueue.o
 .data          0x000000000011eac8        0x0 binaries/myvictim.o
 .data          0x000000000011eac8        0x0 binaries/mywelcomemsg.o
 .data          0x000000000011eac8        0x4 binaries/newqueue.o
 .data          0x000000000011eacc        0x0 binaries/open.o
 .data          0x000000000011eacc        0x0 binaries/panic.o
 .data          0x000000000011eacc        0x0 binaries/pci.o
 .data          0x000000000011eacc        0x0 binaries/platinit.o
 .data          0x000000000011eacc        0x0 binaries/printsegaddr.o
 .data          0x000000000011eacc        0x0 binaries/process_state.o
 .data          0x000000000011eacc        0x0 binaries/ptclear.o
 .data          0x000000000011eacc        0x0 binaries/ptcount.o
 .data          0x000000000011eacc        0x0 binaries/ptcreate.o
 .data          0x000000000011eacc        0x0 binaries/ptdelete.o
 .data          0x000000000011eacc        0x0 binaries/ptinit.o
 .data          0x000000000011eacc        0x0 binaries/ptrecv.o
 .data          0x000000000011eacc        0x0 binaries/ptreset.o
 .data          0x000000000011eacc        0x0 binaries/ptsend.o
 .data          0x000000000011eacc        0x0 binaries/putc.o
 .data          0x000000000011eacc        0x0 binaries/quark_irq.o
 .data          0x000000000011eacc        0x0 binaries/quark_pdat.o
 .data          0x000000000011eacc        0x0 binaries/queue.o
 .data          0x000000000011eacc        0x0 binaries/read.o
 .data          0x000000000011eacc        0x0 binaries/ready.o
 .data          0x000000000011eacc        0x0 binaries/receive.o
 .data          0x000000000011eacc        0x0 binaries/receivebt.o
 .data          0x000000000011eacc        0x0 binaries/recvclr.o
 .data          0x000000000011eacc        0x0 binaries/recvtime.o
 .data          0x000000000011eacc        0x0 binaries/registercb.o
 .data          0x000000000011eacc        0x0 binaries/registercbsig.o
 .data          0x000000000011eacc        0x0 binaries/resched.o
 .data          0x000000000011eacc        0x0 binaries/resume.o
 .data          0x000000000011eacc        0x0 binaries/seek.o
 .data          0x000000000011eacc        0x0 binaries/semcount.o
 .data          0x000000000011eacc        0x0 binaries/semcreate.o
 .data          0x000000000011eacc        0x0 binaries/semdelete.o
 .data          0x000000000011eacc        0x0 binaries/semreset.o
 .data          0x000000000011eacc        0x0 binaries/send.o
 .data          0x000000000011eacc        0x0 binaries/sendbt.o
 .data          0x000000000011eacc        0x0 binaries/signal.o
 .data          0x000000000011eacc        0x0 binaries/signaln.o
 .data          0x000000000011eacc        0x0 binaries/sleep.o
 .data          0x000000000011eacc        0x0 binaries/stackdepth.o
 .data          0x000000000011eacc        0x0 binaries/stacktrace.o
 .data          0x000000000011eacc        0x0 binaries/suspend.o
 .data          0x000000000011eacc        0x0 binaries/teststackdepth.o
 *fill*         0x000000000011eacc       0x14 
 .data          0x000000000011eae0       0xf0 binaries/tsdtab.o
                0x000000000011eae0                tsdtab
 .data          0x000000000011ebd0        0x0 binaries/unsleep.o
 .data          0x000000000011ebd0        0x0 binaries/userret.o
 .data          0x000000000011ebd0        0x0 binaries/wait.o
 .data          0x000000000011ebd0        0x0 binaries/wakeup.o
 .data          0x000000000011ebd0        0x0 binaries/write.o
 .data          0x000000000011ebd0        0x0 binaries/xdone.o
 .data          0x000000000011ebd0        0x0 binaries/yield.o
 .data          0x000000000011ebd0        0x0 binaries/abs.o
 .data          0x000000000011ebd0        0x0 binaries/atoi.o
 .data          0x000000000011ebd0        0x0 binaries/atol.o
 .data          0x000000000011ebd0        0x0 binaries/bzero.o
 .data          0x000000000011ebd0        0x0 binaries/ctype_.o
 .data          0x000000000011ebd0        0x0 binaries/doprnt.o
 *fill*         0x000000000011ebd0       0x10 
 .data          0x000000000011ebe0       0x80 binaries/doscan.o
                0x000000000011ebe0                _sctab
 .data          0x000000000011ec60        0x0 binaries/fdoprnt.o
 .data          0x000000000011ec60        0x0 binaries/fgetc.o
 .data          0x000000000011ec60        0x0 binaries/fgets.o
 .data          0x000000000011ec60        0x0 binaries/fprintf.o
 .data          0x000000000011ec60        0x0 binaries/fputc.o
 .data          0x000000000011ec60        0x0 binaries/fputs.o
 .data          0x000000000011ec60        0x0 binaries/fscanf.o
 .data          0x000000000011ec60        0x0 binaries/getchar.o
 .data          0x000000000011ec60        0x0 binaries/labs.o
 .data          0x000000000011ec60        0x0 binaries/memchr.o
 .data          0x000000000011ec60        0x0 binaries/memcmp.o
 .data          0x000000000011ec60        0x0 binaries/memcpy.o
 .data          0x000000000011ec60        0x0 binaries/memset.o
 .data          0x000000000011ec60        0x0 binaries/printf.o
 .data          0x000000000011ec60        0x0 binaries/putchar.o
 .data          0x000000000011ec60        0x0 binaries/qsort.o
 .data          0x000000000011ec60        0x4 binaries/rand.o
 .data          0x000000000011ec64        0x0 binaries/sprintf.o
 .data          0x000000000011ec64        0x0 binaries/sscanf.o
 .data          0x000000000011ec64        0x0 binaries/strchr.o
 .data          0x000000000011ec64        0x0 binaries/strcmp.o
 .data          0x000000000011ec64        0x0 binaries/strcpy.o
 .data          0x000000000011ec64        0x0 binaries/strlen.o
 .data          0x000000000011ec64        0x0 binaries/strncat.o
 .data          0x000000000011ec64        0x0 binaries/strncmp.o
 .data          0x000000000011ec64        0x0 binaries/strncpy.o
 .data          0x000000000011ec64        0x0 binaries/strnlen.o
 .data          0x000000000011ec64        0x0 binaries/strrchr.o
 .data          0x000000000011ec64        0x0 binaries/strstr.o
 .data          0x000000000011ec64        0x0 binaries/ttycontrol.o
 .data          0x000000000011ec64        0x0 binaries/ttygetc.o
 .data          0x000000000011ec64        0x0 binaries/ttyhandle_in.o
 .data          0x000000000011ec64        0x0 binaries/ttyhandle_out.o
 .data          0x000000000011ec64        0x0 binaries/ttyhandler.o
 .data          0x000000000011ec64        0x0 binaries/ttyinit.o
 .data          0x000000000011ec64        0x0 binaries/ttykickout.o
 .data          0x000000000011ec64        0x0 binaries/ttyputc.o
 .data          0x000000000011ec64        0x0 binaries/ttyread.o
 .data          0x000000000011ec64        0x0 binaries/ttywrite.o
 .data          0x000000000011ec64        0x0 binaries/mount.o
 .data          0x000000000011ec64        0x0 binaries/naminit.o
 .data          0x000000000011ec64        0x0 binaries/nammap.o
 .data          0x000000000011ec64        0x0 binaries/namopen.o
 .data          0x000000000011ec64        0x0 binaries/colon2mac.o
 .data          0x000000000011ec64        0x0 binaries/ethcontrol.o
 .data          0x000000000011ec64        0x0 binaries/ethhandler.o
 .data          0x000000000011ec64        0x0 binaries/ethinit.o
 .data          0x000000000011ec64        0x0 binaries/ethmcast.o
 .data          0x000000000011ec64        0x0 binaries/ethread.o
 .data          0x000000000011ec64        0x0 binaries/ethwrite.o
 .data          0x000000000011ec64        0x0 binaries/rdsbufalloc.o
 .data          0x000000000011ec64        0x0 binaries/rdsclose.o
 .data          0x000000000011ec64        0x0 binaries/rdscomm.o
 .data          0x000000000011ec64        0x0 binaries/rdscontrol.o
 .data          0x000000000011ec64        0x0 binaries/rdsinit.o
 .data          0x000000000011ec64        0x0 binaries/rdsopen.o
 .data          0x000000000011ec64        0x0 binaries/rdsprocess.o
 .data          0x000000000011ec64        0x0 binaries/rdsread.o
 .data          0x000000000011ec64        0x0 binaries/rdswrite.o
 .data          0x000000000011ec64        0x0 binaries/ramclose.o
 .data          0x000000000011ec64        0x0 binaries/raminit.o
 .data          0x000000000011ec64        0x0 binaries/ramopen.o
 .data          0x000000000011ec64        0x0 binaries/ramread.o
 .data          0x000000000011ec64        0x0 binaries/ramwrite.o
 .data          0x000000000011ec64        0x0 binaries/lfdballoc.o
 .data          0x000000000011ec64        0x0 binaries/lfdbfree.o
 .data          0x000000000011ec64        0x0 binaries/lfflush.o
 .data          0x000000000011ec64        0x0 binaries/lfgetmode.o
 .data          0x000000000011ec64        0x0 binaries/lfiballoc.o
 .data          0x000000000011ec64        0x0 binaries/lfibclear.o
 .data          0x000000000011ec64        0x0 binaries/lfibget.o
 .data          0x000000000011ec64        0x0 binaries/lfibput.o
 .data          0x000000000011ec64        0x0 binaries/lflclose.o
 .data          0x000000000011ec64        0x0 binaries/lflcontrol.o
 .data          0x000000000011ec64        0x0 binaries/lflgetc.o
 .data          0x000000000011ec64        0x0 binaries/lflinit.o
 .data          0x000000000011ec64        0x0 binaries/lflputc.o
 .data          0x000000000011ec64        0x0 binaries/lflread.o
 .data          0x000000000011ec64        0x0 binaries/lflseek.o
 .data          0x000000000011ec64        0x0 binaries/lflwrite.o
 .data          0x000000000011ec64        0x0 binaries/lfsckfmt.o
 .data          0x000000000011ec64        0x0 binaries/lfscreate.o
 .data          0x000000000011ec64        0x0 binaries/lfsetup.o
 .data          0x000000000011ec64        0x0 binaries/lfsinit.o
 .data          0x000000000011ec64        0x0 binaries/lfsopen.o
 .data          0x000000000011ec64        0x0 binaries/lftruncate.o
 .data          0x000000000011ec64        0x0 binaries/rflclose.o
 .data          0x000000000011ec64        0x0 binaries/rflgetc.o
 .data          0x000000000011ec64        0x0 binaries/rflinit.o
 .data          0x000000000011ec64        0x0 binaries/rflputc.o
 .data          0x000000000011ec64        0x0 binaries/rflread.o
 .data          0x000000000011ec64        0x0 binaries/rflseek.o
 .data          0x000000000011ec64        0x0 binaries/rflwrite.o
 .data          0x000000000011ec64        0x0 binaries/rfscomm.o
 .data          0x000000000011ec64        0x0 binaries/rfscontrol.o
 .data          0x000000000011ec64        0x0 binaries/rfsgetmode.o
 .data          0x000000000011ec64        0x0 binaries/rfsinit.o
 .data          0x000000000011ec64        0x0 binaries/rfsndmsg.o
 .data          0x000000000011ec64        0x0 binaries/rfsopen.o
 .data          0x000000000011ec64        0x0 binaries/arp.o
 .data          0x000000000011ec64        0x0 binaries/dhcp.o
 .data          0x000000000011ec64        0x0 binaries/dot2ip.o
 .data          0x000000000011ec64        0x0 binaries/hexdump.o
 .data          0x000000000011ec64        0x4 binaries/icmp.o
 .data          0x000000000011ec68        0x0 binaries/ip.o
 .data          0x000000000011ec68        0x0 binaries/net.o
 .data          0x000000000011ec68        0x0 binaries/netstart.o
 .data          0x000000000011ec68        0x0 binaries/pdump.o
 .data          0x000000000011ec68        0x0 binaries/tftp.o
 .data          0x000000000011ec68        0x4 binaries/udp.o
 .data          0x000000000011ec6c        0x0 binaries/addargs.o
 .data          0x000000000011ec6c        0x0 binaries/lexan.o
 .data          0x000000000011ec6c        0x4 binaries/shell.o
                0x000000000011ec6c                ncmd
 .data          0x000000000011ec70        0x0 binaries/xsh_argecho.o
 .data          0x000000000011ec70        0x0 binaries/xsh_arp.o
 .data          0x000000000011ec70        0x0 binaries/xsh_cat.o
 .data          0x000000000011ec70        0x0 binaries/xsh_clear.o
 .data          0x000000000011ec70        0x0 binaries/xsh_date.o
 .data          0x000000000011ec70        0x0 binaries/xsh_devdump.o
 .data          0x000000000011ec70        0x0 binaries/xsh_echo.o
 .data          0x000000000011ec70        0x0 binaries/xsh_exit.o
 .data          0x000000000011ec70        0x0 binaries/xsh_help.o
 .data          0x000000000011ec70        0x0 binaries/xsh_ipaddr.o
 .data          0x000000000011ec70        0x0 binaries/xsh_kill.o
 .data          0x000000000011ec70        0x0 binaries/xsh_memdump.o
 .data          0x000000000011ec70        0x0 binaries/xsh_memstat.o
 .data          0x000000000011ec70        0x0 binaries/xsh_ping.o
 .data          0x000000000011ec70        0x0 binaries/xsh_ps.o
 .data          0x000000000011ec70        0x0 binaries/xsh_sleep.o
 .data          0x000000000011ec70        0x0 binaries/xsh_udpdump.o
 .data          0x000000000011ec70        0x0 binaries/xsh_udpecho.o
 .data          0x000000000011ec70        0x0 binaries/xsh_udpeserver.o
 .data          0x000000000011ec70        0x0 binaries/xsh_uptime.o
 .data          0x000000000011ec70        0x0 binaries/clkdisp.o
 .data          0x000000000011ec70        0x0 binaries/ctxsw.o
 .data          0x000000000011ec70        0x0 binaries/host2netla.o
 .data          0x000000000011ec70        0x0 binaries/host2netlc.o
 .data          0x000000000011ec70        0x0 binaries/intr.o
 .data          0x000000000011ec70        0x0 binaries/ttydispatch.o
 .data          0x000000000011ec70        0x0 binaries/ethdispatch.o
                0x000000000011ec70                edata = ABSOLUTE (.)
                0x000000000011f000                . = ALIGN (0x1000)
 *fill*         0x000000000011ec70      0x390 

.igot.plt       0x000000000011f000        0x0
 .igot.plt      0x000000000011f000        0x0 binaries/start.o

.bss            0x000000000011f000    0x22000
                0x000000000011f000                bss = ABSOLUTE (.)
 *(.bss .bss.*)
 .bss           0x000000000011f000        0x0 binaries/start.o
 .bss           0x000000000011f000        0x0 binaries/alarm.o
 .bss           0x000000000011f000        0x0 binaries/alarmqueue.o
 .bss           0x000000000011f000        0x0 binaries/alarmwakeup.o
 .bss           0x000000000011f000        0x0 binaries/app1.o
 .bss           0x000000000011f000        0x0 binaries/app2.o
 .bss           0x000000000011f000        0x0 binaries/app3.o
 .bss           0x000000000011f000        0x0 binaries/ascdate.o
 .bss           0x000000000011f000        0x0 binaries/bufinit.o
 .bss           0x000000000011f000        0x0 binaries/chprio.o
 .bss           0x000000000011f000        0x0 binaries/clkhandler.o
 .bss           0x000000000011f000        0x4 binaries/clkinit.o
                0x000000000011f000                ctr1000
 .bss           0x000000000011f004        0x0 binaries/close.o
 .bss           0x000000000011f004        0x0 binaries/conf.o
 .bss           0x000000000011f004        0x0 binaries/control.o
 .bss           0x000000000011f004        0x0 binaries/cpubound.o
 .bss           0x000000000011f004        0x0 binaries/create.o
 .bss           0x000000000011f004        0x0 binaries/early_imr.o
 .bss           0x000000000011f004        0x0 binaries/evec.o
 .bss           0x000000000011f004        0x0 binaries/factorial.o
 .bss           0x000000000011f004        0x0 binaries/freebuf.o
 .bss           0x000000000011f004        0x0 binaries/freemem.o
 .bss           0x000000000011f004        0x0 binaries/getbuf.o
 .bss           0x000000000011f004        0x0 binaries/getc.o
 .bss           0x000000000011f004        0x0 binaries/getdev.o
 .bss           0x000000000011f004        0x0 binaries/getitem.o
 .bss           0x000000000011f004        0x0 binaries/getmem.o
 .bss           0x000000000011f004        0x0 binaries/getpid.o
 .bss           0x000000000011f004        0x0 binaries/getpname.o
 .bss           0x000000000011f004        0x0 binaries/getppid.o
 .bss           0x000000000011f004        0x0 binaries/getprio.o
 .bss           0x000000000011f004        0x0 binaries/getstk.o
 .bss           0x000000000011f004        0x0 binaries/gettime.o
 .bss           0x000000000011f004        0x0 binaries/getutime.o
 .bss           0x000000000011f004        0x0 binaries/host2netlb.o
 .bss           0x000000000011f004        0x0 binaries/init.o
 .bss           0x000000000011f004        0x0 binaries/initialize.o
 .bss           0x000000000011f004        0x0 binaries/insert.o
 .bss           0x000000000011f004        0x0 binaries/insertd.o
 .bss           0x000000000011f004        0x0 binaries/iobound.o
 .bss           0x000000000011f004        0x0 binaries/ioerr.o
 .bss           0x000000000011f004        0x0 binaries/ionull.o
 .bss           0x000000000011f004        0x0 binaries/kill.o
 .bss           0x000000000011f004        0x0 binaries/kprintf.o
 .bss           0x000000000011f004        0x0 binaries/lab2q3.o
 .bss           0x000000000011f004        0x0 binaries/lab2q4.o
 .bss           0x000000000011f004        0x0 binaries/lab2q5.o
 .bss           0x000000000011f004        0x0 binaries/lab3q3.o
 .bss           0x000000000011f004        0x0 binaries/lab3q4.o
 .bss           0x000000000011f004        0x0 binaries/lab4q2.o
 .bss           0x000000000011f004        0x0 binaries/lab4q3.o
 .bss           0x000000000011f004        0x4 binaries/main.o
                0x000000000011f004                lab2flag
 .bss           0x000000000011f008        0x0 binaries/mark.o
 .bss           0x000000000011f008        0x0 binaries/meminit.o
 .bss           0x000000000011f008        0x0 binaries/mkbufpool.o
 .bss           0x000000000011f008        0x0 binaries/multilevelfbq.o
 .bss           0x000000000011f008        0x0 binaries/myappA.o
 .bss           0x000000000011f008        0x0 binaries/myfuncA.o
 .bss           0x000000000011f008        0x0 binaries/myhacker.o
 .bss           0x000000000011f008        0x0 binaries/myqueue.o
 .bss           0x000000000011f008        0x0 binaries/myvictim.o
 .bss           0x000000000011f008        0x0 binaries/mywelcomemsg.o
 .bss           0x000000000011f008        0x0 binaries/newqueue.o
 .bss           0x000000000011f008        0x0 binaries/open.o
 .bss           0x000000000011f008        0x0 binaries/panic.o
 .bss           0x000000000011f008        0x0 binaries/pci.o
 .bss           0x000000000011f008        0x0 binaries/platinit.o
 .bss           0x000000000011f008        0x0 binaries/printsegaddr.o
 .bss           0x000000000011f008        0x0 binaries/process_state.o
 .bss           0x000000000011f008        0x0 binaries/ptclear.o
 .bss           0x000000000011f008        0x0 binaries/ptcount.o
 .bss           0x000000000011f008        0x0 binaries/ptcreate.o
 .bss           0x000000000011f008        0x0 binaries/ptdelete.o
 .bss           0x000000000011f008        0x0 binaries/ptinit.o
 .bss           0x000000000011f008        0x0 binaries/ptrecv.o
 .bss           0x000000000011f008        0x0 binaries/ptreset.o
 .bss           0x000000000011f008        0x0 binaries/ptsend.o
 .bss           0x000000000011f008        0x0 binaries/putc.o
 .bss           0x000000000011f008        0x0 binaries/quark_irq.o
 .bss           0x000000000011f008        0x0 binaries/quark_pdat.o
 .bss           0x000000000011f008        0x0 binaries/queue.o
 .bss           0x000000000011f008        0x0 binaries/read.o
 .bss           0x000000000011f008        0x0 binaries/ready.o
 .bss           0x000000000011f008        0x0 binaries/receive.o
 .bss           0x000000000011f008        0x0 binaries/receivebt.o
 .bss           0x000000000011f008        0x0 binaries/recvclr.o
 .bss           0x000000000011f008        0x0 binaries/recvtime.o
 .bss           0x000000000011f008        0x0 binaries/registercb.o
 .bss           0x000000000011f008        0x0 binaries/registercbsig.o
 .bss           0x000000000011f008        0x0 binaries/resched.o
 .bss           0x000000000011f008        0x0 binaries/resume.o
 .bss           0x000000000011f008        0x0 binaries/seek.o
 .bss           0x000000000011f008        0x0 binaries/semcount.o
 .bss           0x000000000011f008        0x4 binaries/semcreate.o
 .bss           0x000000000011f00c        0x0 binaries/semdelete.o
 .bss           0x000000000011f00c        0x0 binaries/semreset.o
 .bss           0x000000000011f00c        0x0 binaries/send.o
 .bss           0x000000000011f00c        0x0 binaries/sendbt.o
 .bss           0x000000000011f00c        0x0 binaries/signal.o
 .bss           0x000000000011f00c        0x0 binaries/signaln.o
 .bss           0x000000000011f00c        0x0 binaries/sleep.o
 .bss           0x000000000011f00c        0x0 binaries/stackdepth.o
 .bss           0x000000000011f00c        0x8 binaries/stacktrace.o
 .bss           0x000000000011f014        0x0 binaries/suspend.o
 .bss           0x000000000011f014        0x0 binaries/teststackdepth.o
 .bss           0x000000000011f014        0x0 binaries/tsdtab.o
 .bss           0x000000000011f014        0x0 binaries/unsleep.o
 .bss           0x000000000011f014        0x0 binaries/userret.o
 .bss           0x000000000011f014        0x0 binaries/wait.o
 .bss           0x000000000011f014        0x0 binaries/wakeup.o
 .bss           0x000000000011f014        0x0 binaries/write.o
 .bss           0x000000000011f014        0x0 binaries/xdone.o
 .bss           0x000000000011f014        0x0 binaries/yield.o
 .bss           0x000000000011f014        0x0 binaries/abs.o
 .bss           0x000000000011f014        0x0 binaries/atoi.o
 .bss           0x000000000011f014        0x0 binaries/atol.o
 .bss           0x000000000011f014        0x0 binaries/bzero.o
 .bss           0x000000000011f014        0x0 binaries/ctype_.o
 .bss           0x000000000011f014        0x0 binaries/doprnt.o
 .bss           0x000000000011f014        0x0 binaries/doscan.o
 .bss           0x000000000011f014        0x0 binaries/fdoprnt.o
 .bss           0x000000000011f014        0x0 binaries/fgetc.o
 .bss           0x000000000011f014        0x0 binaries/fgets.o
 .bss           0x000000000011f014        0x0 binaries/fprintf.o
 .bss           0x000000000011f014        0x0 binaries/fputc.o
 .bss           0x000000000011f014        0x0 binaries/fputs.o
 .bss           0x000000000011f014        0x0 binaries/fscanf.o
 .bss           0x000000000011f014        0x0 binaries/getchar.o
 .bss           0x000000000011f014        0x0 binaries/labs.o
 .bss           0x000000000011f014        0x0 binaries/memchr.o
 .bss           0x000000000011f014        0x0 binaries/memcmp.o
 .bss           0x000000000011f014        0x0 binaries/memcpy.o
 .bss           0x000000000011f014        0x0 binaries/memset.o
 .bss           0x000000000011f014        0x0 binaries/printf.o
 .bss           0x000000000011f014        0x0 binaries/putchar.o
 .bss           0x000000000011f014        0x8 binaries/qsort.o
 .bss           0x000000000011f01c        0x0 binaries/rand.o
 .bss           0x000000000011f01c        0x0 binaries/sprintf.o
 .bss           0x000000000011f01c        0x0 binaries/sscanf.o
 .bss           0x000000000011f01c        0x0 binaries/strchr.o
 .bss           0x000000000011f01c        0x0 binaries/strcmp.o
 .bss           0x000000000011f01c        0x0 binaries/strcpy.o
 .bss           0x000000000011f01c        0x0 binaries/strlen.o
 .bss           0x000000000011f01c        0x0 binaries/strncat.o
 .bss           0x000000000011f01c        0x0 binaries/strncmp.o
 .bss           0x000000000011f01c        0x0 binaries/strncpy.o
 .bss           0x000000000011f01c        0x0 binaries/strnlen.o
 .bss           0x000000000011f01c        0x0 binaries/strrchr.o
 .bss           0x000000000011f01c        0x0 binaries/strstr.o
 .bss           0x000000000011f01c        0x0 binaries/ttycontrol.o
 .bss           0x000000000011f01c        0x0 binaries/ttygetc.o
 .bss           0x000000000011f01c        0x0 binaries/ttyhandle_in.o
 .bss           0x000000000011f01c        0x0 binaries/ttyhandle_out.o
 .bss           0x000000000011f01c        0x0 binaries/ttyhandler.o
 .bss           0x000000000011f01c        0x0 binaries/ttyinit.o
 .bss           0x000000000011f01c        0x0 binaries/ttykickout.o
 .bss           0x000000000011f01c        0x0 binaries/ttyputc.o
 .bss           0x000000000011f01c        0x0 binaries/ttyread.o
 .bss           0x000000000011f01c        0x0 binaries/ttywrite.o
 .bss           0x000000000011f01c        0x0 binaries/mount.o
 .bss           0x000000000011f01c        0x0 binaries/naminit.o
 .bss           0x000000000011f01c        0x0 binaries/nammap.o
 .bss           0x000000000011f01c        0x0 binaries/namopen.o
 .bss           0x000000000011f01c        0x0 binaries/colon2mac.o
 .bss           0x000000000011f01c        0x0 binaries/ethcontrol.o
 .bss           0x000000000011f01c        0x0 binaries/ethhandler.o
 .bss           0x000000000011f01c        0x0 binaries/ethinit.o
 .bss           0x000000000011f01c        0x0 binaries/ethmcast.o
 .bss           0x000000000011f01c        0x0 binaries/ethread.o
 .bss           0x000000000011f01c        0x0 binaries/ethwrite.o
 .bss           0x000000000011f01c        0x0 binaries/rdsbufalloc.o
 .bss           0x000000000011f01c        0x0 binaries/rdsclose.o
 .bss           0x000000000011f01c        0x0 binaries/rdscomm.o
 .bss           0x000000000011f01c        0x0 binaries/rdscontrol.o
 .bss           0x000000000011f01c        0x0 binaries/rdsinit.o
 .bss           0x000000000011f01c        0x0 binaries/rdsopen.o
 .bss           0x000000000011f01c        0x0 binaries/rdsprocess.o
 .bss           0x000000000011f01c        0x0 binaries/rdsread.o
 .bss           0x000000000011f01c        0x0 binaries/rdswrite.o
 .bss           0x000000000011f01c        0x0 binaries/ramclose.o
 .bss           0x000000000011f01c        0x0 binaries/raminit.o
 .bss           0x000000000011f01c        0x0 binaries/ramopen.o
 .bss           0x000000000011f01c        0x0 binaries/ramread.o
 .bss           0x000000000011f01c        0x0 binaries/ramwrite.o
 .bss           0x000000000011f01c        0x0 binaries/lfdballoc.o
 .bss           0x000000000011f01c        0x0 binaries/lfdbfree.o
 .bss           0x000000000011f01c        0x0 binaries/lfflush.o
 .bss           0x000000000011f01c        0x0 binaries/lfgetmode.o
 .bss           0x000000000011f01c        0x0 binaries/lfiballoc.o
 .bss           0x000000000011f01c        0x0 binaries/lfibclear.o
 .bss           0x000000000011f01c        0x0 binaries/lfibget.o
 .bss           0x000000000011f01c        0x0 binaries/lfibput.o
 .bss           0x000000000011f01c        0x0 binaries/lflclose.o
 .bss           0x000000000011f01c        0x0 binaries/lflcontrol.o
 .bss           0x000000000011f01c        0x0 binaries/lflgetc.o
 .bss           0x000000000011f01c        0x0 binaries/lflinit.o
 .bss           0x000000000011f01c        0x0 binaries/lflputc.o
 .bss           0x000000000011f01c        0x0 binaries/lflread.o
 .bss           0x000000000011f01c        0x0 binaries/lflseek.o
 .bss           0x000000000011f01c        0x0 binaries/lflwrite.o
 .bss           0x000000000011f01c        0x0 binaries/lfsckfmt.o
 .bss           0x000000000011f01c        0x0 binaries/lfscreate.o
 .bss           0x000000000011f01c        0x0 binaries/lfsetup.o
 .bss           0x000000000011f01c        0x0 binaries/lfsinit.o
 .bss           0x000000000011f01c        0x0 binaries/lfsopen.o
 .bss           0x000000000011f01c        0x0 binaries/lftruncate.o
 .bss           0x000000000011f01c        0x0 binaries/rflclose.o
 .bss           0x000000000011f01c        0x0 binaries/rflgetc.o
 .bss           0x000000000011f01c        0x0 binaries/rflinit.o
 .bss           0x000000000011f01c        0x0 binaries/rflputc.o
 .bss           0x000000000011f01c        0x0 binaries/rflread.o
 .bss           0x000000000011f01c        0x0 binaries/rflseek.o
 .bss           0x000000000011f01c        0x0 binaries/rflwrite.o
 .bss           0x000000000011f01c        0x0 binaries/rfscomm.o
 .bss           0x000000000011f01c        0x0 binaries/rfscontrol.o
 .bss           0x000000000011f01c        0x0 binaries/rfsgetmode.o
 .bss           0x000000000011f01c        0x0 binaries/rfsinit.o
 .bss           0x000000000011f01c        0x0 binaries/rfsndmsg.o
 .bss           0x000000000011f01c        0x0 binaries/rfsopen.o
 .bss           0x000000000011f01c        0x0 binaries/arp.o
 .bss           0x000000000011f01c        0x0 binaries/dhcp.o
 .bss           0x000000000011f01c        0x0 binaries/dot2ip.o
 .bss           0x000000000011f01c        0x0 binaries/hexdump.o
 .bss           0x000000000011f01c        0x0 binaries/icmp.o
 .bss           0x000000000011f01c        0x0 binaries/ip.o
 .bss           0x000000000011f01c        0x0 binaries/net.o
 .bss           0x000000000011f01c        0x0 binaries/netstart.o
 .bss           0x000000000011f01c        0x0 binaries/pdump.o
 .bss           0x000000000011f01c        0x0 binaries/tftp.o
 .bss           0x000000000011f01c        0x0 binaries/udp.o
 .bss           0x000000000011f01c        0x0 binaries/addargs.o
 .bss           0x000000000011f01c        0x0 binaries/lexan.o
 .bss           0x000000000011f01c        0x0 binaries/shell.o
 .bss           0x000000000011f01c        0x0 binaries/xsh_argecho.o
 .bss           0x000000000011f01c        0x0 binaries/xsh_arp.o
 .bss           0x000000000011f01c        0x0 binaries/xsh_cat.o
 .bss           0x000000000011f01c        0x0 binaries/xsh_clear.o
 .bss           0x000000000011f01c        0x0 binaries/xsh_date.o
 .bss           0x000000000011f01c        0x0 binaries/xsh_devdump.o
 .bss           0x000000000011f01c        0x0 binaries/xsh_echo.o
 .bss           0x000000000011f01c        0x0 binaries/xsh_exit.o
 .bss           0x000000000011f01c        0x0 binaries/xsh_help.o
 .bss           0x000000000011f01c        0x0 binaries/xsh_ipaddr.o
 .bss           0x000000000011f01c        0x0 binaries/xsh_kill.o
 .bss           0x000000000011f01c        0x0 binaries/xsh_memdump.o
 .bss           0x000000000011f01c        0x0 binaries/xsh_memstat.o
 .bss           0x000000000011f01c        0x4 binaries/xsh_ping.o
 .bss           0x000000000011f020        0x0 binaries/xsh_ps.o
 .bss           0x000000000011f020        0x0 binaries/xsh_sleep.o
 .bss           0x000000000011f020        0x0 binaries/xsh_udpdump.o
 .bss           0x000000000011f020        0x0 binaries/xsh_udpecho.o
 .bss           0x000000000011f020        0x0 binaries/xsh_udpeserver.o
 .bss           0x000000000011f020        0x0 binaries/xsh_uptime.o
 .bss           0x000000000011f020        0x0 binaries/clkdisp.o
 .bss           0x000000000011f020        0x0 binaries/ctxsw.o
 .bss           0x000000000011f020        0x0 binaries/host2netla.o
 .bss           0x000000000011f020        0x0 binaries/host2netlc.o
 .bss           0x000000000011f020        0x0 binaries/intr.o
 .bss           0x000000000011f020        0x0 binaries/ttydispatch.o
 .bss           0x000000000011f020        0x0 binaries/ethdispatch.o
 *(COMMON)
 COMMON         0x000000000011f020      0x960 binaries/alarmqueue.o
                0x000000000011f020                alarmqueuetab
 COMMON         0x000000000011f980       0xf4 binaries/bufinit.o
                0x000000000011f980                buftab
                0x000000000011fa70                nbpools
 COMMON         0x000000000011fa74       0x10 binaries/clkinit.o
                0x000000000011fa74                sleepq
                0x000000000011fa76                alarmq
                0x000000000011fa78                preempt
                0x000000000011fa7c                clktimemsec
                0x000000000011fa80                clktime
 COMMON         0x000000000011fa84        0x2 binaries/evec.o
                0x000000000011fa84                girmask
 *fill*         0x000000000011fa86       0x1a 
 COMMON         0x000000000011faa0     0x2a98 binaries/initialize.o
                0x000000000011faa0                queueArr
                0x000000000011fac8                currpid
                0x000000000011fae0                proctab
                0x0000000000122060                prcount
                0x0000000000122080                semtab
                0x0000000000122530                memlist
 COMMON         0x0000000000122538        0x8 binaries/lab4q2.o
                0x0000000000122538                useSigRecv
                0x000000000012253c                msgglob
 COMMON         0x0000000000122540       0x58 binaries/mark.o
                0x0000000000122540                marks
                0x0000000000122590                nmarks
                0x0000000000122594                mkmutex
 COMMON         0x0000000000122598        0x8 binaries/meminit.o
                0x0000000000122598                minheap
                0x000000000012259c                maxheap
 COMMON         0x00000000001225a0        0x8 binaries/myhacker.o
                0x00000000001225a0                victimglobal
                0x00000000001225a4                victimsRetAddress
 *fill*         0x00000000001225a8       0x18 
 COMMON         0x00000000001225c0      0xca0 binaries/myqueue.o
                0x00000000001225c0                myqueuetab
 COMMON         0x0000000000123260      0x2d8 binaries/ptinit.o
                0x0000000000123260                porttab
                0x0000000000123530                ptnextid
                0x0000000000123534                ptfree
 *fill*         0x0000000000123538        0x8 
 COMMON         0x0000000000123540      0xca0 binaries/queue.o
                0x0000000000123540                queuetab
 COMMON         0x00000000001241e0        0x2 binaries/ready.o
                0x00000000001241e0                readylist
 *fill*         0x00000000001241e2        0x2 
 COMMON         0x00000000001241e4        0x8 binaries/resched.o
                0x00000000001241e4                Defer
 *fill*         0x00000000001241ec       0x14 
 COMMON         0x0000000000124200      0x10c binaries/ttyinit.o
                0x0000000000124200                ttytab
 *fill*         0x000000000012430c       0x14 
 COMMON         0x0000000000124320     0x19c0 binaries/naminit.o
                0x0000000000124320                nnames
                0x0000000000124340                nametab
 COMMON         0x0000000000125ce0      0x138 binaries/ethinit.o
                0x0000000000125ce0                ethertab
 *fill*         0x0000000000125e18        0x8 
 COMMON         0x0000000000125e20       0x8c binaries/rdsinit.o
                0x0000000000125e20                rdstab
 *fill*         0x0000000000125eac       0x14 
 COMMON         0x0000000000125ec0    0x19000 binaries/raminit.o
                0x0000000000125ec0                Ram
 COMMON         0x000000000013eec0      0xf00 binaries/lflinit.o
                0x000000000013eec0                lfltab
 COMMON         0x000000000013fdc0      0x20c binaries/lfsinit.o
                0x000000000013fdc0                Lf_data
 *fill*         0x000000000013ffcc       0x14 
 COMMON         0x000000000013ffe0      0x5a0 binaries/rflinit.o
                0x000000000013ffe0                rfltab
 COMMON         0x0000000000140580       0x18 binaries/rfsinit.o
                0x0000000000140580                Rf_data
 *fill*         0x0000000000140598        0x8 
 COMMON         0x00000000001405a0      0x140 binaries/arp.o
                0x00000000001405a0                arpcache
 COMMON         0x00000000001406e0      0x230 binaries/icmp.o
                0x00000000001406e0                icmptab
 *fill*         0x0000000000140910       0x10 
 COMMON         0x0000000000140920       0x2c binaries/ip.o
                0x0000000000140920                ipoqueue
 *fill*         0x000000000014094c       0x14 
 COMMON         0x0000000000140960       0xc8 binaries/net.o
                0x0000000000140960                netbufpool
                0x0000000000140980                NetData
 *fill*         0x0000000000140a28       0x18 
 COMMON         0x0000000000140a40      0x168 binaries/udp.o
                0x0000000000140a40                udptab
                0x0000000000140ba8                ebss = ABSOLUTE (.)
                0x0000000000141000                . = ALIGN (0x1000)
 *fill*         0x0000000000140ba8      0x458 
 */()
                0x0000000000141000                end = ABSOLUTE (.)
                0x0000000000141000                _end = ABSOLUTE (.)
                0x0000000000141000                . = ALIGN (0x1000)
LOAD binaries/start.o
LOAD binaries/alarm.o
LOAD binaries/alarmqueue.o
LOAD binaries/alarmwakeup.o
LOAD binaries/app1.o
LOAD binaries/app2.o
LOAD binaries/app3.o
LOAD binaries/ascdate.o
LOAD binaries/bufinit.o
LOAD binaries/chprio.o
LOAD binaries/clkhandler.o
LOAD binaries/clkinit.o
LOAD binaries/close.o
LOAD binaries/conf.o
LOAD binaries/control.o
LOAD binaries/cpubound.o
LOAD binaries/create.o
LOAD binaries/early_imr.o
LOAD binaries/evec.o
LOAD binaries/factorial.o
LOAD binaries/freebuf.o
LOAD binaries/freemem.o
LOAD binaries/getbuf.o
LOAD binaries/getc.o
LOAD binaries/getdev.o
LOAD binaries/getitem.o
LOAD binaries/getmem.o
LOAD binaries/getpid.o
LOAD binaries/getpname.o
LOAD binaries/getppid.o
LOAD binaries/getprio.o
LOAD binaries/getstk.o
LOAD binaries/gettime.o
LOAD binaries/getutime.o
LOAD binaries/host2netlb.o
LOAD binaries/init.o
LOAD binaries/initialize.o
LOAD binaries/insert.o
LOAD binaries/insertd.o
LOAD binaries/iobound.o
LOAD binaries/ioerr.o
LOAD binaries/ionull.o
LOAD binaries/kill.o
LOAD binaries/kprintf.o
LOAD binaries/lab2q3.o
LOAD binaries/lab2q4.o
LOAD binaries/lab2q5.o
LOAD binaries/lab3q3.o
LOAD binaries/lab3q4.o
LOAD binaries/lab4q2.o
LOAD binaries/lab4q3.o
LOAD binaries/main.o
LOAD binaries/mark.o
LOAD binaries/meminit.o
LOAD binaries/mkbufpool.o
LOAD binaries/multilevelfbq.o
LOAD binaries/myappA.o
LOAD binaries/myfuncA.o
LOAD binaries/myhacker.o
LOAD binaries/myqueue.o
LOAD binaries/myvictim.o
LOAD binaries/mywelcomemsg.o
LOAD binaries/newqueue.o
LOAD binaries/open.o
LOAD binaries/panic.o
LOAD binaries/pci.o
LOAD binaries/platinit.o
LOAD binaries/printsegaddr.o
LOAD binaries/process_state.o
LOAD binaries/ptclear.o
LOAD binaries/ptcount.o
LOAD binaries/ptcreate.o
LOAD binaries/ptdelete.o
LOAD binaries/ptinit.o
LOAD binaries/ptrecv.o
LOAD binaries/ptreset.o
LOAD binaries/ptsend.o
LOAD binaries/putc.o
LOAD binaries/quark_irq.o
LOAD binaries/quark_pdat.o
LOAD binaries/queue.o
LOAD binaries/read.o
LOAD binaries/ready.o
LOAD binaries/receive.o
LOAD binaries/receivebt.o
LOAD binaries/recvclr.o
LOAD binaries/recvtime.o
LOAD binaries/registercb.o
LOAD binaries/registercbsig.o
LOAD binaries/resched.o
LOAD binaries/resume.o
LOAD binaries/seek.o
LOAD binaries/semcount.o
LOAD binaries/semcreate.o
LOAD binaries/semdelete.o
LOAD binaries/semreset.o
LOAD binaries/send.o
LOAD binaries/sendbt.o
LOAD binaries/signal.o
LOAD binaries/signaln.o
LOAD binaries/sleep.o
LOAD binaries/stackdepth.o
LOAD binaries/stacktrace.o
LOAD binaries/suspend.o
LOAD binaries/teststackdepth.o
LOAD binaries/tsdtab.o
LOAD binaries/unsleep.o
LOAD binaries/userret.o
LOAD binaries/wait.o
LOAD binaries/wakeup.o
LOAD binaries/write.o
LOAD binaries/xdone.o
LOAD binaries/yield.o
LOAD binaries/abs.o
LOAD binaries/atoi.o
LOAD binaries/atol.o
LOAD binaries/bzero.o
LOAD binaries/ctype_.o
LOAD binaries/doprnt.o
LOAD binaries/doscan.o
LOAD binaries/fdoprnt.o
LOAD binaries/fgetc.o
LOAD binaries/fgets.o
LOAD binaries/fprintf.o
LOAD binaries/fputc.o
LOAD binaries/fputs.o
LOAD binaries/fscanf.o
LOAD binaries/getchar.o
LOAD binaries/labs.o
LOAD binaries/memchr.o
LOAD binaries/memcmp.o
LOAD binaries/memcpy.o
LOAD binaries/memset.o
LOAD binaries/printf.o
LOAD binaries/putchar.o
LOAD binaries/qsort.o
LOAD binaries/rand.o
LOAD binaries/sprintf.o
LOAD binaries/sscanf.o
LOAD binaries/strchr.o
LOAD binaries/strcmp.o
LOAD binaries/strcpy.o
LOAD binaries/strlen.o
LOAD binaries/strncat.o
LOAD binaries/strncmp.o
LOAD binaries/strncpy.o
LOAD binaries/strnlen.o
LOAD binaries/strrchr.o
LOAD binaries/strstr.o
LOAD binaries/ttycontrol.o
LOAD binaries/ttygetc.o
LOAD binaries/ttyhandle_in.o
LOAD binaries/ttyhandle_out.o
LOAD binaries/ttyhandler.o
LOAD binaries/ttyinit.o
LOAD binaries/ttykickout.o
LOAD binaries/ttyputc.o
LOAD binaries/ttyread.o
LOAD binaries/ttywrite.o
LOAD binaries/mount.o
LOAD binaries/naminit.o
LOAD binaries/nammap.o
LOAD binaries/namopen.o
LOAD binaries/colon2mac.o
LOAD binaries/ethcontrol.o
LOAD binaries/ethhandler.o
LOAD binaries/ethinit.o
LOAD binaries/ethmcast.o
LOAD binaries/ethread.o
LOAD binaries/ethwrite.o
LOAD binaries/rdsbufalloc.o
LOAD binaries/rdsclose.o
LOAD binaries/rdscomm.o
LOAD binaries/rdscontrol.o
LOAD binaries/rdsinit.o
LOAD binaries/rdsopen.o
LOAD binaries/rdsprocess.o
LOAD binaries/rdsread.o
LOAD binaries/rdswrite.o
LOAD binaries/ramclose.o
LOAD binaries/raminit.o
LOAD binaries/ramopen.o
LOAD binaries/ramread.o
LOAD binaries/ramwrite.o
LOAD binaries/lfdballoc.o
LOAD binaries/lfdbfree.o
LOAD binaries/lfflush.o
LOAD binaries/lfgetmode.o
LOAD binaries/lfiballoc.o
LOAD binaries/lfibclear.o
LOAD binaries/lfibget.o
LOAD binaries/lfibput.o
LOAD binaries/lflclose.o
LOAD binaries/lflcontrol.o
LOAD binaries/lflgetc.o
LOAD binaries/lflinit.o
LOAD binaries/lflputc.o
LOAD binaries/lflread.o
LOAD binaries/lflseek.o
LOAD binaries/lflwrite.o
LOAD binaries/lfsckfmt.o
LOAD binaries/lfscreate.o
LOAD binaries/lfsetup.o
LOAD binaries/lfsinit.o
LOAD binaries/lfsopen.o
LOAD binaries/lftruncate.o
LOAD binaries/rflclose.o
LOAD binaries/rflgetc.o
LOAD binaries/rflinit.o
LOAD binaries/rflputc.o
LOAD binaries/rflread.o
LOAD binaries/rflseek.o
LOAD binaries/rflwrite.o
LOAD binaries/rfscomm.o
LOAD binaries/rfscontrol.o
LOAD binaries/rfsgetmode.o
LOAD binaries/rfsinit.o
LOAD binaries/rfsndmsg.o
LOAD binaries/rfsopen.o
LOAD binaries/arp.o
LOAD binaries/dhcp.o
LOAD binaries/dot2ip.o
LOAD binaries/hexdump.o
LOAD binaries/icmp.o
LOAD binaries/ip.o
LOAD binaries/net.o
LOAD binaries/netstart.o
LOAD binaries/pdump.o
LOAD binaries/tftp.o
LOAD binaries/udp.o
LOAD binaries/addargs.o
LOAD binaries/lexan.o
LOAD binaries/shell.o
LOAD binaries/xsh_argecho.o
LOAD binaries/xsh_arp.o
LOAD binaries/xsh_cat.o
LOAD binaries/xsh_clear.o
LOAD binaries/xsh_date.o
LOAD binaries/xsh_devdump.o
LOAD binaries/xsh_echo.o
LOAD binaries/xsh_exit.o
LOAD binaries/xsh_help.o
LOAD binaries/xsh_ipaddr.o
LOAD binaries/xsh_kill.o
LOAD binaries/xsh_memdump.o
LOAD binaries/xsh_memstat.o
LOAD binaries/xsh_ping.o
LOAD binaries/xsh_ps.o
LOAD binaries/xsh_sleep.o
LOAD binaries/xsh_udpdump.o
LOAD binaries/xsh_udpecho.o
LOAD binaries/xsh_udpeserver.o
LOAD binaries/xsh_uptime.o
LOAD binaries/clkdisp.o
LOAD binaries/ctxsw.o
LOAD binaries/host2netla.o
LOAD binaries/host2netlc.o
LOAD binaries/intr.o
LOAD binaries/ttydispatch.o
LOAD binaries/ethdispatch.o
OUTPUT(../compile/xinu elf32-i386)

.comment        0x0000000000000000       0x2a
 .comment       0x0000000000000000       0x2a binaries/alarm.o
                                         0x2b (size before relaxing)
 .comment       0x000000000000002a       0x2b binaries/alarmqueue.o
 .comment       0x000000000000002a       0x2b binaries/alarmwakeup.o
 .comment       0x000000000000002a       0x2b binaries/app1.o
 .comment       0x000000000000002a       0x2b binaries/app2.o
 .comment       0x000000000000002a       0x2b binaries/app3.o
 .comment       0x000000000000002a       0x2b binaries/ascdate.o
 .comment       0x000000000000002a       0x2b binaries/bufinit.o
 .comment       0x000000000000002a       0x2b binaries/chprio.o
 .comment       0x000000000000002a       0x2b binaries/clkhandler.o
 .comment       0x000000000000002a       0x2b binaries/clkinit.o
 .comment       0x000000000000002a       0x2b binaries/close.o
 .comment       0x000000000000002a       0x2b binaries/conf.o
 .comment       0x000000000000002a       0x2b binaries/control.o
 .comment       0x000000000000002a       0x2b binaries/cpubound.o
 .comment       0x000000000000002a       0x2b binaries/create.o
 .comment       0x000000000000002a       0x2b binaries/early_imr.o
 .comment       0x000000000000002a       0x2b binaries/evec.o
 .comment       0x000000000000002a       0x2b binaries/factorial.o
 .comment       0x000000000000002a       0x2b binaries/freebuf.o
 .comment       0x000000000000002a       0x2b binaries/freemem.o
 .comment       0x000000000000002a       0x2b binaries/getbuf.o
 .comment       0x000000000000002a       0x2b binaries/getc.o
 .comment       0x000000000000002a       0x2b binaries/getdev.o
 .comment       0x000000000000002a       0x2b binaries/getitem.o
 .comment       0x000000000000002a       0x2b binaries/getmem.o
 .comment       0x000000000000002a       0x2b binaries/getpid.o
 .comment       0x000000000000002a       0x2b binaries/getpname.o
 .comment       0x000000000000002a       0x2b binaries/getppid.o
 .comment       0x000000000000002a       0x2b binaries/getprio.o
 .comment       0x000000000000002a       0x2b binaries/getstk.o
 .comment       0x000000000000002a       0x2b binaries/gettime.o
 .comment       0x000000000000002a       0x2b binaries/getutime.o
 .comment       0x000000000000002a       0x2b binaries/host2netlb.o
 .comment       0x000000000000002a       0x2b binaries/init.o
 .comment       0x000000000000002a       0x2b binaries/initialize.o
 .comment       0x000000000000002a       0x2b binaries/insert.o
 .comment       0x000000000000002a       0x2b binaries/insertd.o
 .comment       0x000000000000002a       0x2b binaries/iobound.o
 .comment       0x000000000000002a       0x2b binaries/ioerr.o
 .comment       0x000000000000002a       0x2b binaries/ionull.o
 .comment       0x000000000000002a       0x2b binaries/kill.o
 .comment       0x000000000000002a       0x2b binaries/kprintf.o
 .comment       0x000000000000002a       0x2b binaries/lab2q3.o
 .comment       0x000000000000002a       0x2b binaries/lab2q4.o
 .comment       0x000000000000002a       0x2b binaries/lab2q5.o
 .comment       0x000000000000002a       0x2b binaries/lab3q3.o
 .comment       0x000000000000002a       0x2b binaries/lab3q4.o
 .comment       0x000000000000002a       0x2b binaries/lab4q2.o
 .comment       0x000000000000002a       0x2b binaries/lab4q3.o
 .comment       0x000000000000002a       0x2b binaries/main.o
 .comment       0x000000000000002a       0x2b binaries/mark.o
 .comment       0x000000000000002a       0x2b binaries/meminit.o
 .comment       0x000000000000002a       0x2b binaries/mkbufpool.o
 .comment       0x000000000000002a       0x2b binaries/multilevelfbq.o
 .comment       0x000000000000002a       0x2b binaries/myappA.o
 .comment       0x000000000000002a       0x2b binaries/myfuncA.o
 .comment       0x000000000000002a       0x2b binaries/myhacker.o
 .comment       0x000000000000002a       0x2b binaries/myqueue.o
 .comment       0x000000000000002a       0x2b binaries/myvictim.o
 .comment       0x000000000000002a       0x2b binaries/mywelcomemsg.o
 .comment       0x000000000000002a       0x2b binaries/newqueue.o
 .comment       0x000000000000002a       0x2b binaries/open.o
 .comment       0x000000000000002a       0x2b binaries/panic.o
 .comment       0x000000000000002a       0x2b binaries/pci.o
 .comment       0x000000000000002a       0x2b binaries/platinit.o
 .comment       0x000000000000002a       0x2b binaries/printsegaddr.o
 .comment       0x000000000000002a       0x2b binaries/process_state.o
 .comment       0x000000000000002a       0x2b binaries/ptclear.o
 .comment       0x000000000000002a       0x2b binaries/ptcount.o
 .comment       0x000000000000002a       0x2b binaries/ptcreate.o
 .comment       0x000000000000002a       0x2b binaries/ptdelete.o
 .comment       0x000000000000002a       0x2b binaries/ptinit.o
 .comment       0x000000000000002a       0x2b binaries/ptrecv.o
 .comment       0x000000000000002a       0x2b binaries/ptreset.o
 .comment       0x000000000000002a       0x2b binaries/ptsend.o
 .comment       0x000000000000002a       0x2b binaries/putc.o
 .comment       0x000000000000002a       0x2b binaries/quark_irq.o
 .comment       0x000000000000002a       0x2b binaries/quark_pdat.o
 .comment       0x000000000000002a       0x2b binaries/queue.o
 .comment       0x000000000000002a       0x2b binaries/read.o
 .comment       0x000000000000002a       0x2b binaries/ready.o
 .comment       0x000000000000002a       0x2b binaries/receive.o
 .comment       0x000000000000002a       0x2b binaries/receivebt.o
 .comment       0x000000000000002a       0x2b binaries/recvclr.o
 .comment       0x000000000000002a       0x2b binaries/recvtime.o
 .comment       0x000000000000002a       0x2b binaries/registercb.o
 .comment       0x000000000000002a       0x2b binaries/registercbsig.o
 .comment       0x000000000000002a       0x2b binaries/resched.o
 .comment       0x000000000000002a       0x2b binaries/resume.o
 .comment       0x000000000000002a       0x2b binaries/seek.o
 .comment       0x000000000000002a       0x2b binaries/semcount.o
 .comment       0x000000000000002a       0x2b binaries/semcreate.o
 .comment       0x000000000000002a       0x2b binaries/semdelete.o
 .comment       0x000000000000002a       0x2b binaries/semreset.o
 .comment       0x000000000000002a       0x2b binaries/send.o
 .comment       0x000000000000002a       0x2b binaries/sendbt.o
 .comment       0x000000000000002a       0x2b binaries/signal.o
 .comment       0x000000000000002a       0x2b binaries/signaln.o
 .comment       0x000000000000002a       0x2b binaries/sleep.o
 .comment       0x000000000000002a       0x2b binaries/stackdepth.o
 .comment       0x000000000000002a       0x2b binaries/stacktrace.o
 .comment       0x000000000000002a       0x2b binaries/suspend.o
 .comment       0x000000000000002a       0x2b binaries/teststackdepth.o
 .comment       0x000000000000002a       0x2b binaries/tsdtab.o
 .comment       0x000000000000002a       0x2b binaries/unsleep.o
 .comment       0x000000000000002a       0x2b binaries/userret.o
 .comment       0x000000000000002a       0x2b binaries/wait.o
 .comment       0x000000000000002a       0x2b binaries/wakeup.o
 .comment       0x000000000000002a       0x2b binaries/write.o
 .comment       0x000000000000002a       0x2b binaries/xdone.o
 .comment       0x000000000000002a       0x2b binaries/yield.o
 .comment       0x000000000000002a       0x2b binaries/abs.o
 .comment       0x000000000000002a       0x2b binaries/atoi.o
 .comment       0x000000000000002a       0x2b binaries/atol.o
 .comment       0x000000000000002a       0x2b binaries/bzero.o
 .comment       0x000000000000002a       0x2b binaries/ctype_.o
 .comment       0x000000000000002a       0x2b binaries/doprnt.o
 .comment       0x000000000000002a       0x2b binaries/doscan.o
 .comment       0x000000000000002a       0x2b binaries/fdoprnt.o
 .comment       0x000000000000002a       0x2b binaries/fgetc.o
 .comment       0x000000000000002a       0x2b binaries/fgets.o
 .comment       0x000000000000002a       0x2b binaries/fprintf.o
 .comment       0x000000000000002a       0x2b binaries/fputc.o
 .comment       0x000000000000002a       0x2b binaries/fputs.o
 .comment       0x000000000000002a       0x2b binaries/fscanf.o
 .comment       0x000000000000002a       0x2b binaries/getchar.o
 .comment       0x000000000000002a       0x2b binaries/labs.o
 .comment       0x000000000000002a       0x2b binaries/memchr.o
 .comment       0x000000000000002a       0x2b binaries/memcmp.o
 .comment       0x000000000000002a       0x2b binaries/memcpy.o
 .comment       0x000000000000002a       0x2b binaries/memset.o
 .comment       0x000000000000002a       0x2b binaries/printf.o
 .comment       0x000000000000002a       0x2b binaries/putchar.o
 .comment       0x000000000000002a       0x2b binaries/qsort.o
 .comment       0x000000000000002a       0x2b binaries/rand.o
 .comment       0x000000000000002a       0x2b binaries/sprintf.o
 .comment       0x000000000000002a       0x2b binaries/sscanf.o
 .comment       0x000000000000002a       0x2b binaries/strchr.o
 .comment       0x000000000000002a       0x2b binaries/strcmp.o
 .comment       0x000000000000002a       0x2b binaries/strcpy.o
 .comment       0x000000000000002a       0x2b binaries/strlen.o
 .comment       0x000000000000002a       0x2b binaries/strncat.o
 .comment       0x000000000000002a       0x2b binaries/strncmp.o
 .comment       0x000000000000002a       0x2b binaries/strncpy.o
 .comment       0x000000000000002a       0x2b binaries/strnlen.o
 .comment       0x000000000000002a       0x2b binaries/strrchr.o
 .comment       0x000000000000002a       0x2b binaries/strstr.o
 .comment       0x000000000000002a       0x2b binaries/ttycontrol.o
 .comment       0x000000000000002a       0x2b binaries/ttygetc.o
 .comment       0x000000000000002a       0x2b binaries/ttyhandle_in.o
 .comment       0x000000000000002a       0x2b binaries/ttyhandle_out.o
 .comment       0x000000000000002a       0x2b binaries/ttyhandler.o
 .comment       0x000000000000002a       0x2b binaries/ttyinit.o
 .comment       0x000000000000002a       0x2b binaries/ttykickout.o
 .comment       0x000000000000002a       0x2b binaries/ttyputc.o
 .comment       0x000000000000002a       0x2b binaries/ttyread.o
 .comment       0x000000000000002a       0x2b binaries/ttywrite.o
 .comment       0x000000000000002a       0x2b binaries/mount.o
 .comment       0x000000000000002a       0x2b binaries/naminit.o
 .comment       0x000000000000002a       0x2b binaries/nammap.o
 .comment       0x000000000000002a       0x2b binaries/namopen.o
 .comment       0x000000000000002a       0x2b binaries/colon2mac.o
 .comment       0x000000000000002a       0x2b binaries/ethcontrol.o
 .comment       0x000000000000002a       0x2b binaries/ethhandler.o
 .comment       0x000000000000002a       0x2b binaries/ethinit.o
 .comment       0x000000000000002a       0x2b binaries/ethmcast.o
 .comment       0x000000000000002a       0x2b binaries/ethread.o
 .comment       0x000000000000002a       0x2b binaries/ethwrite.o
 .comment       0x000000000000002a       0x2b binaries/rdsbufalloc.o
 .comment       0x000000000000002a       0x2b binaries/rdsclose.o
 .comment       0x000000000000002a       0x2b binaries/rdscomm.o
 .comment       0x000000000000002a       0x2b binaries/rdscontrol.o
 .comment       0x000000000000002a       0x2b binaries/rdsinit.o
 .comment       0x000000000000002a       0x2b binaries/rdsopen.o
 .comment       0x000000000000002a       0x2b binaries/rdsprocess.o
 .comment       0x000000000000002a       0x2b binaries/rdsread.o
 .comment       0x000000000000002a       0x2b binaries/rdswrite.o
 .comment       0x000000000000002a       0x2b binaries/ramclose.o
 .comment       0x000000000000002a       0x2b binaries/raminit.o
 .comment       0x000000000000002a       0x2b binaries/ramopen.o
 .comment       0x000000000000002a       0x2b binaries/ramread.o
 .comment       0x000000000000002a       0x2b binaries/ramwrite.o
 .comment       0x000000000000002a       0x2b binaries/lfdballoc.o
 .comment       0x000000000000002a       0x2b binaries/lfdbfree.o
 .comment       0x000000000000002a       0x2b binaries/lfflush.o
 .comment       0x000000000000002a       0x2b binaries/lfgetmode.o
 .comment       0x000000000000002a       0x2b binaries/lfiballoc.o
 .comment       0x000000000000002a       0x2b binaries/lfibclear.o
 .comment       0x000000000000002a       0x2b binaries/lfibget.o
 .comment       0x000000000000002a       0x2b binaries/lfibput.o
 .comment       0x000000000000002a       0x2b binaries/lflclose.o
 .comment       0x000000000000002a       0x2b binaries/lflcontrol.o
 .comment       0x000000000000002a       0x2b binaries/lflgetc.o
 .comment       0x000000000000002a       0x2b binaries/lflinit.o
 .comment       0x000000000000002a       0x2b binaries/lflputc.o
 .comment       0x000000000000002a       0x2b binaries/lflread.o
 .comment       0x000000000000002a       0x2b binaries/lflseek.o
 .comment       0x000000000000002a       0x2b binaries/lflwrite.o
 .comment       0x000000000000002a       0x2b binaries/lfsckfmt.o
 .comment       0x000000000000002a       0x2b binaries/lfscreate.o
 .comment       0x000000000000002a       0x2b binaries/lfsetup.o
 .comment       0x000000000000002a       0x2b binaries/lfsinit.o
 .comment       0x000000000000002a       0x2b binaries/lfsopen.o
 .comment       0x000000000000002a       0x2b binaries/lftruncate.o
 .comment       0x000000000000002a       0x2b binaries/rflclose.o
 .comment       0x000000000000002a       0x2b binaries/rflgetc.o
 .comment       0x000000000000002a       0x2b binaries/rflinit.o
 .comment       0x000000000000002a       0x2b binaries/rflputc.o
 .comment       0x000000000000002a       0x2b binaries/rflread.o
 .comment       0x000000000000002a       0x2b binaries/rflseek.o
 .comment       0x000000000000002a       0x2b binaries/rflwrite.o
 .comment       0x000000000000002a       0x2b binaries/rfscomm.o
 .comment       0x000000000000002a       0x2b binaries/rfscontrol.o
 .comment       0x000000000000002a       0x2b binaries/rfsgetmode.o
 .comment       0x000000000000002a       0x2b binaries/rfsinit.o
 .comment       0x000000000000002a       0x2b binaries/rfsndmsg.o
 .comment       0x000000000000002a       0x2b binaries/rfsopen.o
 .comment       0x000000000000002a       0x2b binaries/arp.o
 .comment       0x000000000000002a       0x2b binaries/dhcp.o
 .comment       0x000000000000002a       0x2b binaries/dot2ip.o
 .comment       0x000000000000002a       0x2b binaries/hexdump.o
 .comment       0x000000000000002a       0x2b binaries/icmp.o
 .comment       0x000000000000002a       0x2b binaries/ip.o
 .comment       0x000000000000002a       0x2b binaries/net.o
 .comment       0x000000000000002a       0x2b binaries/netstart.o
 .comment       0x000000000000002a       0x2b binaries/pdump.o
 .comment       0x000000000000002a       0x2b binaries/tftp.o
 .comment       0x000000000000002a       0x2b binaries/udp.o
 .comment       0x000000000000002a       0x2b binaries/addargs.o
 .comment       0x000000000000002a       0x2b binaries/lexan.o
 .comment       0x000000000000002a       0x2b binaries/shell.o
 .comment       0x000000000000002a       0x2b binaries/xsh_argecho.o
 .comment       0x000000000000002a       0x2b binaries/xsh_arp.o
 .comment       0x000000000000002a       0x2b binaries/xsh_cat.o
 .comment       0x000000000000002a       0x2b binaries/xsh_clear.o
 .comment       0x000000000000002a       0x2b binaries/xsh_date.o
 .comment       0x000000000000002a       0x2b binaries/xsh_devdump.o
 .comment       0x000000000000002a       0x2b binaries/xsh_echo.o
 .comment       0x000000000000002a       0x2b binaries/xsh_exit.o
 .comment       0x000000000000002a       0x2b binaries/xsh_help.o
 .comment       0x000000000000002a       0x2b binaries/xsh_ipaddr.o
 .comment       0x000000000000002a       0x2b binaries/xsh_kill.o
 .comment       0x000000000000002a       0x2b binaries/xsh_memdump.o
 .comment       0x000000000000002a       0x2b binaries/xsh_memstat.o
 .comment       0x000000000000002a       0x2b binaries/xsh_ping.o
 .comment       0x000000000000002a       0x2b binaries/xsh_ps.o
 .comment       0x000000000000002a       0x2b binaries/xsh_sleep.o
 .comment       0x000000000000002a       0x2b binaries/xsh_udpdump.o
 .comment       0x000000000000002a       0x2b binaries/xsh_udpecho.o
 .comment       0x000000000000002a       0x2b binaries/xsh_udpeserver.o
 .comment       0x000000000000002a       0x2b binaries/xsh_uptime.o
 .comment       0x000000000000002a       0x2b binaries/host2netlc.o

.note.GNU-stack
                0x0000000000000000        0x0
 .note.GNU-stack
                0x0000000000000000        0x0 binaries/alarm.o
 .note.GNU-stack
                0x0000000000000000        0x0 binaries/alarmqueue.o
 .note.GNU-stack
                0x0000000000000000        0x0 binaries/alarmwakeup.o
 .note.GNU-stack
                0x0000000000000000        0x0 binaries/app1.o
 .note.GNU-stack
                0x0000000000000000        0x0 binaries/app2.o
 .note.GNU-stack
                0x0000000000000000        0x0 binaries/app3.o
 .note.GNU-stack
                0x0000000000000000        0x0 binaries/ascdate.o
 .note.GNU-stack
                0x0000000000000000        0x0 binaries/bufinit.o
 .note.GNU-stack
                0x0000000000000000        0x0 binaries/chprio.o
 .note.GNU-stack
                0x0000000000000000        0x0 binaries/clkhandler.o
 .note.GNU-stack
                0x0000000000000000        0x0 binaries/clkinit.o
 .note.GNU-stack
                0x0000000000000000        0x0 binaries/close.o
 .note.GNU-stack
                0x0000000000000000        0x0 binaries/conf.o
 .note.GNU-stack
                0x0000000000000000        0x0 binaries/control.o
 .note.GNU-stack
                0x0000000000000000        0x0 binaries/cpubound.o
 .note.GNU-stack
                0x0000000000000000        0x0 binaries/create.o
 .note.GNU-stack
                0x0000000000000000        0x0 binaries/early_imr.o
 .note.GNU-stack
                0x0000000000000000        0x0 binaries/evec.o
 .note.GNU-stack
                0x0000000000000000        0x0 binaries/factorial.o
 .note.GNU-stack
                0x0000000000000000        0x0 binaries/freebuf.o
 .note.GNU-stack
                0x0000000000000000        0x0 binaries/freemem.o
 .note.GNU-stack
                0x0000000000000000        0x0 binaries/getbuf.o
 .note.GNU-stack
                0x0000000000000000        0x0 binaries/getc.o
 .note.GNU-stack
                0x0000000000000000        0x0 binaries/getdev.o
 .note.GNU-stack
                0x0000000000000000        0x0 binaries/getitem.o
 .note.GNU-stack
                0x0000000000000000        0x0 binaries/getmem.o
 .note.GNU-stack
                0x0000000000000000        0x0 binaries/getpid.o
 .note.GNU-stack
                0x0000000000000000        0x0 binaries/getpname.o
 .note.GNU-stack
                0x0000000000000000        0x0 binaries/getppid.o
 .note.GNU-stack
                0x0000000000000000        0x0 binaries/getprio.o
 .note.GNU-stack
                0x0000000000000000        0x0 binaries/getstk.o
 .note.GNU-stack
                0x0000000000000000        0x0 binaries/gettime.o
 .note.GNU-stack
                0x0000000000000000        0x0 binaries/getutime.o
 .note.GNU-stack
                0x0000000000000000        0x0 binaries/host2netlb.o
 .note.GNU-stack
                0x0000000000000000        0x0 binaries/init.o
 .note.GNU-stack
                0x0000000000000000        0x0 binaries/initialize.o
 .note.GNU-stack
                0x0000000000000000        0x0 binaries/insert.o
 .note.GNU-stack
                0x0000000000000000        0x0 binaries/insertd.o
 .note.GNU-stack
                0x0000000000000000        0x0 binaries/iobound.o
 .note.GNU-stack
                0x0000000000000000        0x0 binaries/ioerr.o
 .note.GNU-stack
                0x0000000000000000        0x0 binaries/ionull.o
 .note.GNU-stack
                0x0000000000000000        0x0 binaries/kill.o
 .note.GNU-stack
                0x0000000000000000        0x0 binaries/kprintf.o
 .note.GNU-stack
                0x0000000000000000        0x0 binaries/lab2q3.o
 .note.GNU-stack
                0x0000000000000000        0x0 binaries/lab2q4.o
 .note.GNU-stack
                0x0000000000000000        0x0 binaries/lab2q5.o
 .note.GNU-stack
                0x0000000000000000        0x0 binaries/lab3q3.o
 .note.GNU-stack
                0x0000000000000000        0x0 binaries/lab3q4.o
 .note.GNU-stack
                0x0000000000000000        0x0 binaries/lab4q2.o
 .note.GNU-stack
                0x0000000000000000        0x0 binaries/lab4q3.o
 .note.GNU-stack
                0x0000000000000000        0x0 binaries/main.o
 .note.GNU-stack
                0x0000000000000000        0x0 binaries/mark.o
 .note.GNU-stack
                0x0000000000000000        0x0 binaries/meminit.o
 .note.GNU-stack
                0x0000000000000000        0x0 binaries/mkbufpool.o
 .note.GNU-stack
                0x0000000000000000        0x0 binaries/multilevelfbq.o
 .note.GNU-stack
                0x0000000000000000        0x0 binaries/myappA.o
 .note.GNU-stack
                0x0000000000000000        0x0 binaries/myfuncA.o
 .note.GNU-stack
                0x0000000000000000        0x0 binaries/myhacker.o
 .note.GNU-stack
                0x0000000000000000        0x0 binaries/myqueue.o
 .note.GNU-stack
                0x0000000000000000        0x0 binaries/myvictim.o
 .note.GNU-stack
                0x0000000000000000        0x0 binaries/mywelcomemsg.o
 .note.GNU-stack
                0x0000000000000000        0x0 binaries/newqueue.o
 .note.GNU-stack
                0x0000000000000000        0x0 binaries/open.o
 .note.GNU-stack
                0x0000000000000000        0x0 binaries/panic.o
 .note.GNU-stack
                0x0000000000000000        0x0 binaries/pci.o
 .note.GNU-stack
                0x0000000000000000        0x0 binaries/platinit.o
 .note.GNU-stack
                0x0000000000000000        0x0 binaries/printsegaddr.o
 .note.GNU-stack
                0x0000000000000000        0x0 binaries/process_state.o
 .note.GNU-stack
                0x0000000000000000        0x0 binaries/ptclear.o
 .note.GNU-stack
                0x0000000000000000        0x0 binaries/ptcount.o
 .note.GNU-stack
                0x0000000000000000        0x0 binaries/ptcreate.o
 .note.GNU-stack
                0x0000000000000000        0x0 binaries/ptdelete.o
 .note.GNU-stack
                0x0000000000000000        0x0 binaries/ptinit.o
 .note.GNU-stack
                0x0000000000000000        0x0 binaries/ptrecv.o
 .note.GNU-stack
                0x0000000000000000        0x0 binaries/ptreset.o
 .note.GNU-stack
                0x0000000000000000        0x0 binaries/ptsend.o
 .note.GNU-stack
                0x0000000000000000        0x0 binaries/putc.o
 .note.GNU-stack
                0x0000000000000000        0x0 binaries/quark_irq.o
 .note.GNU-stack
                0x0000000000000000        0x0 binaries/quark_pdat.o
 .note.GNU-stack
                0x0000000000000000        0x0 binaries/queue.o
 .note.GNU-stack
                0x0000000000000000        0x0 binaries/read.o
 .note.GNU-stack
                0x0000000000000000        0x0 binaries/ready.o
 .note.GNU-stack
                0x0000000000000000        0x0 binaries/receive.o
 .note.GNU-stack
                0x0000000000000000        0x0 binaries/receivebt.o
 .note.GNU-stack
                0x0000000000000000        0x0 binaries/recvclr.o
 .note.GNU-stack
                0x0000000000000000        0x0 binaries/recvtime.o
 .note.GNU-stack
                0x0000000000000000        0x0 binaries/registercb.o
 .note.GNU-stack
                0x0000000000000000        0x0 binaries/registercbsig.o
 .note.GNU-stack
                0x0000000000000000        0x0 binaries/resched.o
 .note.GNU-stack
                0x0000000000000000        0x0 binaries/resume.o
 .note.GNU-stack
                0x0000000000000000        0x0 binaries/seek.o
 .note.GNU-stack
                0x0000000000000000        0x0 binaries/semcount.o
 .note.GNU-stack
                0x0000000000000000        0x0 binaries/semcreate.o
 .note.GNU-stack
                0x0000000000000000        0x0 binaries/semdelete.o
 .note.GNU-stack
                0x0000000000000000        0x0 binaries/semreset.o
 .note.GNU-stack
                0x0000000000000000        0x0 binaries/send.o
 .note.GNU-stack
                0x0000000000000000        0x0 binaries/sendbt.o
 .note.GNU-stack
                0x0000000000000000        0x0 binaries/signal.o
 .note.GNU-stack
                0x0000000000000000        0x0 binaries/signaln.o
 .note.GNU-stack
                0x0000000000000000        0x0 binaries/sleep.o
 .note.GNU-stack
                0x0000000000000000        0x0 binaries/stackdepth.o
 .note.GNU-stack
                0x0000000000000000        0x0 binaries/stacktrace.o
 .note.GNU-stack
                0x0000000000000000        0x0 binaries/suspend.o
 .note.GNU-stack
                0x0000000000000000        0x0 binaries/teststackdepth.o
 .note.GNU-stack
                0x0000000000000000        0x0 binaries/tsdtab.o
 .note.GNU-stack
                0x0000000000000000        0x0 binaries/unsleep.o
 .note.GNU-stack
                0x0000000000000000        0x0 binaries/userret.o
 .note.GNU-stack
                0x0000000000000000        0x0 binaries/wait.o
 .note.GNU-stack
                0x0000000000000000        0x0 binaries/wakeup.o
 .note.GNU-stack
                0x0000000000000000        0x0 binaries/write.o
 .note.GNU-stack
                0x0000000000000000        0x0 binaries/xdone.o
 .note.GNU-stack
                0x0000000000000000        0x0 binaries/yield.o
 .note.GNU-stack
                0x0000000000000000        0x0 binaries/abs.o
 .note.GNU-stack
                0x0000000000000000        0x0 binaries/atoi.o
 .note.GNU-stack
                0x0000000000000000        0x0 binaries/atol.o
 .note.GNU-stack
                0x0000000000000000        0x0 binaries/bzero.o
 .note.GNU-stack
                0x0000000000000000        0x0 binaries/ctype_.o
 .note.GNU-stack
                0x0000000000000000        0x0 binaries/doprnt.o
 .note.GNU-stack
                0x0000000000000000        0x0 binaries/doscan.o
 .note.GNU-stack
                0x0000000000000000        0x0 binaries/fdoprnt.o
 .note.GNU-stack
                0x0000000000000000        0x0 binaries/fgetc.o
 .note.GNU-stack
                0x0000000000000000        0x0 binaries/fgets.o
 .note.GNU-stack
                0x0000000000000000        0x0 binaries/fprintf.o
 .note.GNU-stack
                0x0000000000000000        0x0 binaries/fputc.o
 .note.GNU-stack
                0x0000000000000000        0x0 binaries/fputs.o
 .note.GNU-stack
                0x0000000000000000        0x0 binaries/fscanf.o
 .note.GNU-stack
                0x0000000000000000        0x0 binaries/getchar.o
 .note.GNU-stack
                0x0000000000000000        0x0 binaries/labs.o
 .note.GNU-stack
                0x0000000000000000        0x0 binaries/memchr.o
 .note.GNU-stack
                0x0000000000000000        0x0 binaries/memcmp.o
 .note.GNU-stack
                0x0000000000000000        0x0 binaries/memcpy.o
 .note.GNU-stack
                0x0000000000000000        0x0 binaries/memset.o
 .note.GNU-stack
                0x0000000000000000        0x0 binaries/printf.o
 .note.GNU-stack
                0x0000000000000000        0x0 binaries/putchar.o
 .note.GNU-stack
                0x0000000000000000        0x0 binaries/qsort.o
 .note.GNU-stack
                0x0000000000000000        0x0 binaries/rand.o
 .note.GNU-stack
                0x0000000000000000        0x0 binaries/sprintf.o
 .note.GNU-stack
                0x0000000000000000        0x0 binaries/sscanf.o
 .note.GNU-stack
                0x0000000000000000        0x0 binaries/strchr.o
 .note.GNU-stack
                0x0000000000000000        0x0 binaries/strcmp.o
 .note.GNU-stack
                0x0000000000000000        0x0 binaries/strcpy.o
 .note.GNU-stack
                0x0000000000000000        0x0 binaries/strlen.o
 .note.GNU-stack
                0x0000000000000000        0x0 binaries/strncat.o
 .note.GNU-stack
                0x0000000000000000        0x0 binaries/strncmp.o
 .note.GNU-stack
                0x0000000000000000        0x0 binaries/strncpy.o
 .note.GNU-stack
                0x0000000000000000        0x0 binaries/strnlen.o
 .note.GNU-stack
                0x0000000000000000        0x0 binaries/strrchr.o
 .note.GNU-stack
                0x0000000000000000        0x0 binaries/strstr.o
 .note.GNU-stack
                0x0000000000000000        0x0 binaries/ttycontrol.o
 .note.GNU-stack
                0x0000000000000000        0x0 binaries/ttygetc.o
 .note.GNU-stack
                0x0000000000000000        0x0 binaries/ttyhandle_in.o
 .note.GNU-stack
                0x0000000000000000        0x0 binaries/ttyhandle_out.o
 .note.GNU-stack
                0x0000000000000000        0x0 binaries/ttyhandler.o
 .note.GNU-stack
                0x0000000000000000        0x0 binaries/ttyinit.o
 .note.GNU-stack
                0x0000000000000000        0x0 binaries/ttykickout.o
 .note.GNU-stack
                0x0000000000000000        0x0 binaries/ttyputc.o
 .note.GNU-stack
                0x0000000000000000        0x0 binaries/ttyread.o
 .note.GNU-stack
                0x0000000000000000        0x0 binaries/ttywrite.o
 .note.GNU-stack
                0x0000000000000000        0x0 binaries/mount.o
 .note.GNU-stack
                0x0000000000000000        0x0 binaries/naminit.o
 .note.GNU-stack
                0x0000000000000000        0x0 binaries/nammap.o
 .note.GNU-stack
                0x0000000000000000        0x0 binaries/namopen.o
 .note.GNU-stack
                0x0000000000000000        0x0 binaries/colon2mac.o
 .note.GNU-stack
                0x0000000000000000        0x0 binaries/ethcontrol.o
 .note.GNU-stack
                0x0000000000000000        0x0 binaries/ethhandler.o
 .note.GNU-stack
                0x0000000000000000        0x0 binaries/ethinit.o
 .note.GNU-stack
                0x0000000000000000        0x0 binaries/ethmcast.o
 .note.GNU-stack
                0x0000000000000000        0x0 binaries/ethread.o
 .note.GNU-stack
                0x0000000000000000        0x0 binaries/ethwrite.o
 .note.GNU-stack
                0x0000000000000000        0x0 binaries/rdsbufalloc.o
 .note.GNU-stack
                0x0000000000000000        0x0 binaries/rdsclose.o
 .note.GNU-stack
                0x0000000000000000        0x0 binaries/rdscomm.o
 .note.GNU-stack
                0x0000000000000000        0x0 binaries/rdscontrol.o
 .note.GNU-stack
                0x0000000000000000        0x0 binaries/rdsinit.o
 .note.GNU-stack
                0x0000000000000000        0x0 binaries/rdsopen.o
 .note.GNU-stack
                0x0000000000000000        0x0 binaries/rdsprocess.o
 .note.GNU-stack
                0x0000000000000000        0x0 binaries/rdsread.o
 .note.GNU-stack
                0x0000000000000000        0x0 binaries/rdswrite.o
 .note.GNU-stack
                0x0000000000000000        0x0 binaries/ramclose.o
 .note.GNU-stack
                0x0000000000000000        0x0 binaries/raminit.o
 .note.GNU-stack
                0x0000000000000000        0x0 binaries/ramopen.o
 .note.GNU-stack
                0x0000000000000000        0x0 binaries/ramread.o
 .note.GNU-stack
                0x0000000000000000        0x0 binaries/ramwrite.o
 .note.GNU-stack
                0x0000000000000000        0x0 binaries/lfdballoc.o
 .note.GNU-stack
                0x0000000000000000        0x0 binaries/lfdbfree.o
 .note.GNU-stack
                0x0000000000000000        0x0 binaries/lfflush.o
 .note.GNU-stack
                0x0000000000000000        0x0 binaries/lfgetmode.o
 .note.GNU-stack
                0x0000000000000000        0x0 binaries/lfiballoc.o
 .note.GNU-stack
                0x0000000000000000        0x0 binaries/lfibclear.o
 .note.GNU-stack
                0x0000000000000000        0x0 binaries/lfibget.o
 .note.GNU-stack
                0x0000000000000000        0x0 binaries/lfibput.o
 .note.GNU-stack
                0x0000000000000000        0x0 binaries/lflclose.o
 .note.GNU-stack
                0x0000000000000000        0x0 binaries/lflcontrol.o
 .note.GNU-stack
                0x0000000000000000        0x0 binaries/lflgetc.o
 .note.GNU-stack
                0x0000000000000000        0x0 binaries/lflinit.o
 .note.GNU-stack
                0x0000000000000000        0x0 binaries/lflputc.o
 .note.GNU-stack
                0x0000000000000000        0x0 binaries/lflread.o
 .note.GNU-stack
                0x0000000000000000        0x0 binaries/lflseek.o
 .note.GNU-stack
                0x0000000000000000        0x0 binaries/lflwrite.o
 .note.GNU-stack
                0x0000000000000000        0x0 binaries/lfsckfmt.o
 .note.GNU-stack
                0x0000000000000000        0x0 binaries/lfscreate.o
 .note.GNU-stack
                0x0000000000000000        0x0 binaries/lfsetup.o
 .note.GNU-stack
                0x0000000000000000        0x0 binaries/lfsinit.o
 .note.GNU-stack
                0x0000000000000000        0x0 binaries/lfsopen.o
 .note.GNU-stack
                0x0000000000000000        0x0 binaries/lftruncate.o
 .note.GNU-stack
                0x0000000000000000        0x0 binaries/rflclose.o
 .note.GNU-stack
                0x0000000000000000        0x0 binaries/rflgetc.o
 .note.GNU-stack
                0x0000000000000000        0x0 binaries/rflinit.o
 .note.GNU-stack
                0x0000000000000000        0x0 binaries/rflputc.o
 .note.GNU-stack
                0x0000000000000000        0x0 binaries/rflread.o
 .note.GNU-stack
                0x0000000000000000        0x0 binaries/rflseek.o
 .note.GNU-stack
                0x0000000000000000        0x0 binaries/rflwrite.o
 .note.GNU-stack
                0x0000000000000000        0x0 binaries/rfscomm.o
 .note.GNU-stack
                0x0000000000000000        0x0 binaries/rfscontrol.o
 .note.GNU-stack
                0x0000000000000000        0x0 binaries/rfsgetmode.o
 .note.GNU-stack
                0x0000000000000000        0x0 binaries/rfsinit.o
 .note.GNU-stack
                0x0000000000000000        0x0 binaries/rfsndmsg.o
 .note.GNU-stack
                0x0000000000000000        0x0 binaries/rfsopen.o
 .note.GNU-stack
                0x0000000000000000        0x0 binaries/arp.o
 .note.GNU-stack
                0x0000000000000000        0x0 binaries/dhcp.o
 .note.GNU-stack
                0x0000000000000000        0x0 binaries/dot2ip.o
 .note.GNU-stack
                0x0000000000000000        0x0 binaries/hexdump.o
 .note.GNU-stack
                0x0000000000000000        0x0 binaries/icmp.o
 .note.GNU-stack
                0x0000000000000000        0x0 binaries/ip.o
 .note.GNU-stack
                0x0000000000000000        0x0 binaries/net.o
 .note.GNU-stack
                0x0000000000000000        0x0 binaries/netstart.o
 .note.GNU-stack
                0x0000000000000000        0x0 binaries/pdump.o
 .note.GNU-stack
                0x0000000000000000        0x0 binaries/tftp.o
 .note.GNU-stack
                0x0000000000000000        0x0 binaries/udp.o
 .note.GNU-stack
                0x0000000000000000        0x0 binaries/addargs.o
 .note.GNU-stack
                0x0000000000000000        0x0 binaries/lexan.o
 .note.GNU-stack
                0x0000000000000000        0x0 binaries/shell.o
 .note.GNU-stack
                0x0000000000000000        0x0 binaries/xsh_argecho.o
 .note.GNU-stack
                0x0000000000000000        0x0 binaries/xsh_arp.o
 .note.GNU-stack
                0x0000000000000000        0x0 binaries/xsh_cat.o
 .note.GNU-stack
                0x0000000000000000        0x0 binaries/xsh_clear.o
 .note.GNU-stack
                0x0000000000000000        0x0 binaries/xsh_date.o
 .note.GNU-stack
                0x0000000000000000        0x0 binaries/xsh_devdump.o
 .note.GNU-stack
                0x0000000000000000        0x0 binaries/xsh_echo.o
 .note.GNU-stack
                0x0000000000000000        0x0 binaries/xsh_exit.o
 .note.GNU-stack
                0x0000000000000000        0x0 binaries/xsh_help.o
 .note.GNU-stack
                0x0000000000000000        0x0 binaries/xsh_ipaddr.o
 .note.GNU-stack
                0x0000000000000000        0x0 binaries/xsh_kill.o
 .note.GNU-stack
                0x0000000000000000        0x0 binaries/xsh_memdump.o
 .note.GNU-stack
                0x0000000000000000        0x0 binaries/xsh_memstat.o
 .note.GNU-stack
                0x0000000000000000        0x0 binaries/xsh_ping.o
 .note.GNU-stack
                0x0000000000000000        0x0 binaries/xsh_ps.o
 .note.GNU-stack
                0x0000000000000000        0x0 binaries/xsh_sleep.o
 .note.GNU-stack
                0x0000000000000000        0x0 binaries/xsh_udpdump.o
 .note.GNU-stack
                0x0000000000000000        0x0 binaries/xsh_udpecho.o
 .note.GNU-stack
                0x0000000000000000        0x0 binaries/xsh_udpeserver.o
 .note.GNU-stack
                0x0000000000000000        0x0 binaries/xsh_uptime.o
 .note.GNU-stack
                0x0000000000000000        0x0 binaries/host2netlc.o
