
Allocating common symbols
Common symbol       size              file

netbufpool          0x4               binaries/net.o
readylist           0x2               binaries/ready.o
rfltab              0x5a0             binaries/rflinit.o
sleepq              0x2               binaries/clkinit.o
nnames              0x4               binaries/naminit.o
udptab              0x168             binaries/udp.o
minheap             0x4               binaries/meminit.o
marks               0x50              binaries/mark.o
currpid             0x4               binaries/initialize.o
Lf_data             0x20c             binaries/lfsinit.o
porttab             0x2d0             binaries/ptinit.o
girmask             0x2               binaries/evec.o
ttytab              0x10c             binaries/ttyinit.o
victimglobal        0x4               binaries/myhacker.o
proctab             0x1900            binaries/initialize.o
prcount             0x4               binaries/initialize.o
victimsRetAddress   0x4               binaries/myhacker.o
lfltab              0xf00             binaries/lflinit.o
rdstab              0x8c              binaries/rdsinit.o
ethertab            0x138             binaries/ethinit.o
NetData             0xa8              binaries/net.o
nmarks              0x4               binaries/mark.o
Defer               0x8               binaries/resched.o
semtab              0x4b0             binaries/initialize.o
maxheap             0x4               binaries/meminit.o
preempt             0x4               binaries/clkinit.o
buftab              0xf0              binaries/bufinit.o
Rf_data             0x18              binaries/rfsinit.o
mkmutex             0x4               binaries/mark.o
clktimemsec         0x4               binaries/clkinit.o
clktime             0x4               binaries/clkinit.o
arpcache            0x140             binaries/arp.o
icmptab             0x230             binaries/icmp.o
nbpools             0x4               binaries/bufinit.o
queuetab            0x980             binaries/queue.o
ptnextid            0x4               binaries/ptinit.o
Ram                 0x19000           binaries/raminit.o
ipoqueue            0x2c              binaries/ip.o
memlist             0x8               binaries/initialize.o
nametab             0x19a0            binaries/naminit.o
ptfree              0x4               binaries/ptinit.o

Memory Configuration

Name             Origin             Length             Attributes
*default*        0x0000000000000000 0xffffffffffffffff

Linker script and memory map

                0x0000000000100000                physbase = 0x100000
                0x0000000000100000                . = physbase
                0x0000000000100000                . = ALIGN (0x1000)

.text           0x0000000000100000    0x17000
                0x0000000000100000                text = ABSOLUTE (.)
 *(.text .text.*)
 .text          0x0000000000100000      0x1ac binaries/start.o
                0x0000000000100028                start
                0x00000000001000fa                inb
                0x0000000000100102                inw
                0x000000000010010b                inl
                0x0000000000100113                outb
                0x000000000010011d                outw
                0x0000000000100128                outl
                0x0000000000100132                _rtcin
                0x000000000010013d                ___udivsi3
                0x0000000000100148                ___divsi3
                0x0000000000100154                sbzero
                0x0000000000100164                bcopy
                0x0000000000100178                insw
                0x000000000010018e                outsw
                0x00000000001001a4                lidt
 .text          0x00000000001001ac       0x35 binaries/app1.o
                0x00000000001001ac                app1
 .text          0x00000000001001e1       0x8f binaries/app2.o
                0x00000000001001e1                app2
 .text          0x0000000000100270       0x67 binaries/app3.o
                0x0000000000100270                app3
 .text          0x00000000001002d7      0x2b9 binaries/ascdate.o
                0x00000000001002d7                ascdate
 .text          0x0000000000100590       0x14 binaries/bufinit.o
                0x0000000000100590                bufinit
 .text          0x00000000001005a4       0x62 binaries/chprio.o
                0x00000000001005a4                chprio
 .text          0x0000000000100606       0x90 binaries/clkhandler.o
                0x0000000000100606                clkhandler
 .text          0x0000000000100696       0x67 binaries/clkinit.o
                0x0000000000100696                clkinit
 .text          0x00000000001006fd       0x56 binaries/close.o
                0x00000000001006fd                close
 .text          0x0000000000100753        0x0 binaries/conf.o
 .text          0x0000000000100753       0x5c binaries/control.o
                0x0000000000100753                control
 .text          0x00000000001007af      0x115 binaries/cpubound.o
                0x00000000001007af                cpubound
 .text          0x00000000001008c4      0x233 binaries/create.o
                0x00000000001008c4                create
 .text          0x0000000000100af7      0x20e binaries/early_imr.o
                0x0000000000100af7                intel_cln_early_sb_read_reg
                0x0000000000100b4e                intel_cln_early_sb_write_reg
                0x0000000000100c08                remove_irm_protections
 .text          0x0000000000100d05      0x2e2 binaries/evec.o
                0x0000000000100d05                setirmask
                0x0000000000100d3d                set_evec
                0x0000000000100d98                initevec
                0x0000000000100e6a                trap
 .text          0x0000000000100fe7       0x30 binaries/factorial.o
                0x0000000000100fe7                factorial
 .text          0x0000000000101017       0x7f binaries/freebuf.o
                0x0000000000101017                freebuf
 .text          0x0000000000101096      0x108 binaries/freemem.o
                0x0000000000101096                freemem
 .text          0x000000000010119e       0x6e binaries/getbuf.o
                0x000000000010119e                getbuf
 .text          0x000000000010120c       0x56 binaries/getc.o
                0x000000000010120c                getc
 .text          0x0000000000101262       0x69 binaries/getdev.o
                0x0000000000101262                getdev
 .text          0x00000000001012cb       0x82 binaries/getitem.o
                0x00000000001012cb                getitem
                0x00000000001012fa                getfirst
                0x0000000000101321                getlast
 .text          0x000000000010134d       0xc2 binaries/getmem.o
                0x000000000010134d                getmem
 .text          0x000000000010140f        0xa binaries/getpid.o
                0x000000000010140f                getpid
 .text          0x0000000000101419       0x10 binaries/getpname.o
                0x0000000000101419                getpname
 .text          0x0000000000101429       0x13 binaries/getppid.o
                0x0000000000101429                getppid
 .text          0x000000000010143c       0x54 binaries/getprio.o
                0x000000000010143c                getprio
 .text          0x0000000000101490       0xac binaries/getstk.o
                0x0000000000101490                getstk
 .text          0x000000000010153c       0x32 binaries/gettime.o
                0x000000000010153c                gettime
 .text          0x000000000010156e      0x186 binaries/getutime.o
                0x000000000010156e                getutime
 .text          0x00000000001016f4       0x10 binaries/host2netlb.o
                0x00000000001016f4                host2netlb
 .text          0x0000000000101704       0x56 binaries/init.o
                0x0000000000101704                init
 .text          0x000000000010175a      0x296 binaries/initialize.o
                0x000000000010175a                nulluser
                0x00000000001019a6                stop
                0x00000000001019ca                delay
 .text          0x00000000001019f0       0xbb binaries/insert.o
                0x00000000001019f0                insert
 .text          0x0000000000101aab       0xe8 binaries/insertd.o
                0x0000000000101aab                insertd
 .text          0x0000000000101b93       0xb2 binaries/iobound.o
                0x0000000000101b93                iobound
 .text          0x0000000000101c45        0xa binaries/ioerr.o
                0x0000000000101c45                ioerr
 .text          0x0000000000101c4f        0xa binaries/ionull.o
                0x0000000000101c4f                ionull
 .text          0x0000000000101c59      0x161 binaries/kill.o
                0x0000000000101c59                kill
 .text          0x0000000000101dba       0xa9 binaries/kprintf.o
                0x0000000000101dba                kputc
                0x0000000000101dec                console_init
                0x0000000000101e1f                kgetc
                0x0000000000101e45                kprintf
 .text          0x0000000000101e63      0x3af binaries/lab2q3.o
                0x0000000000101e63                workerProcessTypeA
                0x0000000000101e68                workerProcessTypeB
                0x0000000000101e85                monitorProcess
                0x0000000000101ef8                lab2q3t1
                0x0000000000101f57                lab2q3t2
                0x0000000000102040                lab2q3t3
                0x0000000000102129                lab2q3t4
 .text          0x0000000000102212      0x7f2 binaries/lab2q4.o
                0x0000000000102212                lab2q4t1
                0x00000000001023d8                lab2q4t2
                0x000000000010258c                lab2q4t3
                0x0000000000102749                lab2q4t4
                0x0000000000102832                lab2q4t5
                0x000000000010291b                lab2q4t6
 .text          0x0000000000102a04      0x1dd binaries/lab2q5.o
                0x0000000000102a04                lab2q5t1
 .text          0x0000000000102be1      0x25a binaries/main.o
                0x0000000000102be1                main
 .text          0x0000000000102e3b       0x99 binaries/mark.o
                0x0000000000102e3b                markinit
                0x0000000000102e5c                mark
 .text          0x0000000000102ed4      0x1ff binaries/meminit.o
                0x0000000000102ed4                meminit
                0x0000000000103063                setsegs
 .text          0x00000000001030d3      0x122 binaries/mkbufpool.o
                0x00000000001030d3                mkbufpool
 .text          0x00000000001031f5       0x9c binaries/myappA.o
                0x00000000001031f5                myappA
 .text          0x0000000000103291       0x23 binaries/myfuncA.o
                0x0000000000103291                myfuncA
 .text          0x00000000001032b4       0x83 binaries/myhacker.o
                0x00000000001032b4                myhackermalware
                0x00000000001032e0                getretaddrbydepth
                0x000000000010330e                myhacker
 .text          0x0000000000103337       0x9b binaries/myvictim.o
                0x0000000000103337                makevictimsleep
                0x0000000000103362                invokevictimsleep
                0x000000000010338d                myvictim
 .text          0x00000000001033d2       0x5f binaries/mywelcomemsg.o
                0x00000000001033d2                mywelcomemsg
 .text          0x0000000000103431       0x63 binaries/newqueue.o
                0x0000000000103431                newqueue
 .text          0x0000000000103494       0x5c binaries/open.o
                0x0000000000103494                open
 .text          0x00000000001034f0       0x20 binaries/panic.o
                0x00000000001034f0                panic
 .text          0x0000000000103510      0x282 binaries/pci.o
                0x0000000000103510                pci_init
                0x000000000010351a                find_pci_device
                0x00000000001035d9                pci_read_config_byte
                0x0000000000103617                pci_read_config_word
                0x0000000000103657                pci_read_config_dword
                0x0000000000103695                pci_write_config_byte
                0x00000000001036d1                pci_write_config_word
                0x000000000010370e                pci_write_config_dword
                0x000000000010374a                pci_get_dev_mmio_base_addr
 .text          0x0000000000103792       0x50 binaries/platinit.o
                0x0000000000103792                platinit
 .text          0x00000000001037e2       0xa7 binaries/printsegaddr.o
                0x00000000001037e2                printsegaddr
 .text          0x0000000000103889      0x3ec binaries/process_state.o
                0x0000000000103889                process_state
 .text          0x0000000000103c75       0xa9 binaries/ptclear.o
                0x0000000000103c75                _ptclear
 .text          0x0000000000103d1e       0x85 binaries/ptcount.o
                0x0000000000103d1e                ptcount
 .text          0x0000000000103da3       0xfe binaries/ptcreate.o
                0x0000000000103da3                ptcreate
 .text          0x0000000000103ea1       0x63 binaries/ptdelete.o
                0x0000000000103ea1                ptdelete
 .text          0x0000000000103f04       0x91 binaries/ptinit.o
                0x0000000000103f04                ptinit
 .text          0x0000000000103f95       0xf5 binaries/ptrecv.o
                0x0000000000103f95                ptrecv
 .text          0x000000000010408a       0x66 binaries/ptreset.o
                0x000000000010408a                ptreset
 .text          0x00000000001040f0      0x115 binaries/ptsend.o
                0x00000000001040f0                ptsend
 .text          0x0000000000104205       0x64 binaries/putc.o
                0x0000000000104205                putc
 .text          0x0000000000104269       0xb3 binaries/quark_irq.o
                0x0000000000104269                quark_irq_routing
 .text          0x000000000010431c      0x19a binaries/quark_pdat.o
                0x000000000010431c                get_quark_pdat_entry_data_by_id
                0x00000000001043e6                get_quark_pdat_entry_data_by_desc
 .text          0x00000000001044b6       0xae binaries/queue.o
                0x00000000001044b6                enqueue
                0x0000000000104519                dequeue
 .text          0x0000000000104564       0x5c binaries/read.o
                0x0000000000104564                read
 .text          0x00000000001045c0       0x98 binaries/ready.o
                0x00000000001045c0                ready
 .text          0x0000000000104658       0x5a binaries/receive.o
                0x0000000000104658                receive
 .text          0x00000000001046b2       0x42 binaries/recvclr.o
                0x00000000001046b2                recvclr
 .text          0x00000000001046f4       0xad binaries/recvtime.o
                0x00000000001046f4                recvtime
 .text          0x00000000001047a1      0x214 binaries/resched.o
                0x00000000001047a1                reward_ready_waiting
                0x00000000001047d7                resched
                0x0000000000104943                resched_cntl
 .text          0x00000000001049b5       0x7e binaries/resume.o
                0x00000000001049b5                resume
 .text          0x0000000000104a33       0x59 binaries/seek.o
                0x0000000000104a33                seek
 .text          0x0000000000104a8c       0x51 binaries/semcount.o
                0x0000000000104a8c                semcount
 .text          0x0000000000104add       0x93 binaries/semcreate.o
                0x0000000000104add                semcreate
 .text          0x0000000000104b70       0xd1 binaries/semdelete.o
                0x0000000000104b70                semdelete
 .text          0x0000000000104c41       0xa8 binaries/semreset.o
                0x0000000000104c41                semreset
 .text          0x0000000000104ce9       0xb3 binaries/send.o
                0x0000000000104ce9                send
 .text          0x0000000000104d9c       0x95 binaries/signal.o
                0x0000000000104d9c                signal
 .text          0x0000000000104e31       0xc2 binaries/signaln.o
                0x0000000000104e31                signaln
 .text          0x0000000000104ef3       0xbd binaries/sleep.o
                0x0000000000104ef3                sleepms
                0x0000000000104f7a                sleep
 .text          0x0000000000104fb0       0x94 binaries/stackdepth.o
                0x0000000000104fb0                stackdepth
 .text          0x0000000000105044      0x17c binaries/stacktrace.o
                0x0000000000105044                stacktrace
 .text          0x00000000001051c0       0xac binaries/suspend.o
                0x00000000001051c0                suspend
 .text          0x000000000010526c       0x27 binaries/teststackdepth.o
                0x000000000010526c                teststackdepth
 .text          0x0000000000105293       0x91 binaries/unsleep.o
                0x0000000000105293                unsleep
 .text          0x0000000000105324       0x19 binaries/userret.o
                0x0000000000105324                userret
 .text          0x000000000010533d       0xac binaries/wait.o
                0x000000000010533d                wait
 .text          0x00000000001053e9       0x71 binaries/wakeup.o
                0x00000000001053e9                wakeup
 .text          0x000000000010545a       0x5c binaries/write.o
                0x000000000010545a                write
 .text          0x00000000001054b6       0x1a binaries/xdone.o
                0x00000000001054b6                xdone
 .text          0x00000000001054d0       0x26 binaries/yield.o
                0x00000000001054d0                yield
 .text          0x00000000001054f6       0x11 binaries/abs.o
                0x00000000001054f6                abs
 .text          0x0000000000105507       0x84 binaries/atoi.o
                0x0000000000105507                atoi
 .text          0x000000000010558b       0x84 binaries/atol.o
                0x000000000010558b                atol
 .text          0x000000000010560f       0x1a binaries/bzero.o
                0x000000000010560f                bzero
 .text          0x0000000000105629        0x0 binaries/ctype_.o
 .text          0x0000000000105629      0x6bf binaries/doprnt.o
                0x000000000010577c                _doprnt
 .text          0x0000000000105ce8      0x5f2 binaries/doscan.o
                0x0000000000105ce8                _doscan
 .text          0x00000000001062da      0x64e binaries/fdoprnt.o
                0x000000000010635f                _fdoprnt
 .text          0x0000000000106928       0x1c binaries/fgetc.o
                0x0000000000106928                fgetc
 .text          0x0000000000106944       0x61 binaries/fgets.o
                0x0000000000106944                fgets
 .text          0x00000000001069a5       0x21 binaries/fprintf.o
                0x00000000001069a5                fprintf
 .text          0x00000000001069c6       0x27 binaries/fputc.o
                0x00000000001069c6                fputc
 .text          0x00000000001069ed       0x3a binaries/fputs.o
                0x00000000001069ed                fputs
 .text          0x0000000000106a27       0x6a binaries/fscanf.o
                0x0000000000106a65                fscanf
 .text          0x0000000000106a91       0x1d binaries/getchar.o
                0x0000000000106a91                getchar
 .text          0x0000000000106aae       0x11 binaries/labs.o
                0x0000000000106aae                labs
 .text          0x0000000000106abf       0x36 binaries/memchr.o
                0x0000000000106abf                memchr
 .text          0x0000000000106af5       0x4a binaries/memcmp.o
                0x0000000000106af5                memcmp
 .text          0x0000000000106b3f       0x26 binaries/memcpy.o
                0x0000000000106b3f                memcpy
 .text          0x0000000000106b65       0x1f binaries/memset.o
                0x0000000000106b65                memset
 .text          0x0000000000106b84       0x2e binaries/printf.o
                0x0000000000106b84                printf
 .text          0x0000000000106bb2       0x20 binaries/putchar.o
                0x0000000000106bb2                putchar
 .text          0x0000000000106bd2      0x1cc binaries/qsort.o
                0x0000000000106d76                qsort
 .text          0x0000000000106d9e       0x4c binaries/rand.o
                0x0000000000106d9e                srand
                0x0000000000106dab                rand
 .text          0x0000000000106dea       0x48 binaries/sprintf.o
                0x0000000000106e03                sprintf
 .text          0x0000000000106e32       0x5a binaries/sscanf.o
                0x0000000000106e62                sscanf
 .text          0x0000000000106e8c       0x2f binaries/strchr.o
                0x0000000000106e8c                strchr
 .text          0x0000000000106ebb       0x45 binaries/strcmp.o
                0x0000000000106ebb                strcmp
 .text          0x0000000000106f00       0x1c binaries/strcpy.o
                0x0000000000106f00                strcpy
 .text          0x0000000000106f1c       0x20 binaries/strlen.o
                0x0000000000106f1c                strlen
 .text          0x0000000000106f3c       0x3d binaries/strncat.o
                0x0000000000106f3c                strncat
 .text          0x0000000000106f79       0x3b binaries/strncmp.o
                0x0000000000106f79                strncmp
 .text          0x0000000000106fb4       0x59 binaries/strncpy.o
                0x0000000000106fb4                strncpy
 .text          0x000000000010700d       0x38 binaries/strnlen.o
                0x000000000010700d                strnlen
 .text          0x0000000000107045       0x32 binaries/strrchr.o
                0x0000000000107045                strrchr
 .text          0x0000000000107077       0x68 binaries/strstr.o
                0x0000000000107077                strstr
 .text          0x00000000001070df      0x112 binaries/ttycontrol.o
                0x00000000001070df                ttycontrol
 .text          0x00000000001071f1       0xb0 binaries/ttygetc.o
                0x00000000001071f1                ttygetc
 .text          0x00000000001072a1      0x4a3 binaries/ttyhandle_in.o
                0x0000000000107365                ttyhandle_in
 .text          0x0000000000107744      0x178 binaries/ttyhandle_out.o
                0x0000000000107744                ttyhandle_out
 .text          0x00000000001078bc       0x85 binaries/ttyhandler.o
                0x00000000001078bc                ttyhandler
 .text          0x0000000000107941      0x15d binaries/ttyinit.o
                0x0000000000107941                ttyinit
 .text          0x0000000000107a9e        0xf binaries/ttykickout.o
                0x0000000000107a9e                ttykickout
 .text          0x0000000000107aad       0xb2 binaries/ttyputc.o
                0x0000000000107aad                ttyputc
 .text          0x0000000000107b5f       0xff binaries/ttyread.o
                0x0000000000107b5f                ttyread
 .text          0x0000000000107c5e       0x4d binaries/ttywrite.o
                0x0000000000107c5e                ttywrite
 .text          0x0000000000107cab      0x129 binaries/mount.o
                0x0000000000107cab                namlen
                0x0000000000107ce7                mount
 .text          0x0000000000107dd4      0x1c4 binaries/naminit.o
                0x0000000000107dd4                naminit
 .text          0x0000000000107f98      0x1fe binaries/nammap.o
                0x0000000000107f98                namrepl
                0x00000000001080bb                namcpy
                0x0000000000108109                nammap
 .text          0x0000000000108196       0x44 binaries/namopen.o
                0x0000000000108196                namopen
 .text          0x00000000001081da       0xd4 binaries/colon2mac.o
                0x00000000001081da                colon2mac
 .text          0x00000000001082ae       0x7d binaries/ethcontrol.o
                0x00000000001082ae                ethcontrol
 .text          0x000000000010832b      0x17e binaries/ethhandler.o
                0x000000000010832b                ethhandler
 .text          0x00000000001084a9      0x548 binaries/ethinit.o
                0x00000000001084a9                eth_phy_read
                0x00000000001084e9                eth_phy_write
                0x000000000010852a                eth_phy_reset
                0x0000000000108604                ethinit
 .text          0x00000000001089f1      0x107 binaries/ethmcast.o
                0x00000000001089f1                ethmcast_add
                0x0000000000108a3d                ethmcast_remove
 .text          0x0000000000108af8      0x172 binaries/ethread.o
                0x0000000000108af8                ethread
 .text          0x0000000000108c6a       0xc1 binaries/ethwrite.o
                0x0000000000108c6a                ethwrite
 .text          0x0000000000108d2b       0x68 binaries/rdsbufalloc.o
                0x0000000000108d2b                rdsbufalloc
 .text          0x0000000000108d93       0xd6 binaries/rdsclose.o
                0x0000000000108d93                rdsclose
 .text          0x0000000000108e69      0x1df binaries/rdscomm.o
                0x0000000000108e69                rdscomm
 .text          0x0000000000109048      0x1c4 binaries/rdscontrol.o
                0x0000000000109048                rdscontrol
 .text          0x000000000010920c      0x1f7 binaries/rdsinit.o
                0x000000000010920c                rdsinit
 .text          0x0000000000109403      0x199 binaries/rdsopen.o
                0x0000000000109403                rdsopen
 .text          0x000000000010959c      0x2c5 binaries/rdsprocess.o
                0x000000000010959c                rdsprocess
 .text          0x0000000000109861      0x1d8 binaries/rdsread.o
                0x0000000000109861                rdsread
 .text          0x0000000000109a39      0x1ae binaries/rdswrite.o
                0x0000000000109a39                rdswrite
 .text          0x0000000000109be7        0xa binaries/ramclose.o
                0x0000000000109be7                ramclose
 .text          0x0000000000109bf1       0x35 binaries/raminit.o
                0x0000000000109bf1                raminit
 .text          0x0000000000109c26        0xa binaries/ramopen.o
                0x0000000000109c26                ramopen
 .text          0x0000000000109c30       0x26 binaries/ramread.o
                0x0000000000109c30                ramread
 .text          0x0000000000109c56       0x26 binaries/ramwrite.o
                0x0000000000109c56                ramwrite
 .text          0x0000000000109c7c       0x87 binaries/lfdballoc.o
                0x0000000000109c7c                lfdballoc
 .text          0x0000000000109d03       0x49 binaries/lfdbfree.o
                0x0000000000109d03                lfdbfree
 .text          0x0000000000109d4c       0xa1 binaries/lfflush.o
                0x0000000000109d4c                lfflush
 .text          0x0000000000109ded       0x82 binaries/lfgetmode.o
                0x0000000000109ded                lfgetmode
 .text          0x0000000000109e6f       0x60 binaries/lfiballoc.o
                0x0000000000109e6f                lfiballoc
 .text          0x0000000000109ecf       0x27 binaries/lfibclear.o
                0x0000000000109ecf                lfibclear
 .text          0x0000000000109ef6       0x6c binaries/lfibget.o
                0x0000000000109ef6                lfibget
 .text          0x0000000000109f62       0x88 binaries/lfibput.o
                0x0000000000109f62                lfibput
 .text          0x0000000000109fea       0xa4 binaries/lflclose.o
                0x0000000000109fea                lflclose
 .text          0x000000000010a08e       0xc2 binaries/lflcontrol.o
                0x000000000010a08e                lflcontrol
 .text          0x000000000010a150       0xfd binaries/lflgetc.o
                0x000000000010a150                lflgetc
 .text          0x000000000010a24d       0xe7 binaries/lflinit.o
                0x000000000010a24d                lflinit
 .text          0x000000000010a334      0x12f binaries/lflputc.o
                0x000000000010a334                lflputc
 .text          0x000000000010a463       0x6b binaries/lflread.o
                0x000000000010a463                lflread
 .text          0x000000000010a4ce       0xbd binaries/lflseek.o
                0x000000000010a4ce                lflseek
 .text          0x000000000010a58b       0x52 binaries/lflwrite.o
                0x000000000010a58b                lflwrite
 .text          0x000000000010a5dd      0x114 binaries/lfsckfmt.o
                0x000000000010a5dd                lfsckfmt
 .text          0x000000000010a6f1      0x1e6 binaries/lfscreate.o
                0x000000000010a6f1                lfscreate
 .text          0x000000000010a8d7      0x1b1 binaries/lfsetup.o
                0x000000000010a8d7                lfsetup
 .text          0x000000000010aa88       0x45 binaries/lfsinit.o
                0x000000000010aa88                lfsinit
 .text          0x000000000010aacd      0x302 binaries/lfsopen.o
                0x000000000010aacd                lfsopen
 .text          0x000000000010adcf      0x112 binaries/lftruncate.o
                0x000000000010adcf                lftruncate
 .text          0x000000000010aee1       0x69 binaries/rflclose.o
                0x000000000010aee1                rflclose
 .text          0x000000000010af4a       0x29 binaries/rflgetc.o
                0x000000000010af4a                rflgetc
 .text          0x000000000010af73       0x6c binaries/rflinit.o
                0x000000000010af73                rflinit
 .text          0x000000000010afdf       0x29 binaries/rflputc.o
                0x000000000010afdf                rflputc
 .text          0x000000000010b008      0x2b6 binaries/rflread.o
                0x000000000010b008                rflread
 .text          0x000000000010b2be       0x68 binaries/rflseek.o
                0x000000000010b2be                rflseek
 .text          0x000000000010b326      0x2fa binaries/rflwrite.o
                0x000000000010b326                rflwrite
 .text          0x000000000010b620      0x17d binaries/rfscomm.o
                0x000000000010b620                rfscomm
 .text          0x000000000010b79d      0x22b binaries/rfscontrol.o
                0x000000000010b79d                rfscontrol
 .text          0x000000000010b9c8       0x82 binaries/rfsgetmode.o
                0x000000000010b9c8                rfsgetmode
 .text          0x000000000010ba4a       0x7e binaries/rfsinit.o
                0x000000000010ba4a                rfsinit
 .text          0x000000000010bac8       0xad binaries/rfsndmsg.o
                0x000000000010bac8                rfsndmsg
 .text          0x000000000010bb75      0x243 binaries/rfsopen.o
                0x000000000010bb75                rfsopen
 .text          0x000000000010bdb8      0x626 binaries/arp.o
                0x000000000010bdb8                arp_init
                0x000000000010bdd4                arp_alloc
                0x000000000010be7b                arp_ntoh
                0x000000000010bee8                arp_hton
                0x000000000010bf55                arp_resolve
                0x000000000010c1a6                arp_in
 .text          0x000000000010c3de      0x5ed binaries/dhcp.o
                0x000000000010c3de                dhcp_get_opt_val
                0x000000000010c432                dhcp_bld_bootp_msg
                0x000000000010c504                dhcp_bld_disc
                0x000000000010c556                dhcp_bld_req
                0x000000000010c5f1                getlocalip
 .text          0x000000000010c9cb       0xda binaries/dot2ip.o
                0x000000000010c9cb                dot2ip
 .text          0x000000000010caa5      0x38c binaries/hexdump.o
                0x000000000010caa5                hexdump
                0x000000000010cbff                hexadump
 .text          0x000000000010ce31      0x6f6 binaries/icmp.o
                0x000000000010ce31                icmp_init
                0x000000000010ce4d                icmp_register
                0x000000000010cf0b                icmp_recv
                0x000000000010d0ae                icmp_mkpkt
                0x000000000010d17b                icmp_in
                0x000000000010d315                icmp_send
                0x000000000010d384                icmp_release
                0x000000000010d49f                icmp_cksum
                0x000000000010d4f9                icmp_hton
                0x000000000010d510                icmp_ntoh
 .text          0x000000000010d527      0x5e2 binaries/ip.o
                0x000000000010d527                ip_local
                0x000000000010d567                ipcksum
                0x000000000010d5bd                ip_ntoh
                0x000000000010d62a                ip_in
                0x000000000010d74f                ip_hton
                0x000000000010d7bc                ip_out
                0x000000000010d872                ip_send
                0x000000000010d97d                ipout
                0x000000000010da70                ip_enqueue
 .text          0x000000000010db09      0x1b2 binaries/net.o
                0x000000000010db09                net_init
                0x000000000010dc00                eth_hton
                0x000000000010dc0d                eth_ntoh
                0x000000000010dc1a                netin
 .text          0x000000000010dcbb       0xb9 binaries/netstart.o
                0x000000000010dcbb                netstart
 .text          0x000000000010dd74      0xa30 binaries/pdump.o
                0x000000000010dd74                pdump
                0x000000000010e359                pdumph
 .text          0x000000000010e7a4      0x5b8 binaries/tftp.o
                0x000000000010e7a4                tftp_send1
                0x000000000010e8b8                tftpget_mb
                0x000000000010ed39                tftpget
 .text          0x000000000010ed5c      0xa17 binaries/udp.o
                0x000000000010ed5c                udp_init
                0x000000000010ed9d                udp_in
                0x000000000010eec6                udp_register
                0x000000000010efd7                udp_recv
                0x000000000010f170                udp_recvaddr
                0x000000000010f31d                udp_send
                0x000000000010f4cb                udp_sendto
                0x000000000010f634                udp_release
                0x000000000010f745                udp_ntoh
                0x000000000010f75c                udp_hton
 .text          0x000000000010f773      0x10e binaries/addargs.o
                0x000000000010f773                addargs
 .text          0x000000000010f881      0x1db binaries/lexan.o
                0x000000000010f881                lexan
 .text          0x000000000010fa5c      0x657 binaries/shell.o
                0x000000000010fa5c                shell
 .text          0x00000000001100b3       0x59 binaries/xsh_argecho.o
                0x00000000001100b3                xsh_argecho
 .text          0x000000000011010c      0x1fb binaries/xsh_arp.o
                0x000000000011010c                xsh_arp
 .text          0x0000000000110307      0x1db binaries/xsh_cat.o
                0x0000000000110307                xsh_cat
 .text          0x00000000001104e2       0x4f binaries/xsh_clear.o
                0x00000000001104e2                xsh_clear
 .text          0x0000000000110531      0x278 binaries/xsh_date.o
                0x0000000000110531                xsh_date
 .text          0x00000000001107a9       0x80 binaries/xsh_devdump.o
                0x00000000001107a9                xsh_devdump
 .text          0x0000000000110829       0x63 binaries/xsh_echo.o
                0x0000000000110829                xsh_echo
 .text          0x000000000011088c        0xa binaries/xsh_exit.o
                0x000000000011088c                xsh_exit
 .text          0x0000000000110896      0x323 binaries/xsh_help.o
                0x0000000000110896                xsh_help
 .text          0x0000000000110bb9      0x367 binaries/xsh_ipaddr.o
                0x0000000000110bb9                xsh_ipaddr
 .text          0x0000000000110f20      0x1aa binaries/xsh_kill.o
                0x0000000000110f20                xsh_kill
 .text          0x00000000001110ca      0x3bd binaries/xsh_memdump.o
                0x0000000000111190                xsh_memdump
 .text          0x0000000000111487      0x1cc binaries/xsh_memstat.o
                0x0000000000111487                xsh_memstat
 .text          0x0000000000111653      0x27f binaries/xsh_ping.o
                0x0000000000111653                xsh_ping
 .text          0x00000000001118d2      0x1a9 binaries/xsh_ps.o
                0x00000000001118d2                xsh_ps
 .text          0x0000000000111a7b      0x1a3 binaries/xsh_sleep.o
                0x0000000000111a7b                xsh_sleep
 .text          0x0000000000111c1e      0x1c3 binaries/xsh_udpdump.o
                0x0000000000111c1e                xsh_udpdump
 .text          0x0000000000111de1      0x3ad binaries/xsh_udpecho.o
                0x0000000000111de1                xsh_udpecho
 .text          0x000000000011218e      0x1fc binaries/xsh_udpeserver.o
                0x000000000011218e                xsh_udpeserver
 .text          0x000000000011238a      0x1b0 binaries/xsh_uptime.o
                0x000000000011238a                xsh_uptime
 .text          0x000000000011253a        0xe binaries/clkdisp.o
                0x000000000011253a                clkdisp
 .text          0x0000000000112548       0x19 binaries/ctxsw.o
                0x0000000000112548                ctxsw
 .text          0x0000000000112561        0xa binaries/host2netla.o
                0x0000000000112561                host2netla
 *fill*         0x000000000011256b        0x5 
 .text          0x0000000000112570       0x25 binaries/host2netlc.o
                0x0000000000112570                host2netlc
 .text.unlikely
                0x0000000000112595        0x0 binaries/host2netlc.o
 .text          0x0000000000112595      0x376 binaries/intr.o
                0x0000000000112595                disable
                0x000000000011259e                restore
                0x00000000001125ac                enable
                0x00000000001125ae                pause
                0x00000000001125b5                idle
                0x00000000001125c0                halt
                0x00000000001125c6                spurious_irq7
                0x00000000001125cb                spurious_irq15
                0x00000000001125da                _Xint0
                0x00000000001125e5                _Xint1
                0x00000000001125f0                _Xint2
                0x00000000001125fb                _Xint3
                0x0000000000112606                _Xint4
                0x0000000000112611                _Xint5
                0x000000000011261c                _Xint6
                0x0000000000112627                _Xint7
                0x0000000000112632                _Xint8
                0x000000000011263d                _Xint9
                0x0000000000112648                _Xint10
                0x0000000000112653                _Xint11
                0x0000000000112661                _Xint12
                0x000000000011266f                _Xint13
                0x000000000011267d                _Xint14
                0x000000000011268b                _Xint15
                0x0000000000112699                _Xint16
                0x00000000001126a7                _Xint17
                0x00000000001126b5                _Xint18
                0x00000000001126c3                _Xint19
                0x00000000001126d1                _Xint20
                0x00000000001126df                _Xint21
                0x00000000001126ed                _Xint22
                0x00000000001126fb                _Xint23
                0x0000000000112709                _Xint24
                0x0000000000112717                _Xint25
                0x0000000000112725                _Xint26
                0x0000000000112733                _Xint27
                0x0000000000112741                _Xint28
                0x000000000011274f                _Xint29
                0x000000000011275d                _Xint30
                0x000000000011276b                _Xint31
                0x0000000000112779                _Xint32
                0x0000000000112787                _Xint33
                0x0000000000112795                _Xint34
                0x00000000001127a3                _Xint35
                0x00000000001127b1                _Xint36
                0x00000000001127bf                _Xint37
                0x00000000001127cd                _Xint38
                0x00000000001127db                _Xint39
                0x00000000001127e9                _Xint40
                0x00000000001127f7                _Xint41
                0x0000000000112805                _Xint42
                0x0000000000112813                _Xint43
                0x0000000000112821                _Xint44
                0x000000000011282f                _Xint45
                0x000000000011283d                _Xint46
                0x000000000011284b                defevec
 .text          0x000000000011290b        0xf binaries/ttydispatch.o
                0x000000000011290b                ttydispatch
 .text          0x000000000011291a       0x13 binaries/ethdispatch.o
                0x000000000011291a                ethdispatch
 *(.rodata .rodata.*)
 .rodata.str1.1
                0x000000000011292d       0x17 binaries/app1.o
 .rodata.str1.1
                0x0000000000112944        0x5 binaries/app2.o
                                         0x1c (size before relaxing)
 *fill*         0x0000000000112949        0x3 
 .rodata.str1.4
                0x000000000011294c       0x2d binaries/app2.o
 *fill*         0x0000000000112979        0x3 
 .rodata.str1.4
                0x000000000011297c       0x4a binaries/app3.o
 .rodata.str1.1
                0x00000000001129c6       0x29 binaries/app3.o
 .rodata.str1.1
                0x00000000001129ef       0x54 binaries/ascdate.o
 *fill*         0x0000000000112a43        0x1 
 .rodata.str1.4
                0x0000000000112a44       0x22 binaries/ascdate.o
 *fill*         0x0000000000112a66        0x2 
 .rodata        0x0000000000112a68        0x4 binaries/clkhandler.o
                0x0000000000112a68                MAX_UINT32
 .rodata.str1.1
                0x0000000000112a6c       0x5f binaries/conf.o
 *fill*         0x0000000000112acb        0x1 
 .rodata.str1.4
                0x0000000000112acc      0x134 binaries/cpubound.o
 .rodata.str1.4
                0x0000000000112c00       0x4f binaries/early_imr.o
 *fill*         0x0000000000112c4f        0x1 
 .rodata        0x0000000000112c50       0x33 binaries/early_imr.o
 .rodata.str1.1
                0x0000000000112c83      0x20c binaries/evec.o
 *fill*         0x0000000000112e8f        0x1 
 .rodata.str1.4
                0x0000000000112e90       0x23 binaries/evec.o
 .rodata.str1.1
                0x0000000000112eb3        0xb binaries/getutime.o
 *fill*         0x0000000000112ebe        0x2 
 .rodata.str1.4
                0x0000000000112ec0       0x54 binaries/getutime.o
 .rodata.str1.1
                0x0000000000112f14       0x6b binaries/initialize.o
                                         0x6f (size before relaxing)
 *fill*         0x0000000000112f7f        0x1 
 .rodata.str1.4
                0x0000000000112f80       0xd4 binaries/initialize.o
 .rodata        0x0000000000113054        0x4 binaries/initialize.o
                0x0000000000113054                MAX_INT32
 .rodata.str1.4
                0x0000000000113058       0x45 binaries/insert.o
 .rodata.str1.4
                0x000000000011309d       0x80 binaries/iobound.o
 *fill*         0x000000000011309d        0x3 
 .rodata        0x00000000001130a0       0x20 binaries/kill.o
 .rodata.str1.1
                0x00000000001130c0       0x7a binaries/lab2q3.o
 *fill*         0x000000000011313a        0x2 
 .rodata.str1.4
                0x000000000011313c      0x23b binaries/lab2q3.o
 .rodata.str1.1
                0x0000000000113377       0x7e binaries/lab2q4.o
                                         0xf8 (size before relaxing)
 *fill*         0x00000000001133f5        0x3 
 .rodata.str1.4
                0x00000000001133f8      0x1fb binaries/lab2q4.o
                                        0x28f (size before relaxing)
 .rodata.str1.1
                0x00000000001135f3       0x42 binaries/lab2q5.o
 .rodata.str1.1
                0x00000000001135f3       0x61 binaries/main.o
 .rodata.str1.4
                0x0000000000113654       0x25 binaries/main.o
 *fill*         0x0000000000113679        0x3 
 .rodata.str1.4
                0x000000000011367c       0x23 binaries/meminit.o
 .rodata.str1.1
                0x000000000011369f       0x1b binaries/meminit.o
 *fill*         0x00000000001136ba        0x2 
 .rodata.str1.4
                0x00000000001136bc      0x103 binaries/myappA.o
 *fill*         0x00000000001137bf        0x1 
 .rodata.str1.4
                0x00000000001137c0       0x57 binaries/myfuncA.o
 *fill*         0x0000000000113817        0x1 
 .rodata.str1.4
                0x0000000000113818       0x4c binaries/myhacker.o
 .rodata.str1.4
                0x0000000000113864      0x178 binaries/myvictim.o
 .rodata.str1.4
                0x00000000001139dc      0x19b binaries/mywelcomemsg.o
 .rodata.str1.1
                0x0000000000113b77       0x16 binaries/mywelcomemsg.o
 .rodata.str1.1
                0x0000000000113b8d        0xf binaries/panic.o
 .rodata.str1.4
                0x0000000000113b9c       0xe1 binaries/printsegaddr.o
 .rodata.str1.1
                0x0000000000113c7d       0x94 binaries/process_state.o
                                         0xce (size before relaxing)
 *fill*         0x0000000000113d11        0x3 
 .rodata.str1.4
                0x0000000000113d14       0x97 binaries/process_state.o
 *fill*         0x0000000000113dab       0x15 
 .rodata        0x0000000000113dc0      0x1b0 binaries/process_state.o
 .rodata.str1.1
                0x0000000000113f70       0x1c binaries/ptinit.o
 .rodata.str1.4
                0x0000000000113f8c       0x25 binaries/ptsend.o
 .rodata.str1.1
                0x0000000000113fb1       0x22 binaries/quark_pdat.o
 *fill*         0x0000000000113fd3        0x1 
 .rodata.str1.4
                0x0000000000113fd4       0x58 binaries/stackdepth.o
 .rodata.str1.1
                0x000000000011402c       0x1b binaries/stackdepth.o
 *fill*         0x0000000000114047        0x1 
 .rodata.str1.4
                0x0000000000114048       0x63 binaries/stacktrace.o
 .rodata.str1.1
                0x00000000001140ab       0x52 binaries/stacktrace.o
 .rodata.str1.1
                0x00000000001140fd       0x1c binaries/teststackdepth.o
 *fill*         0x0000000000114119        0x3 
 .rodata.str1.4
                0x000000000011411c       0x27 binaries/xdone.o
 *fill*         0x0000000000114143       0x1d 
 .rodata        0x0000000000114160       0x81 binaries/ctype_.o
                0x0000000000114160                _ctype_
 .rodata.str1.1
                0x00000000001141e1       0x29 binaries/doprnt.o
 *fill*         0x000000000011420a        0x2 
 .rodata        0x000000000011420c       0xc4 binaries/doprnt.o
 .rodata        0x00000000001142d0       0x98 binaries/doscan.o
 .rodata.str1.1
                0x0000000000114368       0x29 binaries/fdoprnt.o
 .rodata        0x0000000000114368       0x84 binaries/fdoprnt.o
 .rodata        0x00000000001143ec       0x20 binaries/ttycontrol.o
 .rodata.str1.4
                0x000000000011440c       0x4c binaries/naminit.o
 .rodata.str1.1
                0x0000000000114458       0x32 binaries/naminit.o
                                         0x35 (size before relaxing)
 .rodata.str1.1
                0x000000000011448a       0x15 binaries/ethinit.o
 *fill*         0x000000000011449f        0x1 
 .rodata.str1.4
                0x00000000001144a0       0x2e binaries/ethinit.o
 *fill*         0x00000000001144ce        0x2 
 .rodata.str1.4
                0x00000000001144d0       0x2c binaries/rdsbufalloc.o
 .rodata.str1.4
                0x00000000001144fc       0x76 binaries/rdscomm.o
 *fill*         0x0000000000114572        0x2 
 .rodata.str1.4
                0x0000000000114574       0x48 binaries/rdscontrol.o
 .rodata.str1.4
                0x00000000001145bc       0x7e binaries/rdsinit.o
 .rodata.str1.1
                0x000000000011463a       0x18 binaries/rdsinit.o
 *fill*         0x0000000000114652        0x2 
 .rodata.str1.4
                0x0000000000114654       0x22 binaries/rdsopen.o
 *fill*         0x0000000000114676        0x2 
 .rodata.str1.4
                0x0000000000114678       0x4d binaries/rdsprocess.o
 .rodata.str1.1
                0x00000000001146c5        0x9 binaries/raminit.o
 .rodata.str1.1
                0x00000000001146ce       0x13 binaries/lfdballoc.o
 *fill*         0x00000000001146e1        0x3 
 .rodata.str1.4
                0x00000000001146e4       0x23 binaries/lfdballoc.o
 .rodata.str1.1
                0x0000000000114707       0x14 binaries/lfiballoc.o
 *fill*         0x000000000011471b        0x1 
 .rodata.str1.4
                0x000000000011471c       0x23 binaries/lflcontrol.o
 .rodata.str1.1
                0x000000000011473f       0x64 binaries/lfsckfmt.o
 *fill*         0x00000000001147a3        0x1 
 .rodata.str1.4
                0x00000000001147a4       0x51 binaries/lfsckfmt.o
 *fill*         0x00000000001147f5        0x3 
 .rodata.str1.4
                0x00000000001147f8       0x21 binaries/rflread.o
 .rodata.str1.4
                0x0000000000114819       0x21 binaries/rflwrite.o
 *fill*         0x0000000000114819        0x3 
 .rodata.str1.4
                0x000000000011481c       0x75 binaries/rfscomm.o
 *fill*         0x0000000000114891        0x3 
 .rodata.str1.4
                0x0000000000114894       0x23 binaries/rfscontrol.o
 *fill*         0x00000000001148b7        0x1 
 .rodata        0x00000000001148b8       0x18 binaries/rfscontrol.o
 .rodata.str1.1
                0x00000000001148d0       0x10 binaries/rfsinit.o
 .rodata.str1.4
                0x00000000001148d0       0x57 binaries/rfsinit.o
 *fill*         0x0000000000114927        0x1 
 .rodata.str1.4
                0x0000000000114928       0x2a binaries/rfsndmsg.o
 .rodata.str1.4
                0x0000000000114952       0x22 binaries/rfsopen.o
 .rodata.str1.1
                0x0000000000114952       0x19 binaries/arp.o
 *fill*         0x000000000011496b        0x1 
 .rodata.str1.4
                0x000000000011496c       0x21 binaries/arp.o
 *fill*         0x000000000011498d        0x3 
 .rodata.str1.4
                0x0000000000114990       0xa6 binaries/dhcp.o
 .rodata.str1.1
                0x0000000000114a36       0x4a binaries/dhcp.o
 .rodata.str1.1
                0x0000000000114a80       0x5a binaries/hexdump.o
                                         0x61 (size before relaxing)
 *fill*         0x0000000000114ada        0x2 
 .rodata.str1.4
                0x0000000000114adc       0x67 binaries/hexdump.o
 *fill*         0x0000000000114b43        0x1 
 .rodata.str1.4
                0x0000000000114b44       0x29 binaries/icmp.o
 .rodata.str1.1
                0x0000000000114b6d       0x4e binaries/ip.o
 *fill*         0x0000000000114bbb        0x1 
 .rodata.str1.4
                0x0000000000114bbc       0x20 binaries/ip.o
 .rodata.str1.4
                0x0000000000114bdc       0x28 binaries/net.o
 .rodata.str1.1
                0x0000000000114c04       0x27 binaries/net.o
 *fill*         0x0000000000114c2b        0x1 
 .rodata.str1.4
                0x0000000000114c2c       0xcf binaries/netstart.o
 .rodata.str1.1
                0x0000000000114cfb      0x141 binaries/pdump.o
                                        0x14b (size before relaxing)
 .rodata.str1.4
                0x0000000000114e3c      0x126 binaries/pdump.o
 *fill*         0x0000000000114f62        0x2 
 .rodata.str1.4
                0x0000000000114f64      0x148 binaries/tftp.o
 .rodata.str1.1
                0x00000000001150ac        0x6 binaries/tftp.o
                                          0xa (size before relaxing)
 .rodata.str1.1
                0x00000000001150b2       0xdd binaries/shell.o
                                         0xff (size before relaxing)
 *fill*         0x000000000011518f        0x1 
 .rodata.str1.4
                0x0000000000115190      0x1e8 binaries/shell.o
 *fill*         0x0000000000115378        0x8 
 .rodata        0x0000000000115380       0xfc binaries/shell.o
                0x0000000000115380                cmdtab
 .rodata.str1.1
                0x000000000011547c       0x26 binaries/xsh_argecho.o
                                         0x28 (size before relaxing)
 .rodata.str1.1
                0x00000000001154a2       0x70 binaries/xsh_arp.o
                                         0x72 (size before relaxing)
 *fill*         0x0000000000115512        0x2 
 .rodata.str1.4
                0x0000000000115514       0xb4 binaries/xsh_arp.o
 .rodata.str1.1
                0x00000000001155c8       0x2d binaries/xsh_cat.o
                                         0x4f (size before relaxing)
 *fill*         0x00000000001155f5        0x3 
 .rodata.str1.4
                0x00000000001155f8       0x52 binaries/xsh_cat.o
                                         0x79 (size before relaxing)
 .rodata.str1.1
                0x000000000011564a       0x15 binaries/xsh_clear.o
 .rodata.str1.1
                0x000000000011565f       0x46 binaries/xsh_date.o
                                         0x5f (size before relaxing)
 *fill*         0x00000000001156a5        0x3 
 .rodata.str1.4
                0x00000000001156a8      0x163 binaries/xsh_date.o
 .rodata.str1.1
                0x000000000011580b       0x5d binaries/xsh_devdump.o
 .rodata.str1.1
                0x0000000000115868        0x4 binaries/xsh_echo.o
                                          0x9 (size before relaxing)
 .rodata.str1.1
                0x000000000011586c       0x65 binaries/xsh_help.o
                                         0xa3 (size before relaxing)
 *fill*         0x00000000001158d1        0x3 
 .rodata.str1.4
                0x00000000001158d4       0x7c binaries/xsh_help.o
                                         0xc6 (size before relaxing)
 .rodata.str1.1
                0x0000000000115950       0x9c binaries/xsh_ipaddr.o
                                         0xf8 (size before relaxing)
 .rodata.str1.4
                0x00000000001159ec       0x4d binaries/xsh_ipaddr.o
                                         0x99 (size before relaxing)
 .rodata.str1.1
                0x0000000000115a39       0x78 binaries/xsh_kill.o
                                         0x97 (size before relaxing)
 *fill*         0x0000000000115ab1        0x3 
 .rodata.str1.4
                0x0000000000115ab4       0x4a binaries/xsh_kill.o
                                         0x96 (size before relaxing)
 .rodata.str1.1
                0x0000000000115afe       0x84 binaries/xsh_memdump.o
                                         0xa8 (size before relaxing)
 *fill*         0x0000000000115b82        0x2 
 .rodata.str1.4
                0x0000000000115b84      0x15a binaries/xsh_memdump.o
                                        0x1aa (size before relaxing)
 .rodata.str1.1
                0x0000000000115cde       0x40 binaries/xsh_memstat.o
                                         0x79 (size before relaxing)
 *fill*         0x0000000000115d1e        0x2 
 .rodata.str1.4
                0x0000000000115d20      0x187 binaries/xsh_memstat.o
                                        0x1af (size before relaxing)
 .rodata.str1.1
                0x0000000000115ea7       0x90 binaries/xsh_ping.o
                                         0xaf (size before relaxing)
 *fill*         0x0000000000115f37        0x1 
 .rodata.str1.4
                0x0000000000115f38       0x77 binaries/xsh_ping.o
                                         0xc6 (size before relaxing)
 .rodata.str1.1
                0x0000000000115faf        0x9 binaries/xsh_ps.o
                                         0xde (size before relaxing)
 .rodata.str1.4
                0x0000000000115fb8       0x88 binaries/xsh_ps.o
                                         0xd8 (size before relaxing)
 .rodata        0x0000000000116040       0x20 binaries/xsh_ps.o
 .rodata.str1.1
                0x0000000000116060       0x31 binaries/xsh_sleep.o
                                         0x72 (size before relaxing)
 *fill*         0x0000000000116091        0x3 
 .rodata.str1.4
                0x0000000000116094       0x2a binaries/xsh_sleep.o
                                         0x7a (size before relaxing)
 .rodata.str1.1
                0x00000000001160be       0x6b binaries/xsh_udpdump.o
                                         0xd2 (size before relaxing)
 *fill*         0x0000000000116129        0x3 
 .rodata.str1.4
                0x000000000011612c       0x94 binaries/xsh_udpdump.o
                                         0xe4 (size before relaxing)
 .rodata.str1.1
                0x00000000001161c0       0xdb binaries/xsh_udpecho.o
                                         0xfa (size before relaxing)
 *fill*         0x000000000011629b        0x1 
 .rodata.str1.4
                0x000000000011629c       0xc7 binaries/xsh_udpecho.o
                                        0x116 (size before relaxing)
 .rodata.str1.1
                0x0000000000116363       0x66 binaries/xsh_udpeserver.o
                                         0x8f (size before relaxing)
 *fill*         0x00000000001163c9        0x3 
 .rodata.str1.4
                0x00000000001163cc       0x29 binaries/xsh_udpeserver.o
                                         0x9f (size before relaxing)
 .rodata.str1.1
                0x00000000001163f5       0x49 binaries/xsh_uptime.o
                                         0x8c (size before relaxing)
 *fill*         0x000000000011643e        0x2 
 .rodata.str1.4
                0x0000000000116440       0x28 binaries/xsh_uptime.o
                                         0x76 (size before relaxing)
                0x0000000000116468                etext = ABSOLUTE (.)
                0x0000000000117000                . = ALIGN (0x1000)
 *fill*         0x0000000000116468      0xb98 

.eh_frame       0x0000000000117000     0x3524
 .eh_frame      0x0000000000117000       0x3c binaries/app1.o
 .eh_frame      0x000000000011703c       0x28 binaries/app2.o
                                         0x40 (size before relaxing)
 .eh_frame      0x0000000000117064       0x24 binaries/app3.o
                                         0x3c (size before relaxing)
 .eh_frame      0x0000000000117088       0x30 binaries/ascdate.o
                                         0x48 (size before relaxing)
 .eh_frame      0x00000000001170b8       0x20 binaries/bufinit.o
                                         0x38 (size before relaxing)
 .eh_frame      0x00000000001170d8       0x2c binaries/chprio.o
                                         0x44 (size before relaxing)
 .eh_frame      0x0000000000117104       0x20 binaries/clkhandler.o
                                         0x38 (size before relaxing)
 .eh_frame      0x0000000000117124       0x20 binaries/clkinit.o
                                         0x38 (size before relaxing)
 .eh_frame      0x0000000000117144       0x28 binaries/close.o
                                         0x40 (size before relaxing)
 .eh_frame      0x000000000011716c       0x28 binaries/control.o
                                         0x40 (size before relaxing)
 .eh_frame      0x0000000000117194       0x30 binaries/cpubound.o
                                         0x48 (size before relaxing)
 .eh_frame      0x00000000001171c4       0x30 binaries/create.o
                                         0x48 (size before relaxing)
 .eh_frame      0x00000000001171f4       0x94 binaries/early_imr.o
                                         0xac (size before relaxing)
 .eh_frame      0x0000000000117288       0x94 binaries/evec.o
                                         0xac (size before relaxing)
 .eh_frame      0x000000000011731c       0x24 binaries/factorial.o
                                         0x3c (size before relaxing)
 .eh_frame      0x0000000000117340       0x2c binaries/freebuf.o
                                         0x44 (size before relaxing)
 .eh_frame      0x000000000011736c       0x2c binaries/freemem.o
                                         0x44 (size before relaxing)
 .eh_frame      0x0000000000117398       0x2c binaries/getbuf.o
                                         0x44 (size before relaxing)
 .eh_frame      0x00000000001173c4       0x28 binaries/getc.o
                                         0x40 (size before relaxing)
 .eh_frame      0x00000000001173ec       0x2c binaries/getdev.o
                                         0x44 (size before relaxing)
 .eh_frame      0x0000000000117418       0x64 binaries/getitem.o
                                         0x7c (size before relaxing)
 .eh_frame      0x000000000011747c       0x28 binaries/getmem.o
                                         0x40 (size before relaxing)
 .eh_frame      0x00000000001174a4       0x20 binaries/getpid.o
                                         0x38 (size before relaxing)
 .eh_frame      0x00000000001174c4       0x20 binaries/getpname.o
                                         0x38 (size before relaxing)
 .eh_frame      0x00000000001174e4       0x20 binaries/getppid.o
                                         0x38 (size before relaxing)
 .eh_frame      0x0000000000117504       0x24 binaries/getprio.o
                                         0x3c (size before relaxing)
 .eh_frame      0x0000000000117528       0x2c binaries/getstk.o
                                         0x44 (size before relaxing)
 .eh_frame      0x0000000000117554       0x20 binaries/gettime.o
                                         0x38 (size before relaxing)
 .eh_frame      0x0000000000117574       0x24 binaries/getutime.o
                                         0x3c (size before relaxing)
 .eh_frame      0x0000000000117598       0x20 binaries/host2netlb.o
                                         0x38 (size before relaxing)
 .eh_frame      0x00000000001175b8       0x28 binaries/init.o
                                         0x40 (size before relaxing)
 .eh_frame      0x00000000001175e0       0x68 binaries/initialize.o
                                         0x80 (size before relaxing)
 .eh_frame      0x0000000000117648       0x28 binaries/insert.o
                                         0x40 (size before relaxing)
 .eh_frame      0x0000000000117670       0x2c binaries/insertd.o
                                         0x44 (size before relaxing)
 .eh_frame      0x000000000011769c       0x2c binaries/iobound.o
                                         0x44 (size before relaxing)
 .eh_frame      0x00000000001176c8       0x20 binaries/ioerr.o
                                         0x38 (size before relaxing)
 .eh_frame      0x00000000001176e8       0x20 binaries/ionull.o
                                         0x38 (size before relaxing)
 .eh_frame      0x0000000000117708       0x30 binaries/kill.o
                                         0x48 (size before relaxing)
 .eh_frame      0x0000000000117738       0x80 binaries/kprintf.o
                                         0x98 (size before relaxing)
 .eh_frame      0x00000000001177b8      0x108 binaries/lab2q3.o
                                        0x120 (size before relaxing)
 .eh_frame      0x00000000001178c0      0x114 binaries/lab2q4.o
                                        0x12c (size before relaxing)
 .eh_frame      0x00000000001179d4       0x30 binaries/lab2q5.o
                                         0x48 (size before relaxing)
 .eh_frame      0x0000000000117a04       0x30 binaries/main.o
                                         0x48 (size before relaxing)
 .eh_frame      0x0000000000117a34       0x44 binaries/mark.o
                                         0x5c (size before relaxing)
 .eh_frame      0x0000000000117a78       0x50 binaries/meminit.o
                                         0x68 (size before relaxing)
 .eh_frame      0x0000000000117ac8       0x30 binaries/mkbufpool.o
                                         0x48 (size before relaxing)
 .eh_frame      0x0000000000117af8       0x2c binaries/myappA.o
                                         0x44 (size before relaxing)
 .eh_frame      0x0000000000117b24       0x20 binaries/myfuncA.o
                                         0x38 (size before relaxing)
 .eh_frame      0x0000000000117b44       0x64 binaries/myhacker.o
                                         0x7c (size before relaxing)
 .eh_frame      0x0000000000117ba8       0x60 binaries/myvictim.o
                                         0x78 (size before relaxing)
 .eh_frame      0x0000000000117c08       0x20 binaries/mywelcomemsg.o
                                         0x38 (size before relaxing)
 .eh_frame      0x0000000000117c28       0x20 binaries/newqueue.o
                                         0x38 (size before relaxing)
 .eh_frame      0x0000000000117c48       0x28 binaries/open.o
                                         0x40 (size before relaxing)
 .eh_frame      0x0000000000117c70       0x1c binaries/panic.o
                                         0x34 (size before relaxing)
 .eh_frame      0x0000000000117c8c      0x12c binaries/pci.o
                                        0x144 (size before relaxing)
 .eh_frame      0x0000000000117db8       0x20 binaries/platinit.o
                                         0x38 (size before relaxing)
 .eh_frame      0x0000000000117dd8       0x20 binaries/printsegaddr.o
                                         0x38 (size before relaxing)
 .eh_frame      0x0000000000117df8       0x30 binaries/process_state.o
                                         0x48 (size before relaxing)
 .eh_frame      0x0000000000117e28       0x2c binaries/ptclear.o
                                         0x44 (size before relaxing)
 .eh_frame      0x0000000000117e54       0x2c binaries/ptcount.o
                                         0x44 (size before relaxing)
 .eh_frame      0x0000000000117e80       0x2c binaries/ptcreate.o
                                         0x44 (size before relaxing)
 .eh_frame      0x0000000000117eac       0x28 binaries/ptdelete.o
                                         0x40 (size before relaxing)
 .eh_frame      0x0000000000117ed4       0x28 binaries/ptinit.o
                                         0x40 (size before relaxing)
 .eh_frame      0x0000000000117efc       0x2c binaries/ptrecv.o
                                         0x44 (size before relaxing)
 .eh_frame      0x0000000000117f28       0x28 binaries/ptreset.o
                                         0x40 (size before relaxing)
 .eh_frame      0x0000000000117f50       0x30 binaries/ptsend.o
                                         0x48 (size before relaxing)
 .eh_frame      0x0000000000117f80       0x2c binaries/putc.o
                                         0x44 (size before relaxing)
 .eh_frame      0x0000000000117fac       0x24 binaries/quark_irq.o
                                         0x3c (size before relaxing)
 .eh_frame      0x0000000000117fd0       0x54 binaries/quark_pdat.o
                                         0x6c (size before relaxing)
 .eh_frame      0x0000000000118024       0x40 binaries/queue.o
                                         0x58 (size before relaxing)
 .eh_frame      0x0000000000118064       0x28 binaries/read.o
                                         0x40 (size before relaxing)
 .eh_frame      0x000000000011808c       0x20 binaries/ready.o
                                         0x38 (size before relaxing)
 .eh_frame      0x00000000001180ac       0x2c binaries/receive.o
                                         0x44 (size before relaxing)
 .eh_frame      0x00000000001180d8       0x24 binaries/recvclr.o
                                         0x3c (size before relaxing)
 .eh_frame      0x00000000001180fc       0x2c binaries/recvtime.o
                                         0x44 (size before relaxing)
 .eh_frame      0x0000000000118128       0x70 binaries/resched.o
                                         0x88 (size before relaxing)
 .eh_frame      0x0000000000118198       0x2c binaries/resume.o
                                         0x44 (size before relaxing)
 .eh_frame      0x00000000001181c4       0x28 binaries/seek.o
                                         0x40 (size before relaxing)
 .eh_frame      0x00000000001181ec       0x24 binaries/semcount.o
                                         0x3c (size before relaxing)
 .eh_frame      0x0000000000118210       0x2c binaries/semcreate.o
                                         0x44 (size before relaxing)
 .eh_frame      0x000000000011823c       0x2c binaries/semdelete.o
                                         0x44 (size before relaxing)
 .eh_frame      0x0000000000118268       0x2c binaries/semreset.o
                                         0x44 (size before relaxing)
 .eh_frame      0x0000000000118294       0x28 binaries/send.o
                                         0x40 (size before relaxing)
 .eh_frame      0x00000000001182bc       0x28 binaries/signal.o
                                         0x40 (size before relaxing)
 .eh_frame      0x00000000001182e4       0x2c binaries/signaln.o
                                         0x44 (size before relaxing)
 .eh_frame      0x0000000000118310       0x48 binaries/sleep.o
                                         0x60 (size before relaxing)
 .eh_frame      0x0000000000118358       0x2c binaries/stackdepth.o
                                         0x44 (size before relaxing)
 .eh_frame      0x0000000000118384       0x30 binaries/stacktrace.o
                                         0x48 (size before relaxing)
 .eh_frame      0x00000000001183b4       0x28 binaries/suspend.o
                                         0x40 (size before relaxing)
 .eh_frame      0x00000000001183dc       0x20 binaries/teststackdepth.o
                                         0x38 (size before relaxing)
 .eh_frame      0x00000000001183fc       0x28 binaries/unsleep.o
                                         0x40 (size before relaxing)
 .eh_frame      0x0000000000118424       0x20 binaries/userret.o
                                         0x38 (size before relaxing)
 .eh_frame      0x0000000000118444       0x28 binaries/wait.o
                                         0x40 (size before relaxing)
 .eh_frame      0x000000000011846c       0x20 binaries/wakeup.o
                                         0x38 (size before relaxing)
 .eh_frame      0x000000000011848c       0x28 binaries/write.o
                                         0x40 (size before relaxing)
 .eh_frame      0x00000000001184b4       0x20 binaries/xdone.o
                                         0x38 (size before relaxing)
 .eh_frame      0x00000000001184d4       0x24 binaries/yield.o
                                         0x3c (size before relaxing)
 .eh_frame      0x00000000001184f8       0x20 binaries/abs.o
                                         0x38 (size before relaxing)
 .eh_frame      0x0000000000118518       0x28 binaries/atoi.o
                                         0x40 (size before relaxing)
 .eh_frame      0x0000000000118540       0x28 binaries/atol.o
                                         0x40 (size before relaxing)
 .eh_frame      0x0000000000118568       0x20 binaries/bzero.o
                                         0x38 (size before relaxing)
 .eh_frame      0x0000000000118588       0xac binaries/doprnt.o
                                         0xc4 (size before relaxing)
 .eh_frame      0x0000000000118634       0x30 binaries/doscan.o
                                         0x48 (size before relaxing)
 .eh_frame      0x0000000000118664       0x5c binaries/fdoprnt.o
                                         0x74 (size before relaxing)
 .eh_frame      0x00000000001186c0       0x20 binaries/fgetc.o
                                         0x38 (size before relaxing)
 .eh_frame      0x00000000001186e0       0x2c binaries/fgets.o
                                         0x44 (size before relaxing)
 .eh_frame      0x000000000011870c       0x20 binaries/fprintf.o
                                         0x38 (size before relaxing)
 .eh_frame      0x000000000011872c       0x20 binaries/fputc.o
                                         0x38 (size before relaxing)
 .eh_frame      0x000000000011874c       0x28 binaries/fputs.o
                                         0x40 (size before relaxing)
 .eh_frame      0x0000000000118774       0x64 binaries/fscanf.o
                                         0x7c (size before relaxing)
 .eh_frame      0x00000000001187d8       0x20 binaries/getchar.o
                                         0x38 (size before relaxing)
 .eh_frame      0x00000000001187f8       0x20 binaries/labs.o
                                         0x38 (size before relaxing)
 .eh_frame      0x0000000000118818       0x20 binaries/memchr.o
                                         0x38 (size before relaxing)
 .eh_frame      0x0000000000118838       0x28 binaries/memcmp.o
                                         0x40 (size before relaxing)
 .eh_frame      0x0000000000118860       0x28 binaries/memcpy.o
                                         0x40 (size before relaxing)
 .eh_frame      0x0000000000118888       0x24 binaries/memset.o
                                         0x3c (size before relaxing)
 .eh_frame      0x00000000001188ac       0x20 binaries/printf.o
                                         0x38 (size before relaxing)
 .eh_frame      0x00000000001188cc       0x20 binaries/putchar.o
                                         0x38 (size before relaxing)
 .eh_frame      0x00000000001188ec       0xa4 binaries/qsort.o
                                         0xbc (size before relaxing)
 .eh_frame      0x0000000000118990       0x40 binaries/rand.o
                                         0x58 (size before relaxing)
 .eh_frame      0x00000000001189d0       0x48 binaries/sprintf.o
                                         0x60 (size before relaxing)
 .eh_frame      0x0000000000118a18       0x60 binaries/sscanf.o
                                         0x78 (size before relaxing)
 .eh_frame      0x0000000000118a78       0x24 binaries/strchr.o
                                         0x3c (size before relaxing)
 .eh_frame      0x0000000000118a9c       0x24 binaries/strcmp.o
                                         0x3c (size before relaxing)
 .eh_frame      0x0000000000118ac0       0x20 binaries/strcpy.o
                                         0x38 (size before relaxing)
 .eh_frame      0x0000000000118ae0       0x20 binaries/strlen.o
                                         0x38 (size before relaxing)
 .eh_frame      0x0000000000118b00       0x2c binaries/strncat.o
                                         0x44 (size before relaxing)
 .eh_frame      0x0000000000118b2c       0x24 binaries/strncmp.o
                                         0x3c (size before relaxing)
 .eh_frame      0x0000000000118b50       0x2c binaries/strncpy.o
                                         0x44 (size before relaxing)
 .eh_frame      0x0000000000118b7c       0x24 binaries/strnlen.o
                                         0x3c (size before relaxing)
 .eh_frame      0x0000000000118ba0       0x24 binaries/strrchr.o
                                         0x3c (size before relaxing)
 .eh_frame      0x0000000000118bc4       0x2c binaries/strstr.o
                                         0x44 (size before relaxing)
 .eh_frame      0x0000000000118bf0       0x30 binaries/ttycontrol.o
                                         0x48 (size before relaxing)
 .eh_frame      0x0000000000118c20       0x2c binaries/ttygetc.o
                                         0x44 (size before relaxing)
 .eh_frame      0x0000000000118c4c       0x84 binaries/ttyhandle_in.o
                                         0x9c (size before relaxing)
 .eh_frame      0x0000000000118cd0       0x30 binaries/ttyhandle_out.o
                                         0x48 (size before relaxing)
 .eh_frame      0x0000000000118d00       0x28 binaries/ttyhandler.o
                                         0x40 (size before relaxing)
 .eh_frame      0x0000000000118d28       0x30 binaries/ttyinit.o
                                         0x48 (size before relaxing)
 .eh_frame      0x0000000000118d58       0x20 binaries/ttykickout.o
                                         0x38 (size before relaxing)
 .eh_frame      0x0000000000118d78       0x2c binaries/ttyputc.o
                                         0x44 (size before relaxing)
 .eh_frame      0x0000000000118da4       0x2c binaries/ttyread.o
                                         0x44 (size before relaxing)
 .eh_frame      0x0000000000118dd0       0x2c binaries/ttywrite.o
                                         0x44 (size before relaxing)
 .eh_frame      0x0000000000118dfc       0x4c binaries/mount.o
                                         0x64 (size before relaxing)
 .eh_frame      0x0000000000118e48       0x30 binaries/naminit.o
                                         0x48 (size before relaxing)
 .eh_frame      0x0000000000118e78       0x84 binaries/nammap.o
                                         0x9c (size before relaxing)
 .eh_frame      0x0000000000118efc       0x20 binaries/namopen.o
                                         0x38 (size before relaxing)
 .eh_frame      0x0000000000118f1c       0x2c binaries/colon2mac.o
                                         0x44 (size before relaxing)
 .eh_frame      0x0000000000118f48       0x20 binaries/ethcontrol.o
                                         0x38 (size before relaxing)
 .eh_frame      0x0000000000118f68       0x30 binaries/ethhandler.o
                                         0x48 (size before relaxing)
 .eh_frame      0x0000000000118f98       0x98 binaries/ethinit.o
                                         0xb0 (size before relaxing)
 .eh_frame      0x0000000000119030       0x54 binaries/ethmcast.o
                                         0x6c (size before relaxing)
 .eh_frame      0x0000000000119084       0x30 binaries/ethread.o
                                         0x48 (size before relaxing)
 .eh_frame      0x00000000001190b4       0x2c binaries/ethwrite.o
                                         0x44 (size before relaxing)
 .eh_frame      0x00000000001190e0       0x24 binaries/rdsbufalloc.o
                                         0x3c (size before relaxing)
 .eh_frame      0x0000000000119104       0x2c binaries/rdsclose.o
                                         0x44 (size before relaxing)
 .eh_frame      0x0000000000119130       0x30 binaries/rdscomm.o
                                         0x48 (size before relaxing)
 .eh_frame      0x0000000000119160       0x30 binaries/rdscontrol.o
                                         0x48 (size before relaxing)
 .eh_frame      0x0000000000119190       0x30 binaries/rdsinit.o
                                         0x48 (size before relaxing)
 .eh_frame      0x00000000001191c0       0x30 binaries/rdsopen.o
                                         0x48 (size before relaxing)
 .eh_frame      0x00000000001191f0       0x20 binaries/rdsprocess.o
                                         0x38 (size before relaxing)
 .eh_frame      0x0000000000119210       0x30 binaries/rdsread.o
                                         0x48 (size before relaxing)
 .eh_frame      0x0000000000119240       0x30 binaries/rdswrite.o
                                         0x48 (size before relaxing)
 .eh_frame      0x0000000000119270       0x20 binaries/ramclose.o
                                         0x38 (size before relaxing)
 .eh_frame      0x0000000000119290       0x20 binaries/raminit.o
                                         0x38 (size before relaxing)
 .eh_frame      0x00000000001192b0       0x20 binaries/ramopen.o
                                         0x38 (size before relaxing)
 .eh_frame      0x00000000001192d0       0x20 binaries/ramread.o
                                         0x38 (size before relaxing)
 .eh_frame      0x00000000001192f0       0x20 binaries/ramwrite.o
                                         0x38 (size before relaxing)
 .eh_frame      0x0000000000119310       0x28 binaries/lfdballoc.o
                                         0x40 (size before relaxing)
 .eh_frame      0x0000000000119338       0x24 binaries/lfdbfree.o
                                         0x3c (size before relaxing)
 .eh_frame      0x000000000011935c       0x24 binaries/lfflush.o
                                         0x3c (size before relaxing)
 .eh_frame      0x0000000000119380       0x20 binaries/lfgetmode.o
                                         0x38 (size before relaxing)
 .eh_frame      0x00000000001193a0       0x24 binaries/lfiballoc.o
                                         0x3c (size before relaxing)
 .eh_frame      0x00000000001193c4       0x20 binaries/lfibclear.o
                                         0x38 (size before relaxing)
 .eh_frame      0x00000000001193e4       0x2c binaries/lfibget.o
                                         0x44 (size before relaxing)
 .eh_frame      0x0000000000119410       0x2c binaries/lfibput.o
                                         0x44 (size before relaxing)
 .eh_frame      0x000000000011943c       0x28 binaries/lflclose.o
                                         0x40 (size before relaxing)
 .eh_frame      0x0000000000119464       0x2c binaries/lflcontrol.o
                                         0x44 (size before relaxing)
 .eh_frame      0x0000000000119490       0x2c binaries/lflgetc.o
                                         0x44 (size before relaxing)
 .eh_frame      0x00000000001194bc       0x2c binaries/lflinit.o
                                         0x44 (size before relaxing)
 .eh_frame      0x00000000001194e8       0x30 binaries/lflputc.o
                                         0x48 (size before relaxing)
 .eh_frame      0x0000000000119518       0x2c binaries/lflread.o
                                         0x44 (size before relaxing)
 .eh_frame      0x0000000000119544       0x2c binaries/lflseek.o
                                         0x44 (size before relaxing)
 .eh_frame      0x0000000000119570       0x2c binaries/lflwrite.o
                                         0x44 (size before relaxing)
 .eh_frame      0x000000000011959c       0x30 binaries/lfsckfmt.o
                                         0x48 (size before relaxing)
 .eh_frame      0x00000000001195cc       0x30 binaries/lfscreate.o
                                         0x48 (size before relaxing)
 .eh_frame      0x00000000001195fc       0x30 binaries/lfsetup.o
                                         0x48 (size before relaxing)
 .eh_frame      0x000000000011962c       0x20 binaries/lfsinit.o
                                         0x38 (size before relaxing)
 .eh_frame      0x000000000011964c       0x30 binaries/lfsopen.o
                                         0x48 (size before relaxing)
 .eh_frame      0x000000000011967c       0x30 binaries/lftruncate.o
                                         0x48 (size before relaxing)
 .eh_frame      0x00000000001196ac       0x20 binaries/rflclose.o
                                         0x38 (size before relaxing)
 .eh_frame      0x00000000001196cc       0x20 binaries/rflgetc.o
                                         0x38 (size before relaxing)
 .eh_frame      0x00000000001196ec       0x24 binaries/rflinit.o
                                         0x3c (size before relaxing)
 .eh_frame      0x0000000000119710       0x20 binaries/rflputc.o
                                         0x38 (size before relaxing)
 .eh_frame      0x0000000000119730       0x30 binaries/rflread.o
                                         0x48 (size before relaxing)
 .eh_frame      0x0000000000119760       0x20 binaries/rflseek.o
                                         0x38 (size before relaxing)
 .eh_frame      0x0000000000119780       0x30 binaries/rflwrite.o
                                         0x48 (size before relaxing)
 .eh_frame      0x00000000001197b0       0x30 binaries/rfscomm.o
                                         0x48 (size before relaxing)
 .eh_frame      0x00000000001197e0       0x2c binaries/rfscontrol.o
                                         0x44 (size before relaxing)
 .eh_frame      0x000000000011980c       0x20 binaries/rfsgetmode.o
                                         0x38 (size before relaxing)
 .eh_frame      0x000000000011982c       0x20 binaries/rfsinit.o
                                         0x38 (size before relaxing)
 .eh_frame      0x000000000011984c       0x20 binaries/rfsndmsg.o
                                         0x38 (size before relaxing)
 .eh_frame      0x000000000011986c       0x2c binaries/rfsopen.o
                                         0x44 (size before relaxing)
 .eh_frame      0x0000000000119898       0xec binaries/arp.o
                                        0x104 (size before relaxing)
 .eh_frame      0x0000000000119984       0xd0 binaries/dhcp.o
                                         0xe8 (size before relaxing)
 .eh_frame      0x0000000000119a54       0x2c binaries/dot2ip.o
                                         0x44 (size before relaxing)
 .eh_frame      0x0000000000119a80       0x60 binaries/hexdump.o
                                         0x78 (size before relaxing)
 .eh_frame      0x0000000000119ae0      0x198 binaries/icmp.o
                                        0x1b0 (size before relaxing)
 .eh_frame      0x0000000000119c78      0x148 binaries/ip.o
                                        0x160 (size before relaxing)
 .eh_frame      0x0000000000119dc0       0x7c binaries/net.o
                                         0x94 (size before relaxing)
 .eh_frame      0x0000000000119e3c       0x24 binaries/netstart.o
                                         0x3c (size before relaxing)
 .eh_frame      0x0000000000119e60       0x50 binaries/pdump.o
                                         0x68 (size before relaxing)
 .eh_frame      0x0000000000119eb0       0x80 binaries/tftp.o
                                         0x98 (size before relaxing)
 .eh_frame      0x0000000000119f30      0x1b0 binaries/udp.o
                                        0x1c8 (size before relaxing)
 .eh_frame      0x000000000011a0e0       0x30 binaries/addargs.o
                                         0x48 (size before relaxing)
 .eh_frame      0x000000000011a110       0x30 binaries/lexan.o
                                         0x48 (size before relaxing)
 .eh_frame      0x000000000011a140       0x30 binaries/shell.o
                                         0x48 (size before relaxing)
 .eh_frame      0x000000000011a170       0x2c binaries/xsh_argecho.o
                                         0x44 (size before relaxing)
 .eh_frame      0x000000000011a19c       0x30 binaries/xsh_arp.o
                                         0x48 (size before relaxing)
 .eh_frame      0x000000000011a1cc       0x30 binaries/xsh_cat.o
                                         0x48 (size before relaxing)
 .eh_frame      0x000000000011a1fc       0x20 binaries/xsh_clear.o
                                         0x38 (size before relaxing)
 .eh_frame      0x000000000011a21c       0x24 binaries/xsh_date.o
                                         0x3c (size before relaxing)
 .eh_frame      0x000000000011a240       0x28 binaries/xsh_devdump.o
                                         0x40 (size before relaxing)
 .eh_frame      0x000000000011a268       0x2c binaries/xsh_echo.o
                                         0x44 (size before relaxing)
 .eh_frame      0x000000000011a294       0x20 binaries/xsh_exit.o
                                         0x38 (size before relaxing)
 .eh_frame      0x000000000011a2b4       0x30 binaries/xsh_help.o
                                         0x48 (size before relaxing)
 .eh_frame      0x000000000011a2e4       0x2c binaries/xsh_ipaddr.o
                                         0x44 (size before relaxing)
 .eh_frame      0x000000000011a310       0x2c binaries/xsh_kill.o
                                         0x44 (size before relaxing)
 .eh_frame      0x000000000011a33c       0x58 binaries/xsh_memdump.o
                                         0x70 (size before relaxing)
 .eh_frame      0x000000000011a394       0x30 binaries/xsh_memstat.o
                                         0x48 (size before relaxing)
 .eh_frame      0x000000000011a3c4       0x30 binaries/xsh_ping.o
                                         0x48 (size before relaxing)
 .eh_frame      0x000000000011a3f4       0x30 binaries/xsh_ps.o
                                         0x48 (size before relaxing)
 .eh_frame      0x000000000011a424       0x30 binaries/xsh_sleep.o
                                         0x48 (size before relaxing)
 .eh_frame      0x000000000011a454       0x2c binaries/xsh_udpdump.o
                                         0x44 (size before relaxing)
 .eh_frame      0x000000000011a480       0x30 binaries/xsh_udpecho.o
                                         0x48 (size before relaxing)
 .eh_frame      0x000000000011a4b0       0x30 binaries/xsh_udpeserver.o
                                         0x48 (size before relaxing)
 .eh_frame      0x000000000011a4e0       0x30 binaries/xsh_uptime.o
                                         0x48 (size before relaxing)
 .eh_frame      0x000000000011a510       0x14 binaries/host2netlc.o
                                         0x2c (size before relaxing)

.iplt           0x000000000011a530        0x0
 .iplt          0x000000000011a530        0x0 binaries/start.o

.rel.dyn        0x000000000011a524        0x0
 .rel.iplt      0x000000000011a524        0x0 binaries/start.o
 .rel.text      0x000000000011a524        0x0 binaries/start.o
 .rel.data      0x000000000011a524        0x0 binaries/start.o
 .rel.rodata    0x000000000011a524        0x0 binaries/start.o

.data           0x000000000011a540     0x1ac0
                0x000000000011a540                data = ABSOLUTE (.)
 *(.data .data.*)
 .data          0x000000000011a540      0x85a binaries/start.o
                0x000000000011a540                gdt
                0x000000000011a590                idt
                0x000000000011ad96                cpudelay
 .data          0x000000000011ad9a        0x0 binaries/app1.o
 .data          0x000000000011ad9a        0x0 binaries/app2.o
 .data          0x000000000011ad9a        0x0 binaries/app3.o
 *fill*         0x000000000011ad9a        0x6 
 .data          0x000000000011ada0       0x88 binaries/ascdate.o
                0x000000000011ada0                Date
 .data          0x000000000011ae28        0x0 binaries/bufinit.o
 .data          0x000000000011ae28        0x0 binaries/chprio.o
 .data          0x000000000011ae28        0x4 binaries/clkhandler.o
 .data          0x000000000011ae2c        0x0 binaries/clkinit.o
 .data          0x000000000011ae2c        0x0 binaries/close.o
 *fill*         0x000000000011ae2c       0x14 
 .data          0x000000000011ae40      0x30c binaries/conf.o
                0x000000000011ae40                devtab
 .data          0x000000000011b14c        0x0 binaries/control.o
 .data          0x000000000011b14c        0x0 binaries/cpubound.o
 .data          0x000000000011b14c        0x4 binaries/create.o
 .data          0x000000000011b150        0x0 binaries/early_imr.o
 *fill*         0x000000000011b150       0x10 
 .data          0x000000000011b160       0x40 binaries/evec.o
                0x000000000011b160                inames
 .data          0x000000000011b1a0        0x0 binaries/factorial.o
 .data          0x000000000011b1a0        0x0 binaries/freebuf.o
 .data          0x000000000011b1a0        0x0 binaries/freemem.o
 .data          0x000000000011b1a0        0x0 binaries/getbuf.o
 .data          0x000000000011b1a0        0x0 binaries/getc.o
 .data          0x000000000011b1a0        0x0 binaries/getdev.o
 .data          0x000000000011b1a0        0x0 binaries/getitem.o
 .data          0x000000000011b1a0        0x0 binaries/getmem.o
 .data          0x000000000011b1a0        0x0 binaries/getpid.o
 .data          0x000000000011b1a0        0x0 binaries/getpname.o
 .data          0x000000000011b1a0        0x0 binaries/getppid.o
 .data          0x000000000011b1a0        0x0 binaries/getprio.o
 .data          0x000000000011b1a0        0x0 binaries/getstk.o
 .data          0x000000000011b1a0        0x0 binaries/gettime.o
 .data          0x000000000011b1a0        0x0 binaries/getutime.o
 .data          0x000000000011b1a0        0x0 binaries/host2netlb.o
 .data          0x000000000011b1a0        0x0 binaries/init.o
 .data          0x000000000011b1a0        0x0 binaries/initialize.o
 .data          0x000000000011b1a0        0x0 binaries/insert.o
 .data          0x000000000011b1a0        0x0 binaries/insertd.o
 .data          0x000000000011b1a0        0x0 binaries/iobound.o
 .data          0x000000000011b1a0        0x0 binaries/ioerr.o
 .data          0x000000000011b1a0        0x0 binaries/ionull.o
 .data          0x000000000011b1a0        0x0 binaries/kill.o
 .data          0x000000000011b1a0        0x0 binaries/kprintf.o
 .data          0x000000000011b1a0        0x0 binaries/lab2q3.o
 .data          0x000000000011b1a0        0x0 binaries/lab2q4.o
 .data          0x000000000011b1a0        0x0 binaries/lab2q5.o
 .data          0x000000000011b1a0        0x4 binaries/main.o
                0x000000000011b1a0                lab2flag
 .data          0x000000000011b1a4        0x0 binaries/mark.o
 *fill*         0x000000000011b1a4       0x1c 
 .data          0x000000000011b1c0       0x48 binaries/meminit.o
                0x000000000011b1c0                gdt_copy
                0x000000000011b200                bootinfo
                0x000000000011b204                bootsign
 .data          0x000000000011b208        0x0 binaries/mkbufpool.o
 .data          0x000000000011b208        0x0 binaries/myappA.o
 .data          0x000000000011b208        0x0 binaries/myfuncA.o
 .data          0x000000000011b208        0x0 binaries/myhacker.o
 .data          0x000000000011b208        0x0 binaries/myvictim.o
 .data          0x000000000011b208        0x0 binaries/mywelcomemsg.o
 .data          0x000000000011b208        0x2 binaries/newqueue.o
 .data          0x000000000011b20a        0x0 binaries/open.o
 .data          0x000000000011b20a        0x0 binaries/panic.o
 .data          0x000000000011b20a        0x0 binaries/pci.o
 .data          0x000000000011b20a        0x0 binaries/platinit.o
 .data          0x000000000011b20a        0x0 binaries/printsegaddr.o
 .data          0x000000000011b20a        0x0 binaries/process_state.o
 .data          0x000000000011b20a        0x0 binaries/ptclear.o
 .data          0x000000000011b20a        0x0 binaries/ptcount.o
 .data          0x000000000011b20a        0x0 binaries/ptcreate.o
 .data          0x000000000011b20a        0x0 binaries/ptdelete.o
 .data          0x000000000011b20a        0x0 binaries/ptinit.o
 .data          0x000000000011b20a        0x0 binaries/ptrecv.o
 .data          0x000000000011b20a        0x0 binaries/ptreset.o
 .data          0x000000000011b20a        0x0 binaries/ptsend.o
 .data          0x000000000011b20a        0x0 binaries/putc.o
 .data          0x000000000011b20a        0x0 binaries/quark_irq.o
 .data          0x000000000011b20a        0x0 binaries/quark_pdat.o
 .data          0x000000000011b20a        0x0 binaries/queue.o
 .data          0x000000000011b20a        0x0 binaries/read.o
 .data          0x000000000011b20a        0x0 binaries/ready.o
 .data          0x000000000011b20a        0x0 binaries/receive.o
 .data          0x000000000011b20a        0x0 binaries/recvclr.o
 .data          0x000000000011b20a        0x0 binaries/recvtime.o
 .data          0x000000000011b20a        0x0 binaries/resched.o
 .data          0x000000000011b20a        0x0 binaries/resume.o
 .data          0x000000000011b20a        0x0 binaries/seek.o
 .data          0x000000000011b20a        0x0 binaries/semcount.o
 .data          0x000000000011b20a        0x0 binaries/semcreate.o
 .data          0x000000000011b20a        0x0 binaries/semdelete.o
 .data          0x000000000011b20a        0x0 binaries/semreset.o
 .data          0x000000000011b20a        0x0 binaries/send.o
 .data          0x000000000011b20a        0x0 binaries/signal.o
 .data          0x000000000011b20a        0x0 binaries/signaln.o
 .data          0x000000000011b20a        0x0 binaries/sleep.o
 .data          0x000000000011b20a        0x0 binaries/stackdepth.o
 .data          0x000000000011b20a        0x0 binaries/stacktrace.o
 .data          0x000000000011b20a        0x0 binaries/suspend.o
 .data          0x000000000011b20a        0x0 binaries/teststackdepth.o
 .data          0x000000000011b20a        0x0 binaries/unsleep.o
 .data          0x000000000011b20a        0x0 binaries/userret.o
 .data          0x000000000011b20a        0x0 binaries/wait.o
 .data          0x000000000011b20a        0x0 binaries/wakeup.o
 .data          0x000000000011b20a        0x0 binaries/write.o
 .data          0x000000000011b20a        0x0 binaries/xdone.o
 .data          0x000000000011b20a        0x0 binaries/yield.o
 .data          0x000000000011b20a        0x0 binaries/abs.o
 .data          0x000000000011b20a        0x0 binaries/atoi.o
 .data          0x000000000011b20a        0x0 binaries/atol.o
 .data          0x000000000011b20a        0x0 binaries/bzero.o
 .data          0x000000000011b20a        0x0 binaries/ctype_.o
 .data          0x000000000011b20a        0x0 binaries/doprnt.o
 *fill*         0x000000000011b20a       0x16 
 .data          0x000000000011b220       0x80 binaries/doscan.o
                0x000000000011b220                _sctab
 .data          0x000000000011b2a0        0x0 binaries/fdoprnt.o
 .data          0x000000000011b2a0        0x0 binaries/fgetc.o
 .data          0x000000000011b2a0        0x0 binaries/fgets.o
 .data          0x000000000011b2a0        0x0 binaries/fprintf.o
 .data          0x000000000011b2a0        0x0 binaries/fputc.o
 .data          0x000000000011b2a0        0x0 binaries/fputs.o
 .data          0x000000000011b2a0        0x0 binaries/fscanf.o
 .data          0x000000000011b2a0        0x0 binaries/getchar.o
 .data          0x000000000011b2a0        0x0 binaries/labs.o
 .data          0x000000000011b2a0        0x0 binaries/memchr.o
 .data          0x000000000011b2a0        0x0 binaries/memcmp.o
 .data          0x000000000011b2a0        0x0 binaries/memcpy.o
 .data          0x000000000011b2a0        0x0 binaries/memset.o
 .data          0x000000000011b2a0        0x0 binaries/printf.o
 .data          0x000000000011b2a0        0x0 binaries/putchar.o
 .data          0x000000000011b2a0        0x0 binaries/qsort.o
 .data          0x000000000011b2a0        0x4 binaries/rand.o
 .data          0x000000000011b2a4        0x0 binaries/sprintf.o
 .data          0x000000000011b2a4        0x0 binaries/sscanf.o
 .data          0x000000000011b2a4        0x0 binaries/strchr.o
 .data          0x000000000011b2a4        0x0 binaries/strcmp.o
 .data          0x000000000011b2a4        0x0 binaries/strcpy.o
 .data          0x000000000011b2a4        0x0 binaries/strlen.o
 .data          0x000000000011b2a4        0x0 binaries/strncat.o
 .data          0x000000000011b2a4        0x0 binaries/strncmp.o
 .data          0x000000000011b2a4        0x0 binaries/strncpy.o
 .data          0x000000000011b2a4        0x0 binaries/strnlen.o
 .data          0x000000000011b2a4        0x0 binaries/strrchr.o
 .data          0x000000000011b2a4        0x0 binaries/strstr.o
 .data          0x000000000011b2a4        0x0 binaries/ttycontrol.o
 .data          0x000000000011b2a4        0x0 binaries/ttygetc.o
 .data          0x000000000011b2a4        0x0 binaries/ttyhandle_in.o
 .data          0x000000000011b2a4        0x0 binaries/ttyhandle_out.o
 .data          0x000000000011b2a4        0x0 binaries/ttyhandler.o
 .data          0x000000000011b2a4        0x0 binaries/ttyinit.o
 .data          0x000000000011b2a4        0x0 binaries/ttykickout.o
 .data          0x000000000011b2a4        0x0 binaries/ttyputc.o
 .data          0x000000000011b2a4        0x0 binaries/ttyread.o
 .data          0x000000000011b2a4        0x0 binaries/ttywrite.o
 .data          0x000000000011b2a4        0x0 binaries/mount.o
 .data          0x000000000011b2a4        0x0 binaries/naminit.o
 .data          0x000000000011b2a4        0x0 binaries/nammap.o
 .data          0x000000000011b2a4        0x0 binaries/namopen.o
 .data          0x000000000011b2a4        0x0 binaries/colon2mac.o
 .data          0x000000000011b2a4        0x0 binaries/ethcontrol.o
 .data          0x000000000011b2a4        0x0 binaries/ethhandler.o
 .data          0x000000000011b2a4        0x0 binaries/ethinit.o
 .data          0x000000000011b2a4        0x0 binaries/ethmcast.o
 .data          0x000000000011b2a4        0x0 binaries/ethread.o
 .data          0x000000000011b2a4        0x0 binaries/ethwrite.o
 .data          0x000000000011b2a4        0x0 binaries/rdsbufalloc.o
 .data          0x000000000011b2a4        0x0 binaries/rdsclose.o
 .data          0x000000000011b2a4        0x0 binaries/rdscomm.o
 .data          0x000000000011b2a4        0x0 binaries/rdscontrol.o
 .data          0x000000000011b2a4        0x0 binaries/rdsinit.o
 .data          0x000000000011b2a4        0x0 binaries/rdsopen.o
 .data          0x000000000011b2a4        0x0 binaries/rdsprocess.o
 .data          0x000000000011b2a4        0x0 binaries/rdsread.o
 .data          0x000000000011b2a4        0x0 binaries/rdswrite.o
 .data          0x000000000011b2a4        0x0 binaries/ramclose.o
 .data          0x000000000011b2a4        0x0 binaries/raminit.o
 .data          0x000000000011b2a4        0x0 binaries/ramopen.o
 .data          0x000000000011b2a4        0x0 binaries/ramread.o
 .data          0x000000000011b2a4        0x0 binaries/ramwrite.o
 .data          0x000000000011b2a4        0x0 binaries/lfdballoc.o
 .data          0x000000000011b2a4        0x0 binaries/lfdbfree.o
 .data          0x000000000011b2a4        0x0 binaries/lfflush.o
 .data          0x000000000011b2a4        0x0 binaries/lfgetmode.o
 .data          0x000000000011b2a4        0x0 binaries/lfiballoc.o
 .data          0x000000000011b2a4        0x0 binaries/lfibclear.o
 .data          0x000000000011b2a4        0x0 binaries/lfibget.o
 .data          0x000000000011b2a4        0x0 binaries/lfibput.o
 .data          0x000000000011b2a4        0x0 binaries/lflclose.o
 .data          0x000000000011b2a4        0x0 binaries/lflcontrol.o
 .data          0x000000000011b2a4        0x0 binaries/lflgetc.o
 .data          0x000000000011b2a4        0x0 binaries/lflinit.o
 .data          0x000000000011b2a4        0x0 binaries/lflputc.o
 .data          0x000000000011b2a4        0x0 binaries/lflread.o
 .data          0x000000000011b2a4        0x0 binaries/lflseek.o
 .data          0x000000000011b2a4        0x0 binaries/lflwrite.o
 .data          0x000000000011b2a4        0x0 binaries/lfsckfmt.o
 .data          0x000000000011b2a4        0x0 binaries/lfscreate.o
 .data          0x000000000011b2a4        0x0 binaries/lfsetup.o
 .data          0x000000000011b2a4        0x0 binaries/lfsinit.o
 .data          0x000000000011b2a4        0x0 binaries/lfsopen.o
 .data          0x000000000011b2a4        0x0 binaries/lftruncate.o
 .data          0x000000000011b2a4        0x0 binaries/rflclose.o
 .data          0x000000000011b2a4        0x0 binaries/rflgetc.o
 .data          0x000000000011b2a4        0x0 binaries/rflinit.o
 .data          0x000000000011b2a4        0x0 binaries/rflputc.o
 .data          0x000000000011b2a4        0x0 binaries/rflread.o
 .data          0x000000000011b2a4        0x0 binaries/rflseek.o
 .data          0x000000000011b2a4        0x0 binaries/rflwrite.o
 .data          0x000000000011b2a4        0x0 binaries/rfscomm.o
 .data          0x000000000011b2a4        0x0 binaries/rfscontrol.o
 .data          0x000000000011b2a4        0x0 binaries/rfsgetmode.o
 .data          0x000000000011b2a4        0x0 binaries/rfsinit.o
 .data          0x000000000011b2a4        0x0 binaries/rfsndmsg.o
 .data          0x000000000011b2a4        0x0 binaries/rfsopen.o
 .data          0x000000000011b2a4        0x0 binaries/arp.o
 .data          0x000000000011b2a4        0x0 binaries/dhcp.o
 .data          0x000000000011b2a4        0x0 binaries/dot2ip.o
 .data          0x000000000011b2a4        0x0 binaries/hexdump.o
 .data          0x000000000011b2a4        0x4 binaries/icmp.o
 .data          0x000000000011b2a8        0x0 binaries/ip.o
 .data          0x000000000011b2a8        0x0 binaries/net.o
 .data          0x000000000011b2a8        0x0 binaries/netstart.o
 .data          0x000000000011b2a8        0x0 binaries/pdump.o
 .data          0x000000000011b2a8        0x0 binaries/tftp.o
 .data          0x000000000011b2a8        0x4 binaries/udp.o
 .data          0x000000000011b2ac        0x0 binaries/addargs.o
 .data          0x000000000011b2ac        0x0 binaries/lexan.o
 .data          0x000000000011b2ac        0x4 binaries/shell.o
                0x000000000011b2ac                ncmd
 .data          0x000000000011b2b0        0x0 binaries/xsh_argecho.o
 .data          0x000000000011b2b0        0x0 binaries/xsh_arp.o
 .data          0x000000000011b2b0        0x0 binaries/xsh_cat.o
 .data          0x000000000011b2b0        0x0 binaries/xsh_clear.o
 .data          0x000000000011b2b0        0x0 binaries/xsh_date.o
 .data          0x000000000011b2b0        0x0 binaries/xsh_devdump.o
 .data          0x000000000011b2b0        0x0 binaries/xsh_echo.o
 .data          0x000000000011b2b0        0x0 binaries/xsh_exit.o
 .data          0x000000000011b2b0        0x0 binaries/xsh_help.o
 .data          0x000000000011b2b0        0x0 binaries/xsh_ipaddr.o
 .data          0x000000000011b2b0        0x0 binaries/xsh_kill.o
 .data          0x000000000011b2b0        0x0 binaries/xsh_memdump.o
 .data          0x000000000011b2b0        0x0 binaries/xsh_memstat.o
 .data          0x000000000011b2b0        0x0 binaries/xsh_ping.o
 .data          0x000000000011b2b0        0x0 binaries/xsh_ps.o
 .data          0x000000000011b2b0        0x0 binaries/xsh_sleep.o
 .data          0x000000000011b2b0        0x0 binaries/xsh_udpdump.o
 .data          0x000000000011b2b0        0x0 binaries/xsh_udpecho.o
 .data          0x000000000011b2b0        0x0 binaries/xsh_udpeserver.o
 .data          0x000000000011b2b0        0x0 binaries/xsh_uptime.o
 .data          0x000000000011b2b0        0x0 binaries/clkdisp.o
 .data          0x000000000011b2b0        0x0 binaries/ctxsw.o
 .data          0x000000000011b2b0        0x0 binaries/host2netla.o
 .data          0x000000000011b2b0        0x0 binaries/host2netlc.o
 .data          0x000000000011b2b0        0x0 binaries/intr.o
 .data          0x000000000011b2b0        0x0 binaries/ttydispatch.o
 .data          0x000000000011b2b0        0x0 binaries/ethdispatch.o
                0x000000000011b2b0                edata = ABSOLUTE (.)
                0x000000000011c000                . = ALIGN (0x1000)
 *fill*         0x000000000011b2b0      0xd50 

.igot.plt       0x000000000011c000        0x0
 .igot.plt      0x000000000011c000        0x0 binaries/start.o

.bss            0x000000000011c000    0x20000
                0x000000000011c000                bss = ABSOLUTE (.)
 *(.bss .bss.*)
 .bss           0x000000000011c000        0x0 binaries/start.o
 .bss           0x000000000011c000        0x0 binaries/app1.o
 .bss           0x000000000011c000        0x0 binaries/app2.o
 .bss           0x000000000011c000        0x0 binaries/app3.o
 .bss           0x000000000011c000        0x0 binaries/ascdate.o
 .bss           0x000000000011c000        0x0 binaries/bufinit.o
 .bss           0x000000000011c000        0x0 binaries/chprio.o
 .bss           0x000000000011c000        0x0 binaries/clkhandler.o
 .bss           0x000000000011c000        0x4 binaries/clkinit.o
                0x000000000011c000                ctr1000
 .bss           0x000000000011c004        0x0 binaries/close.o
 .bss           0x000000000011c004        0x0 binaries/conf.o
 .bss           0x000000000011c004        0x0 binaries/control.o
 .bss           0x000000000011c004        0x0 binaries/cpubound.o
 .bss           0x000000000011c004        0x0 binaries/create.o
 .bss           0x000000000011c004        0x0 binaries/early_imr.o
 .bss           0x000000000011c004        0x0 binaries/evec.o
 .bss           0x000000000011c004        0x0 binaries/factorial.o
 .bss           0x000000000011c004        0x0 binaries/freebuf.o
 .bss           0x000000000011c004        0x0 binaries/freemem.o
 .bss           0x000000000011c004        0x0 binaries/getbuf.o
 .bss           0x000000000011c004        0x0 binaries/getc.o
 .bss           0x000000000011c004        0x0 binaries/getdev.o
 .bss           0x000000000011c004        0x0 binaries/getitem.o
 .bss           0x000000000011c004        0x0 binaries/getmem.o
 .bss           0x000000000011c004        0x0 binaries/getpid.o
 .bss           0x000000000011c004        0x0 binaries/getpname.o
 .bss           0x000000000011c004        0x0 binaries/getppid.o
 .bss           0x000000000011c004        0x0 binaries/getprio.o
 .bss           0x000000000011c004        0x0 binaries/getstk.o
 .bss           0x000000000011c004        0x0 binaries/gettime.o
 .bss           0x000000000011c004        0x0 binaries/getutime.o
 .bss           0x000000000011c004        0x0 binaries/host2netlb.o
 .bss           0x000000000011c004        0x0 binaries/init.o
 .bss           0x000000000011c004        0x0 binaries/initialize.o
 .bss           0x000000000011c004        0x0 binaries/insert.o
 .bss           0x000000000011c004        0x0 binaries/insertd.o
 .bss           0x000000000011c004        0x0 binaries/iobound.o
 .bss           0x000000000011c004        0x0 binaries/ioerr.o
 .bss           0x000000000011c004        0x0 binaries/ionull.o
 .bss           0x000000000011c004        0x0 binaries/kill.o
 .bss           0x000000000011c004        0x0 binaries/kprintf.o
 .bss           0x000000000011c004        0x0 binaries/lab2q3.o
 .bss           0x000000000011c004        0x0 binaries/lab2q4.o
 .bss           0x000000000011c004        0x0 binaries/lab2q5.o
 .bss           0x000000000011c004        0x0 binaries/main.o
 .bss           0x000000000011c004        0x0 binaries/mark.o
 .bss           0x000000000011c004        0x0 binaries/meminit.o
 .bss           0x000000000011c004        0x0 binaries/mkbufpool.o
 .bss           0x000000000011c004        0x0 binaries/myappA.o
 .bss           0x000000000011c004        0x0 binaries/myfuncA.o
 .bss           0x000000000011c004        0x0 binaries/myhacker.o
 .bss           0x000000000011c004        0x0 binaries/myvictim.o
 .bss           0x000000000011c004        0x0 binaries/mywelcomemsg.o
 .bss           0x000000000011c004        0x0 binaries/newqueue.o
 .bss           0x000000000011c004        0x0 binaries/open.o
 .bss           0x000000000011c004        0x0 binaries/panic.o
 .bss           0x000000000011c004        0x0 binaries/pci.o
 .bss           0x000000000011c004        0x0 binaries/platinit.o
 .bss           0x000000000011c004        0x0 binaries/printsegaddr.o
 .bss           0x000000000011c004        0x0 binaries/process_state.o
 .bss           0x000000000011c004        0x0 binaries/ptclear.o
 .bss           0x000000000011c004        0x0 binaries/ptcount.o
 .bss           0x000000000011c004        0x0 binaries/ptcreate.o
 .bss           0x000000000011c004        0x0 binaries/ptdelete.o
 .bss           0x000000000011c004        0x0 binaries/ptinit.o
 .bss           0x000000000011c004        0x0 binaries/ptrecv.o
 .bss           0x000000000011c004        0x0 binaries/ptreset.o
 .bss           0x000000000011c004        0x0 binaries/ptsend.o
 .bss           0x000000000011c004        0x0 binaries/putc.o
 .bss           0x000000000011c004        0x0 binaries/quark_irq.o
 .bss           0x000000000011c004        0x0 binaries/quark_pdat.o
 .bss           0x000000000011c004        0x0 binaries/queue.o
 .bss           0x000000000011c004        0x0 binaries/read.o
 .bss           0x000000000011c004        0x0 binaries/ready.o
 .bss           0x000000000011c004        0x0 binaries/receive.o
 .bss           0x000000000011c004        0x0 binaries/recvclr.o
 .bss           0x000000000011c004        0x0 binaries/recvtime.o
 .bss           0x000000000011c004        0x0 binaries/resched.o
 .bss           0x000000000011c004        0x0 binaries/resume.o
 .bss           0x000000000011c004        0x0 binaries/seek.o
 .bss           0x000000000011c004        0x0 binaries/semcount.o
 .bss           0x000000000011c004        0x4 binaries/semcreate.o
 .bss           0x000000000011c008        0x0 binaries/semdelete.o
 .bss           0x000000000011c008        0x0 binaries/semreset.o
 .bss           0x000000000011c008        0x0 binaries/send.o
 .bss           0x000000000011c008        0x0 binaries/signal.o
 .bss           0x000000000011c008        0x0 binaries/signaln.o
 .bss           0x000000000011c008        0x0 binaries/sleep.o
 .bss           0x000000000011c008        0x0 binaries/stackdepth.o
 .bss           0x000000000011c008        0x8 binaries/stacktrace.o
 .bss           0x000000000011c010        0x0 binaries/suspend.o
 .bss           0x000000000011c010        0x0 binaries/teststackdepth.o
 .bss           0x000000000011c010        0x0 binaries/unsleep.o
 .bss           0x000000000011c010        0x0 binaries/userret.o
 .bss           0x000000000011c010        0x0 binaries/wait.o
 .bss           0x000000000011c010        0x0 binaries/wakeup.o
 .bss           0x000000000011c010        0x0 binaries/write.o
 .bss           0x000000000011c010        0x0 binaries/xdone.o
 .bss           0x000000000011c010        0x0 binaries/yield.o
 .bss           0x000000000011c010        0x0 binaries/abs.o
 .bss           0x000000000011c010        0x0 binaries/atoi.o
 .bss           0x000000000011c010        0x0 binaries/atol.o
 .bss           0x000000000011c010        0x0 binaries/bzero.o
 .bss           0x000000000011c010        0x0 binaries/ctype_.o
 .bss           0x000000000011c010        0x0 binaries/doprnt.o
 .bss           0x000000000011c010        0x0 binaries/doscan.o
 .bss           0x000000000011c010        0x0 binaries/fdoprnt.o
 .bss           0x000000000011c010        0x0 binaries/fgetc.o
 .bss           0x000000000011c010        0x0 binaries/fgets.o
 .bss           0x000000000011c010        0x0 binaries/fprintf.o
 .bss           0x000000000011c010        0x0 binaries/fputc.o
 .bss           0x000000000011c010        0x0 binaries/fputs.o
 .bss           0x000000000011c010        0x0 binaries/fscanf.o
 .bss           0x000000000011c010        0x0 binaries/getchar.o
 .bss           0x000000000011c010        0x0 binaries/labs.o
 .bss           0x000000000011c010        0x0 binaries/memchr.o
 .bss           0x000000000011c010        0x0 binaries/memcmp.o
 .bss           0x000000000011c010        0x0 binaries/memcpy.o
 .bss           0x000000000011c010        0x0 binaries/memset.o
 .bss           0x000000000011c010        0x0 binaries/printf.o
 .bss           0x000000000011c010        0x0 binaries/putchar.o
 .bss           0x000000000011c010        0x8 binaries/qsort.o
 .bss           0x000000000011c018        0x0 binaries/rand.o
 .bss           0x000000000011c018        0x0 binaries/sprintf.o
 .bss           0x000000000011c018        0x0 binaries/sscanf.o
 .bss           0x000000000011c018        0x0 binaries/strchr.o
 .bss           0x000000000011c018        0x0 binaries/strcmp.o
 .bss           0x000000000011c018        0x0 binaries/strcpy.o
 .bss           0x000000000011c018        0x0 binaries/strlen.o
 .bss           0x000000000011c018        0x0 binaries/strncat.o
 .bss           0x000000000011c018        0x0 binaries/strncmp.o
 .bss           0x000000000011c018        0x0 binaries/strncpy.o
 .bss           0x000000000011c018        0x0 binaries/strnlen.o
 .bss           0x000000000011c018        0x0 binaries/strrchr.o
 .bss           0x000000000011c018        0x0 binaries/strstr.o
 .bss           0x000000000011c018        0x0 binaries/ttycontrol.o
 .bss           0x000000000011c018        0x0 binaries/ttygetc.o
 .bss           0x000000000011c018        0x0 binaries/ttyhandle_in.o
 .bss           0x000000000011c018        0x0 binaries/ttyhandle_out.o
 .bss           0x000000000011c018        0x0 binaries/ttyhandler.o
 .bss           0x000000000011c018        0x0 binaries/ttyinit.o
 .bss           0x000000000011c018        0x0 binaries/ttykickout.o
 .bss           0x000000000011c018        0x0 binaries/ttyputc.o
 .bss           0x000000000011c018        0x0 binaries/ttyread.o
 .bss           0x000000000011c018        0x0 binaries/ttywrite.o
 .bss           0x000000000011c018        0x0 binaries/mount.o
 .bss           0x000000000011c018        0x0 binaries/naminit.o
 .bss           0x000000000011c018        0x0 binaries/nammap.o
 .bss           0x000000000011c018        0x0 binaries/namopen.o
 .bss           0x000000000011c018        0x0 binaries/colon2mac.o
 .bss           0x000000000011c018        0x0 binaries/ethcontrol.o
 .bss           0x000000000011c018        0x0 binaries/ethhandler.o
 .bss           0x000000000011c018        0x0 binaries/ethinit.o
 .bss           0x000000000011c018        0x0 binaries/ethmcast.o
 .bss           0x000000000011c018        0x0 binaries/ethread.o
 .bss           0x000000000011c018        0x0 binaries/ethwrite.o
 .bss           0x000000000011c018        0x0 binaries/rdsbufalloc.o
 .bss           0x000000000011c018        0x0 binaries/rdsclose.o
 .bss           0x000000000011c018        0x0 binaries/rdscomm.o
 .bss           0x000000000011c018        0x0 binaries/rdscontrol.o
 .bss           0x000000000011c018        0x0 binaries/rdsinit.o
 .bss           0x000000000011c018        0x0 binaries/rdsopen.o
 .bss           0x000000000011c018        0x0 binaries/rdsprocess.o
 .bss           0x000000000011c018        0x0 binaries/rdsread.o
 .bss           0x000000000011c018        0x0 binaries/rdswrite.o
 .bss           0x000000000011c018        0x0 binaries/ramclose.o
 .bss           0x000000000011c018        0x0 binaries/raminit.o
 .bss           0x000000000011c018        0x0 binaries/ramopen.o
 .bss           0x000000000011c018        0x0 binaries/ramread.o
 .bss           0x000000000011c018        0x0 binaries/ramwrite.o
 .bss           0x000000000011c018        0x0 binaries/lfdballoc.o
 .bss           0x000000000011c018        0x0 binaries/lfdbfree.o
 .bss           0x000000000011c018        0x0 binaries/lfflush.o
 .bss           0x000000000011c018        0x0 binaries/lfgetmode.o
 .bss           0x000000000011c018        0x0 binaries/lfiballoc.o
 .bss           0x000000000011c018        0x0 binaries/lfibclear.o
 .bss           0x000000000011c018        0x0 binaries/lfibget.o
 .bss           0x000000000011c018        0x0 binaries/lfibput.o
 .bss           0x000000000011c018        0x0 binaries/lflclose.o
 .bss           0x000000000011c018        0x0 binaries/lflcontrol.o
 .bss           0x000000000011c018        0x0 binaries/lflgetc.o
 .bss           0x000000000011c018        0x0 binaries/lflinit.o
 .bss           0x000000000011c018        0x0 binaries/lflputc.o
 .bss           0x000000000011c018        0x0 binaries/lflread.o
 .bss           0x000000000011c018        0x0 binaries/lflseek.o
 .bss           0x000000000011c018        0x0 binaries/lflwrite.o
 .bss           0x000000000011c018        0x0 binaries/lfsckfmt.o
 .bss           0x000000000011c018        0x0 binaries/lfscreate.o
 .bss           0x000000000011c018        0x0 binaries/lfsetup.o
 .bss           0x000000000011c018        0x0 binaries/lfsinit.o
 .bss           0x000000000011c018        0x0 binaries/lfsopen.o
 .bss           0x000000000011c018        0x0 binaries/lftruncate.o
 .bss           0x000000000011c018        0x0 binaries/rflclose.o
 .bss           0x000000000011c018        0x0 binaries/rflgetc.o
 .bss           0x000000000011c018        0x0 binaries/rflinit.o
 .bss           0x000000000011c018        0x0 binaries/rflputc.o
 .bss           0x000000000011c018        0x0 binaries/rflread.o
 .bss           0x000000000011c018        0x0 binaries/rflseek.o
 .bss           0x000000000011c018        0x0 binaries/rflwrite.o
 .bss           0x000000000011c018        0x0 binaries/rfscomm.o
 .bss           0x000000000011c018        0x0 binaries/rfscontrol.o
 .bss           0x000000000011c018        0x0 binaries/rfsgetmode.o
 .bss           0x000000000011c018        0x0 binaries/rfsinit.o
 .bss           0x000000000011c018        0x0 binaries/rfsndmsg.o
 .bss           0x000000000011c018        0x0 binaries/rfsopen.o
 .bss           0x000000000011c018        0x0 binaries/arp.o
 .bss           0x000000000011c018        0x0 binaries/dhcp.o
 .bss           0x000000000011c018        0x0 binaries/dot2ip.o
 .bss           0x000000000011c018        0x0 binaries/hexdump.o
 .bss           0x000000000011c018        0x0 binaries/icmp.o
 .bss           0x000000000011c018        0x0 binaries/ip.o
 .bss           0x000000000011c018        0x0 binaries/net.o
 .bss           0x000000000011c018        0x0 binaries/netstart.o
 .bss           0x000000000011c018        0x0 binaries/pdump.o
 .bss           0x000000000011c018        0x0 binaries/tftp.o
 .bss           0x000000000011c018        0x0 binaries/udp.o
 .bss           0x000000000011c018        0x0 binaries/addargs.o
 .bss           0x000000000011c018        0x0 binaries/lexan.o
 .bss           0x000000000011c018        0x0 binaries/shell.o
 .bss           0x000000000011c018        0x0 binaries/xsh_argecho.o
 .bss           0x000000000011c018        0x0 binaries/xsh_arp.o
 .bss           0x000000000011c018        0x0 binaries/xsh_cat.o
 .bss           0x000000000011c018        0x0 binaries/xsh_clear.o
 .bss           0x000000000011c018        0x0 binaries/xsh_date.o
 .bss           0x000000000011c018        0x0 binaries/xsh_devdump.o
 .bss           0x000000000011c018        0x0 binaries/xsh_echo.o
 .bss           0x000000000011c018        0x0 binaries/xsh_exit.o
 .bss           0x000000000011c018        0x0 binaries/xsh_help.o
 .bss           0x000000000011c018        0x0 binaries/xsh_ipaddr.o
 .bss           0x000000000011c018        0x0 binaries/xsh_kill.o
 .bss           0x000000000011c018        0x0 binaries/xsh_memdump.o
 .bss           0x000000000011c018        0x0 binaries/xsh_memstat.o
 .bss           0x000000000011c018        0x4 binaries/xsh_ping.o
 .bss           0x000000000011c01c        0x0 binaries/xsh_ps.o
 .bss           0x000000000011c01c        0x0 binaries/xsh_sleep.o
 .bss           0x000000000011c01c        0x0 binaries/xsh_udpdump.o
 .bss           0x000000000011c01c        0x0 binaries/xsh_udpecho.o
 .bss           0x000000000011c01c        0x0 binaries/xsh_udpeserver.o
 .bss           0x000000000011c01c        0x0 binaries/xsh_uptime.o
 .bss           0x000000000011c01c        0x0 binaries/clkdisp.o
 .bss           0x000000000011c01c        0x0 binaries/ctxsw.o
 .bss           0x000000000011c01c        0x0 binaries/host2netla.o
 .bss           0x000000000011c01c        0x0 binaries/host2netlc.o
 .bss           0x000000000011c01c        0x0 binaries/intr.o
 .bss           0x000000000011c01c        0x0 binaries/ttydispatch.o
 .bss           0x000000000011c01c        0x0 binaries/ethdispatch.o
 *(COMMON)
 *fill*         0x000000000011c01c        0x4 
 COMMON         0x000000000011c020       0xf4 binaries/bufinit.o
                0x000000000011c020                buftab
                0x000000000011c110                nbpools
 COMMON         0x000000000011c114       0x10 binaries/clkinit.o
                0x000000000011c114                sleepq
                0x000000000011c118                preempt
                0x000000000011c11c                clktimemsec
                0x000000000011c120                clktime
 COMMON         0x000000000011c124        0x2 binaries/evec.o
                0x000000000011c124                girmask
 *fill*         0x000000000011c126       0x1a 
 COMMON         0x000000000011c140     0x1df8 binaries/initialize.o
                0x000000000011c140                currpid
                0x000000000011c160                proctab
                0x000000000011da60                prcount
                0x000000000011da80                semtab
                0x000000000011df30                memlist
 *fill*         0x000000000011df38        0x8 
 COMMON         0x000000000011df40       0x58 binaries/mark.o
                0x000000000011df40                marks
                0x000000000011df90                nmarks
                0x000000000011df94                mkmutex
 COMMON         0x000000000011df98        0x8 binaries/meminit.o
                0x000000000011df98                minheap
                0x000000000011df9c                maxheap
 COMMON         0x000000000011dfa0        0x8 binaries/myhacker.o
                0x000000000011dfa0                victimglobal
                0x000000000011dfa4                victimsRetAddress
 *fill*         0x000000000011dfa8       0x18 
 COMMON         0x000000000011dfc0      0x2d8 binaries/ptinit.o
                0x000000000011dfc0                porttab
                0x000000000011e290                ptnextid
                0x000000000011e294                ptfree
 *fill*         0x000000000011e298        0x8 
 COMMON         0x000000000011e2a0      0x980 binaries/queue.o
                0x000000000011e2a0                queuetab
 COMMON         0x000000000011ec20        0x2 binaries/ready.o
                0x000000000011ec20                readylist
 *fill*         0x000000000011ec22        0x2 
 COMMON         0x000000000011ec24        0x8 binaries/resched.o
                0x000000000011ec24                Defer
 *fill*         0x000000000011ec2c       0x14 
 COMMON         0x000000000011ec40      0x10c binaries/ttyinit.o
                0x000000000011ec40                ttytab
 *fill*         0x000000000011ed4c       0x14 
 COMMON         0x000000000011ed60     0x19c0 binaries/naminit.o
                0x000000000011ed60                nnames
                0x000000000011ed80                nametab
 COMMON         0x0000000000120720      0x138 binaries/ethinit.o
                0x0000000000120720                ethertab
 *fill*         0x0000000000120858        0x8 
 COMMON         0x0000000000120860       0x8c binaries/rdsinit.o
                0x0000000000120860                rdstab
 *fill*         0x00000000001208ec       0x14 
 COMMON         0x0000000000120900    0x19000 binaries/raminit.o
                0x0000000000120900                Ram
 COMMON         0x0000000000139900      0xf00 binaries/lflinit.o
                0x0000000000139900                lfltab
 COMMON         0x000000000013a800      0x20c binaries/lfsinit.o
                0x000000000013a800                Lf_data
 *fill*         0x000000000013aa0c       0x14 
 COMMON         0x000000000013aa20      0x5a0 binaries/rflinit.o
                0x000000000013aa20                rfltab
 COMMON         0x000000000013afc0       0x18 binaries/rfsinit.o
                0x000000000013afc0                Rf_data
 *fill*         0x000000000013afd8        0x8 
 COMMON         0x000000000013afe0      0x140 binaries/arp.o
                0x000000000013afe0                arpcache
 COMMON         0x000000000013b120      0x230 binaries/icmp.o
                0x000000000013b120                icmptab
 *fill*         0x000000000013b350       0x10 
 COMMON         0x000000000013b360       0x2c binaries/ip.o
                0x000000000013b360                ipoqueue
 *fill*         0x000000000013b38c       0x14 
 COMMON         0x000000000013b3a0       0xc8 binaries/net.o
                0x000000000013b3a0                netbufpool
                0x000000000013b3c0                NetData
 *fill*         0x000000000013b468       0x18 
 COMMON         0x000000000013b480      0x168 binaries/udp.o
                0x000000000013b480                udptab
                0x000000000013b5e8                ebss = ABSOLUTE (.)
                0x000000000013c000                . = ALIGN (0x1000)
 *fill*         0x000000000013b5e8      0xa18 
 */()
                0x000000000013c000                end = ABSOLUTE (.)
                0x000000000013c000                _end = ABSOLUTE (.)
                0x000000000013c000                . = ALIGN (0x1000)
LOAD binaries/start.o
LOAD binaries/app1.o
LOAD binaries/app2.o
LOAD binaries/app3.o
LOAD binaries/ascdate.o
LOAD binaries/bufinit.o
LOAD binaries/chprio.o
LOAD binaries/clkhandler.o
LOAD binaries/clkinit.o
LOAD binaries/close.o
LOAD binaries/conf.o
LOAD binaries/control.o
LOAD binaries/cpubound.o
LOAD binaries/create.o
LOAD binaries/early_imr.o
LOAD binaries/evec.o
LOAD binaries/factorial.o
LOAD binaries/freebuf.o
LOAD binaries/freemem.o
LOAD binaries/getbuf.o
LOAD binaries/getc.o
LOAD binaries/getdev.o
LOAD binaries/getitem.o
LOAD binaries/getmem.o
LOAD binaries/getpid.o
LOAD binaries/getpname.o
LOAD binaries/getppid.o
LOAD binaries/getprio.o
LOAD binaries/getstk.o
LOAD binaries/gettime.o
LOAD binaries/getutime.o
LOAD binaries/host2netlb.o
LOAD binaries/init.o
LOAD binaries/initialize.o
LOAD binaries/insert.o
LOAD binaries/insertd.o
LOAD binaries/iobound.o
LOAD binaries/ioerr.o
LOAD binaries/ionull.o
LOAD binaries/kill.o
LOAD binaries/kprintf.o
LOAD binaries/lab2q3.o
LOAD binaries/lab2q4.o
LOAD binaries/lab2q5.o
LOAD binaries/main.o
LOAD binaries/mark.o
LOAD binaries/meminit.o
LOAD binaries/mkbufpool.o
LOAD binaries/myappA.o
LOAD binaries/myfuncA.o
LOAD binaries/myhacker.o
LOAD binaries/myvictim.o
LOAD binaries/mywelcomemsg.o
LOAD binaries/newqueue.o
LOAD binaries/open.o
LOAD binaries/panic.o
LOAD binaries/pci.o
LOAD binaries/platinit.o
LOAD binaries/printsegaddr.o
LOAD binaries/process_state.o
LOAD binaries/ptclear.o
LOAD binaries/ptcount.o
LOAD binaries/ptcreate.o
LOAD binaries/ptdelete.o
LOAD binaries/ptinit.o
LOAD binaries/ptrecv.o
LOAD binaries/ptreset.o
LOAD binaries/ptsend.o
LOAD binaries/putc.o
LOAD binaries/quark_irq.o
LOAD binaries/quark_pdat.o
LOAD binaries/queue.o
LOAD binaries/read.o
LOAD binaries/ready.o
LOAD binaries/receive.o
LOAD binaries/recvclr.o
LOAD binaries/recvtime.o
LOAD binaries/resched.o
LOAD binaries/resume.o
LOAD binaries/seek.o
LOAD binaries/semcount.o
LOAD binaries/semcreate.o
LOAD binaries/semdelete.o
LOAD binaries/semreset.o
LOAD binaries/send.o
LOAD binaries/signal.o
LOAD binaries/signaln.o
LOAD binaries/sleep.o
LOAD binaries/stackdepth.o
LOAD binaries/stacktrace.o
LOAD binaries/suspend.o
LOAD binaries/teststackdepth.o
LOAD binaries/unsleep.o
LOAD binaries/userret.o
LOAD binaries/wait.o
LOAD binaries/wakeup.o
LOAD binaries/write.o
LOAD binaries/xdone.o
LOAD binaries/yield.o
LOAD binaries/abs.o
LOAD binaries/atoi.o
LOAD binaries/atol.o
LOAD binaries/bzero.o
LOAD binaries/ctype_.o
LOAD binaries/doprnt.o
LOAD binaries/doscan.o
LOAD binaries/fdoprnt.o
LOAD binaries/fgetc.o
LOAD binaries/fgets.o
LOAD binaries/fprintf.o
LOAD binaries/fputc.o
LOAD binaries/fputs.o
LOAD binaries/fscanf.o
LOAD binaries/getchar.o
LOAD binaries/labs.o
LOAD binaries/memchr.o
LOAD binaries/memcmp.o
LOAD binaries/memcpy.o
LOAD binaries/memset.o
LOAD binaries/printf.o
LOAD binaries/putchar.o
LOAD binaries/qsort.o
LOAD binaries/rand.o
LOAD binaries/sprintf.o
LOAD binaries/sscanf.o
LOAD binaries/strchr.o
LOAD binaries/strcmp.o
LOAD binaries/strcpy.o
LOAD binaries/strlen.o
LOAD binaries/strncat.o
LOAD binaries/strncmp.o
LOAD binaries/strncpy.o
LOAD binaries/strnlen.o
LOAD binaries/strrchr.o
LOAD binaries/strstr.o
LOAD binaries/ttycontrol.o
LOAD binaries/ttygetc.o
LOAD binaries/ttyhandle_in.o
LOAD binaries/ttyhandle_out.o
LOAD binaries/ttyhandler.o
LOAD binaries/ttyinit.o
LOAD binaries/ttykickout.o
LOAD binaries/ttyputc.o
LOAD binaries/ttyread.o
LOAD binaries/ttywrite.o
LOAD binaries/mount.o
LOAD binaries/naminit.o
LOAD binaries/nammap.o
LOAD binaries/namopen.o
LOAD binaries/colon2mac.o
LOAD binaries/ethcontrol.o
LOAD binaries/ethhandler.o
LOAD binaries/ethinit.o
LOAD binaries/ethmcast.o
LOAD binaries/ethread.o
LOAD binaries/ethwrite.o
LOAD binaries/rdsbufalloc.o
LOAD binaries/rdsclose.o
LOAD binaries/rdscomm.o
LOAD binaries/rdscontrol.o
LOAD binaries/rdsinit.o
LOAD binaries/rdsopen.o
LOAD binaries/rdsprocess.o
LOAD binaries/rdsread.o
LOAD binaries/rdswrite.o
LOAD binaries/ramclose.o
LOAD binaries/raminit.o
LOAD binaries/ramopen.o
LOAD binaries/ramread.o
LOAD binaries/ramwrite.o
LOAD binaries/lfdballoc.o
LOAD binaries/lfdbfree.o
LOAD binaries/lfflush.o
LOAD binaries/lfgetmode.o
LOAD binaries/lfiballoc.o
LOAD binaries/lfibclear.o
LOAD binaries/lfibget.o
LOAD binaries/lfibput.o
LOAD binaries/lflclose.o
LOAD binaries/lflcontrol.o
LOAD binaries/lflgetc.o
LOAD binaries/lflinit.o
LOAD binaries/lflputc.o
LOAD binaries/lflread.o
LOAD binaries/lflseek.o
LOAD binaries/lflwrite.o
LOAD binaries/lfsckfmt.o
LOAD binaries/lfscreate.o
LOAD binaries/lfsetup.o
LOAD binaries/lfsinit.o
LOAD binaries/lfsopen.o
LOAD binaries/lftruncate.o
LOAD binaries/rflclose.o
LOAD binaries/rflgetc.o
LOAD binaries/rflinit.o
LOAD binaries/rflputc.o
LOAD binaries/rflread.o
LOAD binaries/rflseek.o
LOAD binaries/rflwrite.o
LOAD binaries/rfscomm.o
LOAD binaries/rfscontrol.o
LOAD binaries/rfsgetmode.o
LOAD binaries/rfsinit.o
LOAD binaries/rfsndmsg.o
LOAD binaries/rfsopen.o
LOAD binaries/arp.o
LOAD binaries/dhcp.o
LOAD binaries/dot2ip.o
LOAD binaries/hexdump.o
LOAD binaries/icmp.o
LOAD binaries/ip.o
LOAD binaries/net.o
LOAD binaries/netstart.o
LOAD binaries/pdump.o
LOAD binaries/tftp.o
LOAD binaries/udp.o
LOAD binaries/addargs.o
LOAD binaries/lexan.o
LOAD binaries/shell.o
LOAD binaries/xsh_argecho.o
LOAD binaries/xsh_arp.o
LOAD binaries/xsh_cat.o
LOAD binaries/xsh_clear.o
LOAD binaries/xsh_date.o
LOAD binaries/xsh_devdump.o
LOAD binaries/xsh_echo.o
LOAD binaries/xsh_exit.o
LOAD binaries/xsh_help.o
LOAD binaries/xsh_ipaddr.o
LOAD binaries/xsh_kill.o
LOAD binaries/xsh_memdump.o
LOAD binaries/xsh_memstat.o
LOAD binaries/xsh_ping.o
LOAD binaries/xsh_ps.o
LOAD binaries/xsh_sleep.o
LOAD binaries/xsh_udpdump.o
LOAD binaries/xsh_udpecho.o
LOAD binaries/xsh_udpeserver.o
LOAD binaries/xsh_uptime.o
LOAD binaries/clkdisp.o
LOAD binaries/ctxsw.o
LOAD binaries/host2netla.o
LOAD binaries/host2netlc.o
LOAD binaries/intr.o
LOAD binaries/ttydispatch.o
LOAD binaries/ethdispatch.o
OUTPUT(../compile/xinu elf32-i386)

.comment        0x0000000000000000       0x2a
 .comment       0x0000000000000000       0x2a binaries/app1.o
                                         0x2b (size before relaxing)
 .comment       0x000000000000002a       0x2b binaries/app2.o
 .comment       0x000000000000002a       0x2b binaries/app3.o
 .comment       0x000000000000002a       0x2b binaries/ascdate.o
 .comment       0x000000000000002a       0x2b binaries/bufinit.o
 .comment       0x000000000000002a       0x2b binaries/chprio.o
 .comment       0x000000000000002a       0x2b binaries/clkhandler.o
 .comment       0x000000000000002a       0x2b binaries/clkinit.o
 .comment       0x000000000000002a       0x2b binaries/close.o
 .comment       0x000000000000002a       0x2b binaries/conf.o
 .comment       0x000000000000002a       0x2b binaries/control.o
 .comment       0x000000000000002a       0x2b binaries/cpubound.o
 .comment       0x000000000000002a       0x2b binaries/create.o
 .comment       0x000000000000002a       0x2b binaries/early_imr.o
 .comment       0x000000000000002a       0x2b binaries/evec.o
 .comment       0x000000000000002a       0x2b binaries/factorial.o
 .comment       0x000000000000002a       0x2b binaries/freebuf.o
 .comment       0x000000000000002a       0x2b binaries/freemem.o
 .comment       0x000000000000002a       0x2b binaries/getbuf.o
 .comment       0x000000000000002a       0x2b binaries/getc.o
 .comment       0x000000000000002a       0x2b binaries/getdev.o
 .comment       0x000000000000002a       0x2b binaries/getitem.o
 .comment       0x000000000000002a       0x2b binaries/getmem.o
 .comment       0x000000000000002a       0x2b binaries/getpid.o
 .comment       0x000000000000002a       0x2b binaries/getpname.o
 .comment       0x000000000000002a       0x2b binaries/getppid.o
 .comment       0x000000000000002a       0x2b binaries/getprio.o
 .comment       0x000000000000002a       0x2b binaries/getstk.o
 .comment       0x000000000000002a       0x2b binaries/gettime.o
 .comment       0x000000000000002a       0x2b binaries/getutime.o
 .comment       0x000000000000002a       0x2b binaries/host2netlb.o
 .comment       0x000000000000002a       0x2b binaries/init.o
 .comment       0x000000000000002a       0x2b binaries/initialize.o
 .comment       0x000000000000002a       0x2b binaries/insert.o
 .comment       0x000000000000002a       0x2b binaries/insertd.o
 .comment       0x000000000000002a       0x2b binaries/iobound.o
 .comment       0x000000000000002a       0x2b binaries/ioerr.o
 .comment       0x000000000000002a       0x2b binaries/ionull.o
 .comment       0x000000000000002a       0x2b binaries/kill.o
 .comment       0x000000000000002a       0x2b binaries/kprintf.o
 .comment       0x000000000000002a       0x2b binaries/lab2q3.o
 .comment       0x000000000000002a       0x2b binaries/lab2q4.o
 .comment       0x000000000000002a       0x2b binaries/lab2q5.o
 .comment       0x000000000000002a       0x2b binaries/main.o
 .comment       0x000000000000002a       0x2b binaries/mark.o
 .comment       0x000000000000002a       0x2b binaries/meminit.o
 .comment       0x000000000000002a       0x2b binaries/mkbufpool.o
 .comment       0x000000000000002a       0x2b binaries/myappA.o
 .comment       0x000000000000002a       0x2b binaries/myfuncA.o
 .comment       0x000000000000002a       0x2b binaries/myhacker.o
 .comment       0x000000000000002a       0x2b binaries/myvictim.o
 .comment       0x000000000000002a       0x2b binaries/mywelcomemsg.o
 .comment       0x000000000000002a       0x2b binaries/newqueue.o
 .comment       0x000000000000002a       0x2b binaries/open.o
 .comment       0x000000000000002a       0x2b binaries/panic.o
 .comment       0x000000000000002a       0x2b binaries/pci.o
 .comment       0x000000000000002a       0x2b binaries/platinit.o
 .comment       0x000000000000002a       0x2b binaries/printsegaddr.o
 .comment       0x000000000000002a       0x2b binaries/process_state.o
 .comment       0x000000000000002a       0x2b binaries/ptclear.o
 .comment       0x000000000000002a       0x2b binaries/ptcount.o
 .comment       0x000000000000002a       0x2b binaries/ptcreate.o
 .comment       0x000000000000002a       0x2b binaries/ptdelete.o
 .comment       0x000000000000002a       0x2b binaries/ptinit.o
 .comment       0x000000000000002a       0x2b binaries/ptrecv.o
 .comment       0x000000000000002a       0x2b binaries/ptreset.o
 .comment       0x000000000000002a       0x2b binaries/ptsend.o
 .comment       0x000000000000002a       0x2b binaries/putc.o
 .comment       0x000000000000002a       0x2b binaries/quark_irq.o
 .comment       0x000000000000002a       0x2b binaries/quark_pdat.o
 .comment       0x000000000000002a       0x2b binaries/queue.o
 .comment       0x000000000000002a       0x2b binaries/read.o
 .comment       0x000000000000002a       0x2b binaries/ready.o
 .comment       0x000000000000002a       0x2b binaries/receive.o
 .comment       0x000000000000002a       0x2b binaries/recvclr.o
 .comment       0x000000000000002a       0x2b binaries/recvtime.o
 .comment       0x000000000000002a       0x2b binaries/resched.o
 .comment       0x000000000000002a       0x2b binaries/resume.o
 .comment       0x000000000000002a       0x2b binaries/seek.o
 .comment       0x000000000000002a       0x2b binaries/semcount.o
 .comment       0x000000000000002a       0x2b binaries/semcreate.o
 .comment       0x000000000000002a       0x2b binaries/semdelete.o
 .comment       0x000000000000002a       0x2b binaries/semreset.o
 .comment       0x000000000000002a       0x2b binaries/send.o
 .comment       0x000000000000002a       0x2b binaries/signal.o
 .comment       0x000000000000002a       0x2b binaries/signaln.o
 .comment       0x000000000000002a       0x2b binaries/sleep.o
 .comment       0x000000000000002a       0x2b binaries/stackdepth.o
 .comment       0x000000000000002a       0x2b binaries/stacktrace.o
 .comment       0x000000000000002a       0x2b binaries/suspend.o
 .comment       0x000000000000002a       0x2b binaries/teststackdepth.o
 .comment       0x000000000000002a       0x2b binaries/unsleep.o
 .comment       0x000000000000002a       0x2b binaries/userret.o
 .comment       0x000000000000002a       0x2b binaries/wait.o
 .comment       0x000000000000002a       0x2b binaries/wakeup.o
 .comment       0x000000000000002a       0x2b binaries/write.o
 .comment       0x000000000000002a       0x2b binaries/xdone.o
 .comment       0x000000000000002a       0x2b binaries/yield.o
 .comment       0x000000000000002a       0x2b binaries/abs.o
 .comment       0x000000000000002a       0x2b binaries/atoi.o
 .comment       0x000000000000002a       0x2b binaries/atol.o
 .comment       0x000000000000002a       0x2b binaries/bzero.o
 .comment       0x000000000000002a       0x2b binaries/ctype_.o
 .comment       0x000000000000002a       0x2b binaries/doprnt.o
 .comment       0x000000000000002a       0x2b binaries/doscan.o
 .comment       0x000000000000002a       0x2b binaries/fdoprnt.o
 .comment       0x000000000000002a       0x2b binaries/fgetc.o
 .comment       0x000000000000002a       0x2b binaries/fgets.o
 .comment       0x000000000000002a       0x2b binaries/fprintf.o
 .comment       0x000000000000002a       0x2b binaries/fputc.o
 .comment       0x000000000000002a       0x2b binaries/fputs.o
 .comment       0x000000000000002a       0x2b binaries/fscanf.o
 .comment       0x000000000000002a       0x2b binaries/getchar.o
 .comment       0x000000000000002a       0x2b binaries/labs.o
 .comment       0x000000000000002a       0x2b binaries/memchr.o
 .comment       0x000000000000002a       0x2b binaries/memcmp.o
 .comment       0x000000000000002a       0x2b binaries/memcpy.o
 .comment       0x000000000000002a       0x2b binaries/memset.o
 .comment       0x000000000000002a       0x2b binaries/printf.o
 .comment       0x000000000000002a       0x2b binaries/putchar.o
 .comment       0x000000000000002a       0x2b binaries/qsort.o
 .comment       0x000000000000002a       0x2b binaries/rand.o
 .comment       0x000000000000002a       0x2b binaries/sprintf.o
 .comment       0x000000000000002a       0x2b binaries/sscanf.o
 .comment       0x000000000000002a       0x2b binaries/strchr.o
 .comment       0x000000000000002a       0x2b binaries/strcmp.o
 .comment       0x000000000000002a       0x2b binaries/strcpy.o
 .comment       0x000000000000002a       0x2b binaries/strlen.o
 .comment       0x000000000000002a       0x2b binaries/strncat.o
 .comment       0x000000000000002a       0x2b binaries/strncmp.o
 .comment       0x000000000000002a       0x2b binaries/strncpy.o
 .comment       0x000000000000002a       0x2b binaries/strnlen.o
 .comment       0x000000000000002a       0x2b binaries/strrchr.o
 .comment       0x000000000000002a       0x2b binaries/strstr.o
 .comment       0x000000000000002a       0x2b binaries/ttycontrol.o
 .comment       0x000000000000002a       0x2b binaries/ttygetc.o
 .comment       0x000000000000002a       0x2b binaries/ttyhandle_in.o
 .comment       0x000000000000002a       0x2b binaries/ttyhandle_out.o
 .comment       0x000000000000002a       0x2b binaries/ttyhandler.o
 .comment       0x000000000000002a       0x2b binaries/ttyinit.o
 .comment       0x000000000000002a       0x2b binaries/ttykickout.o
 .comment       0x000000000000002a       0x2b binaries/ttyputc.o
 .comment       0x000000000000002a       0x2b binaries/ttyread.o
 .comment       0x000000000000002a       0x2b binaries/ttywrite.o
 .comment       0x000000000000002a       0x2b binaries/mount.o
 .comment       0x000000000000002a       0x2b binaries/naminit.o
 .comment       0x000000000000002a       0x2b binaries/nammap.o
 .comment       0x000000000000002a       0x2b binaries/namopen.o
 .comment       0x000000000000002a       0x2b binaries/colon2mac.o
 .comment       0x000000000000002a       0x2b binaries/ethcontrol.o
 .comment       0x000000000000002a       0x2b binaries/ethhandler.o
 .comment       0x000000000000002a       0x2b binaries/ethinit.o
 .comment       0x000000000000002a       0x2b binaries/ethmcast.o
 .comment       0x000000000000002a       0x2b binaries/ethread.o
 .comment       0x000000000000002a       0x2b binaries/ethwrite.o
 .comment       0x000000000000002a       0x2b binaries/rdsbufalloc.o
 .comment       0x000000000000002a       0x2b binaries/rdsclose.o
 .comment       0x000000000000002a       0x2b binaries/rdscomm.o
 .comment       0x000000000000002a       0x2b binaries/rdscontrol.o
 .comment       0x000000000000002a       0x2b binaries/rdsinit.o
 .comment       0x000000000000002a       0x2b binaries/rdsopen.o
 .comment       0x000000000000002a       0x2b binaries/rdsprocess.o
 .comment       0x000000000000002a       0x2b binaries/rdsread.o
 .comment       0x000000000000002a       0x2b binaries/rdswrite.o
 .comment       0x000000000000002a       0x2b binaries/ramclose.o
 .comment       0x000000000000002a       0x2b binaries/raminit.o
 .comment       0x000000000000002a       0x2b binaries/ramopen.o
 .comment       0x000000000000002a       0x2b binaries/ramread.o
 .comment       0x000000000000002a       0x2b binaries/ramwrite.o
 .comment       0x000000000000002a       0x2b binaries/lfdballoc.o
 .comment       0x000000000000002a       0x2b binaries/lfdbfree.o
 .comment       0x000000000000002a       0x2b binaries/lfflush.o
 .comment       0x000000000000002a       0x2b binaries/lfgetmode.o
 .comment       0x000000000000002a       0x2b binaries/lfiballoc.o
 .comment       0x000000000000002a       0x2b binaries/lfibclear.o
 .comment       0x000000000000002a       0x2b binaries/lfibget.o
 .comment       0x000000000000002a       0x2b binaries/lfibput.o
 .comment       0x000000000000002a       0x2b binaries/lflclose.o
 .comment       0x000000000000002a       0x2b binaries/lflcontrol.o
 .comment       0x000000000000002a       0x2b binaries/lflgetc.o
 .comment       0x000000000000002a       0x2b binaries/lflinit.o
 .comment       0x000000000000002a       0x2b binaries/lflputc.o
 .comment       0x000000000000002a       0x2b binaries/lflread.o
 .comment       0x000000000000002a       0x2b binaries/lflseek.o
 .comment       0x000000000000002a       0x2b binaries/lflwrite.o
 .comment       0x000000000000002a       0x2b binaries/lfsckfmt.o
 .comment       0x000000000000002a       0x2b binaries/lfscreate.o
 .comment       0x000000000000002a       0x2b binaries/lfsetup.o
 .comment       0x000000000000002a       0x2b binaries/lfsinit.o
 .comment       0x000000000000002a       0x2b binaries/lfsopen.o
 .comment       0x000000000000002a       0x2b binaries/lftruncate.o
 .comment       0x000000000000002a       0x2b binaries/rflclose.o
 .comment       0x000000000000002a       0x2b binaries/rflgetc.o
 .comment       0x000000000000002a       0x2b binaries/rflinit.o
 .comment       0x000000000000002a       0x2b binaries/rflputc.o
 .comment       0x000000000000002a       0x2b binaries/rflread.o
 .comment       0x000000000000002a       0x2b binaries/rflseek.o
 .comment       0x000000000000002a       0x2b binaries/rflwrite.o
 .comment       0x000000000000002a       0x2b binaries/rfscomm.o
 .comment       0x000000000000002a       0x2b binaries/rfscontrol.o
 .comment       0x000000000000002a       0x2b binaries/rfsgetmode.o
 .comment       0x000000000000002a       0x2b binaries/rfsinit.o
 .comment       0x000000000000002a       0x2b binaries/rfsndmsg.o
 .comment       0x000000000000002a       0x2b binaries/rfsopen.o
 .comment       0x000000000000002a       0x2b binaries/arp.o
 .comment       0x000000000000002a       0x2b binaries/dhcp.o
 .comment       0x000000000000002a       0x2b binaries/dot2ip.o
 .comment       0x000000000000002a       0x2b binaries/hexdump.o
 .comment       0x000000000000002a       0x2b binaries/icmp.o
 .comment       0x000000000000002a       0x2b binaries/ip.o
 .comment       0x000000000000002a       0x2b binaries/net.o
 .comment       0x000000000000002a       0x2b binaries/netstart.o
 .comment       0x000000000000002a       0x2b binaries/pdump.o
 .comment       0x000000000000002a       0x2b binaries/tftp.o
 .comment       0x000000000000002a       0x2b binaries/udp.o
 .comment       0x000000000000002a       0x2b binaries/addargs.o
 .comment       0x000000000000002a       0x2b binaries/lexan.o
 .comment       0x000000000000002a       0x2b binaries/shell.o
 .comment       0x000000000000002a       0x2b binaries/xsh_argecho.o
 .comment       0x000000000000002a       0x2b binaries/xsh_arp.o
 .comment       0x000000000000002a       0x2b binaries/xsh_cat.o
 .comment       0x000000000000002a       0x2b binaries/xsh_clear.o
 .comment       0x000000000000002a       0x2b binaries/xsh_date.o
 .comment       0x000000000000002a       0x2b binaries/xsh_devdump.o
 .comment       0x000000000000002a       0x2b binaries/xsh_echo.o
 .comment       0x000000000000002a       0x2b binaries/xsh_exit.o
 .comment       0x000000000000002a       0x2b binaries/xsh_help.o
 .comment       0x000000000000002a       0x2b binaries/xsh_ipaddr.o
 .comment       0x000000000000002a       0x2b binaries/xsh_kill.o
 .comment       0x000000000000002a       0x2b binaries/xsh_memdump.o
 .comment       0x000000000000002a       0x2b binaries/xsh_memstat.o
 .comment       0x000000000000002a       0x2b binaries/xsh_ping.o
 .comment       0x000000000000002a       0x2b binaries/xsh_ps.o
 .comment       0x000000000000002a       0x2b binaries/xsh_sleep.o
 .comment       0x000000000000002a       0x2b binaries/xsh_udpdump.o
 .comment       0x000000000000002a       0x2b binaries/xsh_udpecho.o
 .comment       0x000000000000002a       0x2b binaries/xsh_udpeserver.o
 .comment       0x000000000000002a       0x2b binaries/xsh_uptime.o
 .comment       0x000000000000002a       0x2b binaries/host2netlc.o

.note.GNU-stack
                0x0000000000000000        0x0
 .note.GNU-stack
                0x0000000000000000        0x0 binaries/app1.o
 .note.GNU-stack
                0x0000000000000000        0x0 binaries/app2.o
 .note.GNU-stack
                0x0000000000000000        0x0 binaries/app3.o
 .note.GNU-stack
                0x0000000000000000        0x0 binaries/ascdate.o
 .note.GNU-stack
                0x0000000000000000        0x0 binaries/bufinit.o
 .note.GNU-stack
                0x0000000000000000        0x0 binaries/chprio.o
 .note.GNU-stack
                0x0000000000000000        0x0 binaries/clkhandler.o
 .note.GNU-stack
                0x0000000000000000        0x0 binaries/clkinit.o
 .note.GNU-stack
                0x0000000000000000        0x0 binaries/close.o
 .note.GNU-stack
                0x0000000000000000        0x0 binaries/conf.o
 .note.GNU-stack
                0x0000000000000000        0x0 binaries/control.o
 .note.GNU-stack
                0x0000000000000000        0x0 binaries/cpubound.o
 .note.GNU-stack
                0x0000000000000000        0x0 binaries/create.o
 .note.GNU-stack
                0x0000000000000000        0x0 binaries/early_imr.o
 .note.GNU-stack
                0x0000000000000000        0x0 binaries/evec.o
 .note.GNU-stack
                0x0000000000000000        0x0 binaries/factorial.o
 .note.GNU-stack
                0x0000000000000000        0x0 binaries/freebuf.o
 .note.GNU-stack
                0x0000000000000000        0x0 binaries/freemem.o
 .note.GNU-stack
                0x0000000000000000        0x0 binaries/getbuf.o
 .note.GNU-stack
                0x0000000000000000        0x0 binaries/getc.o
 .note.GNU-stack
                0x0000000000000000        0x0 binaries/getdev.o
 .note.GNU-stack
                0x0000000000000000        0x0 binaries/getitem.o
 .note.GNU-stack
                0x0000000000000000        0x0 binaries/getmem.o
 .note.GNU-stack
                0x0000000000000000        0x0 binaries/getpid.o
 .note.GNU-stack
                0x0000000000000000        0x0 binaries/getpname.o
 .note.GNU-stack
                0x0000000000000000        0x0 binaries/getppid.o
 .note.GNU-stack
                0x0000000000000000        0x0 binaries/getprio.o
 .note.GNU-stack
                0x0000000000000000        0x0 binaries/getstk.o
 .note.GNU-stack
                0x0000000000000000        0x0 binaries/gettime.o
 .note.GNU-stack
                0x0000000000000000        0x0 binaries/getutime.o
 .note.GNU-stack
                0x0000000000000000        0x0 binaries/host2netlb.o
 .note.GNU-stack
                0x0000000000000000        0x0 binaries/init.o
 .note.GNU-stack
                0x0000000000000000        0x0 binaries/initialize.o
 .note.GNU-stack
                0x0000000000000000        0x0 binaries/insert.o
 .note.GNU-stack
                0x0000000000000000        0x0 binaries/insertd.o
 .note.GNU-stack
                0x0000000000000000        0x0 binaries/iobound.o
 .note.GNU-stack
                0x0000000000000000        0x0 binaries/ioerr.o
 .note.GNU-stack
                0x0000000000000000        0x0 binaries/ionull.o
 .note.GNU-stack
                0x0000000000000000        0x0 binaries/kill.o
 .note.GNU-stack
                0x0000000000000000        0x0 binaries/kprintf.o
 .note.GNU-stack
                0x0000000000000000        0x0 binaries/lab2q3.o
 .note.GNU-stack
                0x0000000000000000        0x0 binaries/lab2q4.o
 .note.GNU-stack
                0x0000000000000000        0x0 binaries/lab2q5.o
 .note.GNU-stack
                0x0000000000000000        0x0 binaries/main.o
 .note.GNU-stack
                0x0000000000000000        0x0 binaries/mark.o
 .note.GNU-stack
                0x0000000000000000        0x0 binaries/meminit.o
 .note.GNU-stack
                0x0000000000000000        0x0 binaries/mkbufpool.o
 .note.GNU-stack
                0x0000000000000000        0x0 binaries/myappA.o
 .note.GNU-stack
                0x0000000000000000        0x0 binaries/myfuncA.o
 .note.GNU-stack
                0x0000000000000000        0x0 binaries/myhacker.o
 .note.GNU-stack
                0x0000000000000000        0x0 binaries/myvictim.o
 .note.GNU-stack
                0x0000000000000000        0x0 binaries/mywelcomemsg.o
 .note.GNU-stack
                0x0000000000000000        0x0 binaries/newqueue.o
 .note.GNU-stack
                0x0000000000000000        0x0 binaries/open.o
 .note.GNU-stack
                0x0000000000000000        0x0 binaries/panic.o
 .note.GNU-stack
                0x0000000000000000        0x0 binaries/pci.o
 .note.GNU-stack
                0x0000000000000000        0x0 binaries/platinit.o
 .note.GNU-stack
                0x0000000000000000        0x0 binaries/printsegaddr.o
 .note.GNU-stack
                0x0000000000000000        0x0 binaries/process_state.o
 .note.GNU-stack
                0x0000000000000000        0x0 binaries/ptclear.o
 .note.GNU-stack
                0x0000000000000000        0x0 binaries/ptcount.o
 .note.GNU-stack
                0x0000000000000000        0x0 binaries/ptcreate.o
 .note.GNU-stack
                0x0000000000000000        0x0 binaries/ptdelete.o
 .note.GNU-stack
                0x0000000000000000        0x0 binaries/ptinit.o
 .note.GNU-stack
                0x0000000000000000        0x0 binaries/ptrecv.o
 .note.GNU-stack
                0x0000000000000000        0x0 binaries/ptreset.o
 .note.GNU-stack
                0x0000000000000000        0x0 binaries/ptsend.o
 .note.GNU-stack
                0x0000000000000000        0x0 binaries/putc.o
 .note.GNU-stack
                0x0000000000000000        0x0 binaries/quark_irq.o
 .note.GNU-stack
                0x0000000000000000        0x0 binaries/quark_pdat.o
 .note.GNU-stack
                0x0000000000000000        0x0 binaries/queue.o
 .note.GNU-stack
                0x0000000000000000        0x0 binaries/read.o
 .note.GNU-stack
                0x0000000000000000        0x0 binaries/ready.o
 .note.GNU-stack
                0x0000000000000000        0x0 binaries/receive.o
 .note.GNU-stack
                0x0000000000000000        0x0 binaries/recvclr.o
 .note.GNU-stack
                0x0000000000000000        0x0 binaries/recvtime.o
 .note.GNU-stack
                0x0000000000000000        0x0 binaries/resched.o
 .note.GNU-stack
                0x0000000000000000        0x0 binaries/resume.o
 .note.GNU-stack
                0x0000000000000000        0x0 binaries/seek.o
 .note.GNU-stack
                0x0000000000000000        0x0 binaries/semcount.o
 .note.GNU-stack
                0x0000000000000000        0x0 binaries/semcreate.o
 .note.GNU-stack
                0x0000000000000000        0x0 binaries/semdelete.o
 .note.GNU-stack
                0x0000000000000000        0x0 binaries/semreset.o
 .note.GNU-stack
                0x0000000000000000        0x0 binaries/send.o
 .note.GNU-stack
                0x0000000000000000        0x0 binaries/signal.o
 .note.GNU-stack
                0x0000000000000000        0x0 binaries/signaln.o
 .note.GNU-stack
                0x0000000000000000        0x0 binaries/sleep.o
 .note.GNU-stack
                0x0000000000000000        0x0 binaries/stackdepth.o
 .note.GNU-stack
                0x0000000000000000        0x0 binaries/stacktrace.o
 .note.GNU-stack
                0x0000000000000000        0x0 binaries/suspend.o
 .note.GNU-stack
                0x0000000000000000        0x0 binaries/teststackdepth.o
 .note.GNU-stack
                0x0000000000000000        0x0 binaries/unsleep.o
 .note.GNU-stack
                0x0000000000000000        0x0 binaries/userret.o
 .note.GNU-stack
                0x0000000000000000        0x0 binaries/wait.o
 .note.GNU-stack
                0x0000000000000000        0x0 binaries/wakeup.o
 .note.GNU-stack
                0x0000000000000000        0x0 binaries/write.o
 .note.GNU-stack
                0x0000000000000000        0x0 binaries/xdone.o
 .note.GNU-stack
                0x0000000000000000        0x0 binaries/yield.o
 .note.GNU-stack
                0x0000000000000000        0x0 binaries/abs.o
 .note.GNU-stack
                0x0000000000000000        0x0 binaries/atoi.o
 .note.GNU-stack
                0x0000000000000000        0x0 binaries/atol.o
 .note.GNU-stack
                0x0000000000000000        0x0 binaries/bzero.o
 .note.GNU-stack
                0x0000000000000000        0x0 binaries/ctype_.o
 .note.GNU-stack
                0x0000000000000000        0x0 binaries/doprnt.o
 .note.GNU-stack
                0x0000000000000000        0x0 binaries/doscan.o
 .note.GNU-stack
                0x0000000000000000        0x0 binaries/fdoprnt.o
 .note.GNU-stack
                0x0000000000000000        0x0 binaries/fgetc.o
 .note.GNU-stack
                0x0000000000000000        0x0 binaries/fgets.o
 .note.GNU-stack
                0x0000000000000000        0x0 binaries/fprintf.o
 .note.GNU-stack
                0x0000000000000000        0x0 binaries/fputc.o
 .note.GNU-stack
                0x0000000000000000        0x0 binaries/fputs.o
 .note.GNU-stack
                0x0000000000000000        0x0 binaries/fscanf.o
 .note.GNU-stack
                0x0000000000000000        0x0 binaries/getchar.o
 .note.GNU-stack
                0x0000000000000000        0x0 binaries/labs.o
 .note.GNU-stack
                0x0000000000000000        0x0 binaries/memchr.o
 .note.GNU-stack
                0x0000000000000000        0x0 binaries/memcmp.o
 .note.GNU-stack
                0x0000000000000000        0x0 binaries/memcpy.o
 .note.GNU-stack
                0x0000000000000000        0x0 binaries/memset.o
 .note.GNU-stack
                0x0000000000000000        0x0 binaries/printf.o
 .note.GNU-stack
                0x0000000000000000        0x0 binaries/putchar.o
 .note.GNU-stack
                0x0000000000000000        0x0 binaries/qsort.o
 .note.GNU-stack
                0x0000000000000000        0x0 binaries/rand.o
 .note.GNU-stack
                0x0000000000000000        0x0 binaries/sprintf.o
 .note.GNU-stack
                0x0000000000000000        0x0 binaries/sscanf.o
 .note.GNU-stack
                0x0000000000000000        0x0 binaries/strchr.o
 .note.GNU-stack
                0x0000000000000000        0x0 binaries/strcmp.o
 .note.GNU-stack
                0x0000000000000000        0x0 binaries/strcpy.o
 .note.GNU-stack
                0x0000000000000000        0x0 binaries/strlen.o
 .note.GNU-stack
                0x0000000000000000        0x0 binaries/strncat.o
 .note.GNU-stack
                0x0000000000000000        0x0 binaries/strncmp.o
 .note.GNU-stack
                0x0000000000000000        0x0 binaries/strncpy.o
 .note.GNU-stack
                0x0000000000000000        0x0 binaries/strnlen.o
 .note.GNU-stack
                0x0000000000000000        0x0 binaries/strrchr.o
 .note.GNU-stack
                0x0000000000000000        0x0 binaries/strstr.o
 .note.GNU-stack
                0x0000000000000000        0x0 binaries/ttycontrol.o
 .note.GNU-stack
                0x0000000000000000        0x0 binaries/ttygetc.o
 .note.GNU-stack
                0x0000000000000000        0x0 binaries/ttyhandle_in.o
 .note.GNU-stack
                0x0000000000000000        0x0 binaries/ttyhandle_out.o
 .note.GNU-stack
                0x0000000000000000        0x0 binaries/ttyhandler.o
 .note.GNU-stack
                0x0000000000000000        0x0 binaries/ttyinit.o
 .note.GNU-stack
                0x0000000000000000        0x0 binaries/ttykickout.o
 .note.GNU-stack
                0x0000000000000000        0x0 binaries/ttyputc.o
 .note.GNU-stack
                0x0000000000000000        0x0 binaries/ttyread.o
 .note.GNU-stack
                0x0000000000000000        0x0 binaries/ttywrite.o
 .note.GNU-stack
                0x0000000000000000        0x0 binaries/mount.o
 .note.GNU-stack
                0x0000000000000000        0x0 binaries/naminit.o
 .note.GNU-stack
                0x0000000000000000        0x0 binaries/nammap.o
 .note.GNU-stack
                0x0000000000000000        0x0 binaries/namopen.o
 .note.GNU-stack
                0x0000000000000000        0x0 binaries/colon2mac.o
 .note.GNU-stack
                0x0000000000000000        0x0 binaries/ethcontrol.o
 .note.GNU-stack
                0x0000000000000000        0x0 binaries/ethhandler.o
 .note.GNU-stack
                0x0000000000000000        0x0 binaries/ethinit.o
 .note.GNU-stack
                0x0000000000000000        0x0 binaries/ethmcast.o
 .note.GNU-stack
                0x0000000000000000        0x0 binaries/ethread.o
 .note.GNU-stack
                0x0000000000000000        0x0 binaries/ethwrite.o
 .note.GNU-stack
                0x0000000000000000        0x0 binaries/rdsbufalloc.o
 .note.GNU-stack
                0x0000000000000000        0x0 binaries/rdsclose.o
 .note.GNU-stack
                0x0000000000000000        0x0 binaries/rdscomm.o
 .note.GNU-stack
                0x0000000000000000        0x0 binaries/rdscontrol.o
 .note.GNU-stack
                0x0000000000000000        0x0 binaries/rdsinit.o
 .note.GNU-stack
                0x0000000000000000        0x0 binaries/rdsopen.o
 .note.GNU-stack
                0x0000000000000000        0x0 binaries/rdsprocess.o
 .note.GNU-stack
                0x0000000000000000        0x0 binaries/rdsread.o
 .note.GNU-stack
                0x0000000000000000        0x0 binaries/rdswrite.o
 .note.GNU-stack
                0x0000000000000000        0x0 binaries/ramclose.o
 .note.GNU-stack
                0x0000000000000000        0x0 binaries/raminit.o
 .note.GNU-stack
                0x0000000000000000        0x0 binaries/ramopen.o
 .note.GNU-stack
                0x0000000000000000        0x0 binaries/ramread.o
 .note.GNU-stack
                0x0000000000000000        0x0 binaries/ramwrite.o
 .note.GNU-stack
                0x0000000000000000        0x0 binaries/lfdballoc.o
 .note.GNU-stack
                0x0000000000000000        0x0 binaries/lfdbfree.o
 .note.GNU-stack
                0x0000000000000000        0x0 binaries/lfflush.o
 .note.GNU-stack
                0x0000000000000000        0x0 binaries/lfgetmode.o
 .note.GNU-stack
                0x0000000000000000        0x0 binaries/lfiballoc.o
 .note.GNU-stack
                0x0000000000000000        0x0 binaries/lfibclear.o
 .note.GNU-stack
                0x0000000000000000        0x0 binaries/lfibget.o
 .note.GNU-stack
                0x0000000000000000        0x0 binaries/lfibput.o
 .note.GNU-stack
                0x0000000000000000        0x0 binaries/lflclose.o
 .note.GNU-stack
                0x0000000000000000        0x0 binaries/lflcontrol.o
 .note.GNU-stack
                0x0000000000000000        0x0 binaries/lflgetc.o
 .note.GNU-stack
                0x0000000000000000        0x0 binaries/lflinit.o
 .note.GNU-stack
                0x0000000000000000        0x0 binaries/lflputc.o
 .note.GNU-stack
                0x0000000000000000        0x0 binaries/lflread.o
 .note.GNU-stack
                0x0000000000000000        0x0 binaries/lflseek.o
 .note.GNU-stack
                0x0000000000000000        0x0 binaries/lflwrite.o
 .note.GNU-stack
                0x0000000000000000        0x0 binaries/lfsckfmt.o
 .note.GNU-stack
                0x0000000000000000        0x0 binaries/lfscreate.o
 .note.GNU-stack
                0x0000000000000000        0x0 binaries/lfsetup.o
 .note.GNU-stack
                0x0000000000000000        0x0 binaries/lfsinit.o
 .note.GNU-stack
                0x0000000000000000        0x0 binaries/lfsopen.o
 .note.GNU-stack
                0x0000000000000000        0x0 binaries/lftruncate.o
 .note.GNU-stack
                0x0000000000000000        0x0 binaries/rflclose.o
 .note.GNU-stack
                0x0000000000000000        0x0 binaries/rflgetc.o
 .note.GNU-stack
                0x0000000000000000        0x0 binaries/rflinit.o
 .note.GNU-stack
                0x0000000000000000        0x0 binaries/rflputc.o
 .note.GNU-stack
                0x0000000000000000        0x0 binaries/rflread.o
 .note.GNU-stack
                0x0000000000000000        0x0 binaries/rflseek.o
 .note.GNU-stack
                0x0000000000000000        0x0 binaries/rflwrite.o
 .note.GNU-stack
                0x0000000000000000        0x0 binaries/rfscomm.o
 .note.GNU-stack
                0x0000000000000000        0x0 binaries/rfscontrol.o
 .note.GNU-stack
                0x0000000000000000        0x0 binaries/rfsgetmode.o
 .note.GNU-stack
                0x0000000000000000        0x0 binaries/rfsinit.o
 .note.GNU-stack
                0x0000000000000000        0x0 binaries/rfsndmsg.o
 .note.GNU-stack
                0x0000000000000000        0x0 binaries/rfsopen.o
 .note.GNU-stack
                0x0000000000000000        0x0 binaries/arp.o
 .note.GNU-stack
                0x0000000000000000        0x0 binaries/dhcp.o
 .note.GNU-stack
                0x0000000000000000        0x0 binaries/dot2ip.o
 .note.GNU-stack
                0x0000000000000000        0x0 binaries/hexdump.o
 .note.GNU-stack
                0x0000000000000000        0x0 binaries/icmp.o
 .note.GNU-stack
                0x0000000000000000        0x0 binaries/ip.o
 .note.GNU-stack
                0x0000000000000000        0x0 binaries/net.o
 .note.GNU-stack
                0x0000000000000000        0x0 binaries/netstart.o
 .note.GNU-stack
                0x0000000000000000        0x0 binaries/pdump.o
 .note.GNU-stack
                0x0000000000000000        0x0 binaries/tftp.o
 .note.GNU-stack
                0x0000000000000000        0x0 binaries/udp.o
 .note.GNU-stack
                0x0000000000000000        0x0 binaries/addargs.o
 .note.GNU-stack
                0x0000000000000000        0x0 binaries/lexan.o
 .note.GNU-stack
                0x0000000000000000        0x0 binaries/shell.o
 .note.GNU-stack
                0x0000000000000000        0x0 binaries/xsh_argecho.o
 .note.GNU-stack
                0x0000000000000000        0x0 binaries/xsh_arp.o
 .note.GNU-stack
                0x0000000000000000        0x0 binaries/xsh_cat.o
 .note.GNU-stack
                0x0000000000000000        0x0 binaries/xsh_clear.o
 .note.GNU-stack
                0x0000000000000000        0x0 binaries/xsh_date.o
 .note.GNU-stack
                0x0000000000000000        0x0 binaries/xsh_devdump.o
 .note.GNU-stack
                0x0000000000000000        0x0 binaries/xsh_echo.o
 .note.GNU-stack
                0x0000000000000000        0x0 binaries/xsh_exit.o
 .note.GNU-stack
                0x0000000000000000        0x0 binaries/xsh_help.o
 .note.GNU-stack
                0x0000000000000000        0x0 binaries/xsh_ipaddr.o
 .note.GNU-stack
                0x0000000000000000        0x0 binaries/xsh_kill.o
 .note.GNU-stack
                0x0000000000000000        0x0 binaries/xsh_memdump.o
 .note.GNU-stack
                0x0000000000000000        0x0 binaries/xsh_memstat.o
 .note.GNU-stack
                0x0000000000000000        0x0 binaries/xsh_ping.o
 .note.GNU-stack
                0x0000000000000000        0x0 binaries/xsh_ps.o
 .note.GNU-stack
                0x0000000000000000        0x0 binaries/xsh_sleep.o
 .note.GNU-stack
                0x0000000000000000        0x0 binaries/xsh_udpdump.o
 .note.GNU-stack
                0x0000000000000000        0x0 binaries/xsh_udpecho.o
 .note.GNU-stack
                0x0000000000000000        0x0 binaries/xsh_udpeserver.o
 .note.GNU-stack
                0x0000000000000000        0x0 binaries/xsh_uptime.o
 .note.GNU-stack
                0x0000000000000000        0x0 binaries/host2netlc.o
