
Allocating common symbols
Common symbol       size              file

netbufpool          0x4               binaries/net.o
readylist           0x2               binaries/ready.o
rfltab              0x5a0             binaries/rflinit.o
sleepq              0x2               binaries/clkinit.o
nnames              0x4               binaries/naminit.o
udptab              0x168             binaries/udp.o
minheap             0x4               binaries/meminit.o
marks               0x50              binaries/mark.o
currpid             0x4               binaries/initialize.o
Lf_data             0x20c             binaries/lfsinit.o
porttab             0x2d0             binaries/ptinit.o
girmask             0x2               binaries/evec.o
ttytab              0x10c             binaries/ttyinit.o
victimglobal        0x4               binaries/myhacker.o
proctab             0x1900            binaries/initialize.o
prcount             0x4               binaries/initialize.o
victimsRetAddress   0x4               binaries/myhacker.o
lfltab              0xf00             binaries/lflinit.o
rdstab              0x8c              binaries/rdsinit.o
ethertab            0x138             binaries/ethinit.o
NetData             0xa8              binaries/net.o
nmarks              0x4               binaries/mark.o
Defer               0x8               binaries/resched.o
semtab              0x4b0             binaries/initialize.o
maxheap             0x4               binaries/meminit.o
preempt             0x4               binaries/clkinit.o
buftab              0xf0              binaries/bufinit.o
Rf_data             0x18              binaries/rfsinit.o
mkmutex             0x4               binaries/mark.o
clktimemsec         0x4               binaries/clkinit.o
clktime             0x4               binaries/clkinit.o
arpcache            0x140             binaries/arp.o
icmptab             0x230             binaries/icmp.o
nbpools             0x4               binaries/bufinit.o
queuetab            0x980             binaries/queue.o
ptnextid            0x4               binaries/ptinit.o
Ram                 0x19000           binaries/raminit.o
ipoqueue            0x2c              binaries/ip.o
memlist             0x8               binaries/initialize.o
nametab             0x19a0            binaries/naminit.o
ptfree              0x4               binaries/ptinit.o

Memory Configuration

Name             Origin             Length             Attributes
*default*        0x0000000000000000 0xffffffffffffffff

Linker script and memory map

                0x0000000000100000                physbase = 0x100000
                0x0000000000100000                . = physbase
                0x0000000000100000                . = ALIGN (0x1000)

.text           0x0000000000100000    0x16000
                0x0000000000100000                text = ABSOLUTE (.)
 *(.text .text.*)
 .text          0x0000000000100000      0x1ac binaries/start.o
                0x0000000000100028                start
                0x00000000001000fa                inb
                0x0000000000100102                inw
                0x000000000010010b                inl
                0x0000000000100113                outb
                0x000000000010011d                outw
                0x0000000000100128                outl
                0x0000000000100132                _rtcin
                0x000000000010013d                ___udivsi3
                0x0000000000100148                ___divsi3
                0x0000000000100154                sbzero
                0x0000000000100164                bcopy
                0x0000000000100178                insw
                0x000000000010018e                outsw
                0x00000000001001a4                lidt
 .text          0x00000000001001ac       0x35 binaries/app1.o
                0x00000000001001ac                app1
 .text          0x00000000001001e1       0x8f binaries/app2.o
                0x00000000001001e1                app2
 .text          0x0000000000100270       0x67 binaries/app3.o
                0x0000000000100270                app3
 .text          0x00000000001002d7      0x2b9 binaries/ascdate.o
                0x00000000001002d7                ascdate
 .text          0x0000000000100590       0x14 binaries/bufinit.o
                0x0000000000100590                bufinit
 .text          0x00000000001005a4       0x62 binaries/chprio.o
                0x00000000001005a4                chprio
 .text          0x0000000000100606       0x90 binaries/clkhandler.o
                0x0000000000100606                clkhandler
 .text          0x0000000000100696       0x67 binaries/clkinit.o
                0x0000000000100696                clkinit
 .text          0x00000000001006fd       0x56 binaries/close.o
                0x00000000001006fd                close
 .text          0x0000000000100753        0x0 binaries/conf.o
 .text          0x0000000000100753       0x5c binaries/control.o
                0x0000000000100753                control
 .text          0x00000000001007af      0x115 binaries/cpubound.o
                0x00000000001007af                cpubound
 .text          0x00000000001008c4      0x233 binaries/create.o
                0x00000000001008c4                create
 .text          0x0000000000100af7      0x20e binaries/early_imr.o
                0x0000000000100af7                intel_cln_early_sb_read_reg
                0x0000000000100b4e                intel_cln_early_sb_write_reg
                0x0000000000100c08                remove_irm_protections
 .text          0x0000000000100d05      0x2e2 binaries/evec.o
                0x0000000000100d05                setirmask
                0x0000000000100d3d                set_evec
                0x0000000000100d98                initevec
                0x0000000000100e6a                trap
 .text          0x0000000000100fe7       0x30 binaries/factorial.o
                0x0000000000100fe7                factorial
 .text          0x0000000000101017       0x7f binaries/freebuf.o
                0x0000000000101017                freebuf
 .text          0x0000000000101096      0x108 binaries/freemem.o
                0x0000000000101096                freemem
 .text          0x000000000010119e       0x6e binaries/getbuf.o
                0x000000000010119e                getbuf
 .text          0x000000000010120c       0x56 binaries/getc.o
                0x000000000010120c                getc
 .text          0x0000000000101262       0x69 binaries/getdev.o
                0x0000000000101262                getdev
 .text          0x00000000001012cb       0x82 binaries/getitem.o
                0x00000000001012cb                getitem
                0x00000000001012fa                getfirst
                0x0000000000101321                getlast
 .text          0x000000000010134d       0xc2 binaries/getmem.o
                0x000000000010134d                getmem
 .text          0x000000000010140f        0xa binaries/getpid.o
                0x000000000010140f                getpid
 .text          0x0000000000101419       0x10 binaries/getpname.o
                0x0000000000101419                getpname
 .text          0x0000000000101429       0x13 binaries/getppid.o
                0x0000000000101429                getppid
 .text          0x000000000010143c       0x54 binaries/getprio.o
                0x000000000010143c                getprio
 .text          0x0000000000101490       0xac binaries/getstk.o
                0x0000000000101490                getstk
 .text          0x000000000010153c       0x32 binaries/gettime.o
                0x000000000010153c                gettime
 .text          0x000000000010156e      0x186 binaries/getutime.o
                0x000000000010156e                getutime
 .text          0x00000000001016f4       0x10 binaries/host2netlb.o
                0x00000000001016f4                host2netlb
 .text          0x0000000000101704       0x56 binaries/init.o
                0x0000000000101704                init
 .text          0x000000000010175a      0x296 binaries/initialize.o
                0x000000000010175a                nulluser
                0x00000000001019a6                stop
                0x00000000001019ca                delay
 .text          0x00000000001019f0       0xbb binaries/insert.o
                0x00000000001019f0                insert
 .text          0x0000000000101aab       0xe8 binaries/insertd.o
                0x0000000000101aab                insertd
 .text          0x0000000000101b93       0xb2 binaries/iobound.o
                0x0000000000101b93                iobound
 .text          0x0000000000101c45        0xa binaries/ioerr.o
                0x0000000000101c45                ioerr
 .text          0x0000000000101c4f        0xa binaries/ionull.o
                0x0000000000101c4f                ionull
 .text          0x0000000000101c59      0x161 binaries/kill.o
                0x0000000000101c59                kill
 .text          0x0000000000101dba       0xa9 binaries/kprintf.o
                0x0000000000101dba                kputc
                0x0000000000101dec                console_init
                0x0000000000101e1f                kgetc
                0x0000000000101e45                kprintf
 .text          0x0000000000101e63      0x3af binaries/lab2q3.o
                0x0000000000101e63                workerProcessTypeA
                0x0000000000101e68                workerProcessTypeB
                0x0000000000101e85                monitorProcess
                0x0000000000101ef8                lab2q3t1
                0x0000000000101f57                lab2q3t2
                0x0000000000102040                lab2q3t3
                0x0000000000102129                lab2q3t4
 .text          0x0000000000102212      0x2bb binaries/lab2q4.o
                0x0000000000102212                lab2q4t1
                0x00000000001022fb                lab2q4t2
                0x00000000001023e4                lab2q4t3
 .text          0x00000000001024cd      0x3d4 binaries/main.o
                0x00000000001024cd                main
 .text          0x00000000001028a1       0x99 binaries/mark.o
                0x00000000001028a1                markinit
                0x00000000001028c2                mark
 .text          0x000000000010293a      0x1ff binaries/meminit.o
                0x000000000010293a                meminit
                0x0000000000102ac9                setsegs
 .text          0x0000000000102b39      0x122 binaries/mkbufpool.o
                0x0000000000102b39                mkbufpool
 .text          0x0000000000102c5b       0x9c binaries/myappA.o
                0x0000000000102c5b                myappA
 .text          0x0000000000102cf7       0x23 binaries/myfuncA.o
                0x0000000000102cf7                myfuncA
 .text          0x0000000000102d1a       0x83 binaries/myhacker.o
                0x0000000000102d1a                myhackermalware
                0x0000000000102d46                getretaddrbydepth
                0x0000000000102d74                myhacker
 .text          0x0000000000102d9d       0x9b binaries/myvictim.o
                0x0000000000102d9d                makevictimsleep
                0x0000000000102dc8                invokevictimsleep
                0x0000000000102df3                myvictim
 .text          0x0000000000102e38       0x5f binaries/mywelcomemsg.o
                0x0000000000102e38                mywelcomemsg
 .text          0x0000000000102e97       0x63 binaries/newqueue.o
                0x0000000000102e97                newqueue
 .text          0x0000000000102efa       0x5c binaries/open.o
                0x0000000000102efa                open
 .text          0x0000000000102f56       0x20 binaries/panic.o
                0x0000000000102f56                panic
 .text          0x0000000000102f76      0x282 binaries/pci.o
                0x0000000000102f76                pci_init
                0x0000000000102f80                find_pci_device
                0x000000000010303f                pci_read_config_byte
                0x000000000010307d                pci_read_config_word
                0x00000000001030bd                pci_read_config_dword
                0x00000000001030fb                pci_write_config_byte
                0x0000000000103137                pci_write_config_word
                0x0000000000103174                pci_write_config_dword
                0x00000000001031b0                pci_get_dev_mmio_base_addr
 .text          0x00000000001031f8       0x50 binaries/platinit.o
                0x00000000001031f8                platinit
 .text          0x0000000000103248       0xa7 binaries/printsegaddr.o
                0x0000000000103248                printsegaddr
 .text          0x00000000001032ef      0x174 binaries/process_state.o
                0x00000000001032ef                process_state
 .text          0x0000000000103463       0xa9 binaries/ptclear.o
                0x0000000000103463                _ptclear
 .text          0x000000000010350c       0x85 binaries/ptcount.o
                0x000000000010350c                ptcount
 .text          0x0000000000103591       0xfe binaries/ptcreate.o
                0x0000000000103591                ptcreate
 .text          0x000000000010368f       0x63 binaries/ptdelete.o
                0x000000000010368f                ptdelete
 .text          0x00000000001036f2       0x91 binaries/ptinit.o
                0x00000000001036f2                ptinit
 .text          0x0000000000103783       0xf5 binaries/ptrecv.o
                0x0000000000103783                ptrecv
 .text          0x0000000000103878       0x66 binaries/ptreset.o
                0x0000000000103878                ptreset
 .text          0x00000000001038de      0x115 binaries/ptsend.o
                0x00000000001038de                ptsend
 .text          0x00000000001039f3       0x64 binaries/putc.o
                0x00000000001039f3                putc
 .text          0x0000000000103a57       0xb3 binaries/quark_irq.o
                0x0000000000103a57                quark_irq_routing
 .text          0x0000000000103b0a      0x19a binaries/quark_pdat.o
                0x0000000000103b0a                get_quark_pdat_entry_data_by_id
                0x0000000000103bd4                get_quark_pdat_entry_data_by_desc
 .text          0x0000000000103ca4       0xae binaries/queue.o
                0x0000000000103ca4                enqueue
                0x0000000000103d07                dequeue
 .text          0x0000000000103d52       0x5c binaries/read.o
                0x0000000000103d52                read
 .text          0x0000000000103dae       0x98 binaries/ready.o
                0x0000000000103dae                ready
 .text          0x0000000000103e46       0x5a binaries/receive.o
                0x0000000000103e46                receive
 .text          0x0000000000103ea0       0x42 binaries/recvclr.o
                0x0000000000103ea0                recvclr
 .text          0x0000000000103ee2       0xad binaries/recvtime.o
                0x0000000000103ee2                recvtime
 .text          0x0000000000103f8f      0x214 binaries/resched.o
                0x0000000000103f8f                reward_ready_waiting
                0x0000000000103fc5                resched
                0x0000000000104131                resched_cntl
 .text          0x00000000001041a3       0x7e binaries/resume.o
                0x00000000001041a3                resume
 .text          0x0000000000104221       0x59 binaries/seek.o
                0x0000000000104221                seek
 .text          0x000000000010427a       0x51 binaries/semcount.o
                0x000000000010427a                semcount
 .text          0x00000000001042cb       0x93 binaries/semcreate.o
                0x00000000001042cb                semcreate
 .text          0x000000000010435e       0xd1 binaries/semdelete.o
                0x000000000010435e                semdelete
 .text          0x000000000010442f       0xa8 binaries/semreset.o
                0x000000000010442f                semreset
 .text          0x00000000001044d7       0xb3 binaries/send.o
                0x00000000001044d7                send
 .text          0x000000000010458a       0x95 binaries/signal.o
                0x000000000010458a                signal
 .text          0x000000000010461f       0xc2 binaries/signaln.o
                0x000000000010461f                signaln
 .text          0x00000000001046e1       0xbd binaries/sleep.o
                0x00000000001046e1                sleepms
                0x0000000000104768                sleep
 .text          0x000000000010479e       0x94 binaries/stackdepth.o
                0x000000000010479e                stackdepth
 .text          0x0000000000104832      0x17c binaries/stacktrace.o
                0x0000000000104832                stacktrace
 .text          0x00000000001049ae       0xac binaries/suspend.o
                0x00000000001049ae                suspend
 .text          0x0000000000104a5a       0x27 binaries/teststackdepth.o
                0x0000000000104a5a                teststackdepth
 .text          0x0000000000104a81       0x91 binaries/unsleep.o
                0x0000000000104a81                unsleep
 .text          0x0000000000104b12       0x19 binaries/userret.o
                0x0000000000104b12                userret
 .text          0x0000000000104b2b       0xac binaries/wait.o
                0x0000000000104b2b                wait
 .text          0x0000000000104bd7       0x71 binaries/wakeup.o
                0x0000000000104bd7                wakeup
 .text          0x0000000000104c48       0x5c binaries/write.o
                0x0000000000104c48                write
 .text          0x0000000000104ca4       0x1a binaries/xdone.o
                0x0000000000104ca4                xdone
 .text          0x0000000000104cbe       0x26 binaries/yield.o
                0x0000000000104cbe                yield
 .text          0x0000000000104ce4       0x11 binaries/abs.o
                0x0000000000104ce4                abs
 .text          0x0000000000104cf5       0x84 binaries/atoi.o
                0x0000000000104cf5                atoi
 .text          0x0000000000104d79       0x84 binaries/atol.o
                0x0000000000104d79                atol
 .text          0x0000000000104dfd       0x1a binaries/bzero.o
                0x0000000000104dfd                bzero
 .text          0x0000000000104e17        0x0 binaries/ctype_.o
 .text          0x0000000000104e17      0x6bf binaries/doprnt.o
                0x0000000000104f6a                _doprnt
 .text          0x00000000001054d6      0x5f2 binaries/doscan.o
                0x00000000001054d6                _doscan
 .text          0x0000000000105ac8      0x64e binaries/fdoprnt.o
                0x0000000000105b4d                _fdoprnt
 .text          0x0000000000106116       0x1c binaries/fgetc.o
                0x0000000000106116                fgetc
 .text          0x0000000000106132       0x61 binaries/fgets.o
                0x0000000000106132                fgets
 .text          0x0000000000106193       0x21 binaries/fprintf.o
                0x0000000000106193                fprintf
 .text          0x00000000001061b4       0x27 binaries/fputc.o
                0x00000000001061b4                fputc
 .text          0x00000000001061db       0x3a binaries/fputs.o
                0x00000000001061db                fputs
 .text          0x0000000000106215       0x6a binaries/fscanf.o
                0x0000000000106253                fscanf
 .text          0x000000000010627f       0x1d binaries/getchar.o
                0x000000000010627f                getchar
 .text          0x000000000010629c       0x11 binaries/labs.o
                0x000000000010629c                labs
 .text          0x00000000001062ad       0x36 binaries/memchr.o
                0x00000000001062ad                memchr
 .text          0x00000000001062e3       0x4a binaries/memcmp.o
                0x00000000001062e3                memcmp
 .text          0x000000000010632d       0x26 binaries/memcpy.o
                0x000000000010632d                memcpy
 .text          0x0000000000106353       0x1f binaries/memset.o
                0x0000000000106353                memset
 .text          0x0000000000106372       0x2e binaries/printf.o
                0x0000000000106372                printf
 .text          0x00000000001063a0       0x20 binaries/putchar.o
                0x00000000001063a0                putchar
 .text          0x00000000001063c0      0x1cc binaries/qsort.o
                0x0000000000106564                qsort
 .text          0x000000000010658c       0x4c binaries/rand.o
                0x000000000010658c                srand
                0x0000000000106599                rand
 .text          0x00000000001065d8       0x48 binaries/sprintf.o
                0x00000000001065f1                sprintf
 .text          0x0000000000106620       0x5a binaries/sscanf.o
                0x0000000000106650                sscanf
 .text          0x000000000010667a       0x2f binaries/strchr.o
                0x000000000010667a                strchr
 .text          0x00000000001066a9       0x45 binaries/strcmp.o
                0x00000000001066a9                strcmp
 .text          0x00000000001066ee       0x1c binaries/strcpy.o
                0x00000000001066ee                strcpy
 .text          0x000000000010670a       0x20 binaries/strlen.o
                0x000000000010670a                strlen
 .text          0x000000000010672a       0x3d binaries/strncat.o
                0x000000000010672a                strncat
 .text          0x0000000000106767       0x3b binaries/strncmp.o
                0x0000000000106767                strncmp
 .text          0x00000000001067a2       0x59 binaries/strncpy.o
                0x00000000001067a2                strncpy
 .text          0x00000000001067fb       0x38 binaries/strnlen.o
                0x00000000001067fb                strnlen
 .text          0x0000000000106833       0x32 binaries/strrchr.o
                0x0000000000106833                strrchr
 .text          0x0000000000106865       0x68 binaries/strstr.o
                0x0000000000106865                strstr
 .text          0x00000000001068cd      0x112 binaries/ttycontrol.o
                0x00000000001068cd                ttycontrol
 .text          0x00000000001069df       0xb0 binaries/ttygetc.o
                0x00000000001069df                ttygetc
 .text          0x0000000000106a8f      0x4a3 binaries/ttyhandle_in.o
                0x0000000000106b53                ttyhandle_in
 .text          0x0000000000106f32      0x178 binaries/ttyhandle_out.o
                0x0000000000106f32                ttyhandle_out
 .text          0x00000000001070aa       0x85 binaries/ttyhandler.o
                0x00000000001070aa                ttyhandler
 .text          0x000000000010712f      0x15d binaries/ttyinit.o
                0x000000000010712f                ttyinit
 .text          0x000000000010728c        0xf binaries/ttykickout.o
                0x000000000010728c                ttykickout
 .text          0x000000000010729b       0xb2 binaries/ttyputc.o
                0x000000000010729b                ttyputc
 .text          0x000000000010734d       0xff binaries/ttyread.o
                0x000000000010734d                ttyread
 .text          0x000000000010744c       0x4d binaries/ttywrite.o
                0x000000000010744c                ttywrite
 .text          0x0000000000107499      0x129 binaries/mount.o
                0x0000000000107499                namlen
                0x00000000001074d5                mount
 .text          0x00000000001075c2      0x1c4 binaries/naminit.o
                0x00000000001075c2                naminit
 .text          0x0000000000107786      0x1fe binaries/nammap.o
                0x0000000000107786                namrepl
                0x00000000001078a9                namcpy
                0x00000000001078f7                nammap
 .text          0x0000000000107984       0x44 binaries/namopen.o
                0x0000000000107984                namopen
 .text          0x00000000001079c8       0xd4 binaries/colon2mac.o
                0x00000000001079c8                colon2mac
 .text          0x0000000000107a9c       0x7d binaries/ethcontrol.o
                0x0000000000107a9c                ethcontrol
 .text          0x0000000000107b19      0x17e binaries/ethhandler.o
                0x0000000000107b19                ethhandler
 .text          0x0000000000107c97      0x548 binaries/ethinit.o
                0x0000000000107c97                eth_phy_read
                0x0000000000107cd7                eth_phy_write
                0x0000000000107d18                eth_phy_reset
                0x0000000000107df2                ethinit
 .text          0x00000000001081df      0x107 binaries/ethmcast.o
                0x00000000001081df                ethmcast_add
                0x000000000010822b                ethmcast_remove
 .text          0x00000000001082e6      0x172 binaries/ethread.o
                0x00000000001082e6                ethread
 .text          0x0000000000108458       0xc1 binaries/ethwrite.o
                0x0000000000108458                ethwrite
 .text          0x0000000000108519       0x68 binaries/rdsbufalloc.o
                0x0000000000108519                rdsbufalloc
 .text          0x0000000000108581       0xd6 binaries/rdsclose.o
                0x0000000000108581                rdsclose
 .text          0x0000000000108657      0x1df binaries/rdscomm.o
                0x0000000000108657                rdscomm
 .text          0x0000000000108836      0x1c4 binaries/rdscontrol.o
                0x0000000000108836                rdscontrol
 .text          0x00000000001089fa      0x1f7 binaries/rdsinit.o
                0x00000000001089fa                rdsinit
 .text          0x0000000000108bf1      0x199 binaries/rdsopen.o
                0x0000000000108bf1                rdsopen
 .text          0x0000000000108d8a      0x2c5 binaries/rdsprocess.o
                0x0000000000108d8a                rdsprocess
 .text          0x000000000010904f      0x1d8 binaries/rdsread.o
                0x000000000010904f                rdsread
 .text          0x0000000000109227      0x1ae binaries/rdswrite.o
                0x0000000000109227                rdswrite
 .text          0x00000000001093d5        0xa binaries/ramclose.o
                0x00000000001093d5                ramclose
 .text          0x00000000001093df       0x35 binaries/raminit.o
                0x00000000001093df                raminit
 .text          0x0000000000109414        0xa binaries/ramopen.o
                0x0000000000109414                ramopen
 .text          0x000000000010941e       0x26 binaries/ramread.o
                0x000000000010941e                ramread
 .text          0x0000000000109444       0x26 binaries/ramwrite.o
                0x0000000000109444                ramwrite
 .text          0x000000000010946a       0x87 binaries/lfdballoc.o
                0x000000000010946a                lfdballoc
 .text          0x00000000001094f1       0x49 binaries/lfdbfree.o
                0x00000000001094f1                lfdbfree
 .text          0x000000000010953a       0xa1 binaries/lfflush.o
                0x000000000010953a                lfflush
 .text          0x00000000001095db       0x82 binaries/lfgetmode.o
                0x00000000001095db                lfgetmode
 .text          0x000000000010965d       0x60 binaries/lfiballoc.o
                0x000000000010965d                lfiballoc
 .text          0x00000000001096bd       0x27 binaries/lfibclear.o
                0x00000000001096bd                lfibclear
 .text          0x00000000001096e4       0x6c binaries/lfibget.o
                0x00000000001096e4                lfibget
 .text          0x0000000000109750       0x88 binaries/lfibput.o
                0x0000000000109750                lfibput
 .text          0x00000000001097d8       0xa4 binaries/lflclose.o
                0x00000000001097d8                lflclose
 .text          0x000000000010987c       0xc2 binaries/lflcontrol.o
                0x000000000010987c                lflcontrol
 .text          0x000000000010993e       0xfd binaries/lflgetc.o
                0x000000000010993e                lflgetc
 .text          0x0000000000109a3b       0xe7 binaries/lflinit.o
                0x0000000000109a3b                lflinit
 .text          0x0000000000109b22      0x12f binaries/lflputc.o
                0x0000000000109b22                lflputc
 .text          0x0000000000109c51       0x6b binaries/lflread.o
                0x0000000000109c51                lflread
 .text          0x0000000000109cbc       0xbd binaries/lflseek.o
                0x0000000000109cbc                lflseek
 .text          0x0000000000109d79       0x52 binaries/lflwrite.o
                0x0000000000109d79                lflwrite
 .text          0x0000000000109dcb      0x114 binaries/lfsckfmt.o
                0x0000000000109dcb                lfsckfmt
 .text          0x0000000000109edf      0x1e6 binaries/lfscreate.o
                0x0000000000109edf                lfscreate
 .text          0x000000000010a0c5      0x1b1 binaries/lfsetup.o
                0x000000000010a0c5                lfsetup
 .text          0x000000000010a276       0x45 binaries/lfsinit.o
                0x000000000010a276                lfsinit
 .text          0x000000000010a2bb      0x302 binaries/lfsopen.o
                0x000000000010a2bb                lfsopen
 .text          0x000000000010a5bd      0x112 binaries/lftruncate.o
                0x000000000010a5bd                lftruncate
 .text          0x000000000010a6cf       0x69 binaries/rflclose.o
                0x000000000010a6cf                rflclose
 .text          0x000000000010a738       0x29 binaries/rflgetc.o
                0x000000000010a738                rflgetc
 .text          0x000000000010a761       0x6c binaries/rflinit.o
                0x000000000010a761                rflinit
 .text          0x000000000010a7cd       0x29 binaries/rflputc.o
                0x000000000010a7cd                rflputc
 .text          0x000000000010a7f6      0x2b6 binaries/rflread.o
                0x000000000010a7f6                rflread
 .text          0x000000000010aaac       0x68 binaries/rflseek.o
                0x000000000010aaac                rflseek
 .text          0x000000000010ab14      0x2fa binaries/rflwrite.o
                0x000000000010ab14                rflwrite
 .text          0x000000000010ae0e      0x17d binaries/rfscomm.o
                0x000000000010ae0e                rfscomm
 .text          0x000000000010af8b      0x22b binaries/rfscontrol.o
                0x000000000010af8b                rfscontrol
 .text          0x000000000010b1b6       0x82 binaries/rfsgetmode.o
                0x000000000010b1b6                rfsgetmode
 .text          0x000000000010b238       0x7e binaries/rfsinit.o
                0x000000000010b238                rfsinit
 .text          0x000000000010b2b6       0xad binaries/rfsndmsg.o
                0x000000000010b2b6                rfsndmsg
 .text          0x000000000010b363      0x243 binaries/rfsopen.o
                0x000000000010b363                rfsopen
 .text          0x000000000010b5a6      0x626 binaries/arp.o
                0x000000000010b5a6                arp_init
                0x000000000010b5c2                arp_alloc
                0x000000000010b669                arp_ntoh
                0x000000000010b6d6                arp_hton
                0x000000000010b743                arp_resolve
                0x000000000010b994                arp_in
 .text          0x000000000010bbcc      0x5ed binaries/dhcp.o
                0x000000000010bbcc                dhcp_get_opt_val
                0x000000000010bc20                dhcp_bld_bootp_msg
                0x000000000010bcf2                dhcp_bld_disc
                0x000000000010bd44                dhcp_bld_req
                0x000000000010bddf                getlocalip
 .text          0x000000000010c1b9       0xda binaries/dot2ip.o
                0x000000000010c1b9                dot2ip
 .text          0x000000000010c293      0x38c binaries/hexdump.o
                0x000000000010c293                hexdump
                0x000000000010c3ed                hexadump
 .text          0x000000000010c61f      0x6f6 binaries/icmp.o
                0x000000000010c61f                icmp_init
                0x000000000010c63b                icmp_register
                0x000000000010c6f9                icmp_recv
                0x000000000010c89c                icmp_mkpkt
                0x000000000010c969                icmp_in
                0x000000000010cb03                icmp_send
                0x000000000010cb72                icmp_release
                0x000000000010cc8d                icmp_cksum
                0x000000000010cce7                icmp_hton
                0x000000000010ccfe                icmp_ntoh
 .text          0x000000000010cd15      0x5e2 binaries/ip.o
                0x000000000010cd15                ip_local
                0x000000000010cd55                ipcksum
                0x000000000010cdab                ip_ntoh
                0x000000000010ce18                ip_in
                0x000000000010cf3d                ip_hton
                0x000000000010cfaa                ip_out
                0x000000000010d060                ip_send
                0x000000000010d16b                ipout
                0x000000000010d25e                ip_enqueue
 .text          0x000000000010d2f7      0x1b2 binaries/net.o
                0x000000000010d2f7                net_init
                0x000000000010d3ee                eth_hton
                0x000000000010d3fb                eth_ntoh
                0x000000000010d408                netin
 .text          0x000000000010d4a9       0xb9 binaries/netstart.o
                0x000000000010d4a9                netstart
 .text          0x000000000010d562      0xa30 binaries/pdump.o
                0x000000000010d562                pdump
                0x000000000010db47                pdumph
 .text          0x000000000010df92      0x5b8 binaries/tftp.o
                0x000000000010df92                tftp_send1
                0x000000000010e0a6                tftpget_mb
                0x000000000010e527                tftpget
 .text          0x000000000010e54a      0xa17 binaries/udp.o
                0x000000000010e54a                udp_init
                0x000000000010e58b                udp_in
                0x000000000010e6b4                udp_register
                0x000000000010e7c5                udp_recv
                0x000000000010e95e                udp_recvaddr
                0x000000000010eb0b                udp_send
                0x000000000010ecb9                udp_sendto
                0x000000000010ee22                udp_release
                0x000000000010ef33                udp_ntoh
                0x000000000010ef4a                udp_hton
 .text          0x000000000010ef61      0x10e binaries/addargs.o
                0x000000000010ef61                addargs
 .text          0x000000000010f06f      0x1db binaries/lexan.o
                0x000000000010f06f                lexan
 .text          0x000000000010f24a      0x657 binaries/shell.o
                0x000000000010f24a                shell
 .text          0x000000000010f8a1       0x59 binaries/xsh_argecho.o
                0x000000000010f8a1                xsh_argecho
 .text          0x000000000010f8fa      0x1fb binaries/xsh_arp.o
                0x000000000010f8fa                xsh_arp
 .text          0x000000000010faf5      0x1db binaries/xsh_cat.o
                0x000000000010faf5                xsh_cat
 .text          0x000000000010fcd0       0x4f binaries/xsh_clear.o
                0x000000000010fcd0                xsh_clear
 .text          0x000000000010fd1f      0x278 binaries/xsh_date.o
                0x000000000010fd1f                xsh_date
 .text          0x000000000010ff97       0x80 binaries/xsh_devdump.o
                0x000000000010ff97                xsh_devdump
 .text          0x0000000000110017       0x63 binaries/xsh_echo.o
                0x0000000000110017                xsh_echo
 .text          0x000000000011007a        0xa binaries/xsh_exit.o
                0x000000000011007a                xsh_exit
 .text          0x0000000000110084      0x323 binaries/xsh_help.o
                0x0000000000110084                xsh_help
 .text          0x00000000001103a7      0x367 binaries/xsh_ipaddr.o
                0x00000000001103a7                xsh_ipaddr
 .text          0x000000000011070e      0x1aa binaries/xsh_kill.o
                0x000000000011070e                xsh_kill
 .text          0x00000000001108b8      0x3bd binaries/xsh_memdump.o
                0x000000000011097e                xsh_memdump
 .text          0x0000000000110c75      0x1cc binaries/xsh_memstat.o
                0x0000000000110c75                xsh_memstat
 .text          0x0000000000110e41      0x27f binaries/xsh_ping.o
                0x0000000000110e41                xsh_ping
 .text          0x00000000001110c0      0x1a9 binaries/xsh_ps.o
                0x00000000001110c0                xsh_ps
 .text          0x0000000000111269      0x1a3 binaries/xsh_sleep.o
                0x0000000000111269                xsh_sleep
 .text          0x000000000011140c      0x1c3 binaries/xsh_udpdump.o
                0x000000000011140c                xsh_udpdump
 .text          0x00000000001115cf      0x3ad binaries/xsh_udpecho.o
                0x00000000001115cf                xsh_udpecho
 .text          0x000000000011197c      0x1fc binaries/xsh_udpeserver.o
                0x000000000011197c                xsh_udpeserver
 .text          0x0000000000111b78      0x1b0 binaries/xsh_uptime.o
                0x0000000000111b78                xsh_uptime
 .text          0x0000000000111d28        0xe binaries/clkdisp.o
                0x0000000000111d28                clkdisp
 .text          0x0000000000111d36       0x19 binaries/ctxsw.o
                0x0000000000111d36                ctxsw
 .text          0x0000000000111d4f        0xa binaries/host2netla.o
                0x0000000000111d4f                host2netla
 *fill*         0x0000000000111d59        0x7 
 .text          0x0000000000111d60       0x25 binaries/host2netlc.o
                0x0000000000111d60                host2netlc
 .text.unlikely
                0x0000000000111d85        0x0 binaries/host2netlc.o
 .text          0x0000000000111d85      0x376 binaries/intr.o
                0x0000000000111d85                disable
                0x0000000000111d8e                restore
                0x0000000000111d9c                enable
                0x0000000000111d9e                pause
                0x0000000000111da5                idle
                0x0000000000111db0                halt
                0x0000000000111db6                spurious_irq7
                0x0000000000111dbb                spurious_irq15
                0x0000000000111dca                _Xint0
                0x0000000000111dd5                _Xint1
                0x0000000000111de0                _Xint2
                0x0000000000111deb                _Xint3
                0x0000000000111df6                _Xint4
                0x0000000000111e01                _Xint5
                0x0000000000111e0c                _Xint6
                0x0000000000111e17                _Xint7
                0x0000000000111e22                _Xint8
                0x0000000000111e2d                _Xint9
                0x0000000000111e38                _Xint10
                0x0000000000111e43                _Xint11
                0x0000000000111e51                _Xint12
                0x0000000000111e5f                _Xint13
                0x0000000000111e6d                _Xint14
                0x0000000000111e7b                _Xint15
                0x0000000000111e89                _Xint16
                0x0000000000111e97                _Xint17
                0x0000000000111ea5                _Xint18
                0x0000000000111eb3                _Xint19
                0x0000000000111ec1                _Xint20
                0x0000000000111ecf                _Xint21
                0x0000000000111edd                _Xint22
                0x0000000000111eeb                _Xint23
                0x0000000000111ef9                _Xint24
                0x0000000000111f07                _Xint25
                0x0000000000111f15                _Xint26
                0x0000000000111f23                _Xint27
                0x0000000000111f31                _Xint28
                0x0000000000111f3f                _Xint29
                0x0000000000111f4d                _Xint30
                0x0000000000111f5b                _Xint31
                0x0000000000111f69                _Xint32
                0x0000000000111f77                _Xint33
                0x0000000000111f85                _Xint34
                0x0000000000111f93                _Xint35
                0x0000000000111fa1                _Xint36
                0x0000000000111faf                _Xint37
                0x0000000000111fbd                _Xint38
                0x0000000000111fcb                _Xint39
                0x0000000000111fd9                _Xint40
                0x0000000000111fe7                _Xint41
                0x0000000000111ff5                _Xint42
                0x0000000000112003                _Xint43
                0x0000000000112011                _Xint44
                0x000000000011201f                _Xint45
                0x000000000011202d                _Xint46
                0x000000000011203b                defevec
 .text          0x00000000001120fb        0xf binaries/ttydispatch.o
                0x00000000001120fb                ttydispatch
 .text          0x000000000011210a       0x13 binaries/ethdispatch.o
                0x000000000011210a                ethdispatch
 *(.rodata .rodata.*)
 .rodata.str1.1
                0x000000000011211d       0x17 binaries/app1.o
 .rodata.str1.1
                0x0000000000112134        0x5 binaries/app2.o
                                         0x1c (size before relaxing)
 *fill*         0x0000000000112139        0x3 
 .rodata.str1.4
                0x000000000011213c       0x2d binaries/app2.o
 *fill*         0x0000000000112169        0x3 
 .rodata.str1.4
                0x000000000011216c       0x4a binaries/app3.o
 .rodata.str1.1
                0x00000000001121b6       0x29 binaries/app3.o
 .rodata.str1.1
                0x00000000001121df       0x54 binaries/ascdate.o
 *fill*         0x0000000000112233        0x1 
 .rodata.str1.4
                0x0000000000112234       0x22 binaries/ascdate.o
 *fill*         0x0000000000112256        0x2 
 .rodata        0x0000000000112258        0x4 binaries/clkhandler.o
                0x0000000000112258                MAX_UINT32
 .rodata.str1.1
                0x000000000011225c       0x5f binaries/conf.o
 *fill*         0x00000000001122bb        0x1 
 .rodata.str1.4
                0x00000000001122bc      0x134 binaries/cpubound.o
 .rodata.str1.4
                0x00000000001123f0       0x4f binaries/early_imr.o
 *fill*         0x000000000011243f        0x1 
 .rodata        0x0000000000112440       0x33 binaries/early_imr.o
 .rodata.str1.1
                0x0000000000112473      0x20c binaries/evec.o
 *fill*         0x000000000011267f        0x1 
 .rodata.str1.4
                0x0000000000112680       0x23 binaries/evec.o
 .rodata.str1.1
                0x00000000001126a3        0xb binaries/getutime.o
 *fill*         0x00000000001126ae        0x2 
 .rodata.str1.4
                0x00000000001126b0       0x54 binaries/getutime.o
 .rodata.str1.1
                0x0000000000112704       0x6b binaries/initialize.o
                                         0x6f (size before relaxing)
 *fill*         0x000000000011276f        0x1 
 .rodata.str1.4
                0x0000000000112770       0xd4 binaries/initialize.o
 .rodata        0x0000000000112844        0x4 binaries/initialize.o
                0x0000000000112844                MAX_INT32
 .rodata.str1.4
                0x0000000000112848       0x45 binaries/insert.o
 .rodata.str1.4
                0x000000000011288d       0x80 binaries/iobound.o
 *fill*         0x000000000011288d        0x3 
 .rodata        0x0000000000112890       0x20 binaries/kill.o
 .rodata.str1.1
                0x00000000001128b0       0x7a binaries/lab2q3.o
 *fill*         0x000000000011292a        0x2 
 .rodata.str1.4
                0x000000000011292c      0x23b binaries/lab2q3.o
 .rodata.str1.1
                0x0000000000112b67       0x7a binaries/lab2q4.o
 *fill*         0x0000000000112b67        0x1 
 .rodata.str1.4
                0x0000000000112b68      0x10b binaries/lab2q4.o
                                        0x19f (size before relaxing)
 .rodata.str1.1
                0x0000000000112c73       0xa3 binaries/main.o
 *fill*         0x0000000000112d16        0x2 
 .rodata.str1.4
                0x0000000000112d18       0x23 binaries/main.o
 *fill*         0x0000000000112d3b        0x1 
 .rodata.str1.4
                0x0000000000112d3c       0x23 binaries/meminit.o
 .rodata.str1.1
                0x0000000000112d5f       0x1b binaries/meminit.o
 *fill*         0x0000000000112d7a        0x2 
 .rodata.str1.4
                0x0000000000112d7c      0x103 binaries/myappA.o
 *fill*         0x0000000000112e7f        0x1 
 .rodata.str1.4
                0x0000000000112e80       0x57 binaries/myfuncA.o
 *fill*         0x0000000000112ed7        0x1 
 .rodata.str1.4
                0x0000000000112ed8       0x4c binaries/myhacker.o
 .rodata.str1.4
                0x0000000000112f24      0x178 binaries/myvictim.o
 .rodata.str1.4
                0x000000000011309c      0x19b binaries/mywelcomemsg.o
 .rodata.str1.1
                0x0000000000113237       0x16 binaries/mywelcomemsg.o
 .rodata.str1.1
                0x000000000011324d        0xf binaries/panic.o
 .rodata.str1.4
                0x000000000011325c       0xe1 binaries/printsegaddr.o
 .rodata.str1.1
                0x000000000011333d       0x84 binaries/process_state.o
                                         0xbe (size before relaxing)
 *fill*         0x00000000001133c1        0x3 
 .rodata.str1.4
                0x00000000001133c4       0x8f binaries/process_state.o
 *fill*         0x0000000000113453        0xd 
 .rodata        0x0000000000113460      0x1b0 binaries/process_state.o
 .rodata.str1.1
                0x0000000000113610       0x1c binaries/ptinit.o
 .rodata.str1.4
                0x000000000011362c       0x25 binaries/ptsend.o
 .rodata.str1.1
                0x0000000000113651       0x22 binaries/quark_pdat.o
 *fill*         0x0000000000113673        0x1 
 .rodata.str1.4
                0x0000000000113674       0x58 binaries/stackdepth.o
 .rodata.str1.1
                0x00000000001136cc       0x1b binaries/stackdepth.o
 *fill*         0x00000000001136e7        0x1 
 .rodata.str1.4
                0x00000000001136e8       0x63 binaries/stacktrace.o
 .rodata.str1.1
                0x000000000011374b       0x52 binaries/stacktrace.o
 .rodata.str1.1
                0x000000000011379d       0x1c binaries/teststackdepth.o
 *fill*         0x00000000001137b9        0x3 
 .rodata.str1.4
                0x00000000001137bc       0x27 binaries/xdone.o
 *fill*         0x00000000001137e3       0x1d 
 .rodata        0x0000000000113800       0x81 binaries/ctype_.o
                0x0000000000113800                _ctype_
 .rodata.str1.1
                0x0000000000113881       0x29 binaries/doprnt.o
 *fill*         0x00000000001138aa        0x2 
 .rodata        0x00000000001138ac       0xc4 binaries/doprnt.o
 .rodata        0x0000000000113970       0x98 binaries/doscan.o
 .rodata.str1.1
                0x0000000000113a08       0x29 binaries/fdoprnt.o
 .rodata        0x0000000000113a08       0x84 binaries/fdoprnt.o
 .rodata        0x0000000000113a8c       0x20 binaries/ttycontrol.o
 .rodata.str1.4
                0x0000000000113aac       0x4c binaries/naminit.o
 .rodata.str1.1
                0x0000000000113af8       0x32 binaries/naminit.o
                                         0x35 (size before relaxing)
 .rodata.str1.1
                0x0000000000113b2a       0x15 binaries/ethinit.o
 *fill*         0x0000000000113b3f        0x1 
 .rodata.str1.4
                0x0000000000113b40       0x2e binaries/ethinit.o
 *fill*         0x0000000000113b6e        0x2 
 .rodata.str1.4
                0x0000000000113b70       0x2c binaries/rdsbufalloc.o
 .rodata.str1.4
                0x0000000000113b9c       0x76 binaries/rdscomm.o
 *fill*         0x0000000000113c12        0x2 
 .rodata.str1.4
                0x0000000000113c14       0x48 binaries/rdscontrol.o
 .rodata.str1.4
                0x0000000000113c5c       0x7e binaries/rdsinit.o
 .rodata.str1.1
                0x0000000000113cda       0x18 binaries/rdsinit.o
 *fill*         0x0000000000113cf2        0x2 
 .rodata.str1.4
                0x0000000000113cf4       0x22 binaries/rdsopen.o
 *fill*         0x0000000000113d16        0x2 
 .rodata.str1.4
                0x0000000000113d18       0x4d binaries/rdsprocess.o
 .rodata.str1.1
                0x0000000000113d65        0x9 binaries/raminit.o
 .rodata.str1.1
                0x0000000000113d6e       0x13 binaries/lfdballoc.o
 *fill*         0x0000000000113d81        0x3 
 .rodata.str1.4
                0x0000000000113d84       0x23 binaries/lfdballoc.o
 .rodata.str1.1
                0x0000000000113da7       0x14 binaries/lfiballoc.o
 *fill*         0x0000000000113dbb        0x1 
 .rodata.str1.4
                0x0000000000113dbc       0x23 binaries/lflcontrol.o
 .rodata.str1.1
                0x0000000000113ddf       0x64 binaries/lfsckfmt.o
 *fill*         0x0000000000113e43        0x1 
 .rodata.str1.4
                0x0000000000113e44       0x51 binaries/lfsckfmt.o
 *fill*         0x0000000000113e95        0x3 
 .rodata.str1.4
                0x0000000000113e98       0x21 binaries/rflread.o
 .rodata.str1.4
                0x0000000000113eb9       0x21 binaries/rflwrite.o
 *fill*         0x0000000000113eb9        0x3 
 .rodata.str1.4
                0x0000000000113ebc       0x75 binaries/rfscomm.o
 *fill*         0x0000000000113f31        0x3 
 .rodata.str1.4
                0x0000000000113f34       0x23 binaries/rfscontrol.o
 *fill*         0x0000000000113f57        0x1 
 .rodata        0x0000000000113f58       0x18 binaries/rfscontrol.o
 .rodata.str1.1
                0x0000000000113f70       0x10 binaries/rfsinit.o
 .rodata.str1.4
                0x0000000000113f70       0x57 binaries/rfsinit.o
 *fill*         0x0000000000113fc7        0x1 
 .rodata.str1.4
                0x0000000000113fc8       0x2a binaries/rfsndmsg.o
 .rodata.str1.4
                0x0000000000113ff2       0x22 binaries/rfsopen.o
 .rodata.str1.1
                0x0000000000113ff2       0x19 binaries/arp.o
 *fill*         0x000000000011400b        0x1 
 .rodata.str1.4
                0x000000000011400c       0x21 binaries/arp.o
 *fill*         0x000000000011402d        0x3 
 .rodata.str1.4
                0x0000000000114030       0xa6 binaries/dhcp.o
 .rodata.str1.1
                0x00000000001140d6       0x4a binaries/dhcp.o
 .rodata.str1.1
                0x0000000000114120       0x5a binaries/hexdump.o
                                         0x61 (size before relaxing)
 *fill*         0x000000000011417a        0x2 
 .rodata.str1.4
                0x000000000011417c       0x67 binaries/hexdump.o
 *fill*         0x00000000001141e3        0x1 
 .rodata.str1.4
                0x00000000001141e4       0x29 binaries/icmp.o
 .rodata.str1.1
                0x000000000011420d       0x4e binaries/ip.o
 *fill*         0x000000000011425b        0x1 
 .rodata.str1.4
                0x000000000011425c       0x20 binaries/ip.o
 .rodata.str1.4
                0x000000000011427c       0x28 binaries/net.o
 .rodata.str1.1
                0x00000000001142a4       0x27 binaries/net.o
 *fill*         0x00000000001142cb        0x1 
 .rodata.str1.4
                0x00000000001142cc       0xcf binaries/netstart.o
 .rodata.str1.1
                0x000000000011439b      0x141 binaries/pdump.o
                                        0x14b (size before relaxing)
 .rodata.str1.4
                0x00000000001144dc      0x126 binaries/pdump.o
 *fill*         0x0000000000114602        0x2 
 .rodata.str1.4
                0x0000000000114604      0x148 binaries/tftp.o
 .rodata.str1.1
                0x000000000011474c        0x6 binaries/tftp.o
                                          0xa (size before relaxing)
 .rodata.str1.1
                0x0000000000114752       0xdd binaries/shell.o
                                         0xff (size before relaxing)
 *fill*         0x000000000011482f        0x1 
 .rodata.str1.4
                0x0000000000114830      0x1e8 binaries/shell.o
 *fill*         0x0000000000114a18        0x8 
 .rodata        0x0000000000114a20       0xfc binaries/shell.o
                0x0000000000114a20                cmdtab
 .rodata.str1.1
                0x0000000000114b1c       0x26 binaries/xsh_argecho.o
                                         0x28 (size before relaxing)
 .rodata.str1.1
                0x0000000000114b42       0x70 binaries/xsh_arp.o
                                         0x72 (size before relaxing)
 *fill*         0x0000000000114bb2        0x2 
 .rodata.str1.4
                0x0000000000114bb4       0xb4 binaries/xsh_arp.o
 .rodata.str1.1
                0x0000000000114c68       0x2d binaries/xsh_cat.o
                                         0x4f (size before relaxing)
 *fill*         0x0000000000114c95        0x3 
 .rodata.str1.4
                0x0000000000114c98       0x52 binaries/xsh_cat.o
                                         0x79 (size before relaxing)
 .rodata.str1.1
                0x0000000000114cea       0x15 binaries/xsh_clear.o
 .rodata.str1.1
                0x0000000000114cff       0x46 binaries/xsh_date.o
                                         0x5f (size before relaxing)
 *fill*         0x0000000000114d45        0x3 
 .rodata.str1.4
                0x0000000000114d48      0x163 binaries/xsh_date.o
 .rodata.str1.1
                0x0000000000114eab       0x5d binaries/xsh_devdump.o
 .rodata.str1.1
                0x0000000000114f08        0x4 binaries/xsh_echo.o
                                          0x9 (size before relaxing)
 .rodata.str1.1
                0x0000000000114f0c       0x65 binaries/xsh_help.o
                                         0xa3 (size before relaxing)
 *fill*         0x0000000000114f71        0x3 
 .rodata.str1.4
                0x0000000000114f74       0x7c binaries/xsh_help.o
                                         0xc6 (size before relaxing)
 .rodata.str1.1
                0x0000000000114ff0       0x9c binaries/xsh_ipaddr.o
                                         0xf8 (size before relaxing)
 .rodata.str1.4
                0x000000000011508c       0x4d binaries/xsh_ipaddr.o
                                         0x99 (size before relaxing)
 .rodata.str1.1
                0x00000000001150d9       0x78 binaries/xsh_kill.o
                                         0x97 (size before relaxing)
 *fill*         0x0000000000115151        0x3 
 .rodata.str1.4
                0x0000000000115154       0x4a binaries/xsh_kill.o
                                         0x96 (size before relaxing)
 .rodata.str1.1
                0x000000000011519e       0x84 binaries/xsh_memdump.o
                                         0xa8 (size before relaxing)
 *fill*         0x0000000000115222        0x2 
 .rodata.str1.4
                0x0000000000115224      0x15a binaries/xsh_memdump.o
                                        0x1aa (size before relaxing)
 .rodata.str1.1
                0x000000000011537e       0x40 binaries/xsh_memstat.o
                                         0x79 (size before relaxing)
 *fill*         0x00000000001153be        0x2 
 .rodata.str1.4
                0x00000000001153c0      0x187 binaries/xsh_memstat.o
                                        0x1af (size before relaxing)
 .rodata.str1.1
                0x0000000000115547       0x90 binaries/xsh_ping.o
                                         0xaf (size before relaxing)
 *fill*         0x00000000001155d7        0x1 
 .rodata.str1.4
                0x00000000001155d8       0x77 binaries/xsh_ping.o
                                         0xc6 (size before relaxing)
 .rodata.str1.1
                0x000000000011564f        0x9 binaries/xsh_ps.o
                                         0xde (size before relaxing)
 .rodata.str1.4
                0x0000000000115658       0x88 binaries/xsh_ps.o
                                         0xd8 (size before relaxing)
 .rodata        0x00000000001156e0       0x20 binaries/xsh_ps.o
 .rodata.str1.1
                0x0000000000115700       0x31 binaries/xsh_sleep.o
                                         0x72 (size before relaxing)
 *fill*         0x0000000000115731        0x3 
 .rodata.str1.4
                0x0000000000115734       0x2a binaries/xsh_sleep.o
                                         0x7a (size before relaxing)
 .rodata.str1.1
                0x000000000011575e       0x6b binaries/xsh_udpdump.o
                                         0xd2 (size before relaxing)
 *fill*         0x00000000001157c9        0x3 
 .rodata.str1.4
                0x00000000001157cc       0x94 binaries/xsh_udpdump.o
                                         0xe4 (size before relaxing)
 .rodata.str1.1
                0x0000000000115860       0xdb binaries/xsh_udpecho.o
                                         0xfa (size before relaxing)
 *fill*         0x000000000011593b        0x1 
 .rodata.str1.4
                0x000000000011593c       0xc7 binaries/xsh_udpecho.o
                                        0x116 (size before relaxing)
 .rodata.str1.1
                0x0000000000115a03       0x66 binaries/xsh_udpeserver.o
                                         0x8f (size before relaxing)
 *fill*         0x0000000000115a69        0x3 
 .rodata.str1.4
                0x0000000000115a6c       0x29 binaries/xsh_udpeserver.o
                                         0x9f (size before relaxing)
 .rodata.str1.1
                0x0000000000115a95       0x49 binaries/xsh_uptime.o
                                         0x8c (size before relaxing)
 *fill*         0x0000000000115ade        0x2 
 .rodata.str1.4
                0x0000000000115ae0       0x28 binaries/xsh_uptime.o
                                         0x76 (size before relaxing)
                0x0000000000115b08                etext = ABSOLUTE (.)
                0x0000000000116000                . = ALIGN (0x1000)
 *fill*         0x0000000000115b08      0x4f8 

.eh_frame       0x0000000000116000     0x3478
 .eh_frame      0x0000000000116000       0x3c binaries/app1.o
 .eh_frame      0x000000000011603c       0x28 binaries/app2.o
                                         0x40 (size before relaxing)
 .eh_frame      0x0000000000116064       0x24 binaries/app3.o
                                         0x3c (size before relaxing)
 .eh_frame      0x0000000000116088       0x30 binaries/ascdate.o
                                         0x48 (size before relaxing)
 .eh_frame      0x00000000001160b8       0x20 binaries/bufinit.o
                                         0x38 (size before relaxing)
 .eh_frame      0x00000000001160d8       0x2c binaries/chprio.o
                                         0x44 (size before relaxing)
 .eh_frame      0x0000000000116104       0x20 binaries/clkhandler.o
                                         0x38 (size before relaxing)
 .eh_frame      0x0000000000116124       0x20 binaries/clkinit.o
                                         0x38 (size before relaxing)
 .eh_frame      0x0000000000116144       0x28 binaries/close.o
                                         0x40 (size before relaxing)
 .eh_frame      0x000000000011616c       0x28 binaries/control.o
                                         0x40 (size before relaxing)
 .eh_frame      0x0000000000116194       0x30 binaries/cpubound.o
                                         0x48 (size before relaxing)
 .eh_frame      0x00000000001161c4       0x30 binaries/create.o
                                         0x48 (size before relaxing)
 .eh_frame      0x00000000001161f4       0x94 binaries/early_imr.o
                                         0xac (size before relaxing)
 .eh_frame      0x0000000000116288       0x94 binaries/evec.o
                                         0xac (size before relaxing)
 .eh_frame      0x000000000011631c       0x24 binaries/factorial.o
                                         0x3c (size before relaxing)
 .eh_frame      0x0000000000116340       0x2c binaries/freebuf.o
                                         0x44 (size before relaxing)
 .eh_frame      0x000000000011636c       0x2c binaries/freemem.o
                                         0x44 (size before relaxing)
 .eh_frame      0x0000000000116398       0x2c binaries/getbuf.o
                                         0x44 (size before relaxing)
 .eh_frame      0x00000000001163c4       0x28 binaries/getc.o
                                         0x40 (size before relaxing)
 .eh_frame      0x00000000001163ec       0x2c binaries/getdev.o
                                         0x44 (size before relaxing)
 .eh_frame      0x0000000000116418       0x64 binaries/getitem.o
                                         0x7c (size before relaxing)
 .eh_frame      0x000000000011647c       0x28 binaries/getmem.o
                                         0x40 (size before relaxing)
 .eh_frame      0x00000000001164a4       0x20 binaries/getpid.o
                                         0x38 (size before relaxing)
 .eh_frame      0x00000000001164c4       0x20 binaries/getpname.o
                                         0x38 (size before relaxing)
 .eh_frame      0x00000000001164e4       0x20 binaries/getppid.o
                                         0x38 (size before relaxing)
 .eh_frame      0x0000000000116504       0x24 binaries/getprio.o
                                         0x3c (size before relaxing)
 .eh_frame      0x0000000000116528       0x2c binaries/getstk.o
                                         0x44 (size before relaxing)
 .eh_frame      0x0000000000116554       0x20 binaries/gettime.o
                                         0x38 (size before relaxing)
 .eh_frame      0x0000000000116574       0x24 binaries/getutime.o
                                         0x3c (size before relaxing)
 .eh_frame      0x0000000000116598       0x20 binaries/host2netlb.o
                                         0x38 (size before relaxing)
 .eh_frame      0x00000000001165b8       0x28 binaries/init.o
                                         0x40 (size before relaxing)
 .eh_frame      0x00000000001165e0       0x68 binaries/initialize.o
                                         0x80 (size before relaxing)
 .eh_frame      0x0000000000116648       0x28 binaries/insert.o
                                         0x40 (size before relaxing)
 .eh_frame      0x0000000000116670       0x2c binaries/insertd.o
                                         0x44 (size before relaxing)
 .eh_frame      0x000000000011669c       0x2c binaries/iobound.o
                                         0x44 (size before relaxing)
 .eh_frame      0x00000000001166c8       0x20 binaries/ioerr.o
                                         0x38 (size before relaxing)
 .eh_frame      0x00000000001166e8       0x20 binaries/ionull.o
                                         0x38 (size before relaxing)
 .eh_frame      0x0000000000116708       0x30 binaries/kill.o
                                         0x48 (size before relaxing)
 .eh_frame      0x0000000000116738       0x80 binaries/kprintf.o
                                         0x98 (size before relaxing)
 .eh_frame      0x00000000001167b8      0x108 binaries/lab2q3.o
                                        0x120 (size before relaxing)
 .eh_frame      0x00000000001168c0       0x84 binaries/lab2q4.o
                                         0x9c (size before relaxing)
 .eh_frame      0x0000000000116944       0x44 binaries/main.o
                                         0x5c (size before relaxing)
 .eh_frame      0x0000000000116988       0x44 binaries/mark.o
                                         0x5c (size before relaxing)
 .eh_frame      0x00000000001169cc       0x50 binaries/meminit.o
                                         0x68 (size before relaxing)
 .eh_frame      0x0000000000116a1c       0x30 binaries/mkbufpool.o
                                         0x48 (size before relaxing)
 .eh_frame      0x0000000000116a4c       0x2c binaries/myappA.o
                                         0x44 (size before relaxing)
 .eh_frame      0x0000000000116a78       0x20 binaries/myfuncA.o
                                         0x38 (size before relaxing)
 .eh_frame      0x0000000000116a98       0x64 binaries/myhacker.o
                                         0x7c (size before relaxing)
 .eh_frame      0x0000000000116afc       0x60 binaries/myvictim.o
                                         0x78 (size before relaxing)
 .eh_frame      0x0000000000116b5c       0x20 binaries/mywelcomemsg.o
                                         0x38 (size before relaxing)
 .eh_frame      0x0000000000116b7c       0x20 binaries/newqueue.o
                                         0x38 (size before relaxing)
 .eh_frame      0x0000000000116b9c       0x28 binaries/open.o
                                         0x40 (size before relaxing)
 .eh_frame      0x0000000000116bc4       0x1c binaries/panic.o
                                         0x34 (size before relaxing)
 .eh_frame      0x0000000000116be0      0x12c binaries/pci.o
                                        0x144 (size before relaxing)
 .eh_frame      0x0000000000116d0c       0x20 binaries/platinit.o
                                         0x38 (size before relaxing)
 .eh_frame      0x0000000000116d2c       0x20 binaries/printsegaddr.o
                                         0x38 (size before relaxing)
 .eh_frame      0x0000000000116d4c       0x30 binaries/process_state.o
                                         0x48 (size before relaxing)
 .eh_frame      0x0000000000116d7c       0x2c binaries/ptclear.o
                                         0x44 (size before relaxing)
 .eh_frame      0x0000000000116da8       0x2c binaries/ptcount.o
                                         0x44 (size before relaxing)
 .eh_frame      0x0000000000116dd4       0x2c binaries/ptcreate.o
                                         0x44 (size before relaxing)
 .eh_frame      0x0000000000116e00       0x28 binaries/ptdelete.o
                                         0x40 (size before relaxing)
 .eh_frame      0x0000000000116e28       0x28 binaries/ptinit.o
                                         0x40 (size before relaxing)
 .eh_frame      0x0000000000116e50       0x2c binaries/ptrecv.o
                                         0x44 (size before relaxing)
 .eh_frame      0x0000000000116e7c       0x28 binaries/ptreset.o
                                         0x40 (size before relaxing)
 .eh_frame      0x0000000000116ea4       0x30 binaries/ptsend.o
                                         0x48 (size before relaxing)
 .eh_frame      0x0000000000116ed4       0x2c binaries/putc.o
                                         0x44 (size before relaxing)
 .eh_frame      0x0000000000116f00       0x24 binaries/quark_irq.o
                                         0x3c (size before relaxing)
 .eh_frame      0x0000000000116f24       0x54 binaries/quark_pdat.o
                                         0x6c (size before relaxing)
 .eh_frame      0x0000000000116f78       0x40 binaries/queue.o
                                         0x58 (size before relaxing)
 .eh_frame      0x0000000000116fb8       0x28 binaries/read.o
                                         0x40 (size before relaxing)
 .eh_frame      0x0000000000116fe0       0x20 binaries/ready.o
                                         0x38 (size before relaxing)
 .eh_frame      0x0000000000117000       0x2c binaries/receive.o
                                         0x44 (size before relaxing)
 .eh_frame      0x000000000011702c       0x24 binaries/recvclr.o
                                         0x3c (size before relaxing)
 .eh_frame      0x0000000000117050       0x2c binaries/recvtime.o
                                         0x44 (size before relaxing)
 .eh_frame      0x000000000011707c       0x70 binaries/resched.o
                                         0x88 (size before relaxing)
 .eh_frame      0x00000000001170ec       0x2c binaries/resume.o
                                         0x44 (size before relaxing)
 .eh_frame      0x0000000000117118       0x28 binaries/seek.o
                                         0x40 (size before relaxing)
 .eh_frame      0x0000000000117140       0x24 binaries/semcount.o
                                         0x3c (size before relaxing)
 .eh_frame      0x0000000000117164       0x2c binaries/semcreate.o
                                         0x44 (size before relaxing)
 .eh_frame      0x0000000000117190       0x2c binaries/semdelete.o
                                         0x44 (size before relaxing)
 .eh_frame      0x00000000001171bc       0x2c binaries/semreset.o
                                         0x44 (size before relaxing)
 .eh_frame      0x00000000001171e8       0x28 binaries/send.o
                                         0x40 (size before relaxing)
 .eh_frame      0x0000000000117210       0x28 binaries/signal.o
                                         0x40 (size before relaxing)
 .eh_frame      0x0000000000117238       0x2c binaries/signaln.o
                                         0x44 (size before relaxing)
 .eh_frame      0x0000000000117264       0x48 binaries/sleep.o
                                         0x60 (size before relaxing)
 .eh_frame      0x00000000001172ac       0x2c binaries/stackdepth.o
                                         0x44 (size before relaxing)
 .eh_frame      0x00000000001172d8       0x30 binaries/stacktrace.o
                                         0x48 (size before relaxing)
 .eh_frame      0x0000000000117308       0x28 binaries/suspend.o
                                         0x40 (size before relaxing)
 .eh_frame      0x0000000000117330       0x20 binaries/teststackdepth.o
                                         0x38 (size before relaxing)
 .eh_frame      0x0000000000117350       0x28 binaries/unsleep.o
                                         0x40 (size before relaxing)
 .eh_frame      0x0000000000117378       0x20 binaries/userret.o
                                         0x38 (size before relaxing)
 .eh_frame      0x0000000000117398       0x28 binaries/wait.o
                                         0x40 (size before relaxing)
 .eh_frame      0x00000000001173c0       0x20 binaries/wakeup.o
                                         0x38 (size before relaxing)
 .eh_frame      0x00000000001173e0       0x28 binaries/write.o
                                         0x40 (size before relaxing)
 .eh_frame      0x0000000000117408       0x20 binaries/xdone.o
                                         0x38 (size before relaxing)
 .eh_frame      0x0000000000117428       0x24 binaries/yield.o
                                         0x3c (size before relaxing)
 .eh_frame      0x000000000011744c       0x20 binaries/abs.o
                                         0x38 (size before relaxing)
 .eh_frame      0x000000000011746c       0x28 binaries/atoi.o
                                         0x40 (size before relaxing)
 .eh_frame      0x0000000000117494       0x28 binaries/atol.o
                                         0x40 (size before relaxing)
 .eh_frame      0x00000000001174bc       0x20 binaries/bzero.o
                                         0x38 (size before relaxing)
 .eh_frame      0x00000000001174dc       0xac binaries/doprnt.o
                                         0xc4 (size before relaxing)
 .eh_frame      0x0000000000117588       0x30 binaries/doscan.o
                                         0x48 (size before relaxing)
 .eh_frame      0x00000000001175b8       0x5c binaries/fdoprnt.o
                                         0x74 (size before relaxing)
 .eh_frame      0x0000000000117614       0x20 binaries/fgetc.o
                                         0x38 (size before relaxing)
 .eh_frame      0x0000000000117634       0x2c binaries/fgets.o
                                         0x44 (size before relaxing)
 .eh_frame      0x0000000000117660       0x20 binaries/fprintf.o
                                         0x38 (size before relaxing)
 .eh_frame      0x0000000000117680       0x20 binaries/fputc.o
                                         0x38 (size before relaxing)
 .eh_frame      0x00000000001176a0       0x28 binaries/fputs.o
                                         0x40 (size before relaxing)
 .eh_frame      0x00000000001176c8       0x64 binaries/fscanf.o
                                         0x7c (size before relaxing)
 .eh_frame      0x000000000011772c       0x20 binaries/getchar.o
                                         0x38 (size before relaxing)
 .eh_frame      0x000000000011774c       0x20 binaries/labs.o
                                         0x38 (size before relaxing)
 .eh_frame      0x000000000011776c       0x20 binaries/memchr.o
                                         0x38 (size before relaxing)
 .eh_frame      0x000000000011778c       0x28 binaries/memcmp.o
                                         0x40 (size before relaxing)
 .eh_frame      0x00000000001177b4       0x28 binaries/memcpy.o
                                         0x40 (size before relaxing)
 .eh_frame      0x00000000001177dc       0x24 binaries/memset.o
                                         0x3c (size before relaxing)
 .eh_frame      0x0000000000117800       0x20 binaries/printf.o
                                         0x38 (size before relaxing)
 .eh_frame      0x0000000000117820       0x20 binaries/putchar.o
                                         0x38 (size before relaxing)
 .eh_frame      0x0000000000117840       0xa4 binaries/qsort.o
                                         0xbc (size before relaxing)
 .eh_frame      0x00000000001178e4       0x40 binaries/rand.o
                                         0x58 (size before relaxing)
 .eh_frame      0x0000000000117924       0x48 binaries/sprintf.o
                                         0x60 (size before relaxing)
 .eh_frame      0x000000000011796c       0x60 binaries/sscanf.o
                                         0x78 (size before relaxing)
 .eh_frame      0x00000000001179cc       0x24 binaries/strchr.o
                                         0x3c (size before relaxing)
 .eh_frame      0x00000000001179f0       0x24 binaries/strcmp.o
                                         0x3c (size before relaxing)
 .eh_frame      0x0000000000117a14       0x20 binaries/strcpy.o
                                         0x38 (size before relaxing)
 .eh_frame      0x0000000000117a34       0x20 binaries/strlen.o
                                         0x38 (size before relaxing)
 .eh_frame      0x0000000000117a54       0x2c binaries/strncat.o
                                         0x44 (size before relaxing)
 .eh_frame      0x0000000000117a80       0x24 binaries/strncmp.o
                                         0x3c (size before relaxing)
 .eh_frame      0x0000000000117aa4       0x2c binaries/strncpy.o
                                         0x44 (size before relaxing)
 .eh_frame      0x0000000000117ad0       0x24 binaries/strnlen.o
                                         0x3c (size before relaxing)
 .eh_frame      0x0000000000117af4       0x24 binaries/strrchr.o
                                         0x3c (size before relaxing)
 .eh_frame      0x0000000000117b18       0x2c binaries/strstr.o
                                         0x44 (size before relaxing)
 .eh_frame      0x0000000000117b44       0x30 binaries/ttycontrol.o
                                         0x48 (size before relaxing)
 .eh_frame      0x0000000000117b74       0x2c binaries/ttygetc.o
                                         0x44 (size before relaxing)
 .eh_frame      0x0000000000117ba0       0x84 binaries/ttyhandle_in.o
                                         0x9c (size before relaxing)
 .eh_frame      0x0000000000117c24       0x30 binaries/ttyhandle_out.o
                                         0x48 (size before relaxing)
 .eh_frame      0x0000000000117c54       0x28 binaries/ttyhandler.o
                                         0x40 (size before relaxing)
 .eh_frame      0x0000000000117c7c       0x30 binaries/ttyinit.o
                                         0x48 (size before relaxing)
 .eh_frame      0x0000000000117cac       0x20 binaries/ttykickout.o
                                         0x38 (size before relaxing)
 .eh_frame      0x0000000000117ccc       0x2c binaries/ttyputc.o
                                         0x44 (size before relaxing)
 .eh_frame      0x0000000000117cf8       0x2c binaries/ttyread.o
                                         0x44 (size before relaxing)
 .eh_frame      0x0000000000117d24       0x2c binaries/ttywrite.o
                                         0x44 (size before relaxing)
 .eh_frame      0x0000000000117d50       0x4c binaries/mount.o
                                         0x64 (size before relaxing)
 .eh_frame      0x0000000000117d9c       0x30 binaries/naminit.o
                                         0x48 (size before relaxing)
 .eh_frame      0x0000000000117dcc       0x84 binaries/nammap.o
                                         0x9c (size before relaxing)
 .eh_frame      0x0000000000117e50       0x20 binaries/namopen.o
                                         0x38 (size before relaxing)
 .eh_frame      0x0000000000117e70       0x2c binaries/colon2mac.o
                                         0x44 (size before relaxing)
 .eh_frame      0x0000000000117e9c       0x20 binaries/ethcontrol.o
                                         0x38 (size before relaxing)
 .eh_frame      0x0000000000117ebc       0x30 binaries/ethhandler.o
                                         0x48 (size before relaxing)
 .eh_frame      0x0000000000117eec       0x98 binaries/ethinit.o
                                         0xb0 (size before relaxing)
 .eh_frame      0x0000000000117f84       0x54 binaries/ethmcast.o
                                         0x6c (size before relaxing)
 .eh_frame      0x0000000000117fd8       0x30 binaries/ethread.o
                                         0x48 (size before relaxing)
 .eh_frame      0x0000000000118008       0x2c binaries/ethwrite.o
                                         0x44 (size before relaxing)
 .eh_frame      0x0000000000118034       0x24 binaries/rdsbufalloc.o
                                         0x3c (size before relaxing)
 .eh_frame      0x0000000000118058       0x2c binaries/rdsclose.o
                                         0x44 (size before relaxing)
 .eh_frame      0x0000000000118084       0x30 binaries/rdscomm.o
                                         0x48 (size before relaxing)
 .eh_frame      0x00000000001180b4       0x30 binaries/rdscontrol.o
                                         0x48 (size before relaxing)
 .eh_frame      0x00000000001180e4       0x30 binaries/rdsinit.o
                                         0x48 (size before relaxing)
 .eh_frame      0x0000000000118114       0x30 binaries/rdsopen.o
                                         0x48 (size before relaxing)
 .eh_frame      0x0000000000118144       0x20 binaries/rdsprocess.o
                                         0x38 (size before relaxing)
 .eh_frame      0x0000000000118164       0x30 binaries/rdsread.o
                                         0x48 (size before relaxing)
 .eh_frame      0x0000000000118194       0x30 binaries/rdswrite.o
                                         0x48 (size before relaxing)
 .eh_frame      0x00000000001181c4       0x20 binaries/ramclose.o
                                         0x38 (size before relaxing)
 .eh_frame      0x00000000001181e4       0x20 binaries/raminit.o
                                         0x38 (size before relaxing)
 .eh_frame      0x0000000000118204       0x20 binaries/ramopen.o
                                         0x38 (size before relaxing)
 .eh_frame      0x0000000000118224       0x20 binaries/ramread.o
                                         0x38 (size before relaxing)
 .eh_frame      0x0000000000118244       0x20 binaries/ramwrite.o
                                         0x38 (size before relaxing)
 .eh_frame      0x0000000000118264       0x28 binaries/lfdballoc.o
                                         0x40 (size before relaxing)
 .eh_frame      0x000000000011828c       0x24 binaries/lfdbfree.o
                                         0x3c (size before relaxing)
 .eh_frame      0x00000000001182b0       0x24 binaries/lfflush.o
                                         0x3c (size before relaxing)
 .eh_frame      0x00000000001182d4       0x20 binaries/lfgetmode.o
                                         0x38 (size before relaxing)
 .eh_frame      0x00000000001182f4       0x24 binaries/lfiballoc.o
                                         0x3c (size before relaxing)
 .eh_frame      0x0000000000118318       0x20 binaries/lfibclear.o
                                         0x38 (size before relaxing)
 .eh_frame      0x0000000000118338       0x2c binaries/lfibget.o
                                         0x44 (size before relaxing)
 .eh_frame      0x0000000000118364       0x2c binaries/lfibput.o
                                         0x44 (size before relaxing)
 .eh_frame      0x0000000000118390       0x28 binaries/lflclose.o
                                         0x40 (size before relaxing)
 .eh_frame      0x00000000001183b8       0x2c binaries/lflcontrol.o
                                         0x44 (size before relaxing)
 .eh_frame      0x00000000001183e4       0x2c binaries/lflgetc.o
                                         0x44 (size before relaxing)
 .eh_frame      0x0000000000118410       0x2c binaries/lflinit.o
                                         0x44 (size before relaxing)
 .eh_frame      0x000000000011843c       0x30 binaries/lflputc.o
                                         0x48 (size before relaxing)
 .eh_frame      0x000000000011846c       0x2c binaries/lflread.o
                                         0x44 (size before relaxing)
 .eh_frame      0x0000000000118498       0x2c binaries/lflseek.o
                                         0x44 (size before relaxing)
 .eh_frame      0x00000000001184c4       0x2c binaries/lflwrite.o
                                         0x44 (size before relaxing)
 .eh_frame      0x00000000001184f0       0x30 binaries/lfsckfmt.o
                                         0x48 (size before relaxing)
 .eh_frame      0x0000000000118520       0x30 binaries/lfscreate.o
                                         0x48 (size before relaxing)
 .eh_frame      0x0000000000118550       0x30 binaries/lfsetup.o
                                         0x48 (size before relaxing)
 .eh_frame      0x0000000000118580       0x20 binaries/lfsinit.o
                                         0x38 (size before relaxing)
 .eh_frame      0x00000000001185a0       0x30 binaries/lfsopen.o
                                         0x48 (size before relaxing)
 .eh_frame      0x00000000001185d0       0x30 binaries/lftruncate.o
                                         0x48 (size before relaxing)
 .eh_frame      0x0000000000118600       0x20 binaries/rflclose.o
                                         0x38 (size before relaxing)
 .eh_frame      0x0000000000118620       0x20 binaries/rflgetc.o
                                         0x38 (size before relaxing)
 .eh_frame      0x0000000000118640       0x24 binaries/rflinit.o
                                         0x3c (size before relaxing)
 .eh_frame      0x0000000000118664       0x20 binaries/rflputc.o
                                         0x38 (size before relaxing)
 .eh_frame      0x0000000000118684       0x30 binaries/rflread.o
                                         0x48 (size before relaxing)
 .eh_frame      0x00000000001186b4       0x20 binaries/rflseek.o
                                         0x38 (size before relaxing)
 .eh_frame      0x00000000001186d4       0x30 binaries/rflwrite.o
                                         0x48 (size before relaxing)
 .eh_frame      0x0000000000118704       0x30 binaries/rfscomm.o
                                         0x48 (size before relaxing)
 .eh_frame      0x0000000000118734       0x2c binaries/rfscontrol.o
                                         0x44 (size before relaxing)
 .eh_frame      0x0000000000118760       0x20 binaries/rfsgetmode.o
                                         0x38 (size before relaxing)
 .eh_frame      0x0000000000118780       0x20 binaries/rfsinit.o
                                         0x38 (size before relaxing)
 .eh_frame      0x00000000001187a0       0x20 binaries/rfsndmsg.o
                                         0x38 (size before relaxing)
 .eh_frame      0x00000000001187c0       0x2c binaries/rfsopen.o
                                         0x44 (size before relaxing)
 .eh_frame      0x00000000001187ec       0xec binaries/arp.o
                                        0x104 (size before relaxing)
 .eh_frame      0x00000000001188d8       0xd0 binaries/dhcp.o
                                         0xe8 (size before relaxing)
 .eh_frame      0x00000000001189a8       0x2c binaries/dot2ip.o
                                         0x44 (size before relaxing)
 .eh_frame      0x00000000001189d4       0x60 binaries/hexdump.o
                                         0x78 (size before relaxing)
 .eh_frame      0x0000000000118a34      0x198 binaries/icmp.o
                                        0x1b0 (size before relaxing)
 .eh_frame      0x0000000000118bcc      0x148 binaries/ip.o
                                        0x160 (size before relaxing)
 .eh_frame      0x0000000000118d14       0x7c binaries/net.o
                                         0x94 (size before relaxing)
 .eh_frame      0x0000000000118d90       0x24 binaries/netstart.o
                                         0x3c (size before relaxing)
 .eh_frame      0x0000000000118db4       0x50 binaries/pdump.o
                                         0x68 (size before relaxing)
 .eh_frame      0x0000000000118e04       0x80 binaries/tftp.o
                                         0x98 (size before relaxing)
 .eh_frame      0x0000000000118e84      0x1b0 binaries/udp.o
                                        0x1c8 (size before relaxing)
 .eh_frame      0x0000000000119034       0x30 binaries/addargs.o
                                         0x48 (size before relaxing)
 .eh_frame      0x0000000000119064       0x30 binaries/lexan.o
                                         0x48 (size before relaxing)
 .eh_frame      0x0000000000119094       0x30 binaries/shell.o
                                         0x48 (size before relaxing)
 .eh_frame      0x00000000001190c4       0x2c binaries/xsh_argecho.o
                                         0x44 (size before relaxing)
 .eh_frame      0x00000000001190f0       0x30 binaries/xsh_arp.o
                                         0x48 (size before relaxing)
 .eh_frame      0x0000000000119120       0x30 binaries/xsh_cat.o
                                         0x48 (size before relaxing)
 .eh_frame      0x0000000000119150       0x20 binaries/xsh_clear.o
                                         0x38 (size before relaxing)
 .eh_frame      0x0000000000119170       0x24 binaries/xsh_date.o
                                         0x3c (size before relaxing)
 .eh_frame      0x0000000000119194       0x28 binaries/xsh_devdump.o
                                         0x40 (size before relaxing)
 .eh_frame      0x00000000001191bc       0x2c binaries/xsh_echo.o
                                         0x44 (size before relaxing)
 .eh_frame      0x00000000001191e8       0x20 binaries/xsh_exit.o
                                         0x38 (size before relaxing)
 .eh_frame      0x0000000000119208       0x30 binaries/xsh_help.o
                                         0x48 (size before relaxing)
 .eh_frame      0x0000000000119238       0x2c binaries/xsh_ipaddr.o
                                         0x44 (size before relaxing)
 .eh_frame      0x0000000000119264       0x2c binaries/xsh_kill.o
                                         0x44 (size before relaxing)
 .eh_frame      0x0000000000119290       0x58 binaries/xsh_memdump.o
                                         0x70 (size before relaxing)
 .eh_frame      0x00000000001192e8       0x30 binaries/xsh_memstat.o
                                         0x48 (size before relaxing)
 .eh_frame      0x0000000000119318       0x30 binaries/xsh_ping.o
                                         0x48 (size before relaxing)
 .eh_frame      0x0000000000119348       0x30 binaries/xsh_ps.o
                                         0x48 (size before relaxing)
 .eh_frame      0x0000000000119378       0x30 binaries/xsh_sleep.o
                                         0x48 (size before relaxing)
 .eh_frame      0x00000000001193a8       0x2c binaries/xsh_udpdump.o
                                         0x44 (size before relaxing)
 .eh_frame      0x00000000001193d4       0x30 binaries/xsh_udpecho.o
                                         0x48 (size before relaxing)
 .eh_frame      0x0000000000119404       0x30 binaries/xsh_udpeserver.o
                                         0x48 (size before relaxing)
 .eh_frame      0x0000000000119434       0x30 binaries/xsh_uptime.o
                                         0x48 (size before relaxing)
 .eh_frame      0x0000000000119464       0x14 binaries/host2netlc.o
                                         0x2c (size before relaxing)

.iplt           0x0000000000119480        0x0
 .iplt          0x0000000000119480        0x0 binaries/start.o

.rel.dyn        0x0000000000119478        0x0
 .rel.iplt      0x0000000000119478        0x0 binaries/start.o
 .rel.text      0x0000000000119478        0x0 binaries/start.o
 .rel.data      0x0000000000119478        0x0 binaries/start.o
 .rel.rodata    0x0000000000119478        0x0 binaries/start.o

.data           0x0000000000119480     0x1b80
                0x0000000000119480                data = ABSOLUTE (.)
 *(.data .data.*)
 .data          0x0000000000119480      0x85a binaries/start.o
                0x0000000000119480                gdt
                0x00000000001194d0                idt
                0x0000000000119cd6                cpudelay
 .data          0x0000000000119cda        0x0 binaries/app1.o
 .data          0x0000000000119cda        0x0 binaries/app2.o
 .data          0x0000000000119cda        0x0 binaries/app3.o
 *fill*         0x0000000000119cda        0x6 
 .data          0x0000000000119ce0       0x88 binaries/ascdate.o
                0x0000000000119ce0                Date
 .data          0x0000000000119d68        0x0 binaries/bufinit.o
 .data          0x0000000000119d68        0x0 binaries/chprio.o
 .data          0x0000000000119d68        0x4 binaries/clkhandler.o
 .data          0x0000000000119d6c        0x0 binaries/clkinit.o
 .data          0x0000000000119d6c        0x0 binaries/close.o
 *fill*         0x0000000000119d6c       0x14 
 .data          0x0000000000119d80      0x30c binaries/conf.o
                0x0000000000119d80                devtab
 .data          0x000000000011a08c        0x0 binaries/control.o
 .data          0x000000000011a08c        0x0 binaries/cpubound.o
 .data          0x000000000011a08c        0x4 binaries/create.o
 .data          0x000000000011a090        0x0 binaries/early_imr.o
 *fill*         0x000000000011a090       0x10 
 .data          0x000000000011a0a0       0x40 binaries/evec.o
                0x000000000011a0a0                inames
 .data          0x000000000011a0e0        0x0 binaries/factorial.o
 .data          0x000000000011a0e0        0x0 binaries/freebuf.o
 .data          0x000000000011a0e0        0x0 binaries/freemem.o
 .data          0x000000000011a0e0        0x0 binaries/getbuf.o
 .data          0x000000000011a0e0        0x0 binaries/getc.o
 .data          0x000000000011a0e0        0x0 binaries/getdev.o
 .data          0x000000000011a0e0        0x0 binaries/getitem.o
 .data          0x000000000011a0e0        0x0 binaries/getmem.o
 .data          0x000000000011a0e0        0x0 binaries/getpid.o
 .data          0x000000000011a0e0        0x0 binaries/getpname.o
 .data          0x000000000011a0e0        0x0 binaries/getppid.o
 .data          0x000000000011a0e0        0x0 binaries/getprio.o
 .data          0x000000000011a0e0        0x0 binaries/getstk.o
 .data          0x000000000011a0e0        0x0 binaries/gettime.o
 .data          0x000000000011a0e0        0x0 binaries/getutime.o
 .data          0x000000000011a0e0        0x0 binaries/host2netlb.o
 .data          0x000000000011a0e0        0x0 binaries/init.o
 .data          0x000000000011a0e0        0x0 binaries/initialize.o
 .data          0x000000000011a0e0        0x0 binaries/insert.o
 .data          0x000000000011a0e0        0x0 binaries/insertd.o
 .data          0x000000000011a0e0        0x0 binaries/iobound.o
 .data          0x000000000011a0e0        0x0 binaries/ioerr.o
 .data          0x000000000011a0e0        0x0 binaries/ionull.o
 .data          0x000000000011a0e0        0x0 binaries/kill.o
 .data          0x000000000011a0e0        0x0 binaries/kprintf.o
 .data          0x000000000011a0e0        0x0 binaries/lab2q3.o
 .data          0x000000000011a0e0        0x0 binaries/lab2q4.o
 .data          0x000000000011a0e0        0x4 binaries/main.o
                0x000000000011a0e0                lab2flag
 .data          0x000000000011a0e4        0x0 binaries/mark.o
 *fill*         0x000000000011a0e4       0x1c 
 .data          0x000000000011a100       0x48 binaries/meminit.o
                0x000000000011a100                gdt_copy
                0x000000000011a140                bootinfo
                0x000000000011a144                bootsign
 .data          0x000000000011a148        0x0 binaries/mkbufpool.o
 .data          0x000000000011a148        0x0 binaries/myappA.o
 .data          0x000000000011a148        0x0 binaries/myfuncA.o
 .data          0x000000000011a148        0x0 binaries/myhacker.o
 .data          0x000000000011a148        0x0 binaries/myvictim.o
 .data          0x000000000011a148        0x0 binaries/mywelcomemsg.o
 .data          0x000000000011a148        0x2 binaries/newqueue.o
 .data          0x000000000011a14a        0x0 binaries/open.o
 .data          0x000000000011a14a        0x0 binaries/panic.o
 .data          0x000000000011a14a        0x0 binaries/pci.o
 .data          0x000000000011a14a        0x0 binaries/platinit.o
 .data          0x000000000011a14a        0x0 binaries/printsegaddr.o
 .data          0x000000000011a14a        0x0 binaries/process_state.o
 .data          0x000000000011a14a        0x0 binaries/ptclear.o
 .data          0x000000000011a14a        0x0 binaries/ptcount.o
 .data          0x000000000011a14a        0x0 binaries/ptcreate.o
 .data          0x000000000011a14a        0x0 binaries/ptdelete.o
 .data          0x000000000011a14a        0x0 binaries/ptinit.o
 .data          0x000000000011a14a        0x0 binaries/ptrecv.o
 .data          0x000000000011a14a        0x0 binaries/ptreset.o
 .data          0x000000000011a14a        0x0 binaries/ptsend.o
 .data          0x000000000011a14a        0x0 binaries/putc.o
 .data          0x000000000011a14a        0x0 binaries/quark_irq.o
 .data          0x000000000011a14a        0x0 binaries/quark_pdat.o
 .data          0x000000000011a14a        0x0 binaries/queue.o
 .data          0x000000000011a14a        0x0 binaries/read.o
 .data          0x000000000011a14a        0x0 binaries/ready.o
 .data          0x000000000011a14a        0x0 binaries/receive.o
 .data          0x000000000011a14a        0x0 binaries/recvclr.o
 .data          0x000000000011a14a        0x0 binaries/recvtime.o
 .data          0x000000000011a14a        0x0 binaries/resched.o
 .data          0x000000000011a14a        0x0 binaries/resume.o
 .data          0x000000000011a14a        0x0 binaries/seek.o
 .data          0x000000000011a14a        0x0 binaries/semcount.o
 .data          0x000000000011a14a        0x0 binaries/semcreate.o
 .data          0x000000000011a14a        0x0 binaries/semdelete.o
 .data          0x000000000011a14a        0x0 binaries/semreset.o
 .data          0x000000000011a14a        0x0 binaries/send.o
 .data          0x000000000011a14a        0x0 binaries/signal.o
 .data          0x000000000011a14a        0x0 binaries/signaln.o
 .data          0x000000000011a14a        0x0 binaries/sleep.o
 .data          0x000000000011a14a        0x0 binaries/stackdepth.o
 .data          0x000000000011a14a        0x0 binaries/stacktrace.o
 .data          0x000000000011a14a        0x0 binaries/suspend.o
 .data          0x000000000011a14a        0x0 binaries/teststackdepth.o
 .data          0x000000000011a14a        0x0 binaries/unsleep.o
 .data          0x000000000011a14a        0x0 binaries/userret.o
 .data          0x000000000011a14a        0x0 binaries/wait.o
 .data          0x000000000011a14a        0x0 binaries/wakeup.o
 .data          0x000000000011a14a        0x0 binaries/write.o
 .data          0x000000000011a14a        0x0 binaries/xdone.o
 .data          0x000000000011a14a        0x0 binaries/yield.o
 .data          0x000000000011a14a        0x0 binaries/abs.o
 .data          0x000000000011a14a        0x0 binaries/atoi.o
 .data          0x000000000011a14a        0x0 binaries/atol.o
 .data          0x000000000011a14a        0x0 binaries/bzero.o
 .data          0x000000000011a14a        0x0 binaries/ctype_.o
 .data          0x000000000011a14a        0x0 binaries/doprnt.o
 *fill*         0x000000000011a14a       0x16 
 .data          0x000000000011a160       0x80 binaries/doscan.o
                0x000000000011a160                _sctab
 .data          0x000000000011a1e0        0x0 binaries/fdoprnt.o
 .data          0x000000000011a1e0        0x0 binaries/fgetc.o
 .data          0x000000000011a1e0        0x0 binaries/fgets.o
 .data          0x000000000011a1e0        0x0 binaries/fprintf.o
 .data          0x000000000011a1e0        0x0 binaries/fputc.o
 .data          0x000000000011a1e0        0x0 binaries/fputs.o
 .data          0x000000000011a1e0        0x0 binaries/fscanf.o
 .data          0x000000000011a1e0        0x0 binaries/getchar.o
 .data          0x000000000011a1e0        0x0 binaries/labs.o
 .data          0x000000000011a1e0        0x0 binaries/memchr.o
 .data          0x000000000011a1e0        0x0 binaries/memcmp.o
 .data          0x000000000011a1e0        0x0 binaries/memcpy.o
 .data          0x000000000011a1e0        0x0 binaries/memset.o
 .data          0x000000000011a1e0        0x0 binaries/printf.o
 .data          0x000000000011a1e0        0x0 binaries/putchar.o
 .data          0x000000000011a1e0        0x0 binaries/qsort.o
 .data          0x000000000011a1e0        0x4 binaries/rand.o
 .data          0x000000000011a1e4        0x0 binaries/sprintf.o
 .data          0x000000000011a1e4        0x0 binaries/sscanf.o
 .data          0x000000000011a1e4        0x0 binaries/strchr.o
 .data          0x000000000011a1e4        0x0 binaries/strcmp.o
 .data          0x000000000011a1e4        0x0 binaries/strcpy.o
 .data          0x000000000011a1e4        0x0 binaries/strlen.o
 .data          0x000000000011a1e4        0x0 binaries/strncat.o
 .data          0x000000000011a1e4        0x0 binaries/strncmp.o
 .data          0x000000000011a1e4        0x0 binaries/strncpy.o
 .data          0x000000000011a1e4        0x0 binaries/strnlen.o
 .data          0x000000000011a1e4        0x0 binaries/strrchr.o
 .data          0x000000000011a1e4        0x0 binaries/strstr.o
 .data          0x000000000011a1e4        0x0 binaries/ttycontrol.o
 .data          0x000000000011a1e4        0x0 binaries/ttygetc.o
 .data          0x000000000011a1e4        0x0 binaries/ttyhandle_in.o
 .data          0x000000000011a1e4        0x0 binaries/ttyhandle_out.o
 .data          0x000000000011a1e4        0x0 binaries/ttyhandler.o
 .data          0x000000000011a1e4        0x0 binaries/ttyinit.o
 .data          0x000000000011a1e4        0x0 binaries/ttykickout.o
 .data          0x000000000011a1e4        0x0 binaries/ttyputc.o
 .data          0x000000000011a1e4        0x0 binaries/ttyread.o
 .data          0x000000000011a1e4        0x0 binaries/ttywrite.o
 .data          0x000000000011a1e4        0x0 binaries/mount.o
 .data          0x000000000011a1e4        0x0 binaries/naminit.o
 .data          0x000000000011a1e4        0x0 binaries/nammap.o
 .data          0x000000000011a1e4        0x0 binaries/namopen.o
 .data          0x000000000011a1e4        0x0 binaries/colon2mac.o
 .data          0x000000000011a1e4        0x0 binaries/ethcontrol.o
 .data          0x000000000011a1e4        0x0 binaries/ethhandler.o
 .data          0x000000000011a1e4        0x0 binaries/ethinit.o
 .data          0x000000000011a1e4        0x0 binaries/ethmcast.o
 .data          0x000000000011a1e4        0x0 binaries/ethread.o
 .data          0x000000000011a1e4        0x0 binaries/ethwrite.o
 .data          0x000000000011a1e4        0x0 binaries/rdsbufalloc.o
 .data          0x000000000011a1e4        0x0 binaries/rdsclose.o
 .data          0x000000000011a1e4        0x0 binaries/rdscomm.o
 .data          0x000000000011a1e4        0x0 binaries/rdscontrol.o
 .data          0x000000000011a1e4        0x0 binaries/rdsinit.o
 .data          0x000000000011a1e4        0x0 binaries/rdsopen.o
 .data          0x000000000011a1e4        0x0 binaries/rdsprocess.o
 .data          0x000000000011a1e4        0x0 binaries/rdsread.o
 .data          0x000000000011a1e4        0x0 binaries/rdswrite.o
 .data          0x000000000011a1e4        0x0 binaries/ramclose.o
 .data          0x000000000011a1e4        0x0 binaries/raminit.o
 .data          0x000000000011a1e4        0x0 binaries/ramopen.o
 .data          0x000000000011a1e4        0x0 binaries/ramread.o
 .data          0x000000000011a1e4        0x0 binaries/ramwrite.o
 .data          0x000000000011a1e4        0x0 binaries/lfdballoc.o
 .data          0x000000000011a1e4        0x0 binaries/lfdbfree.o
 .data          0x000000000011a1e4        0x0 binaries/lfflush.o
 .data          0x000000000011a1e4        0x0 binaries/lfgetmode.o
 .data          0x000000000011a1e4        0x0 binaries/lfiballoc.o
 .data          0x000000000011a1e4        0x0 binaries/lfibclear.o
 .data          0x000000000011a1e4        0x0 binaries/lfibget.o
 .data          0x000000000011a1e4        0x0 binaries/lfibput.o
 .data          0x000000000011a1e4        0x0 binaries/lflclose.o
 .data          0x000000000011a1e4        0x0 binaries/lflcontrol.o
 .data          0x000000000011a1e4        0x0 binaries/lflgetc.o
 .data          0x000000000011a1e4        0x0 binaries/lflinit.o
 .data          0x000000000011a1e4        0x0 binaries/lflputc.o
 .data          0x000000000011a1e4        0x0 binaries/lflread.o
 .data          0x000000000011a1e4        0x0 binaries/lflseek.o
 .data          0x000000000011a1e4        0x0 binaries/lflwrite.o
 .data          0x000000000011a1e4        0x0 binaries/lfsckfmt.o
 .data          0x000000000011a1e4        0x0 binaries/lfscreate.o
 .data          0x000000000011a1e4        0x0 binaries/lfsetup.o
 .data          0x000000000011a1e4        0x0 binaries/lfsinit.o
 .data          0x000000000011a1e4        0x0 binaries/lfsopen.o
 .data          0x000000000011a1e4        0x0 binaries/lftruncate.o
 .data          0x000000000011a1e4        0x0 binaries/rflclose.o
 .data          0x000000000011a1e4        0x0 binaries/rflgetc.o
 .data          0x000000000011a1e4        0x0 binaries/rflinit.o
 .data          0x000000000011a1e4        0x0 binaries/rflputc.o
 .data          0x000000000011a1e4        0x0 binaries/rflread.o
 .data          0x000000000011a1e4        0x0 binaries/rflseek.o
 .data          0x000000000011a1e4        0x0 binaries/rflwrite.o
 .data          0x000000000011a1e4        0x0 binaries/rfscomm.o
 .data          0x000000000011a1e4        0x0 binaries/rfscontrol.o
 .data          0x000000000011a1e4        0x0 binaries/rfsgetmode.o
 .data          0x000000000011a1e4        0x0 binaries/rfsinit.o
 .data          0x000000000011a1e4        0x0 binaries/rfsndmsg.o
 .data          0x000000000011a1e4        0x0 binaries/rfsopen.o
 .data          0x000000000011a1e4        0x0 binaries/arp.o
 .data          0x000000000011a1e4        0x0 binaries/dhcp.o
 .data          0x000000000011a1e4        0x0 binaries/dot2ip.o
 .data          0x000000000011a1e4        0x0 binaries/hexdump.o
 .data          0x000000000011a1e4        0x4 binaries/icmp.o
 .data          0x000000000011a1e8        0x0 binaries/ip.o
 .data          0x000000000011a1e8        0x0 binaries/net.o
 .data          0x000000000011a1e8        0x0 binaries/netstart.o
 .data          0x000000000011a1e8        0x0 binaries/pdump.o
 .data          0x000000000011a1e8        0x0 binaries/tftp.o
 .data          0x000000000011a1e8        0x4 binaries/udp.o
 .data          0x000000000011a1ec        0x0 binaries/addargs.o
 .data          0x000000000011a1ec        0x0 binaries/lexan.o
 .data          0x000000000011a1ec        0x4 binaries/shell.o
                0x000000000011a1ec                ncmd
 .data          0x000000000011a1f0        0x0 binaries/xsh_argecho.o
 .data          0x000000000011a1f0        0x0 binaries/xsh_arp.o
 .data          0x000000000011a1f0        0x0 binaries/xsh_cat.o
 .data          0x000000000011a1f0        0x0 binaries/xsh_clear.o
 .data          0x000000000011a1f0        0x0 binaries/xsh_date.o
 .data          0x000000000011a1f0        0x0 binaries/xsh_devdump.o
 .data          0x000000000011a1f0        0x0 binaries/xsh_echo.o
 .data          0x000000000011a1f0        0x0 binaries/xsh_exit.o
 .data          0x000000000011a1f0        0x0 binaries/xsh_help.o
 .data          0x000000000011a1f0        0x0 binaries/xsh_ipaddr.o
 .data          0x000000000011a1f0        0x0 binaries/xsh_kill.o
 .data          0x000000000011a1f0        0x0 binaries/xsh_memdump.o
 .data          0x000000000011a1f0        0x0 binaries/xsh_memstat.o
 .data          0x000000000011a1f0        0x0 binaries/xsh_ping.o
 .data          0x000000000011a1f0        0x0 binaries/xsh_ps.o
 .data          0x000000000011a1f0        0x0 binaries/xsh_sleep.o
 .data          0x000000000011a1f0        0x0 binaries/xsh_udpdump.o
 .data          0x000000000011a1f0        0x0 binaries/xsh_udpecho.o
 .data          0x000000000011a1f0        0x0 binaries/xsh_udpeserver.o
 .data          0x000000000011a1f0        0x0 binaries/xsh_uptime.o
 .data          0x000000000011a1f0        0x0 binaries/clkdisp.o
 .data          0x000000000011a1f0        0x0 binaries/ctxsw.o
 .data          0x000000000011a1f0        0x0 binaries/host2netla.o
 .data          0x000000000011a1f0        0x0 binaries/host2netlc.o
 .data          0x000000000011a1f0        0x0 binaries/intr.o
 .data          0x000000000011a1f0        0x0 binaries/ttydispatch.o
 .data          0x000000000011a1f0        0x0 binaries/ethdispatch.o
                0x000000000011a1f0                edata = ABSOLUTE (.)
                0x000000000011b000                . = ALIGN (0x1000)
 *fill*         0x000000000011a1f0      0xe10 

.igot.plt       0x000000000011b000        0x0
 .igot.plt      0x000000000011b000        0x0 binaries/start.o

.bss            0x000000000011b000    0x20000
                0x000000000011b000                bss = ABSOLUTE (.)
 *(.bss .bss.*)
 .bss           0x000000000011b000        0x0 binaries/start.o
 .bss           0x000000000011b000        0x0 binaries/app1.o
 .bss           0x000000000011b000        0x0 binaries/app2.o
 .bss           0x000000000011b000        0x0 binaries/app3.o
 .bss           0x000000000011b000        0x0 binaries/ascdate.o
 .bss           0x000000000011b000        0x0 binaries/bufinit.o
 .bss           0x000000000011b000        0x0 binaries/chprio.o
 .bss           0x000000000011b000        0x0 binaries/clkhandler.o
 .bss           0x000000000011b000        0x4 binaries/clkinit.o
                0x000000000011b000                ctr1000
 .bss           0x000000000011b004        0x0 binaries/close.o
 .bss           0x000000000011b004        0x0 binaries/conf.o
 .bss           0x000000000011b004        0x0 binaries/control.o
 .bss           0x000000000011b004        0x0 binaries/cpubound.o
 .bss           0x000000000011b004        0x0 binaries/create.o
 .bss           0x000000000011b004        0x0 binaries/early_imr.o
 .bss           0x000000000011b004        0x0 binaries/evec.o
 .bss           0x000000000011b004        0x0 binaries/factorial.o
 .bss           0x000000000011b004        0x0 binaries/freebuf.o
 .bss           0x000000000011b004        0x0 binaries/freemem.o
 .bss           0x000000000011b004        0x0 binaries/getbuf.o
 .bss           0x000000000011b004        0x0 binaries/getc.o
 .bss           0x000000000011b004        0x0 binaries/getdev.o
 .bss           0x000000000011b004        0x0 binaries/getitem.o
 .bss           0x000000000011b004        0x0 binaries/getmem.o
 .bss           0x000000000011b004        0x0 binaries/getpid.o
 .bss           0x000000000011b004        0x0 binaries/getpname.o
 .bss           0x000000000011b004        0x0 binaries/getppid.o
 .bss           0x000000000011b004        0x0 binaries/getprio.o
 .bss           0x000000000011b004        0x0 binaries/getstk.o
 .bss           0x000000000011b004        0x0 binaries/gettime.o
 .bss           0x000000000011b004        0x0 binaries/getutime.o
 .bss           0x000000000011b004        0x0 binaries/host2netlb.o
 .bss           0x000000000011b004        0x0 binaries/init.o
 .bss           0x000000000011b004        0x0 binaries/initialize.o
 .bss           0x000000000011b004        0x0 binaries/insert.o
 .bss           0x000000000011b004        0x0 binaries/insertd.o
 .bss           0x000000000011b004        0x0 binaries/iobound.o
 .bss           0x000000000011b004        0x0 binaries/ioerr.o
 .bss           0x000000000011b004        0x0 binaries/ionull.o
 .bss           0x000000000011b004        0x0 binaries/kill.o
 .bss           0x000000000011b004        0x0 binaries/kprintf.o
 .bss           0x000000000011b004        0x0 binaries/lab2q3.o
 .bss           0x000000000011b004        0x0 binaries/lab2q4.o
 .bss           0x000000000011b004        0x0 binaries/main.o
 .bss           0x000000000011b004        0x0 binaries/mark.o
 .bss           0x000000000011b004        0x0 binaries/meminit.o
 .bss           0x000000000011b004        0x0 binaries/mkbufpool.o
 .bss           0x000000000011b004        0x0 binaries/myappA.o
 .bss           0x000000000011b004        0x0 binaries/myfuncA.o
 .bss           0x000000000011b004        0x0 binaries/myhacker.o
 .bss           0x000000000011b004        0x0 binaries/myvictim.o
 .bss           0x000000000011b004        0x0 binaries/mywelcomemsg.o
 .bss           0x000000000011b004        0x0 binaries/newqueue.o
 .bss           0x000000000011b004        0x0 binaries/open.o
 .bss           0x000000000011b004        0x0 binaries/panic.o
 .bss           0x000000000011b004        0x0 binaries/pci.o
 .bss           0x000000000011b004        0x0 binaries/platinit.o
 .bss           0x000000000011b004        0x0 binaries/printsegaddr.o
 .bss           0x000000000011b004        0x0 binaries/process_state.o
 .bss           0x000000000011b004        0x0 binaries/ptclear.o
 .bss           0x000000000011b004        0x0 binaries/ptcount.o
 .bss           0x000000000011b004        0x0 binaries/ptcreate.o
 .bss           0x000000000011b004        0x0 binaries/ptdelete.o
 .bss           0x000000000011b004        0x0 binaries/ptinit.o
 .bss           0x000000000011b004        0x0 binaries/ptrecv.o
 .bss           0x000000000011b004        0x0 binaries/ptreset.o
 .bss           0x000000000011b004        0x0 binaries/ptsend.o
 .bss           0x000000000011b004        0x0 binaries/putc.o
 .bss           0x000000000011b004        0x0 binaries/quark_irq.o
 .bss           0x000000000011b004        0x0 binaries/quark_pdat.o
 .bss           0x000000000011b004        0x0 binaries/queue.o
 .bss           0x000000000011b004        0x0 binaries/read.o
 .bss           0x000000000011b004        0x0 binaries/ready.o
 .bss           0x000000000011b004        0x0 binaries/receive.o
 .bss           0x000000000011b004        0x0 binaries/recvclr.o
 .bss           0x000000000011b004        0x0 binaries/recvtime.o
 .bss           0x000000000011b004        0x0 binaries/resched.o
 .bss           0x000000000011b004        0x0 binaries/resume.o
 .bss           0x000000000011b004        0x0 binaries/seek.o
 .bss           0x000000000011b004        0x0 binaries/semcount.o
 .bss           0x000000000011b004        0x4 binaries/semcreate.o
 .bss           0x000000000011b008        0x0 binaries/semdelete.o
 .bss           0x000000000011b008        0x0 binaries/semreset.o
 .bss           0x000000000011b008        0x0 binaries/send.o
 .bss           0x000000000011b008        0x0 binaries/signal.o
 .bss           0x000000000011b008        0x0 binaries/signaln.o
 .bss           0x000000000011b008        0x0 binaries/sleep.o
 .bss           0x000000000011b008        0x0 binaries/stackdepth.o
 .bss           0x000000000011b008        0x8 binaries/stacktrace.o
 .bss           0x000000000011b010        0x0 binaries/suspend.o
 .bss           0x000000000011b010        0x0 binaries/teststackdepth.o
 .bss           0x000000000011b010        0x0 binaries/unsleep.o
 .bss           0x000000000011b010        0x0 binaries/userret.o
 .bss           0x000000000011b010        0x0 binaries/wait.o
 .bss           0x000000000011b010        0x0 binaries/wakeup.o
 .bss           0x000000000011b010        0x0 binaries/write.o
 .bss           0x000000000011b010        0x0 binaries/xdone.o
 .bss           0x000000000011b010        0x0 binaries/yield.o
 .bss           0x000000000011b010        0x0 binaries/abs.o
 .bss           0x000000000011b010        0x0 binaries/atoi.o
 .bss           0x000000000011b010        0x0 binaries/atol.o
 .bss           0x000000000011b010        0x0 binaries/bzero.o
 .bss           0x000000000011b010        0x0 binaries/ctype_.o
 .bss           0x000000000011b010        0x0 binaries/doprnt.o
 .bss           0x000000000011b010        0x0 binaries/doscan.o
 .bss           0x000000000011b010        0x0 binaries/fdoprnt.o
 .bss           0x000000000011b010        0x0 binaries/fgetc.o
 .bss           0x000000000011b010        0x0 binaries/fgets.o
 .bss           0x000000000011b010        0x0 binaries/fprintf.o
 .bss           0x000000000011b010        0x0 binaries/fputc.o
 .bss           0x000000000011b010        0x0 binaries/fputs.o
 .bss           0x000000000011b010        0x0 binaries/fscanf.o
 .bss           0x000000000011b010        0x0 binaries/getchar.o
 .bss           0x000000000011b010        0x0 binaries/labs.o
 .bss           0x000000000011b010        0x0 binaries/memchr.o
 .bss           0x000000000011b010        0x0 binaries/memcmp.o
 .bss           0x000000000011b010        0x0 binaries/memcpy.o
 .bss           0x000000000011b010        0x0 binaries/memset.o
 .bss           0x000000000011b010        0x0 binaries/printf.o
 .bss           0x000000000011b010        0x0 binaries/putchar.o
 .bss           0x000000000011b010        0x8 binaries/qsort.o
 .bss           0x000000000011b018        0x0 binaries/rand.o
 .bss           0x000000000011b018        0x0 binaries/sprintf.o
 .bss           0x000000000011b018        0x0 binaries/sscanf.o
 .bss           0x000000000011b018        0x0 binaries/strchr.o
 .bss           0x000000000011b018        0x0 binaries/strcmp.o
 .bss           0x000000000011b018        0x0 binaries/strcpy.o
 .bss           0x000000000011b018        0x0 binaries/strlen.o
 .bss           0x000000000011b018        0x0 binaries/strncat.o
 .bss           0x000000000011b018        0x0 binaries/strncmp.o
 .bss           0x000000000011b018        0x0 binaries/strncpy.o
 .bss           0x000000000011b018        0x0 binaries/strnlen.o
 .bss           0x000000000011b018        0x0 binaries/strrchr.o
 .bss           0x000000000011b018        0x0 binaries/strstr.o
 .bss           0x000000000011b018        0x0 binaries/ttycontrol.o
 .bss           0x000000000011b018        0x0 binaries/ttygetc.o
 .bss           0x000000000011b018        0x0 binaries/ttyhandle_in.o
 .bss           0x000000000011b018        0x0 binaries/ttyhandle_out.o
 .bss           0x000000000011b018        0x0 binaries/ttyhandler.o
 .bss           0x000000000011b018        0x0 binaries/ttyinit.o
 .bss           0x000000000011b018        0x0 binaries/ttykickout.o
 .bss           0x000000000011b018        0x0 binaries/ttyputc.o
 .bss           0x000000000011b018        0x0 binaries/ttyread.o
 .bss           0x000000000011b018        0x0 binaries/ttywrite.o
 .bss           0x000000000011b018        0x0 binaries/mount.o
 .bss           0x000000000011b018        0x0 binaries/naminit.o
 .bss           0x000000000011b018        0x0 binaries/nammap.o
 .bss           0x000000000011b018        0x0 binaries/namopen.o
 .bss           0x000000000011b018        0x0 binaries/colon2mac.o
 .bss           0x000000000011b018        0x0 binaries/ethcontrol.o
 .bss           0x000000000011b018        0x0 binaries/ethhandler.o
 .bss           0x000000000011b018        0x0 binaries/ethinit.o
 .bss           0x000000000011b018        0x0 binaries/ethmcast.o
 .bss           0x000000000011b018        0x0 binaries/ethread.o
 .bss           0x000000000011b018        0x0 binaries/ethwrite.o
 .bss           0x000000000011b018        0x0 binaries/rdsbufalloc.o
 .bss           0x000000000011b018        0x0 binaries/rdsclose.o
 .bss           0x000000000011b018        0x0 binaries/rdscomm.o
 .bss           0x000000000011b018        0x0 binaries/rdscontrol.o
 .bss           0x000000000011b018        0x0 binaries/rdsinit.o
 .bss           0x000000000011b018        0x0 binaries/rdsopen.o
 .bss           0x000000000011b018        0x0 binaries/rdsprocess.o
 .bss           0x000000000011b018        0x0 binaries/rdsread.o
 .bss           0x000000000011b018        0x0 binaries/rdswrite.o
 .bss           0x000000000011b018        0x0 binaries/ramclose.o
 .bss           0x000000000011b018        0x0 binaries/raminit.o
 .bss           0x000000000011b018        0x0 binaries/ramopen.o
 .bss           0x000000000011b018        0x0 binaries/ramread.o
 .bss           0x000000000011b018        0x0 binaries/ramwrite.o
 .bss           0x000000000011b018        0x0 binaries/lfdballoc.o
 .bss           0x000000000011b018        0x0 binaries/lfdbfree.o
 .bss           0x000000000011b018        0x0 binaries/lfflush.o
 .bss           0x000000000011b018        0x0 binaries/lfgetmode.o
 .bss           0x000000000011b018        0x0 binaries/lfiballoc.o
 .bss           0x000000000011b018        0x0 binaries/lfibclear.o
 .bss           0x000000000011b018        0x0 binaries/lfibget.o
 .bss           0x000000000011b018        0x0 binaries/lfibput.o
 .bss           0x000000000011b018        0x0 binaries/lflclose.o
 .bss           0x000000000011b018        0x0 binaries/lflcontrol.o
 .bss           0x000000000011b018        0x0 binaries/lflgetc.o
 .bss           0x000000000011b018        0x0 binaries/lflinit.o
 .bss           0x000000000011b018        0x0 binaries/lflputc.o
 .bss           0x000000000011b018        0x0 binaries/lflread.o
 .bss           0x000000000011b018        0x0 binaries/lflseek.o
 .bss           0x000000000011b018        0x0 binaries/lflwrite.o
 .bss           0x000000000011b018        0x0 binaries/lfsckfmt.o
 .bss           0x000000000011b018        0x0 binaries/lfscreate.o
 .bss           0x000000000011b018        0x0 binaries/lfsetup.o
 .bss           0x000000000011b018        0x0 binaries/lfsinit.o
 .bss           0x000000000011b018        0x0 binaries/lfsopen.o
 .bss           0x000000000011b018        0x0 binaries/lftruncate.o
 .bss           0x000000000011b018        0x0 binaries/rflclose.o
 .bss           0x000000000011b018        0x0 binaries/rflgetc.o
 .bss           0x000000000011b018        0x0 binaries/rflinit.o
 .bss           0x000000000011b018        0x0 binaries/rflputc.o
 .bss           0x000000000011b018        0x0 binaries/rflread.o
 .bss           0x000000000011b018        0x0 binaries/rflseek.o
 .bss           0x000000000011b018        0x0 binaries/rflwrite.o
 .bss           0x000000000011b018        0x0 binaries/rfscomm.o
 .bss           0x000000000011b018        0x0 binaries/rfscontrol.o
 .bss           0x000000000011b018        0x0 binaries/rfsgetmode.o
 .bss           0x000000000011b018        0x0 binaries/rfsinit.o
 .bss           0x000000000011b018        0x0 binaries/rfsndmsg.o
 .bss           0x000000000011b018        0x0 binaries/rfsopen.o
 .bss           0x000000000011b018        0x0 binaries/arp.o
 .bss           0x000000000011b018        0x0 binaries/dhcp.o
 .bss           0x000000000011b018        0x0 binaries/dot2ip.o
 .bss           0x000000000011b018        0x0 binaries/hexdump.o
 .bss           0x000000000011b018        0x0 binaries/icmp.o
 .bss           0x000000000011b018        0x0 binaries/ip.o
 .bss           0x000000000011b018        0x0 binaries/net.o
 .bss           0x000000000011b018        0x0 binaries/netstart.o
 .bss           0x000000000011b018        0x0 binaries/pdump.o
 .bss           0x000000000011b018        0x0 binaries/tftp.o
 .bss           0x000000000011b018        0x0 binaries/udp.o
 .bss           0x000000000011b018        0x0 binaries/addargs.o
 .bss           0x000000000011b018        0x0 binaries/lexan.o
 .bss           0x000000000011b018        0x0 binaries/shell.o
 .bss           0x000000000011b018        0x0 binaries/xsh_argecho.o
 .bss           0x000000000011b018        0x0 binaries/xsh_arp.o
 .bss           0x000000000011b018        0x0 binaries/xsh_cat.o
 .bss           0x000000000011b018        0x0 binaries/xsh_clear.o
 .bss           0x000000000011b018        0x0 binaries/xsh_date.o
 .bss           0x000000000011b018        0x0 binaries/xsh_devdump.o
 .bss           0x000000000011b018        0x0 binaries/xsh_echo.o
 .bss           0x000000000011b018        0x0 binaries/xsh_exit.o
 .bss           0x000000000011b018        0x0 binaries/xsh_help.o
 .bss           0x000000000011b018        0x0 binaries/xsh_ipaddr.o
 .bss           0x000000000011b018        0x0 binaries/xsh_kill.o
 .bss           0x000000000011b018        0x0 binaries/xsh_memdump.o
 .bss           0x000000000011b018        0x0 binaries/xsh_memstat.o
 .bss           0x000000000011b018        0x4 binaries/xsh_ping.o
 .bss           0x000000000011b01c        0x0 binaries/xsh_ps.o
 .bss           0x000000000011b01c        0x0 binaries/xsh_sleep.o
 .bss           0x000000000011b01c        0x0 binaries/xsh_udpdump.o
 .bss           0x000000000011b01c        0x0 binaries/xsh_udpecho.o
 .bss           0x000000000011b01c        0x0 binaries/xsh_udpeserver.o
 .bss           0x000000000011b01c        0x0 binaries/xsh_uptime.o
 .bss           0x000000000011b01c        0x0 binaries/clkdisp.o
 .bss           0x000000000011b01c        0x0 binaries/ctxsw.o
 .bss           0x000000000011b01c        0x0 binaries/host2netla.o
 .bss           0x000000000011b01c        0x0 binaries/host2netlc.o
 .bss           0x000000000011b01c        0x0 binaries/intr.o
 .bss           0x000000000011b01c        0x0 binaries/ttydispatch.o
 .bss           0x000000000011b01c        0x0 binaries/ethdispatch.o
 *(COMMON)
 *fill*         0x000000000011b01c        0x4 
 COMMON         0x000000000011b020       0xf4 binaries/bufinit.o
                0x000000000011b020                buftab
                0x000000000011b110                nbpools
 COMMON         0x000000000011b114       0x10 binaries/clkinit.o
                0x000000000011b114                sleepq
                0x000000000011b118                preempt
                0x000000000011b11c                clktimemsec
                0x000000000011b120                clktime
 COMMON         0x000000000011b124        0x2 binaries/evec.o
                0x000000000011b124                girmask
 *fill*         0x000000000011b126       0x1a 
 COMMON         0x000000000011b140     0x1df8 binaries/initialize.o
                0x000000000011b140                currpid
                0x000000000011b160                proctab
                0x000000000011ca60                prcount
                0x000000000011ca80                semtab
                0x000000000011cf30                memlist
 *fill*         0x000000000011cf38        0x8 
 COMMON         0x000000000011cf40       0x58 binaries/mark.o
                0x000000000011cf40                marks
                0x000000000011cf90                nmarks
                0x000000000011cf94                mkmutex
 COMMON         0x000000000011cf98        0x8 binaries/meminit.o
                0x000000000011cf98                minheap
                0x000000000011cf9c                maxheap
 COMMON         0x000000000011cfa0        0x8 binaries/myhacker.o
                0x000000000011cfa0                victimglobal
                0x000000000011cfa4                victimsRetAddress
 *fill*         0x000000000011cfa8       0x18 
 COMMON         0x000000000011cfc0      0x2d8 binaries/ptinit.o
                0x000000000011cfc0                porttab
                0x000000000011d290                ptnextid
                0x000000000011d294                ptfree
 *fill*         0x000000000011d298        0x8 
 COMMON         0x000000000011d2a0      0x980 binaries/queue.o
                0x000000000011d2a0                queuetab
 COMMON         0x000000000011dc20        0x2 binaries/ready.o
                0x000000000011dc20                readylist
 *fill*         0x000000000011dc22        0x2 
 COMMON         0x000000000011dc24        0x8 binaries/resched.o
                0x000000000011dc24                Defer
 *fill*         0x000000000011dc2c       0x14 
 COMMON         0x000000000011dc40      0x10c binaries/ttyinit.o
                0x000000000011dc40                ttytab
 *fill*         0x000000000011dd4c       0x14 
 COMMON         0x000000000011dd60     0x19c0 binaries/naminit.o
                0x000000000011dd60                nnames
                0x000000000011dd80                nametab
 COMMON         0x000000000011f720      0x138 binaries/ethinit.o
                0x000000000011f720                ethertab
 *fill*         0x000000000011f858        0x8 
 COMMON         0x000000000011f860       0x8c binaries/rdsinit.o
                0x000000000011f860                rdstab
 *fill*         0x000000000011f8ec       0x14 
 COMMON         0x000000000011f900    0x19000 binaries/raminit.o
                0x000000000011f900                Ram
 COMMON         0x0000000000138900      0xf00 binaries/lflinit.o
                0x0000000000138900                lfltab
 COMMON         0x0000000000139800      0x20c binaries/lfsinit.o
                0x0000000000139800                Lf_data
 *fill*         0x0000000000139a0c       0x14 
 COMMON         0x0000000000139a20      0x5a0 binaries/rflinit.o
                0x0000000000139a20                rfltab
 COMMON         0x0000000000139fc0       0x18 binaries/rfsinit.o
                0x0000000000139fc0                Rf_data
 *fill*         0x0000000000139fd8        0x8 
 COMMON         0x0000000000139fe0      0x140 binaries/arp.o
                0x0000000000139fe0                arpcache
 COMMON         0x000000000013a120      0x230 binaries/icmp.o
                0x000000000013a120                icmptab
 *fill*         0x000000000013a350       0x10 
 COMMON         0x000000000013a360       0x2c binaries/ip.o
                0x000000000013a360                ipoqueue
 *fill*         0x000000000013a38c       0x14 
 COMMON         0x000000000013a3a0       0xc8 binaries/net.o
                0x000000000013a3a0                netbufpool
                0x000000000013a3c0                NetData
 *fill*         0x000000000013a468       0x18 
 COMMON         0x000000000013a480      0x168 binaries/udp.o
                0x000000000013a480                udptab
                0x000000000013a5e8                ebss = ABSOLUTE (.)
                0x000000000013b000                . = ALIGN (0x1000)
 *fill*         0x000000000013a5e8      0xa18 
 */()
                0x000000000013b000                end = ABSOLUTE (.)
                0x000000000013b000                _end = ABSOLUTE (.)
                0x000000000013b000                . = ALIGN (0x1000)
LOAD binaries/start.o
LOAD binaries/app1.o
LOAD binaries/app2.o
LOAD binaries/app3.o
LOAD binaries/ascdate.o
LOAD binaries/bufinit.o
LOAD binaries/chprio.o
LOAD binaries/clkhandler.o
LOAD binaries/clkinit.o
LOAD binaries/close.o
LOAD binaries/conf.o
LOAD binaries/control.o
LOAD binaries/cpubound.o
LOAD binaries/create.o
LOAD binaries/early_imr.o
LOAD binaries/evec.o
LOAD binaries/factorial.o
LOAD binaries/freebuf.o
LOAD binaries/freemem.o
LOAD binaries/getbuf.o
LOAD binaries/getc.o
LOAD binaries/getdev.o
LOAD binaries/getitem.o
LOAD binaries/getmem.o
LOAD binaries/getpid.o
LOAD binaries/getpname.o
LOAD binaries/getppid.o
LOAD binaries/getprio.o
LOAD binaries/getstk.o
LOAD binaries/gettime.o
LOAD binaries/getutime.o
LOAD binaries/host2netlb.o
LOAD binaries/init.o
LOAD binaries/initialize.o
LOAD binaries/insert.o
LOAD binaries/insertd.o
LOAD binaries/iobound.o
LOAD binaries/ioerr.o
LOAD binaries/ionull.o
LOAD binaries/kill.o
LOAD binaries/kprintf.o
LOAD binaries/lab2q3.o
LOAD binaries/lab2q4.o
LOAD binaries/main.o
LOAD binaries/mark.o
LOAD binaries/meminit.o
LOAD binaries/mkbufpool.o
LOAD binaries/myappA.o
LOAD binaries/myfuncA.o
LOAD binaries/myhacker.o
LOAD binaries/myvictim.o
LOAD binaries/mywelcomemsg.o
LOAD binaries/newqueue.o
LOAD binaries/open.o
LOAD binaries/panic.o
LOAD binaries/pci.o
LOAD binaries/platinit.o
LOAD binaries/printsegaddr.o
LOAD binaries/process_state.o
LOAD binaries/ptclear.o
LOAD binaries/ptcount.o
LOAD binaries/ptcreate.o
LOAD binaries/ptdelete.o
LOAD binaries/ptinit.o
LOAD binaries/ptrecv.o
LOAD binaries/ptreset.o
LOAD binaries/ptsend.o
LOAD binaries/putc.o
LOAD binaries/quark_irq.o
LOAD binaries/quark_pdat.o
LOAD binaries/queue.o
LOAD binaries/read.o
LOAD binaries/ready.o
LOAD binaries/receive.o
LOAD binaries/recvclr.o
LOAD binaries/recvtime.o
LOAD binaries/resched.o
LOAD binaries/resume.o
LOAD binaries/seek.o
LOAD binaries/semcount.o
LOAD binaries/semcreate.o
LOAD binaries/semdelete.o
LOAD binaries/semreset.o
LOAD binaries/send.o
LOAD binaries/signal.o
LOAD binaries/signaln.o
LOAD binaries/sleep.o
LOAD binaries/stackdepth.o
LOAD binaries/stacktrace.o
LOAD binaries/suspend.o
LOAD binaries/teststackdepth.o
LOAD binaries/unsleep.o
LOAD binaries/userret.o
LOAD binaries/wait.o
LOAD binaries/wakeup.o
LOAD binaries/write.o
LOAD binaries/xdone.o
LOAD binaries/yield.o
LOAD binaries/abs.o
LOAD binaries/atoi.o
LOAD binaries/atol.o
LOAD binaries/bzero.o
LOAD binaries/ctype_.o
LOAD binaries/doprnt.o
LOAD binaries/doscan.o
LOAD binaries/fdoprnt.o
LOAD binaries/fgetc.o
LOAD binaries/fgets.o
LOAD binaries/fprintf.o
LOAD binaries/fputc.o
LOAD binaries/fputs.o
LOAD binaries/fscanf.o
LOAD binaries/getchar.o
LOAD binaries/labs.o
LOAD binaries/memchr.o
LOAD binaries/memcmp.o
LOAD binaries/memcpy.o
LOAD binaries/memset.o
LOAD binaries/printf.o
LOAD binaries/putchar.o
LOAD binaries/qsort.o
LOAD binaries/rand.o
LOAD binaries/sprintf.o
LOAD binaries/sscanf.o
LOAD binaries/strchr.o
LOAD binaries/strcmp.o
LOAD binaries/strcpy.o
LOAD binaries/strlen.o
LOAD binaries/strncat.o
LOAD binaries/strncmp.o
LOAD binaries/strncpy.o
LOAD binaries/strnlen.o
LOAD binaries/strrchr.o
LOAD binaries/strstr.o
LOAD binaries/ttycontrol.o
LOAD binaries/ttygetc.o
LOAD binaries/ttyhandle_in.o
LOAD binaries/ttyhandle_out.o
LOAD binaries/ttyhandler.o
LOAD binaries/ttyinit.o
LOAD binaries/ttykickout.o
LOAD binaries/ttyputc.o
LOAD binaries/ttyread.o
LOAD binaries/ttywrite.o
LOAD binaries/mount.o
LOAD binaries/naminit.o
LOAD binaries/nammap.o
LOAD binaries/namopen.o
LOAD binaries/colon2mac.o
LOAD binaries/ethcontrol.o
LOAD binaries/ethhandler.o
LOAD binaries/ethinit.o
LOAD binaries/ethmcast.o
LOAD binaries/ethread.o
LOAD binaries/ethwrite.o
LOAD binaries/rdsbufalloc.o
LOAD binaries/rdsclose.o
LOAD binaries/rdscomm.o
LOAD binaries/rdscontrol.o
LOAD binaries/rdsinit.o
LOAD binaries/rdsopen.o
LOAD binaries/rdsprocess.o
LOAD binaries/rdsread.o
LOAD binaries/rdswrite.o
LOAD binaries/ramclose.o
LOAD binaries/raminit.o
LOAD binaries/ramopen.o
LOAD binaries/ramread.o
LOAD binaries/ramwrite.o
LOAD binaries/lfdballoc.o
LOAD binaries/lfdbfree.o
LOAD binaries/lfflush.o
LOAD binaries/lfgetmode.o
LOAD binaries/lfiballoc.o
LOAD binaries/lfibclear.o
LOAD binaries/lfibget.o
LOAD binaries/lfibput.o
LOAD binaries/lflclose.o
LOAD binaries/lflcontrol.o
LOAD binaries/lflgetc.o
LOAD binaries/lflinit.o
LOAD binaries/lflputc.o
LOAD binaries/lflread.o
LOAD binaries/lflseek.o
LOAD binaries/lflwrite.o
LOAD binaries/lfsckfmt.o
LOAD binaries/lfscreate.o
LOAD binaries/lfsetup.o
LOAD binaries/lfsinit.o
LOAD binaries/lfsopen.o
LOAD binaries/lftruncate.o
LOAD binaries/rflclose.o
LOAD binaries/rflgetc.o
LOAD binaries/rflinit.o
LOAD binaries/rflputc.o
LOAD binaries/rflread.o
LOAD binaries/rflseek.o
LOAD binaries/rflwrite.o
LOAD binaries/rfscomm.o
LOAD binaries/rfscontrol.o
LOAD binaries/rfsgetmode.o
LOAD binaries/rfsinit.o
LOAD binaries/rfsndmsg.o
LOAD binaries/rfsopen.o
LOAD binaries/arp.o
LOAD binaries/dhcp.o
LOAD binaries/dot2ip.o
LOAD binaries/hexdump.o
LOAD binaries/icmp.o
LOAD binaries/ip.o
LOAD binaries/net.o
LOAD binaries/netstart.o
LOAD binaries/pdump.o
LOAD binaries/tftp.o
LOAD binaries/udp.o
LOAD binaries/addargs.o
LOAD binaries/lexan.o
LOAD binaries/shell.o
LOAD binaries/xsh_argecho.o
LOAD binaries/xsh_arp.o
LOAD binaries/xsh_cat.o
LOAD binaries/xsh_clear.o
LOAD binaries/xsh_date.o
LOAD binaries/xsh_devdump.o
LOAD binaries/xsh_echo.o
LOAD binaries/xsh_exit.o
LOAD binaries/xsh_help.o
LOAD binaries/xsh_ipaddr.o
LOAD binaries/xsh_kill.o
LOAD binaries/xsh_memdump.o
LOAD binaries/xsh_memstat.o
LOAD binaries/xsh_ping.o
LOAD binaries/xsh_ps.o
LOAD binaries/xsh_sleep.o
LOAD binaries/xsh_udpdump.o
LOAD binaries/xsh_udpecho.o
LOAD binaries/xsh_udpeserver.o
LOAD binaries/xsh_uptime.o
LOAD binaries/clkdisp.o
LOAD binaries/ctxsw.o
LOAD binaries/host2netla.o
LOAD binaries/host2netlc.o
LOAD binaries/intr.o
LOAD binaries/ttydispatch.o
LOAD binaries/ethdispatch.o
OUTPUT(../compile/xinu elf32-i386)

.comment        0x0000000000000000       0x2a
 .comment       0x0000000000000000       0x2a binaries/app1.o
                                         0x2b (size before relaxing)
 .comment       0x000000000000002a       0x2b binaries/app2.o
 .comment       0x000000000000002a       0x2b binaries/app3.o
 .comment       0x000000000000002a       0x2b binaries/ascdate.o
 .comment       0x000000000000002a       0x2b binaries/bufinit.o
 .comment       0x000000000000002a       0x2b binaries/chprio.o
 .comment       0x000000000000002a       0x2b binaries/clkhandler.o
 .comment       0x000000000000002a       0x2b binaries/clkinit.o
 .comment       0x000000000000002a       0x2b binaries/close.o
 .comment       0x000000000000002a       0x2b binaries/conf.o
 .comment       0x000000000000002a       0x2b binaries/control.o
 .comment       0x000000000000002a       0x2b binaries/cpubound.o
 .comment       0x000000000000002a       0x2b binaries/create.o
 .comment       0x000000000000002a       0x2b binaries/early_imr.o
 .comment       0x000000000000002a       0x2b binaries/evec.o
 .comment       0x000000000000002a       0x2b binaries/factorial.o
 .comment       0x000000000000002a       0x2b binaries/freebuf.o
 .comment       0x000000000000002a       0x2b binaries/freemem.o
 .comment       0x000000000000002a       0x2b binaries/getbuf.o
 .comment       0x000000000000002a       0x2b binaries/getc.o
 .comment       0x000000000000002a       0x2b binaries/getdev.o
 .comment       0x000000000000002a       0x2b binaries/getitem.o
 .comment       0x000000000000002a       0x2b binaries/getmem.o
 .comment       0x000000000000002a       0x2b binaries/getpid.o
 .comment       0x000000000000002a       0x2b binaries/getpname.o
 .comment       0x000000000000002a       0x2b binaries/getppid.o
 .comment       0x000000000000002a       0x2b binaries/getprio.o
 .comment       0x000000000000002a       0x2b binaries/getstk.o
 .comment       0x000000000000002a       0x2b binaries/gettime.o
 .comment       0x000000000000002a       0x2b binaries/getutime.o
 .comment       0x000000000000002a       0x2b binaries/host2netlb.o
 .comment       0x000000000000002a       0x2b binaries/init.o
 .comment       0x000000000000002a       0x2b binaries/initialize.o
 .comment       0x000000000000002a       0x2b binaries/insert.o
 .comment       0x000000000000002a       0x2b binaries/insertd.o
 .comment       0x000000000000002a       0x2b binaries/iobound.o
 .comment       0x000000000000002a       0x2b binaries/ioerr.o
 .comment       0x000000000000002a       0x2b binaries/ionull.o
 .comment       0x000000000000002a       0x2b binaries/kill.o
 .comment       0x000000000000002a       0x2b binaries/kprintf.o
 .comment       0x000000000000002a       0x2b binaries/lab2q3.o
 .comment       0x000000000000002a       0x2b binaries/lab2q4.o
 .comment       0x000000000000002a       0x2b binaries/main.o
 .comment       0x000000000000002a       0x2b binaries/mark.o
 .comment       0x000000000000002a       0x2b binaries/meminit.o
 .comment       0x000000000000002a       0x2b binaries/mkbufpool.o
 .comment       0x000000000000002a       0x2b binaries/myappA.o
 .comment       0x000000000000002a       0x2b binaries/myfuncA.o
 .comment       0x000000000000002a       0x2b binaries/myhacker.o
 .comment       0x000000000000002a       0x2b binaries/myvictim.o
 .comment       0x000000000000002a       0x2b binaries/mywelcomemsg.o
 .comment       0x000000000000002a       0x2b binaries/newqueue.o
 .comment       0x000000000000002a       0x2b binaries/open.o
 .comment       0x000000000000002a       0x2b binaries/panic.o
 .comment       0x000000000000002a       0x2b binaries/pci.o
 .comment       0x000000000000002a       0x2b binaries/platinit.o
 .comment       0x000000000000002a       0x2b binaries/printsegaddr.o
 .comment       0x000000000000002a       0x2b binaries/process_state.o
 .comment       0x000000000000002a       0x2b binaries/ptclear.o
 .comment       0x000000000000002a       0x2b binaries/ptcount.o
 .comment       0x000000000000002a       0x2b binaries/ptcreate.o
 .comment       0x000000000000002a       0x2b binaries/ptdelete.o
 .comment       0x000000000000002a       0x2b binaries/ptinit.o
 .comment       0x000000000000002a       0x2b binaries/ptrecv.o
 .comment       0x000000000000002a       0x2b binaries/ptreset.o
 .comment       0x000000000000002a       0x2b binaries/ptsend.o
 .comment       0x000000000000002a       0x2b binaries/putc.o
 .comment       0x000000000000002a       0x2b binaries/quark_irq.o
 .comment       0x000000000000002a       0x2b binaries/quark_pdat.o
 .comment       0x000000000000002a       0x2b binaries/queue.o
 .comment       0x000000000000002a       0x2b binaries/read.o
 .comment       0x000000000000002a       0x2b binaries/ready.o
 .comment       0x000000000000002a       0x2b binaries/receive.o
 .comment       0x000000000000002a       0x2b binaries/recvclr.o
 .comment       0x000000000000002a       0x2b binaries/recvtime.o
 .comment       0x000000000000002a       0x2b binaries/resched.o
 .comment       0x000000000000002a       0x2b binaries/resume.o
 .comment       0x000000000000002a       0x2b binaries/seek.o
 .comment       0x000000000000002a       0x2b binaries/semcount.o
 .comment       0x000000000000002a       0x2b binaries/semcreate.o
 .comment       0x000000000000002a       0x2b binaries/semdelete.o
 .comment       0x000000000000002a       0x2b binaries/semreset.o
 .comment       0x000000000000002a       0x2b binaries/send.o
 .comment       0x000000000000002a       0x2b binaries/signal.o
 .comment       0x000000000000002a       0x2b binaries/signaln.o
 .comment       0x000000000000002a       0x2b binaries/sleep.o
 .comment       0x000000000000002a       0x2b binaries/stackdepth.o
 .comment       0x000000000000002a       0x2b binaries/stacktrace.o
 .comment       0x000000000000002a       0x2b binaries/suspend.o
 .comment       0x000000000000002a       0x2b binaries/teststackdepth.o
 .comment       0x000000000000002a       0x2b binaries/unsleep.o
 .comment       0x000000000000002a       0x2b binaries/userret.o
 .comment       0x000000000000002a       0x2b binaries/wait.o
 .comment       0x000000000000002a       0x2b binaries/wakeup.o
 .comment       0x000000000000002a       0x2b binaries/write.o
 .comment       0x000000000000002a       0x2b binaries/xdone.o
 .comment       0x000000000000002a       0x2b binaries/yield.o
 .comment       0x000000000000002a       0x2b binaries/abs.o
 .comment       0x000000000000002a       0x2b binaries/atoi.o
 .comment       0x000000000000002a       0x2b binaries/atol.o
 .comment       0x000000000000002a       0x2b binaries/bzero.o
 .comment       0x000000000000002a       0x2b binaries/ctype_.o
 .comment       0x000000000000002a       0x2b binaries/doprnt.o
 .comment       0x000000000000002a       0x2b binaries/doscan.o
 .comment       0x000000000000002a       0x2b binaries/fdoprnt.o
 .comment       0x000000000000002a       0x2b binaries/fgetc.o
 .comment       0x000000000000002a       0x2b binaries/fgets.o
 .comment       0x000000000000002a       0x2b binaries/fprintf.o
 .comment       0x000000000000002a       0x2b binaries/fputc.o
 .comment       0x000000000000002a       0x2b binaries/fputs.o
 .comment       0x000000000000002a       0x2b binaries/fscanf.o
 .comment       0x000000000000002a       0x2b binaries/getchar.o
 .comment       0x000000000000002a       0x2b binaries/labs.o
 .comment       0x000000000000002a       0x2b binaries/memchr.o
 .comment       0x000000000000002a       0x2b binaries/memcmp.o
 .comment       0x000000000000002a       0x2b binaries/memcpy.o
 .comment       0x000000000000002a       0x2b binaries/memset.o
 .comment       0x000000000000002a       0x2b binaries/printf.o
 .comment       0x000000000000002a       0x2b binaries/putchar.o
 .comment       0x000000000000002a       0x2b binaries/qsort.o
 .comment       0x000000000000002a       0x2b binaries/rand.o
 .comment       0x000000000000002a       0x2b binaries/sprintf.o
 .comment       0x000000000000002a       0x2b binaries/sscanf.o
 .comment       0x000000000000002a       0x2b binaries/strchr.o
 .comment       0x000000000000002a       0x2b binaries/strcmp.o
 .comment       0x000000000000002a       0x2b binaries/strcpy.o
 .comment       0x000000000000002a       0x2b binaries/strlen.o
 .comment       0x000000000000002a       0x2b binaries/strncat.o
 .comment       0x000000000000002a       0x2b binaries/strncmp.o
 .comment       0x000000000000002a       0x2b binaries/strncpy.o
 .comment       0x000000000000002a       0x2b binaries/strnlen.o
 .comment       0x000000000000002a       0x2b binaries/strrchr.o
 .comment       0x000000000000002a       0x2b binaries/strstr.o
 .comment       0x000000000000002a       0x2b binaries/ttycontrol.o
 .comment       0x000000000000002a       0x2b binaries/ttygetc.o
 .comment       0x000000000000002a       0x2b binaries/ttyhandle_in.o
 .comment       0x000000000000002a       0x2b binaries/ttyhandle_out.o
 .comment       0x000000000000002a       0x2b binaries/ttyhandler.o
 .comment       0x000000000000002a       0x2b binaries/ttyinit.o
 .comment       0x000000000000002a       0x2b binaries/ttykickout.o
 .comment       0x000000000000002a       0x2b binaries/ttyputc.o
 .comment       0x000000000000002a       0x2b binaries/ttyread.o
 .comment       0x000000000000002a       0x2b binaries/ttywrite.o
 .comment       0x000000000000002a       0x2b binaries/mount.o
 .comment       0x000000000000002a       0x2b binaries/naminit.o
 .comment       0x000000000000002a       0x2b binaries/nammap.o
 .comment       0x000000000000002a       0x2b binaries/namopen.o
 .comment       0x000000000000002a       0x2b binaries/colon2mac.o
 .comment       0x000000000000002a       0x2b binaries/ethcontrol.o
 .comment       0x000000000000002a       0x2b binaries/ethhandler.o
 .comment       0x000000000000002a       0x2b binaries/ethinit.o
 .comment       0x000000000000002a       0x2b binaries/ethmcast.o
 .comment       0x000000000000002a       0x2b binaries/ethread.o
 .comment       0x000000000000002a       0x2b binaries/ethwrite.o
 .comment       0x000000000000002a       0x2b binaries/rdsbufalloc.o
 .comment       0x000000000000002a       0x2b binaries/rdsclose.o
 .comment       0x000000000000002a       0x2b binaries/rdscomm.o
 .comment       0x000000000000002a       0x2b binaries/rdscontrol.o
 .comment       0x000000000000002a       0x2b binaries/rdsinit.o
 .comment       0x000000000000002a       0x2b binaries/rdsopen.o
 .comment       0x000000000000002a       0x2b binaries/rdsprocess.o
 .comment       0x000000000000002a       0x2b binaries/rdsread.o
 .comment       0x000000000000002a       0x2b binaries/rdswrite.o
 .comment       0x000000000000002a       0x2b binaries/ramclose.o
 .comment       0x000000000000002a       0x2b binaries/raminit.o
 .comment       0x000000000000002a       0x2b binaries/ramopen.o
 .comment       0x000000000000002a       0x2b binaries/ramread.o
 .comment       0x000000000000002a       0x2b binaries/ramwrite.o
 .comment       0x000000000000002a       0x2b binaries/lfdballoc.o
 .comment       0x000000000000002a       0x2b binaries/lfdbfree.o
 .comment       0x000000000000002a       0x2b binaries/lfflush.o
 .comment       0x000000000000002a       0x2b binaries/lfgetmode.o
 .comment       0x000000000000002a       0x2b binaries/lfiballoc.o
 .comment       0x000000000000002a       0x2b binaries/lfibclear.o
 .comment       0x000000000000002a       0x2b binaries/lfibget.o
 .comment       0x000000000000002a       0x2b binaries/lfibput.o
 .comment       0x000000000000002a       0x2b binaries/lflclose.o
 .comment       0x000000000000002a       0x2b binaries/lflcontrol.o
 .comment       0x000000000000002a       0x2b binaries/lflgetc.o
 .comment       0x000000000000002a       0x2b binaries/lflinit.o
 .comment       0x000000000000002a       0x2b binaries/lflputc.o
 .comment       0x000000000000002a       0x2b binaries/lflread.o
 .comment       0x000000000000002a       0x2b binaries/lflseek.o
 .comment       0x000000000000002a       0x2b binaries/lflwrite.o
 .comment       0x000000000000002a       0x2b binaries/lfsckfmt.o
 .comment       0x000000000000002a       0x2b binaries/lfscreate.o
 .comment       0x000000000000002a       0x2b binaries/lfsetup.o
 .comment       0x000000000000002a       0x2b binaries/lfsinit.o
 .comment       0x000000000000002a       0x2b binaries/lfsopen.o
 .comment       0x000000000000002a       0x2b binaries/lftruncate.o
 .comment       0x000000000000002a       0x2b binaries/rflclose.o
 .comment       0x000000000000002a       0x2b binaries/rflgetc.o
 .comment       0x000000000000002a       0x2b binaries/rflinit.o
 .comment       0x000000000000002a       0x2b binaries/rflputc.o
 .comment       0x000000000000002a       0x2b binaries/rflread.o
 .comment       0x000000000000002a       0x2b binaries/rflseek.o
 .comment       0x000000000000002a       0x2b binaries/rflwrite.o
 .comment       0x000000000000002a       0x2b binaries/rfscomm.o
 .comment       0x000000000000002a       0x2b binaries/rfscontrol.o
 .comment       0x000000000000002a       0x2b binaries/rfsgetmode.o
 .comment       0x000000000000002a       0x2b binaries/rfsinit.o
 .comment       0x000000000000002a       0x2b binaries/rfsndmsg.o
 .comment       0x000000000000002a       0x2b binaries/rfsopen.o
 .comment       0x000000000000002a       0x2b binaries/arp.o
 .comment       0x000000000000002a       0x2b binaries/dhcp.o
 .comment       0x000000000000002a       0x2b binaries/dot2ip.o
 .comment       0x000000000000002a       0x2b binaries/hexdump.o
 .comment       0x000000000000002a       0x2b binaries/icmp.o
 .comment       0x000000000000002a       0x2b binaries/ip.o
 .comment       0x000000000000002a       0x2b binaries/net.o
 .comment       0x000000000000002a       0x2b binaries/netstart.o
 .comment       0x000000000000002a       0x2b binaries/pdump.o
 .comment       0x000000000000002a       0x2b binaries/tftp.o
 .comment       0x000000000000002a       0x2b binaries/udp.o
 .comment       0x000000000000002a       0x2b binaries/addargs.o
 .comment       0x000000000000002a       0x2b binaries/lexan.o
 .comment       0x000000000000002a       0x2b binaries/shell.o
 .comment       0x000000000000002a       0x2b binaries/xsh_argecho.o
 .comment       0x000000000000002a       0x2b binaries/xsh_arp.o
 .comment       0x000000000000002a       0x2b binaries/xsh_cat.o
 .comment       0x000000000000002a       0x2b binaries/xsh_clear.o
 .comment       0x000000000000002a       0x2b binaries/xsh_date.o
 .comment       0x000000000000002a       0x2b binaries/xsh_devdump.o
 .comment       0x000000000000002a       0x2b binaries/xsh_echo.o
 .comment       0x000000000000002a       0x2b binaries/xsh_exit.o
 .comment       0x000000000000002a       0x2b binaries/xsh_help.o
 .comment       0x000000000000002a       0x2b binaries/xsh_ipaddr.o
 .comment       0x000000000000002a       0x2b binaries/xsh_kill.o
 .comment       0x000000000000002a       0x2b binaries/xsh_memdump.o
 .comment       0x000000000000002a       0x2b binaries/xsh_memstat.o
 .comment       0x000000000000002a       0x2b binaries/xsh_ping.o
 .comment       0x000000000000002a       0x2b binaries/xsh_ps.o
 .comment       0x000000000000002a       0x2b binaries/xsh_sleep.o
 .comment       0x000000000000002a       0x2b binaries/xsh_udpdump.o
 .comment       0x000000000000002a       0x2b binaries/xsh_udpecho.o
 .comment       0x000000000000002a       0x2b binaries/xsh_udpeserver.o
 .comment       0x000000000000002a       0x2b binaries/xsh_uptime.o
 .comment       0x000000000000002a       0x2b binaries/host2netlc.o

.note.GNU-stack
                0x0000000000000000        0x0
 .note.GNU-stack
                0x0000000000000000        0x0 binaries/app1.o
 .note.GNU-stack
                0x0000000000000000        0x0 binaries/app2.o
 .note.GNU-stack
                0x0000000000000000        0x0 binaries/app3.o
 .note.GNU-stack
                0x0000000000000000        0x0 binaries/ascdate.o
 .note.GNU-stack
                0x0000000000000000        0x0 binaries/bufinit.o
 .note.GNU-stack
                0x0000000000000000        0x0 binaries/chprio.o
 .note.GNU-stack
                0x0000000000000000        0x0 binaries/clkhandler.o
 .note.GNU-stack
                0x0000000000000000        0x0 binaries/clkinit.o
 .note.GNU-stack
                0x0000000000000000        0x0 binaries/close.o
 .note.GNU-stack
                0x0000000000000000        0x0 binaries/conf.o
 .note.GNU-stack
                0x0000000000000000        0x0 binaries/control.o
 .note.GNU-stack
                0x0000000000000000        0x0 binaries/cpubound.o
 .note.GNU-stack
                0x0000000000000000        0x0 binaries/create.o
 .note.GNU-stack
                0x0000000000000000        0x0 binaries/early_imr.o
 .note.GNU-stack
                0x0000000000000000        0x0 binaries/evec.o
 .note.GNU-stack
                0x0000000000000000        0x0 binaries/factorial.o
 .note.GNU-stack
                0x0000000000000000        0x0 binaries/freebuf.o
 .note.GNU-stack
                0x0000000000000000        0x0 binaries/freemem.o
 .note.GNU-stack
                0x0000000000000000        0x0 binaries/getbuf.o
 .note.GNU-stack
                0x0000000000000000        0x0 binaries/getc.o
 .note.GNU-stack
                0x0000000000000000        0x0 binaries/getdev.o
 .note.GNU-stack
                0x0000000000000000        0x0 binaries/getitem.o
 .note.GNU-stack
                0x0000000000000000        0x0 binaries/getmem.o
 .note.GNU-stack
                0x0000000000000000        0x0 binaries/getpid.o
 .note.GNU-stack
                0x0000000000000000        0x0 binaries/getpname.o
 .note.GNU-stack
                0x0000000000000000        0x0 binaries/getppid.o
 .note.GNU-stack
                0x0000000000000000        0x0 binaries/getprio.o
 .note.GNU-stack
                0x0000000000000000        0x0 binaries/getstk.o
 .note.GNU-stack
                0x0000000000000000        0x0 binaries/gettime.o
 .note.GNU-stack
                0x0000000000000000        0x0 binaries/getutime.o
 .note.GNU-stack
                0x0000000000000000        0x0 binaries/host2netlb.o
 .note.GNU-stack
                0x0000000000000000        0x0 binaries/init.o
 .note.GNU-stack
                0x0000000000000000        0x0 binaries/initialize.o
 .note.GNU-stack
                0x0000000000000000        0x0 binaries/insert.o
 .note.GNU-stack
                0x0000000000000000        0x0 binaries/insertd.o
 .note.GNU-stack
                0x0000000000000000        0x0 binaries/iobound.o
 .note.GNU-stack
                0x0000000000000000        0x0 binaries/ioerr.o
 .note.GNU-stack
                0x0000000000000000        0x0 binaries/ionull.o
 .note.GNU-stack
                0x0000000000000000        0x0 binaries/kill.o
 .note.GNU-stack
                0x0000000000000000        0x0 binaries/kprintf.o
 .note.GNU-stack
                0x0000000000000000        0x0 binaries/lab2q3.o
 .note.GNU-stack
                0x0000000000000000        0x0 binaries/lab2q4.o
 .note.GNU-stack
                0x0000000000000000        0x0 binaries/main.o
 .note.GNU-stack
                0x0000000000000000        0x0 binaries/mark.o
 .note.GNU-stack
                0x0000000000000000        0x0 binaries/meminit.o
 .note.GNU-stack
                0x0000000000000000        0x0 binaries/mkbufpool.o
 .note.GNU-stack
                0x0000000000000000        0x0 binaries/myappA.o
 .note.GNU-stack
                0x0000000000000000        0x0 binaries/myfuncA.o
 .note.GNU-stack
                0x0000000000000000        0x0 binaries/myhacker.o
 .note.GNU-stack
                0x0000000000000000        0x0 binaries/myvictim.o
 .note.GNU-stack
                0x0000000000000000        0x0 binaries/mywelcomemsg.o
 .note.GNU-stack
                0x0000000000000000        0x0 binaries/newqueue.o
 .note.GNU-stack
                0x0000000000000000        0x0 binaries/open.o
 .note.GNU-stack
                0x0000000000000000        0x0 binaries/panic.o
 .note.GNU-stack
                0x0000000000000000        0x0 binaries/pci.o
 .note.GNU-stack
                0x0000000000000000        0x0 binaries/platinit.o
 .note.GNU-stack
                0x0000000000000000        0x0 binaries/printsegaddr.o
 .note.GNU-stack
                0x0000000000000000        0x0 binaries/process_state.o
 .note.GNU-stack
                0x0000000000000000        0x0 binaries/ptclear.o
 .note.GNU-stack
                0x0000000000000000        0x0 binaries/ptcount.o
 .note.GNU-stack
                0x0000000000000000        0x0 binaries/ptcreate.o
 .note.GNU-stack
                0x0000000000000000        0x0 binaries/ptdelete.o
 .note.GNU-stack
                0x0000000000000000        0x0 binaries/ptinit.o
 .note.GNU-stack
                0x0000000000000000        0x0 binaries/ptrecv.o
 .note.GNU-stack
                0x0000000000000000        0x0 binaries/ptreset.o
 .note.GNU-stack
                0x0000000000000000        0x0 binaries/ptsend.o
 .note.GNU-stack
                0x0000000000000000        0x0 binaries/putc.o
 .note.GNU-stack
                0x0000000000000000        0x0 binaries/quark_irq.o
 .note.GNU-stack
                0x0000000000000000        0x0 binaries/quark_pdat.o
 .note.GNU-stack
                0x0000000000000000        0x0 binaries/queue.o
 .note.GNU-stack
                0x0000000000000000        0x0 binaries/read.o
 .note.GNU-stack
                0x0000000000000000        0x0 binaries/ready.o
 .note.GNU-stack
                0x0000000000000000        0x0 binaries/receive.o
 .note.GNU-stack
                0x0000000000000000        0x0 binaries/recvclr.o
 .note.GNU-stack
                0x0000000000000000        0x0 binaries/recvtime.o
 .note.GNU-stack
                0x0000000000000000        0x0 binaries/resched.o
 .note.GNU-stack
                0x0000000000000000        0x0 binaries/resume.o
 .note.GNU-stack
                0x0000000000000000        0x0 binaries/seek.o
 .note.GNU-stack
                0x0000000000000000        0x0 binaries/semcount.o
 .note.GNU-stack
                0x0000000000000000        0x0 binaries/semcreate.o
 .note.GNU-stack
                0x0000000000000000        0x0 binaries/semdelete.o
 .note.GNU-stack
                0x0000000000000000        0x0 binaries/semreset.o
 .note.GNU-stack
                0x0000000000000000        0x0 binaries/send.o
 .note.GNU-stack
                0x0000000000000000        0x0 binaries/signal.o
 .note.GNU-stack
                0x0000000000000000        0x0 binaries/signaln.o
 .note.GNU-stack
                0x0000000000000000        0x0 binaries/sleep.o
 .note.GNU-stack
                0x0000000000000000        0x0 binaries/stackdepth.o
 .note.GNU-stack
                0x0000000000000000        0x0 binaries/stacktrace.o
 .note.GNU-stack
                0x0000000000000000        0x0 binaries/suspend.o
 .note.GNU-stack
                0x0000000000000000        0x0 binaries/teststackdepth.o
 .note.GNU-stack
                0x0000000000000000        0x0 binaries/unsleep.o
 .note.GNU-stack
                0x0000000000000000        0x0 binaries/userret.o
 .note.GNU-stack
                0x0000000000000000        0x0 binaries/wait.o
 .note.GNU-stack
                0x0000000000000000        0x0 binaries/wakeup.o
 .note.GNU-stack
                0x0000000000000000        0x0 binaries/write.o
 .note.GNU-stack
                0x0000000000000000        0x0 binaries/xdone.o
 .note.GNU-stack
                0x0000000000000000        0x0 binaries/yield.o
 .note.GNU-stack
                0x0000000000000000        0x0 binaries/abs.o
 .note.GNU-stack
                0x0000000000000000        0x0 binaries/atoi.o
 .note.GNU-stack
                0x0000000000000000        0x0 binaries/atol.o
 .note.GNU-stack
                0x0000000000000000        0x0 binaries/bzero.o
 .note.GNU-stack
                0x0000000000000000        0x0 binaries/ctype_.o
 .note.GNU-stack
                0x0000000000000000        0x0 binaries/doprnt.o
 .note.GNU-stack
                0x0000000000000000        0x0 binaries/doscan.o
 .note.GNU-stack
                0x0000000000000000        0x0 binaries/fdoprnt.o
 .note.GNU-stack
                0x0000000000000000        0x0 binaries/fgetc.o
 .note.GNU-stack
                0x0000000000000000        0x0 binaries/fgets.o
 .note.GNU-stack
                0x0000000000000000        0x0 binaries/fprintf.o
 .note.GNU-stack
                0x0000000000000000        0x0 binaries/fputc.o
 .note.GNU-stack
                0x0000000000000000        0x0 binaries/fputs.o
 .note.GNU-stack
                0x0000000000000000        0x0 binaries/fscanf.o
 .note.GNU-stack
                0x0000000000000000        0x0 binaries/getchar.o
 .note.GNU-stack
                0x0000000000000000        0x0 binaries/labs.o
 .note.GNU-stack
                0x0000000000000000        0x0 binaries/memchr.o
 .note.GNU-stack
                0x0000000000000000        0x0 binaries/memcmp.o
 .note.GNU-stack
                0x0000000000000000        0x0 binaries/memcpy.o
 .note.GNU-stack
                0x0000000000000000        0x0 binaries/memset.o
 .note.GNU-stack
                0x0000000000000000        0x0 binaries/printf.o
 .note.GNU-stack
                0x0000000000000000        0x0 binaries/putchar.o
 .note.GNU-stack
                0x0000000000000000        0x0 binaries/qsort.o
 .note.GNU-stack
                0x0000000000000000        0x0 binaries/rand.o
 .note.GNU-stack
                0x0000000000000000        0x0 binaries/sprintf.o
 .note.GNU-stack
                0x0000000000000000        0x0 binaries/sscanf.o
 .note.GNU-stack
                0x0000000000000000        0x0 binaries/strchr.o
 .note.GNU-stack
                0x0000000000000000        0x0 binaries/strcmp.o
 .note.GNU-stack
                0x0000000000000000        0x0 binaries/strcpy.o
 .note.GNU-stack
                0x0000000000000000        0x0 binaries/strlen.o
 .note.GNU-stack
                0x0000000000000000        0x0 binaries/strncat.o
 .note.GNU-stack
                0x0000000000000000        0x0 binaries/strncmp.o
 .note.GNU-stack
                0x0000000000000000        0x0 binaries/strncpy.o
 .note.GNU-stack
                0x0000000000000000        0x0 binaries/strnlen.o
 .note.GNU-stack
                0x0000000000000000        0x0 binaries/strrchr.o
 .note.GNU-stack
                0x0000000000000000        0x0 binaries/strstr.o
 .note.GNU-stack
                0x0000000000000000        0x0 binaries/ttycontrol.o
 .note.GNU-stack
                0x0000000000000000        0x0 binaries/ttygetc.o
 .note.GNU-stack
                0x0000000000000000        0x0 binaries/ttyhandle_in.o
 .note.GNU-stack
                0x0000000000000000        0x0 binaries/ttyhandle_out.o
 .note.GNU-stack
                0x0000000000000000        0x0 binaries/ttyhandler.o
 .note.GNU-stack
                0x0000000000000000        0x0 binaries/ttyinit.o
 .note.GNU-stack
                0x0000000000000000        0x0 binaries/ttykickout.o
 .note.GNU-stack
                0x0000000000000000        0x0 binaries/ttyputc.o
 .note.GNU-stack
                0x0000000000000000        0x0 binaries/ttyread.o
 .note.GNU-stack
                0x0000000000000000        0x0 binaries/ttywrite.o
 .note.GNU-stack
                0x0000000000000000        0x0 binaries/mount.o
 .note.GNU-stack
                0x0000000000000000        0x0 binaries/naminit.o
 .note.GNU-stack
                0x0000000000000000        0x0 binaries/nammap.o
 .note.GNU-stack
                0x0000000000000000        0x0 binaries/namopen.o
 .note.GNU-stack
                0x0000000000000000        0x0 binaries/colon2mac.o
 .note.GNU-stack
                0x0000000000000000        0x0 binaries/ethcontrol.o
 .note.GNU-stack
                0x0000000000000000        0x0 binaries/ethhandler.o
 .note.GNU-stack
                0x0000000000000000        0x0 binaries/ethinit.o
 .note.GNU-stack
                0x0000000000000000        0x0 binaries/ethmcast.o
 .note.GNU-stack
                0x0000000000000000        0x0 binaries/ethread.o
 .note.GNU-stack
                0x0000000000000000        0x0 binaries/ethwrite.o
 .note.GNU-stack
                0x0000000000000000        0x0 binaries/rdsbufalloc.o
 .note.GNU-stack
                0x0000000000000000        0x0 binaries/rdsclose.o
 .note.GNU-stack
                0x0000000000000000        0x0 binaries/rdscomm.o
 .note.GNU-stack
                0x0000000000000000        0x0 binaries/rdscontrol.o
 .note.GNU-stack
                0x0000000000000000        0x0 binaries/rdsinit.o
 .note.GNU-stack
                0x0000000000000000        0x0 binaries/rdsopen.o
 .note.GNU-stack
                0x0000000000000000        0x0 binaries/rdsprocess.o
 .note.GNU-stack
                0x0000000000000000        0x0 binaries/rdsread.o
 .note.GNU-stack
                0x0000000000000000        0x0 binaries/rdswrite.o
 .note.GNU-stack
                0x0000000000000000        0x0 binaries/ramclose.o
 .note.GNU-stack
                0x0000000000000000        0x0 binaries/raminit.o
 .note.GNU-stack
                0x0000000000000000        0x0 binaries/ramopen.o
 .note.GNU-stack
                0x0000000000000000        0x0 binaries/ramread.o
 .note.GNU-stack
                0x0000000000000000        0x0 binaries/ramwrite.o
 .note.GNU-stack
                0x0000000000000000        0x0 binaries/lfdballoc.o
 .note.GNU-stack
                0x0000000000000000        0x0 binaries/lfdbfree.o
 .note.GNU-stack
                0x0000000000000000        0x0 binaries/lfflush.o
 .note.GNU-stack
                0x0000000000000000        0x0 binaries/lfgetmode.o
 .note.GNU-stack
                0x0000000000000000        0x0 binaries/lfiballoc.o
 .note.GNU-stack
                0x0000000000000000        0x0 binaries/lfibclear.o
 .note.GNU-stack
                0x0000000000000000        0x0 binaries/lfibget.o
 .note.GNU-stack
                0x0000000000000000        0x0 binaries/lfibput.o
 .note.GNU-stack
                0x0000000000000000        0x0 binaries/lflclose.o
 .note.GNU-stack
                0x0000000000000000        0x0 binaries/lflcontrol.o
 .note.GNU-stack
                0x0000000000000000        0x0 binaries/lflgetc.o
 .note.GNU-stack
                0x0000000000000000        0x0 binaries/lflinit.o
 .note.GNU-stack
                0x0000000000000000        0x0 binaries/lflputc.o
 .note.GNU-stack
                0x0000000000000000        0x0 binaries/lflread.o
 .note.GNU-stack
                0x0000000000000000        0x0 binaries/lflseek.o
 .note.GNU-stack
                0x0000000000000000        0x0 binaries/lflwrite.o
 .note.GNU-stack
                0x0000000000000000        0x0 binaries/lfsckfmt.o
 .note.GNU-stack
                0x0000000000000000        0x0 binaries/lfscreate.o
 .note.GNU-stack
                0x0000000000000000        0x0 binaries/lfsetup.o
 .note.GNU-stack
                0x0000000000000000        0x0 binaries/lfsinit.o
 .note.GNU-stack
                0x0000000000000000        0x0 binaries/lfsopen.o
 .note.GNU-stack
                0x0000000000000000        0x0 binaries/lftruncate.o
 .note.GNU-stack
                0x0000000000000000        0x0 binaries/rflclose.o
 .note.GNU-stack
                0x0000000000000000        0x0 binaries/rflgetc.o
 .note.GNU-stack
                0x0000000000000000        0x0 binaries/rflinit.o
 .note.GNU-stack
                0x0000000000000000        0x0 binaries/rflputc.o
 .note.GNU-stack
                0x0000000000000000        0x0 binaries/rflread.o
 .note.GNU-stack
                0x0000000000000000        0x0 binaries/rflseek.o
 .note.GNU-stack
                0x0000000000000000        0x0 binaries/rflwrite.o
 .note.GNU-stack
                0x0000000000000000        0x0 binaries/rfscomm.o
 .note.GNU-stack
                0x0000000000000000        0x0 binaries/rfscontrol.o
 .note.GNU-stack
                0x0000000000000000        0x0 binaries/rfsgetmode.o
 .note.GNU-stack
                0x0000000000000000        0x0 binaries/rfsinit.o
 .note.GNU-stack
                0x0000000000000000        0x0 binaries/rfsndmsg.o
 .note.GNU-stack
                0x0000000000000000        0x0 binaries/rfsopen.o
 .note.GNU-stack
                0x0000000000000000        0x0 binaries/arp.o
 .note.GNU-stack
                0x0000000000000000        0x0 binaries/dhcp.o
 .note.GNU-stack
                0x0000000000000000        0x0 binaries/dot2ip.o
 .note.GNU-stack
                0x0000000000000000        0x0 binaries/hexdump.o
 .note.GNU-stack
                0x0000000000000000        0x0 binaries/icmp.o
 .note.GNU-stack
                0x0000000000000000        0x0 binaries/ip.o
 .note.GNU-stack
                0x0000000000000000        0x0 binaries/net.o
 .note.GNU-stack
                0x0000000000000000        0x0 binaries/netstart.o
 .note.GNU-stack
                0x0000000000000000        0x0 binaries/pdump.o
 .note.GNU-stack
                0x0000000000000000        0x0 binaries/tftp.o
 .note.GNU-stack
                0x0000000000000000        0x0 binaries/udp.o
 .note.GNU-stack
                0x0000000000000000        0x0 binaries/addargs.o
 .note.GNU-stack
                0x0000000000000000        0x0 binaries/lexan.o
 .note.GNU-stack
                0x0000000000000000        0x0 binaries/shell.o
 .note.GNU-stack
                0x0000000000000000        0x0 binaries/xsh_argecho.o
 .note.GNU-stack
                0x0000000000000000        0x0 binaries/xsh_arp.o
 .note.GNU-stack
                0x0000000000000000        0x0 binaries/xsh_cat.o
 .note.GNU-stack
                0x0000000000000000        0x0 binaries/xsh_clear.o
 .note.GNU-stack
                0x0000000000000000        0x0 binaries/xsh_date.o
 .note.GNU-stack
                0x0000000000000000        0x0 binaries/xsh_devdump.o
 .note.GNU-stack
                0x0000000000000000        0x0 binaries/xsh_echo.o
 .note.GNU-stack
                0x0000000000000000        0x0 binaries/xsh_exit.o
 .note.GNU-stack
                0x0000000000000000        0x0 binaries/xsh_help.o
 .note.GNU-stack
                0x0000000000000000        0x0 binaries/xsh_ipaddr.o
 .note.GNU-stack
                0x0000000000000000        0x0 binaries/xsh_kill.o
 .note.GNU-stack
                0x0000000000000000        0x0 binaries/xsh_memdump.o
 .note.GNU-stack
                0x0000000000000000        0x0 binaries/xsh_memstat.o
 .note.GNU-stack
                0x0000000000000000        0x0 binaries/xsh_ping.o
 .note.GNU-stack
                0x0000000000000000        0x0 binaries/xsh_ps.o
 .note.GNU-stack
                0x0000000000000000        0x0 binaries/xsh_sleep.o
 .note.GNU-stack
                0x0000000000000000        0x0 binaries/xsh_udpdump.o
 .note.GNU-stack
                0x0000000000000000        0x0 binaries/xsh_udpecho.o
 .note.GNU-stack
                0x0000000000000000        0x0 binaries/xsh_udpeserver.o
 .note.GNU-stack
                0x0000000000000000        0x0 binaries/xsh_uptime.o
 .note.GNU-stack
                0x0000000000000000        0x0 binaries/host2netlc.o
