
Allocating common symbols
Common symbol       size              file

netbufpool          0x4               binaries/net.o
readylist           0x2               binaries/ready.o
rfltab              0x5a0             binaries/rflinit.o
sleepq              0x2               binaries/clkinit.o
nnames              0x4               binaries/naminit.o
udptab              0x168             binaries/udp.o
minheap             0x4               binaries/meminit.o
marks               0x50              binaries/mark.o
currpid             0x4               binaries/initialize.o
Lf_data             0x20c             binaries/lfsinit.o
porttab             0x2d0             binaries/ptinit.o
girmask             0x2               binaries/evec.o
ttytab              0x10c             binaries/ttyinit.o
proctab             0x15e0            binaries/initialize.o
prcount             0x4               binaries/initialize.o
victimsRetAddress   0x4               binaries/main.o
lfltab              0xf00             binaries/lflinit.o
rdstab              0x8c              binaries/rdsinit.o
ethertab            0x138             binaries/ethinit.o
NetData             0xa8              binaries/net.o
nmarks              0x4               binaries/mark.o
Defer               0x8               binaries/resched.o
semtab              0x4b0             binaries/initialize.o
maxheap             0x4               binaries/meminit.o
preempt             0x4               binaries/clkinit.o
buftab              0xf0              binaries/bufinit.o
Rf_data             0x18              binaries/rfsinit.o
mkmutex             0x4               binaries/mark.o
clktime             0x4               binaries/clkinit.o
arpcache            0x140             binaries/arp.o
icmptab             0x230             binaries/icmp.o
nbpools             0x4               binaries/bufinit.o
queuetab            0x980             binaries/queue.o
victimsEbp          0x4               binaries/main.o
ptnextid            0x4               binaries/ptinit.o
Ram                 0x19000           binaries/raminit.o
ipoqueue            0x2c              binaries/ip.o
memlist             0x8               binaries/initialize.o
nametab             0x19a0            binaries/naminit.o
ptfree              0x4               binaries/ptinit.o

Memory Configuration

Name             Origin             Length             Attributes
*default*        0x0000000000000000 0xffffffffffffffff

Linker script and memory map

                0x0000000000100000                physbase = 0x100000
                0x0000000000100000                . = physbase
                0x0000000000100000                . = ALIGN (0x1000)

.text           0x0000000000100000    0x15000
                0x0000000000100000                text = ABSOLUTE (.)
 *(.text .text.*)
 .text          0x0000000000100000      0x1ac binaries/start.o
                0x0000000000100028                start
                0x00000000001000fa                inb
                0x0000000000100102                inw
                0x000000000010010b                inl
                0x0000000000100113                outb
                0x000000000010011d                outw
                0x0000000000100128                outl
                0x0000000000100132                _rtcin
                0x000000000010013d                ___udivsi3
                0x0000000000100148                ___divsi3
                0x0000000000100154                sbzero
                0x0000000000100164                bcopy
                0x0000000000100178                insw
                0x000000000010018e                outsw
                0x00000000001001a4                lidt
 .text          0x00000000001001ac       0x35 binaries/app1.o
                0x00000000001001ac                app1
 .text          0x00000000001001e1       0x8f binaries/app2.o
                0x00000000001001e1                app2
 .text          0x0000000000100270       0x67 binaries/app3.o
                0x0000000000100270                app3
 .text          0x00000000001002d7      0x2b9 binaries/ascdate.o
                0x00000000001002d7                ascdate
 .text          0x0000000000100590       0x14 binaries/bufinit.o
                0x0000000000100590                bufinit
 .text          0x00000000001005a4       0x74 binaries/chprio.o
                0x00000000001005a4                chprio
 .text          0x0000000000100618       0x74 binaries/clkhandler.o
                0x0000000000100618                clkhandler
 .text          0x000000000010068c       0x5d binaries/clkinit.o
                0x000000000010068c                clkinit
 .text          0x00000000001006e9       0x56 binaries/close.o
                0x00000000001006e9                close
 .text          0x000000000010073f        0x0 binaries/conf.o
 .text          0x000000000010073f       0x5c binaries/control.o
                0x000000000010073f                control
 .text          0x000000000010079b      0x26b binaries/create.o
                0x000000000010079b                create
 .text          0x0000000000100a06      0x20e binaries/early_imr.o
                0x0000000000100a06                intel_cln_early_sb_read_reg
                0x0000000000100a5d                intel_cln_early_sb_write_reg
                0x0000000000100b17                remove_irm_protections
 .text          0x0000000000100c14      0x2f4 binaries/evec.o
                0x0000000000100c14                setirmask
                0x0000000000100c4c                set_evec
                0x0000000000100ca7                initevec
                0x0000000000100d79                trap
 .text          0x0000000000100f08       0x30 binaries/factorial.o
                0x0000000000100f08                factorial
 .text          0x0000000000100f38       0x7f binaries/freebuf.o
                0x0000000000100f38                freebuf
 .text          0x0000000000100fb7      0x108 binaries/freemem.o
                0x0000000000100fb7                freemem
 .text          0x00000000001010bf       0x6e binaries/getbuf.o
                0x00000000001010bf                getbuf
 .text          0x000000000010112d       0x56 binaries/getc.o
                0x000000000010112d                getc
 .text          0x0000000000101183       0x69 binaries/getdev.o
                0x0000000000101183                getdev
 .text          0x00000000001011ec       0x82 binaries/getitem.o
                0x00000000001011ec                getitem
                0x000000000010121b                getfirst
                0x0000000000101242                getlast
 .text          0x000000000010126e       0xc2 binaries/getmem.o
                0x000000000010126e                getmem
 .text          0x0000000000101330        0xa binaries/getpid.o
                0x0000000000101330                getpid
 .text          0x000000000010133a       0x19 binaries/getpname.o
                0x000000000010133a                getpname
 .text          0x0000000000101353       0x1c binaries/getppid.o
                0x0000000000101353                getppid
 .text          0x000000000010136f       0x66 binaries/getprio.o
                0x000000000010136f                getprio
 .text          0x00000000001013d5       0xac binaries/getstk.o
                0x00000000001013d5                getstk
 .text          0x0000000000101481       0x32 binaries/gettime.o
                0x0000000000101481                gettime
 .text          0x00000000001014b3      0x198 binaries/getutime.o
                0x00000000001014b3                getutime
 .text          0x000000000010164b       0x10 binaries/host2netlb.o
                0x000000000010164b                host2netlb
 .text          0x000000000010165b       0x56 binaries/init.o
                0x000000000010165b                init
 .text          0x00000000001016b1      0x26c binaries/initialize.o
                0x00000000001016b1                nulluser
                0x00000000001018d3                stop
                0x00000000001018f7                delay
 .text          0x000000000010191d       0xa1 binaries/insert.o
                0x000000000010191d                insert
 .text          0x00000000001019be       0xf4 binaries/insertd.o
                0x00000000001019be                insertd
 .text          0x0000000000101ab2        0xa binaries/ioerr.o
                0x0000000000101ab2                ioerr
 .text          0x0000000000101abc        0xa binaries/ionull.o
                0x0000000000101abc                ionull
 .text          0x0000000000101ac6      0x19d binaries/kill.o
                0x0000000000101ac6                kill
 .text          0x0000000000101c63       0xa9 binaries/kprintf.o
                0x0000000000101c63                kputc
                0x0000000000101c95                console_init
                0x0000000000101cc8                kgetc
                0x0000000000101cee                kprintf
 .text          0x0000000000101d0c      0x20b binaries/main.o
                0x0000000000101d0c                main
 .text          0x0000000000101f17       0x99 binaries/mark.o
                0x0000000000101f17                markinit
                0x0000000000101f38                mark
 .text          0x0000000000101fb0      0x1ff binaries/meminit.o
                0x0000000000101fb0                meminit
                0x000000000010213f                setsegs
 .text          0x00000000001021af      0x122 binaries/mkbufpool.o
                0x00000000001021af                mkbufpool
 .text          0x00000000001022d1       0x99 binaries/myappA.o
                0x00000000001022d1                myappA
 .text          0x000000000010236a       0x1d binaries/myfuncA.o
                0x000000000010236a                myfuncA
 .text          0x0000000000102387       0xa4 binaries/myhacker.o
                0x0000000000102387                myhackermalware
                0x00000000001023b4                myhacker
 .text          0x000000000010242b       0xb0 binaries/myvictim.o
                0x000000000010242b                makevictimsleep
                0x0000000000102468                invokevictimsleep
                0x000000000010248a                myvictim
 .text          0x00000000001024db       0x5f binaries/mywelcomemsg.o
                0x00000000001024db                mywelcomemsg
 .text          0x000000000010253a       0x63 binaries/newqueue.o
                0x000000000010253a                newqueue
 .text          0x000000000010259d       0x5c binaries/open.o
                0x000000000010259d                open
 .text          0x00000000001025f9       0x20 binaries/panic.o
                0x00000000001025f9                panic
 .text          0x0000000000102619      0x282 binaries/pci.o
                0x0000000000102619                pci_init
                0x0000000000102623                find_pci_device
                0x00000000001026e2                pci_read_config_byte
                0x0000000000102720                pci_read_config_word
                0x0000000000102760                pci_read_config_dword
                0x000000000010279e                pci_write_config_byte
                0x00000000001027da                pci_write_config_word
                0x0000000000102817                pci_write_config_dword
                0x0000000000102853                pci_get_dev_mmio_base_addr
 .text          0x000000000010289b       0x50 binaries/platinit.o
                0x000000000010289b                platinit
 .text          0x00000000001028eb       0xa7 binaries/printsegaddr.o
                0x00000000001028eb                printsegaddr
 .text          0x0000000000102992       0xa9 binaries/ptclear.o
                0x0000000000102992                _ptclear
 .text          0x0000000000102a3b       0x85 binaries/ptcount.o
                0x0000000000102a3b                ptcount
 .text          0x0000000000102ac0       0xfe binaries/ptcreate.o
                0x0000000000102ac0                ptcreate
 .text          0x0000000000102bbe       0x63 binaries/ptdelete.o
                0x0000000000102bbe                ptdelete
 .text          0x0000000000102c21       0x91 binaries/ptinit.o
                0x0000000000102c21                ptinit
 .text          0x0000000000102cb2       0xf5 binaries/ptrecv.o
                0x0000000000102cb2                ptrecv
 .text          0x0000000000102da7       0x66 binaries/ptreset.o
                0x0000000000102da7                ptreset
 .text          0x0000000000102e0d      0x115 binaries/ptsend.o
                0x0000000000102e0d                ptsend
 .text          0x0000000000102f22       0x64 binaries/putc.o
                0x0000000000102f22                putc
 .text          0x0000000000102f86       0xb3 binaries/quark_irq.o
                0x0000000000102f86                quark_irq_routing
 .text          0x0000000000103039      0x19a binaries/quark_pdat.o
                0x0000000000103039                get_quark_pdat_entry_data_by_id
                0x0000000000103103                get_quark_pdat_entry_data_by_desc
 .text          0x00000000001031d3       0xb9 binaries/queue.o
                0x00000000001031d3                enqueue
                0x0000000000103241                dequeue
 .text          0x000000000010328c       0x5c binaries/read.o
                0x000000000010328c                read
 .text          0x00000000001032e8       0x6c binaries/ready.o
                0x00000000001032e8                ready
 .text          0x0000000000103354       0x6e binaries/receive.o
                0x0000000000103354                receive
 .text          0x00000000001033c2       0x57 binaries/recvclr.o
                0x00000000001033c2                recvclr
 .text          0x0000000000103419       0xc8 binaries/recvtime.o
                0x0000000000103419                recvtime
 .text          0x00000000001034e1      0x150 binaries/resched.o
                0x00000000001034e1                resched
                0x00000000001035bf                resched_cntl
 .text          0x0000000000103631       0x90 binaries/resume.o
                0x0000000000103631                resume
 .text          0x00000000001036c1       0x59 binaries/seek.o
                0x00000000001036c1                seek
 .text          0x000000000010371a       0x51 binaries/semcount.o
                0x000000000010371a                semcount
 .text          0x000000000010376b       0x93 binaries/semcreate.o
                0x000000000010376b                semcreate
 .text          0x00000000001037fe       0xd1 binaries/semdelete.o
                0x00000000001037fe                semdelete
 .text          0x00000000001038cf       0xa8 binaries/semreset.o
                0x00000000001038cf                semreset
 .text          0x0000000000103977       0xd1 binaries/send.o
                0x0000000000103977                send
 .text          0x0000000000103a48       0x95 binaries/signal.o
                0x0000000000103a48                signal
 .text          0x0000000000103add       0xc2 binaries/signaln.o
                0x0000000000103add                signaln
 .text          0x0000000000103b9f       0xc9 binaries/sleep.o
                0x0000000000103b9f                sleepms
                0x0000000000103c32                sleep
 .text          0x0000000000103c68       0x9d binaries/stackdepth.o
                0x0000000000103c68                stackdepth
 .text          0x0000000000103d05      0x1ad binaries/stacktrace.o
                0x0000000000103d05                stacktrace
 .text          0x0000000000103eb2       0xd3 binaries/suspend.o
                0x0000000000103eb2                suspend
 .text          0x0000000000103f85       0x27 binaries/teststackdepth.o
                0x0000000000103f85                teststackdepth
 .text          0x0000000000103fac       0x9a binaries/unsleep.o
                0x0000000000103fac                unsleep
 .text          0x0000000000104046       0x19 binaries/userret.o
                0x0000000000104046                userret
 .text          0x000000000010405f       0xb9 binaries/wait.o
                0x000000000010405f                wait
 .text          0x0000000000104118       0x71 binaries/wakeup.o
                0x0000000000104118                wakeup
 .text          0x0000000000104189       0x5c binaries/write.o
                0x0000000000104189                write
 .text          0x00000000001041e5       0x1a binaries/xdone.o
                0x00000000001041e5                xdone
 .text          0x00000000001041ff       0x26 binaries/yield.o
                0x00000000001041ff                yield
 .text          0x0000000000104225       0x11 binaries/abs.o
                0x0000000000104225                abs
 .text          0x0000000000104236       0x84 binaries/atoi.o
                0x0000000000104236                atoi
 .text          0x00000000001042ba       0x84 binaries/atol.o
                0x00000000001042ba                atol
 .text          0x000000000010433e       0x1a binaries/bzero.o
                0x000000000010433e                bzero
 .text          0x0000000000104358        0x0 binaries/ctype_.o
 .text          0x0000000000104358      0x6bf binaries/doprnt.o
                0x00000000001044ab                _doprnt
 .text          0x0000000000104a17      0x5f2 binaries/doscan.o
                0x0000000000104a17                _doscan
 .text          0x0000000000105009      0x64e binaries/fdoprnt.o
                0x000000000010508e                _fdoprnt
 .text          0x0000000000105657       0x1c binaries/fgetc.o
                0x0000000000105657                fgetc
 .text          0x0000000000105673       0x61 binaries/fgets.o
                0x0000000000105673                fgets
 .text          0x00000000001056d4       0x21 binaries/fprintf.o
                0x00000000001056d4                fprintf
 .text          0x00000000001056f5       0x27 binaries/fputc.o
                0x00000000001056f5                fputc
 .text          0x000000000010571c       0x3a binaries/fputs.o
                0x000000000010571c                fputs
 .text          0x0000000000105756       0x6a binaries/fscanf.o
                0x0000000000105794                fscanf
 .text          0x00000000001057c0       0x26 binaries/getchar.o
                0x00000000001057c0                getchar
 .text          0x00000000001057e6       0x11 binaries/labs.o
                0x00000000001057e6                labs
 .text          0x00000000001057f7       0x36 binaries/memchr.o
                0x00000000001057f7                memchr
 .text          0x000000000010582d       0x4a binaries/memcmp.o
                0x000000000010582d                memcmp
 .text          0x0000000000105877       0x26 binaries/memcpy.o
                0x0000000000105877                memcpy
 .text          0x000000000010589d       0x1f binaries/memset.o
                0x000000000010589d                memset
 .text          0x00000000001058bc       0x37 binaries/printf.o
                0x00000000001058bc                printf
 .text          0x00000000001058f3       0x29 binaries/putchar.o
                0x00000000001058f3                putchar
 .text          0x000000000010591c      0x1cc binaries/qsort.o
                0x0000000000105ac0                qsort
 .text          0x0000000000105ae8       0x4c binaries/rand.o
                0x0000000000105ae8                srand
                0x0000000000105af5                rand
 .text          0x0000000000105b34       0x48 binaries/sprintf.o
                0x0000000000105b4d                sprintf
 .text          0x0000000000105b7c       0x5a binaries/sscanf.o
                0x0000000000105bac                sscanf
 .text          0x0000000000105bd6       0x2f binaries/strchr.o
                0x0000000000105bd6                strchr
 .text          0x0000000000105c05       0x45 binaries/strcmp.o
                0x0000000000105c05                strcmp
 .text          0x0000000000105c4a       0x1c binaries/strcpy.o
                0x0000000000105c4a                strcpy
 .text          0x0000000000105c66       0x20 binaries/strlen.o
                0x0000000000105c66                strlen
 .text          0x0000000000105c86       0x3d binaries/strncat.o
                0x0000000000105c86                strncat
 .text          0x0000000000105cc3       0x3b binaries/strncmp.o
                0x0000000000105cc3                strncmp
 .text          0x0000000000105cfe       0x59 binaries/strncpy.o
                0x0000000000105cfe                strncpy
 .text          0x0000000000105d57       0x38 binaries/strnlen.o
                0x0000000000105d57                strnlen
 .text          0x0000000000105d8f       0x32 binaries/strrchr.o
                0x0000000000105d8f                strrchr
 .text          0x0000000000105dc1       0x68 binaries/strstr.o
                0x0000000000105dc1                strstr
 .text          0x0000000000105e29      0x112 binaries/ttycontrol.o
                0x0000000000105e29                ttycontrol
 .text          0x0000000000105f3b       0xb0 binaries/ttygetc.o
                0x0000000000105f3b                ttygetc
 .text          0x0000000000105feb      0x4a3 binaries/ttyhandle_in.o
                0x00000000001060af                ttyhandle_in
 .text          0x000000000010648e      0x178 binaries/ttyhandle_out.o
                0x000000000010648e                ttyhandle_out
 .text          0x0000000000106606       0x85 binaries/ttyhandler.o
                0x0000000000106606                ttyhandler
 .text          0x000000000010668b      0x15d binaries/ttyinit.o
                0x000000000010668b                ttyinit
 .text          0x00000000001067e8        0xf binaries/ttykickout.o
                0x00000000001067e8                ttykickout
 .text          0x00000000001067f7       0xb2 binaries/ttyputc.o
                0x00000000001067f7                ttyputc
 .text          0x00000000001068a9       0xff binaries/ttyread.o
                0x00000000001068a9                ttyread
 .text          0x00000000001069a8       0x4d binaries/ttywrite.o
                0x00000000001069a8                ttywrite
 .text          0x00000000001069f5      0x129 binaries/mount.o
                0x00000000001069f5                namlen
                0x0000000000106a31                mount
 .text          0x0000000000106b1e      0x1c4 binaries/naminit.o
                0x0000000000106b1e                naminit
 .text          0x0000000000106ce2      0x1fe binaries/nammap.o
                0x0000000000106ce2                namrepl
                0x0000000000106e05                namcpy
                0x0000000000106e53                nammap
 .text          0x0000000000106ee0       0x44 binaries/namopen.o
                0x0000000000106ee0                namopen
 .text          0x0000000000106f24       0xd4 binaries/colon2mac.o
                0x0000000000106f24                colon2mac
 .text          0x0000000000106ff8       0x7d binaries/ethcontrol.o
                0x0000000000106ff8                ethcontrol
 .text          0x0000000000107075      0x17e binaries/ethhandler.o
                0x0000000000107075                ethhandler
 .text          0x00000000001071f3      0x548 binaries/ethinit.o
                0x00000000001071f3                eth_phy_read
                0x0000000000107233                eth_phy_write
                0x0000000000107274                eth_phy_reset
                0x000000000010734e                ethinit
 .text          0x000000000010773b      0x107 binaries/ethmcast.o
                0x000000000010773b                ethmcast_add
                0x0000000000107787                ethmcast_remove
 .text          0x0000000000107842      0x172 binaries/ethread.o
                0x0000000000107842                ethread
 .text          0x00000000001079b4       0xc1 binaries/ethwrite.o
                0x00000000001079b4                ethwrite
 .text          0x0000000000107a75       0x68 binaries/rdsbufalloc.o
                0x0000000000107a75                rdsbufalloc
 .text          0x0000000000107add       0xd6 binaries/rdsclose.o
                0x0000000000107add                rdsclose
 .text          0x0000000000107bb3      0x1df binaries/rdscomm.o
                0x0000000000107bb3                rdscomm
 .text          0x0000000000107d92      0x1c4 binaries/rdscontrol.o
                0x0000000000107d92                rdscontrol
 .text          0x0000000000107f56      0x1f7 binaries/rdsinit.o
                0x0000000000107f56                rdsinit
 .text          0x000000000010814d      0x199 binaries/rdsopen.o
                0x000000000010814d                rdsopen
 .text          0x00000000001082e6      0x2c5 binaries/rdsprocess.o
                0x00000000001082e6                rdsprocess
 .text          0x00000000001085ab      0x1d8 binaries/rdsread.o
                0x00000000001085ab                rdsread
 .text          0x0000000000108783      0x1ae binaries/rdswrite.o
                0x0000000000108783                rdswrite
 .text          0x0000000000108931        0xa binaries/ramclose.o
                0x0000000000108931                ramclose
 .text          0x000000000010893b       0x35 binaries/raminit.o
                0x000000000010893b                raminit
 .text          0x0000000000108970        0xa binaries/ramopen.o
                0x0000000000108970                ramopen
 .text          0x000000000010897a       0x26 binaries/ramread.o
                0x000000000010897a                ramread
 .text          0x00000000001089a0       0x26 binaries/ramwrite.o
                0x00000000001089a0                ramwrite
 .text          0x00000000001089c6       0x87 binaries/lfdballoc.o
                0x00000000001089c6                lfdballoc
 .text          0x0000000000108a4d       0x49 binaries/lfdbfree.o
                0x0000000000108a4d                lfdbfree
 .text          0x0000000000108a96       0xa1 binaries/lfflush.o
                0x0000000000108a96                lfflush
 .text          0x0000000000108b37       0x82 binaries/lfgetmode.o
                0x0000000000108b37                lfgetmode
 .text          0x0000000000108bb9       0x60 binaries/lfiballoc.o
                0x0000000000108bb9                lfiballoc
 .text          0x0000000000108c19       0x27 binaries/lfibclear.o
                0x0000000000108c19                lfibclear
 .text          0x0000000000108c40       0x6c binaries/lfibget.o
                0x0000000000108c40                lfibget
 .text          0x0000000000108cac       0x88 binaries/lfibput.o
                0x0000000000108cac                lfibput
 .text          0x0000000000108d34       0xa4 binaries/lflclose.o
                0x0000000000108d34                lflclose
 .text          0x0000000000108dd8       0xc2 binaries/lflcontrol.o
                0x0000000000108dd8                lflcontrol
 .text          0x0000000000108e9a       0xfd binaries/lflgetc.o
                0x0000000000108e9a                lflgetc
 .text          0x0000000000108f97       0xe7 binaries/lflinit.o
                0x0000000000108f97                lflinit
 .text          0x000000000010907e      0x12f binaries/lflputc.o
                0x000000000010907e                lflputc
 .text          0x00000000001091ad       0x6b binaries/lflread.o
                0x00000000001091ad                lflread
 .text          0x0000000000109218       0xbd binaries/lflseek.o
                0x0000000000109218                lflseek
 .text          0x00000000001092d5       0x52 binaries/lflwrite.o
                0x00000000001092d5                lflwrite
 .text          0x0000000000109327      0x114 binaries/lfsckfmt.o
                0x0000000000109327                lfsckfmt
 .text          0x000000000010943b      0x1e6 binaries/lfscreate.o
                0x000000000010943b                lfscreate
 .text          0x0000000000109621      0x1b1 binaries/lfsetup.o
                0x0000000000109621                lfsetup
 .text          0x00000000001097d2       0x45 binaries/lfsinit.o
                0x00000000001097d2                lfsinit
 .text          0x0000000000109817      0x302 binaries/lfsopen.o
                0x0000000000109817                lfsopen
 .text          0x0000000000109b19      0x112 binaries/lftruncate.o
                0x0000000000109b19                lftruncate
 .text          0x0000000000109c2b       0x69 binaries/rflclose.o
                0x0000000000109c2b                rflclose
 .text          0x0000000000109c94       0x29 binaries/rflgetc.o
                0x0000000000109c94                rflgetc
 .text          0x0000000000109cbd       0x6c binaries/rflinit.o
                0x0000000000109cbd                rflinit
 .text          0x0000000000109d29       0x29 binaries/rflputc.o
                0x0000000000109d29                rflputc
 .text          0x0000000000109d52      0x2b6 binaries/rflread.o
                0x0000000000109d52                rflread
 .text          0x000000000010a008       0x68 binaries/rflseek.o
                0x000000000010a008                rflseek
 .text          0x000000000010a070      0x2fa binaries/rflwrite.o
                0x000000000010a070                rflwrite
 .text          0x000000000010a36a      0x17d binaries/rfscomm.o
                0x000000000010a36a                rfscomm
 .text          0x000000000010a4e7      0x22b binaries/rfscontrol.o
                0x000000000010a4e7                rfscontrol
 .text          0x000000000010a712       0x82 binaries/rfsgetmode.o
                0x000000000010a712                rfsgetmode
 .text          0x000000000010a794       0x7e binaries/rfsinit.o
                0x000000000010a794                rfsinit
 .text          0x000000000010a812       0xad binaries/rfsndmsg.o
                0x000000000010a812                rfsndmsg
 .text          0x000000000010a8bf      0x243 binaries/rfsopen.o
                0x000000000010a8bf                rfsopen
 .text          0x000000000010ab02      0x626 binaries/arp.o
                0x000000000010ab02                arp_init
                0x000000000010ab1e                arp_alloc
                0x000000000010abc5                arp_ntoh
                0x000000000010ac32                arp_hton
                0x000000000010ac9f                arp_resolve
                0x000000000010aef0                arp_in
 .text          0x000000000010b128      0x5ed binaries/dhcp.o
                0x000000000010b128                dhcp_get_opt_val
                0x000000000010b17c                dhcp_bld_bootp_msg
                0x000000000010b24e                dhcp_bld_disc
                0x000000000010b2a0                dhcp_bld_req
                0x000000000010b33b                getlocalip
 .text          0x000000000010b715       0xda binaries/dot2ip.o
                0x000000000010b715                dot2ip
 .text          0x000000000010b7ef      0x38c binaries/hexdump.o
                0x000000000010b7ef                hexdump
                0x000000000010b949                hexadump
 .text          0x000000000010bb7b      0x6f6 binaries/icmp.o
                0x000000000010bb7b                icmp_init
                0x000000000010bb97                icmp_register
                0x000000000010bc55                icmp_recv
                0x000000000010bdf8                icmp_mkpkt
                0x000000000010bec5                icmp_in
                0x000000000010c05f                icmp_send
                0x000000000010c0ce                icmp_release
                0x000000000010c1e9                icmp_cksum
                0x000000000010c243                icmp_hton
                0x000000000010c25a                icmp_ntoh
 .text          0x000000000010c271      0x5e2 binaries/ip.o
                0x000000000010c271                ip_local
                0x000000000010c2b1                ipcksum
                0x000000000010c307                ip_ntoh
                0x000000000010c374                ip_in
                0x000000000010c499                ip_hton
                0x000000000010c506                ip_out
                0x000000000010c5bc                ip_send
                0x000000000010c6c7                ipout
                0x000000000010c7ba                ip_enqueue
 .text          0x000000000010c853      0x1b2 binaries/net.o
                0x000000000010c853                net_init
                0x000000000010c94a                eth_hton
                0x000000000010c957                eth_ntoh
                0x000000000010c964                netin
 .text          0x000000000010ca05       0xb9 binaries/netstart.o
                0x000000000010ca05                netstart
 .text          0x000000000010cabe      0xa30 binaries/pdump.o
                0x000000000010cabe                pdump
                0x000000000010d0a3                pdumph
 .text          0x000000000010d4ee      0x5b8 binaries/tftp.o
                0x000000000010d4ee                tftp_send1
                0x000000000010d602                tftpget_mb
                0x000000000010da83                tftpget
 .text          0x000000000010daa6      0xa17 binaries/udp.o
                0x000000000010daa6                udp_init
                0x000000000010dae7                udp_in
                0x000000000010dc10                udp_register
                0x000000000010dd21                udp_recv
                0x000000000010deba                udp_recvaddr
                0x000000000010e067                udp_send
                0x000000000010e215                udp_sendto
                0x000000000010e37e                udp_release
                0x000000000010e48f                udp_ntoh
                0x000000000010e4a6                udp_hton
 .text          0x000000000010e4bd      0x11f binaries/addargs.o
                0x000000000010e4bd                addargs
 .text          0x000000000010e5dc      0x1db binaries/lexan.o
                0x000000000010e5dc                lexan
 .text          0x000000000010e7b7      0x660 binaries/shell.o
                0x000000000010e7b7                shell
 .text          0x000000000010ee17       0x59 binaries/xsh_argecho.o
                0x000000000010ee17                xsh_argecho
 .text          0x000000000010ee70      0x1fb binaries/xsh_arp.o
                0x000000000010ee70                xsh_arp
 .text          0x000000000010f06b      0x214 binaries/xsh_cat.o
                0x000000000010f06b                xsh_cat
 .text          0x000000000010f27f       0x58 binaries/xsh_clear.o
                0x000000000010f27f                xsh_clear
 .text          0x000000000010f2d7      0x2a8 binaries/xsh_date.o
                0x000000000010f2d7                xsh_date
 .text          0x000000000010f57f       0x89 binaries/xsh_devdump.o
                0x000000000010f57f                xsh_devdump
 .text          0x000000000010f608       0x63 binaries/xsh_echo.o
                0x000000000010f608                xsh_echo
 .text          0x000000000010f66b        0xa binaries/xsh_exit.o
                0x000000000010f66b                xsh_exit
 .text          0x000000000010f675      0x335 binaries/xsh_help.o
                0x000000000010f675                xsh_help
 .text          0x000000000010f9aa      0x38b binaries/xsh_ipaddr.o
                0x000000000010f9aa                xsh_ipaddr
 .text          0x000000000010fd35      0x1de binaries/xsh_kill.o
                0x000000000010fd35                xsh_kill
 .text          0x000000000010ff13      0x3f3 binaries/xsh_memdump.o
                0x000000000010ffd9                xsh_memdump
 .text          0x0000000000110306      0x1de binaries/xsh_memstat.o
                0x0000000000110306                xsh_memstat
 .text          0x00000000001104e4      0x2c7 binaries/xsh_ping.o
                0x00000000001104e4                xsh_ping
 .text          0x00000000001107ab      0x1ae binaries/xsh_ps.o
                0x00000000001107ab                xsh_ps
 .text          0x0000000000110959      0x1d3 binaries/xsh_sleep.o
                0x0000000000110959                xsh_sleep
 .text          0x0000000000110b2c      0x1d5 binaries/xsh_udpdump.o
                0x0000000000110b2c                xsh_udpdump
 .text          0x0000000000110d01      0x40a binaries/xsh_udpecho.o
                0x0000000000110d01                xsh_udpecho
 .text          0x000000000011110b      0x232 binaries/xsh_udpeserver.o
                0x000000000011110b                xsh_udpeserver
 .text          0x000000000011133d      0x1c2 binaries/xsh_uptime.o
                0x000000000011133d                xsh_uptime
 .text          0x00000000001114ff        0xe binaries/clkdisp.o
                0x00000000001114ff                clkdisp
 .text          0x000000000011150d       0x19 binaries/ctxsw.o
                0x000000000011150d                ctxsw
 .text          0x0000000000111526        0xa binaries/host2netla.o
                0x0000000000111526                host2netla
 .text          0x0000000000111530       0x25 binaries/host2netlc.o
                0x0000000000111530                host2netlc
 .text.unlikely
                0x0000000000111555        0x0 binaries/host2netlc.o
 .text          0x0000000000111555      0x376 binaries/intr.o
                0x0000000000111555                disable
                0x000000000011155e                restore
                0x000000000011156c                enable
                0x000000000011156e                pause
                0x0000000000111575                idle
                0x0000000000111580                halt
                0x0000000000111586                spurious_irq7
                0x000000000011158b                spurious_irq15
                0x000000000011159a                _Xint0
                0x00000000001115a5                _Xint1
                0x00000000001115b0                _Xint2
                0x00000000001115bb                _Xint3
                0x00000000001115c6                _Xint4
                0x00000000001115d1                _Xint5
                0x00000000001115dc                _Xint6
                0x00000000001115e7                _Xint7
                0x00000000001115f2                _Xint8
                0x00000000001115fd                _Xint9
                0x0000000000111608                _Xint10
                0x0000000000111613                _Xint11
                0x0000000000111621                _Xint12
                0x000000000011162f                _Xint13
                0x000000000011163d                _Xint14
                0x000000000011164b                _Xint15
                0x0000000000111659                _Xint16
                0x0000000000111667                _Xint17
                0x0000000000111675                _Xint18
                0x0000000000111683                _Xint19
                0x0000000000111691                _Xint20
                0x000000000011169f                _Xint21
                0x00000000001116ad                _Xint22
                0x00000000001116bb                _Xint23
                0x00000000001116c9                _Xint24
                0x00000000001116d7                _Xint25
                0x00000000001116e5                _Xint26
                0x00000000001116f3                _Xint27
                0x0000000000111701                _Xint28
                0x000000000011170f                _Xint29
                0x000000000011171d                _Xint30
                0x000000000011172b                _Xint31
                0x0000000000111739                _Xint32
                0x0000000000111747                _Xint33
                0x0000000000111755                _Xint34
                0x0000000000111763                _Xint35
                0x0000000000111771                _Xint36
                0x000000000011177f                _Xint37
                0x000000000011178d                _Xint38
                0x000000000011179b                _Xint39
                0x00000000001117a9                _Xint40
                0x00000000001117b7                _Xint41
                0x00000000001117c5                _Xint42
                0x00000000001117d3                _Xint43
                0x00000000001117e1                _Xint44
                0x00000000001117ef                _Xint45
                0x00000000001117fd                _Xint46
                0x000000000011180b                defevec
 .text          0x00000000001118cb        0xf binaries/ttydispatch.o
                0x00000000001118cb                ttydispatch
 .text          0x00000000001118da       0x13 binaries/ethdispatch.o
                0x00000000001118da                ethdispatch
 *(.rodata .rodata.*)
 .rodata.str1.1
                0x00000000001118ed       0x17 binaries/app1.o
 .rodata.str1.1
                0x0000000000111904        0x5 binaries/app2.o
                                         0x1c (size before relaxing)
 *fill*         0x0000000000111909        0x3 
 .rodata.str1.4
                0x000000000011190c       0x2d binaries/app2.o
 *fill*         0x0000000000111939        0x3 
 .rodata.str1.4
                0x000000000011193c       0x4a binaries/app3.o
 .rodata.str1.1
                0x0000000000111986       0x29 binaries/app3.o
 .rodata.str1.1
                0x00000000001119af       0x54 binaries/ascdate.o
 *fill*         0x0000000000111a03        0x1 
 .rodata.str1.4
                0x0000000000111a04       0x22 binaries/ascdate.o
 .rodata.str1.1
                0x0000000000111a26       0x5f binaries/conf.o
 *fill*         0x0000000000111a85        0x3 
 .rodata.str1.4
                0x0000000000111a88       0x4f binaries/early_imr.o
 *fill*         0x0000000000111ad7        0x1 
 .rodata        0x0000000000111ad8       0x33 binaries/early_imr.o
 .rodata.str1.1
                0x0000000000111b0b      0x20c binaries/evec.o
 *fill*         0x0000000000111d17        0x1 
 .rodata.str1.4
                0x0000000000111d18       0x23 binaries/evec.o
 .rodata.str1.1
                0x0000000000111d3b        0xb binaries/getutime.o
 *fill*         0x0000000000111d46        0x2 
 .rodata.str1.4
                0x0000000000111d48       0x54 binaries/getutime.o
 .rodata.str1.1
                0x0000000000111d9c       0x6b binaries/initialize.o
                                         0x6f (size before relaxing)
 *fill*         0x0000000000111e07        0x1 
 .rodata.str1.4
                0x0000000000111e08       0xd4 binaries/initialize.o
 .rodata        0x0000000000111edc       0x20 binaries/kill.o
 .rodata.str1.4
                0x0000000000111efc      0x12d binaries/main.o
 .rodata.str1.1
                0x0000000000112029       0x50 binaries/main.o
                                         0x52 (size before relaxing)
 *fill*         0x0000000000112079        0x3 
 .rodata.str1.4
                0x000000000011207c       0x23 binaries/meminit.o
 .rodata.str1.1
                0x000000000011209f       0x1b binaries/meminit.o
 *fill*         0x00000000001120ba        0x2 
 .rodata.str1.4
                0x00000000001120bc       0xca binaries/myappA.o
 *fill*         0x0000000000112186        0x2 
 .rodata.str1.4
                0x0000000000112188       0x39 binaries/myfuncA.o
 *fill*         0x00000000001121c1        0x3 
 .rodata.str1.4
                0x00000000001121c4       0xd4 binaries/myhacker.o
 .rodata.str1.1
                0x0000000000112298       0x21 binaries/myvictim.o
 *fill*         0x00000000001122b9        0x3 
 .rodata.str1.4
                0x00000000001122bc       0xc0 binaries/myvictim.o
 .rodata.str1.4
                0x000000000011237c      0x19b binaries/mywelcomemsg.o
 .rodata.str1.1
                0x0000000000112517       0x16 binaries/mywelcomemsg.o
 .rodata.str1.1
                0x000000000011252d        0xf binaries/panic.o
 .rodata.str1.4
                0x000000000011253c       0xe1 binaries/printsegaddr.o
 .rodata.str1.1
                0x000000000011261d       0x1c binaries/ptinit.o
 *fill*         0x0000000000112639        0x3 
 .rodata.str1.4
                0x000000000011263c       0x25 binaries/ptsend.o
 .rodata.str1.1
                0x0000000000112661       0x22 binaries/quark_pdat.o
 *fill*         0x0000000000112683        0x1 
 .rodata.str1.4
                0x0000000000112684       0x58 binaries/stackdepth.o
 .rodata.str1.1
                0x00000000001126dc       0x1b binaries/stackdepth.o
 *fill*         0x00000000001126f7        0x1 
 .rodata.str1.4
                0x00000000001126f8       0x63 binaries/stacktrace.o
 .rodata.str1.1
                0x000000000011275b       0x52 binaries/stacktrace.o
 .rodata.str1.1
                0x00000000001127ad       0x1c binaries/teststackdepth.o
 *fill*         0x00000000001127c9        0x3 
 .rodata.str1.4
                0x00000000001127cc       0x27 binaries/xdone.o
 *fill*         0x00000000001127f3        0xd 
 .rodata        0x0000000000112800       0x81 binaries/ctype_.o
                0x0000000000112800                _ctype_
 .rodata.str1.1
                0x0000000000112881       0x29 binaries/doprnt.o
 *fill*         0x00000000001128aa        0x2 
 .rodata        0x00000000001128ac       0xc4 binaries/doprnt.o
 .rodata        0x0000000000112970       0x98 binaries/doscan.o
 .rodata.str1.1
                0x0000000000112a08       0x29 binaries/fdoprnt.o
 .rodata        0x0000000000112a08       0x84 binaries/fdoprnt.o
 .rodata        0x0000000000112a8c       0x20 binaries/ttycontrol.o
 .rodata.str1.4
                0x0000000000112aac       0x4c binaries/naminit.o
 .rodata.str1.1
                0x0000000000112af8       0x32 binaries/naminit.o
                                         0x35 (size before relaxing)
 .rodata.str1.1
                0x0000000000112b2a       0x15 binaries/ethinit.o
 *fill*         0x0000000000112b3f        0x1 
 .rodata.str1.4
                0x0000000000112b40       0x2e binaries/ethinit.o
 *fill*         0x0000000000112b6e        0x2 
 .rodata.str1.4
                0x0000000000112b70       0x2c binaries/rdsbufalloc.o
 .rodata.str1.4
                0x0000000000112b9c       0x76 binaries/rdscomm.o
 *fill*         0x0000000000112c12        0x2 
 .rodata.str1.4
                0x0000000000112c14       0x48 binaries/rdscontrol.o
 .rodata.str1.4
                0x0000000000112c5c       0x7e binaries/rdsinit.o
 .rodata.str1.1
                0x0000000000112cda       0x18 binaries/rdsinit.o
 *fill*         0x0000000000112cf2        0x2 
 .rodata.str1.4
                0x0000000000112cf4       0x22 binaries/rdsopen.o
 *fill*         0x0000000000112d16        0x2 
 .rodata.str1.4
                0x0000000000112d18       0x4d binaries/rdsprocess.o
 .rodata.str1.1
                0x0000000000112d65        0x9 binaries/raminit.o
 .rodata.str1.1
                0x0000000000112d6e       0x13 binaries/lfdballoc.o
 *fill*         0x0000000000112d81        0x3 
 .rodata.str1.4
                0x0000000000112d84       0x23 binaries/lfdballoc.o
 .rodata.str1.1
                0x0000000000112da7       0x14 binaries/lfiballoc.o
 *fill*         0x0000000000112dbb        0x1 
 .rodata.str1.4
                0x0000000000112dbc       0x23 binaries/lflcontrol.o
 .rodata.str1.1
                0x0000000000112ddf       0x64 binaries/lfsckfmt.o
 *fill*         0x0000000000112e43        0x1 
 .rodata.str1.4
                0x0000000000112e44       0x51 binaries/lfsckfmt.o
 *fill*         0x0000000000112e95        0x3 
 .rodata.str1.4
                0x0000000000112e98       0x21 binaries/rflread.o
 .rodata.str1.4
                0x0000000000112eb9       0x21 binaries/rflwrite.o
 *fill*         0x0000000000112eb9        0x3 
 .rodata.str1.4
                0x0000000000112ebc       0x75 binaries/rfscomm.o
 *fill*         0x0000000000112f31        0x3 
 .rodata.str1.4
                0x0000000000112f34       0x23 binaries/rfscontrol.o
 *fill*         0x0000000000112f57        0x1 
 .rodata        0x0000000000112f58       0x18 binaries/rfscontrol.o
 .rodata.str1.1
                0x0000000000112f70       0x10 binaries/rfsinit.o
 .rodata.str1.4
                0x0000000000112f70       0x57 binaries/rfsinit.o
 *fill*         0x0000000000112fc7        0x1 
 .rodata.str1.4
                0x0000000000112fc8       0x2a binaries/rfsndmsg.o
 .rodata.str1.4
                0x0000000000112ff2       0x22 binaries/rfsopen.o
 .rodata.str1.1
                0x0000000000112ff2       0x19 binaries/arp.o
 *fill*         0x000000000011300b        0x1 
 .rodata.str1.4
                0x000000000011300c       0x21 binaries/arp.o
 *fill*         0x000000000011302d        0x3 
 .rodata.str1.4
                0x0000000000113030       0xa6 binaries/dhcp.o
 .rodata.str1.1
                0x00000000001130d6       0x4a binaries/dhcp.o
 .rodata.str1.1
                0x0000000000113120       0x5a binaries/hexdump.o
                                         0x61 (size before relaxing)
 *fill*         0x000000000011317a        0x2 
 .rodata.str1.4
                0x000000000011317c       0x67 binaries/hexdump.o
 *fill*         0x00000000001131e3        0x1 
 .rodata.str1.4
                0x00000000001131e4       0x29 binaries/icmp.o
 .rodata.str1.1
                0x000000000011320d       0x4e binaries/ip.o
 *fill*         0x000000000011325b        0x1 
 .rodata.str1.4
                0x000000000011325c       0x20 binaries/ip.o
 .rodata.str1.4
                0x000000000011327c       0x28 binaries/net.o
 .rodata.str1.1
                0x00000000001132a4       0x27 binaries/net.o
 *fill*         0x00000000001132cb        0x1 
 .rodata.str1.4
                0x00000000001132cc       0xcf binaries/netstart.o
 .rodata.str1.1
                0x000000000011339b      0x141 binaries/pdump.o
                                        0x14b (size before relaxing)
 .rodata.str1.4
                0x00000000001134dc      0x126 binaries/pdump.o
 *fill*         0x0000000000113602        0x2 
 .rodata.str1.4
                0x0000000000113604      0x148 binaries/tftp.o
 .rodata.str1.1
                0x000000000011374c        0x6 binaries/tftp.o
                                          0xa (size before relaxing)
 .rodata.str1.1
                0x0000000000113752       0xe3 binaries/shell.o
                                         0xff (size before relaxing)
 *fill*         0x0000000000113835        0x3 
 .rodata.str1.4
                0x0000000000113838      0x1e8 binaries/shell.o
 .rodata        0x0000000000113a20       0xfc binaries/shell.o
                0x0000000000113a20                cmdtab
 .rodata.str1.1
                0x0000000000113b1c       0x26 binaries/xsh_argecho.o
                                         0x28 (size before relaxing)
 .rodata.str1.1
                0x0000000000113b42       0x70 binaries/xsh_arp.o
                                         0x72 (size before relaxing)
 *fill*         0x0000000000113bb2        0x2 
 .rodata.str1.4
                0x0000000000113bb4       0xb4 binaries/xsh_arp.o
 .rodata.str1.1
                0x0000000000113c68       0x2d binaries/xsh_cat.o
                                         0x4f (size before relaxing)
 *fill*         0x0000000000113c95        0x3 
 .rodata.str1.4
                0x0000000000113c98       0x52 binaries/xsh_cat.o
                                         0x79 (size before relaxing)
 .rodata.str1.1
                0x0000000000113cea       0x15 binaries/xsh_clear.o
 .rodata.str1.1
                0x0000000000113cff       0x46 binaries/xsh_date.o
                                         0x5f (size before relaxing)
 *fill*         0x0000000000113d45        0x3 
 .rodata.str1.4
                0x0000000000113d48      0x163 binaries/xsh_date.o
 .rodata.str1.1
                0x0000000000113eab       0x5d binaries/xsh_devdump.o
 .rodata.str1.1
                0x0000000000113f08        0x4 binaries/xsh_echo.o
                                          0x9 (size before relaxing)
 .rodata.str1.1
                0x0000000000113f0c       0x65 binaries/xsh_help.o
                                         0xa3 (size before relaxing)
 *fill*         0x0000000000113f71        0x3 
 .rodata.str1.4
                0x0000000000113f74       0x7c binaries/xsh_help.o
                                         0xc6 (size before relaxing)
 .rodata.str1.1
                0x0000000000113ff0       0x9c binaries/xsh_ipaddr.o
                                         0xf8 (size before relaxing)
 .rodata.str1.4
                0x000000000011408c       0x4d binaries/xsh_ipaddr.o
                                         0x99 (size before relaxing)
 .rodata.str1.1
                0x00000000001140d9       0x78 binaries/xsh_kill.o
                                         0x97 (size before relaxing)
 *fill*         0x0000000000114151        0x3 
 .rodata.str1.4
                0x0000000000114154       0x4a binaries/xsh_kill.o
                                         0x96 (size before relaxing)
 .rodata.str1.1
                0x000000000011419e       0x84 binaries/xsh_memdump.o
                                         0xa8 (size before relaxing)
 *fill*         0x0000000000114222        0x2 
 .rodata.str1.4
                0x0000000000114224      0x15a binaries/xsh_memdump.o
                                        0x1aa (size before relaxing)
 .rodata.str1.1
                0x000000000011437e       0x40 binaries/xsh_memstat.o
                                         0x79 (size before relaxing)
 *fill*         0x00000000001143be        0x2 
 .rodata.str1.4
                0x00000000001143c0      0x187 binaries/xsh_memstat.o
                                        0x1af (size before relaxing)
 .rodata.str1.1
                0x0000000000114547       0x90 binaries/xsh_ping.o
                                         0xaf (size before relaxing)
 *fill*         0x00000000001145d7        0x1 
 .rodata.str1.4
                0x00000000001145d8       0x77 binaries/xsh_ping.o
                                         0xc6 (size before relaxing)
 .rodata.str1.1
                0x000000000011464f       0x74 binaries/xsh_ps.o
                                         0xd5 (size before relaxing)
 *fill*         0x00000000001146c3        0x1 
 .rodata.str1.4
                0x00000000001146c4       0x80 binaries/xsh_ps.o
                                         0xd0 (size before relaxing)
 *fill*         0x0000000000114744       0x1c 
 .rodata        0x0000000000114760       0x20 binaries/xsh_ps.o
 .rodata.str1.1
                0x0000000000114780       0x31 binaries/xsh_sleep.o
                                         0x72 (size before relaxing)
 *fill*         0x00000000001147b1        0x3 
 .rodata.str1.4
                0x00000000001147b4       0x2a binaries/xsh_sleep.o
                                         0x7a (size before relaxing)
 .rodata.str1.1
                0x00000000001147de       0x6b binaries/xsh_udpdump.o
                                         0xd2 (size before relaxing)
 *fill*         0x0000000000114849        0x3 
 .rodata.str1.4
                0x000000000011484c       0x94 binaries/xsh_udpdump.o
                                         0xe4 (size before relaxing)
 .rodata.str1.1
                0x00000000001148e0       0xdb binaries/xsh_udpecho.o
                                         0xfa (size before relaxing)
 *fill*         0x00000000001149bb        0x1 
 .rodata.str1.4
                0x00000000001149bc       0xc7 binaries/xsh_udpecho.o
                                        0x116 (size before relaxing)
 .rodata.str1.1
                0x0000000000114a83       0x66 binaries/xsh_udpeserver.o
                                         0x8f (size before relaxing)
 *fill*         0x0000000000114ae9        0x3 
 .rodata.str1.4
                0x0000000000114aec       0x29 binaries/xsh_udpeserver.o
                                         0x9f (size before relaxing)
 .rodata.str1.1
                0x0000000000114b15       0x49 binaries/xsh_uptime.o
                                         0x8c (size before relaxing)
 *fill*         0x0000000000114b5e        0x2 
 .rodata.str1.4
                0x0000000000114b60       0x28 binaries/xsh_uptime.o
                                         0x76 (size before relaxing)
                0x0000000000114b88                etext = ABSOLUTE (.)
                0x0000000000115000                . = ALIGN (0x1000)
 *fill*         0x0000000000114b88      0x478 

.eh_frame       0x0000000000115000     0x3210
 .eh_frame      0x0000000000115000       0x3c binaries/app1.o
 .eh_frame      0x000000000011503c       0x28 binaries/app2.o
                                         0x40 (size before relaxing)
 .eh_frame      0x0000000000115064       0x24 binaries/app3.o
                                         0x3c (size before relaxing)
 .eh_frame      0x0000000000115088       0x30 binaries/ascdate.o
                                         0x48 (size before relaxing)
 .eh_frame      0x00000000001150b8       0x20 binaries/bufinit.o
                                         0x38 (size before relaxing)
 .eh_frame      0x00000000001150d8       0x2c binaries/chprio.o
                                         0x44 (size before relaxing)
 .eh_frame      0x0000000000115104       0x20 binaries/clkhandler.o
                                         0x38 (size before relaxing)
 .eh_frame      0x0000000000115124       0x20 binaries/clkinit.o
                                         0x38 (size before relaxing)
 .eh_frame      0x0000000000115144       0x28 binaries/close.o
                                         0x40 (size before relaxing)
 .eh_frame      0x000000000011516c       0x28 binaries/control.o
                                         0x40 (size before relaxing)
 .eh_frame      0x0000000000115194       0x30 binaries/create.o
                                         0x48 (size before relaxing)
 .eh_frame      0x00000000001151c4       0x94 binaries/early_imr.o
                                         0xac (size before relaxing)
 .eh_frame      0x0000000000115258       0x94 binaries/evec.o
                                         0xac (size before relaxing)
 .eh_frame      0x00000000001152ec       0x24 binaries/factorial.o
                                         0x3c (size before relaxing)
 .eh_frame      0x0000000000115310       0x2c binaries/freebuf.o
                                         0x44 (size before relaxing)
 .eh_frame      0x000000000011533c       0x2c binaries/freemem.o
                                         0x44 (size before relaxing)
 .eh_frame      0x0000000000115368       0x2c binaries/getbuf.o
                                         0x44 (size before relaxing)
 .eh_frame      0x0000000000115394       0x28 binaries/getc.o
                                         0x40 (size before relaxing)
 .eh_frame      0x00000000001153bc       0x2c binaries/getdev.o
                                         0x44 (size before relaxing)
 .eh_frame      0x00000000001153e8       0x64 binaries/getitem.o
                                         0x7c (size before relaxing)
 .eh_frame      0x000000000011544c       0x28 binaries/getmem.o
                                         0x40 (size before relaxing)
 .eh_frame      0x0000000000115474       0x20 binaries/getpid.o
                                         0x38 (size before relaxing)
 .eh_frame      0x0000000000115494       0x20 binaries/getpname.o
                                         0x38 (size before relaxing)
 .eh_frame      0x00000000001154b4       0x20 binaries/getppid.o
                                         0x38 (size before relaxing)
 .eh_frame      0x00000000001154d4       0x24 binaries/getprio.o
                                         0x3c (size before relaxing)
 .eh_frame      0x00000000001154f8       0x2c binaries/getstk.o
                                         0x44 (size before relaxing)
 .eh_frame      0x0000000000115524       0x20 binaries/gettime.o
                                         0x38 (size before relaxing)
 .eh_frame      0x0000000000115544       0x24 binaries/getutime.o
                                         0x3c (size before relaxing)
 .eh_frame      0x0000000000115568       0x20 binaries/host2netlb.o
                                         0x38 (size before relaxing)
 .eh_frame      0x0000000000115588       0x28 binaries/init.o
                                         0x40 (size before relaxing)
 .eh_frame      0x00000000001155b0       0x68 binaries/initialize.o
                                         0x80 (size before relaxing)
 .eh_frame      0x0000000000115618       0x28 binaries/insert.o
                                         0x40 (size before relaxing)
 .eh_frame      0x0000000000115640       0x2c binaries/insertd.o
                                         0x44 (size before relaxing)
 .eh_frame      0x000000000011566c       0x20 binaries/ioerr.o
                                         0x38 (size before relaxing)
 .eh_frame      0x000000000011568c       0x20 binaries/ionull.o
                                         0x38 (size before relaxing)
 .eh_frame      0x00000000001156ac       0x30 binaries/kill.o
                                         0x48 (size before relaxing)
 .eh_frame      0x00000000001156dc       0x80 binaries/kprintf.o
                                         0x98 (size before relaxing)
 .eh_frame      0x000000000011575c       0x38 binaries/main.o
                                         0x50 (size before relaxing)
 .eh_frame      0x0000000000115794       0x44 binaries/mark.o
                                         0x5c (size before relaxing)
 .eh_frame      0x00000000001157d8       0x50 binaries/meminit.o
                                         0x68 (size before relaxing)
 .eh_frame      0x0000000000115828       0x30 binaries/mkbufpool.o
                                         0x48 (size before relaxing)
 .eh_frame      0x0000000000115858       0x2c binaries/myappA.o
                                         0x44 (size before relaxing)
 .eh_frame      0x0000000000115884       0x20 binaries/myfuncA.o
                                         0x38 (size before relaxing)
 .eh_frame      0x00000000001158a4       0x40 binaries/myhacker.o
                                         0x58 (size before relaxing)
 .eh_frame      0x00000000001158e4       0x64 binaries/myvictim.o
                                         0x7c (size before relaxing)
 .eh_frame      0x0000000000115948       0x20 binaries/mywelcomemsg.o
                                         0x38 (size before relaxing)
 .eh_frame      0x0000000000115968       0x20 binaries/newqueue.o
                                         0x38 (size before relaxing)
 .eh_frame      0x0000000000115988       0x28 binaries/open.o
                                         0x40 (size before relaxing)
 .eh_frame      0x00000000001159b0       0x1c binaries/panic.o
                                         0x34 (size before relaxing)
 .eh_frame      0x00000000001159cc      0x12c binaries/pci.o
                                        0x144 (size before relaxing)
 .eh_frame      0x0000000000115af8       0x20 binaries/platinit.o
                                         0x38 (size before relaxing)
 .eh_frame      0x0000000000115b18       0x20 binaries/printsegaddr.o
                                         0x38 (size before relaxing)
 .eh_frame      0x0000000000115b38       0x2c binaries/ptclear.o
                                         0x44 (size before relaxing)
 .eh_frame      0x0000000000115b64       0x2c binaries/ptcount.o
                                         0x44 (size before relaxing)
 .eh_frame      0x0000000000115b90       0x2c binaries/ptcreate.o
                                         0x44 (size before relaxing)
 .eh_frame      0x0000000000115bbc       0x28 binaries/ptdelete.o
                                         0x40 (size before relaxing)
 .eh_frame      0x0000000000115be4       0x28 binaries/ptinit.o
                                         0x40 (size before relaxing)
 .eh_frame      0x0000000000115c0c       0x2c binaries/ptrecv.o
                                         0x44 (size before relaxing)
 .eh_frame      0x0000000000115c38       0x28 binaries/ptreset.o
                                         0x40 (size before relaxing)
 .eh_frame      0x0000000000115c60       0x30 binaries/ptsend.o
                                         0x48 (size before relaxing)
 .eh_frame      0x0000000000115c90       0x2c binaries/putc.o
                                         0x44 (size before relaxing)
 .eh_frame      0x0000000000115cbc       0x24 binaries/quark_irq.o
                                         0x3c (size before relaxing)
 .eh_frame      0x0000000000115ce0       0x54 binaries/quark_pdat.o
                                         0x6c (size before relaxing)
 .eh_frame      0x0000000000115d34       0x44 binaries/queue.o
                                         0x5c (size before relaxing)
 .eh_frame      0x0000000000115d78       0x28 binaries/read.o
                                         0x40 (size before relaxing)
 .eh_frame      0x0000000000115da0       0x20 binaries/ready.o
                                         0x38 (size before relaxing)
 .eh_frame      0x0000000000115dc0       0x2c binaries/receive.o
                                         0x44 (size before relaxing)
 .eh_frame      0x0000000000115dec       0x24 binaries/recvclr.o
                                         0x3c (size before relaxing)
 .eh_frame      0x0000000000115e10       0x2c binaries/recvtime.o
                                         0x44 (size before relaxing)
 .eh_frame      0x0000000000115e3c       0x48 binaries/resched.o
                                         0x60 (size before relaxing)
 .eh_frame      0x0000000000115e84       0x2c binaries/resume.o
                                         0x44 (size before relaxing)
 .eh_frame      0x0000000000115eb0       0x28 binaries/seek.o
                                         0x40 (size before relaxing)
 .eh_frame      0x0000000000115ed8       0x24 binaries/semcount.o
                                         0x3c (size before relaxing)
 .eh_frame      0x0000000000115efc       0x2c binaries/semcreate.o
                                         0x44 (size before relaxing)
 .eh_frame      0x0000000000115f28       0x2c binaries/semdelete.o
                                         0x44 (size before relaxing)
 .eh_frame      0x0000000000115f54       0x2c binaries/semreset.o
                                         0x44 (size before relaxing)
 .eh_frame      0x0000000000115f80       0x28 binaries/send.o
                                         0x40 (size before relaxing)
 .eh_frame      0x0000000000115fa8       0x28 binaries/signal.o
                                         0x40 (size before relaxing)
 .eh_frame      0x0000000000115fd0       0x2c binaries/signaln.o
                                         0x44 (size before relaxing)
 .eh_frame      0x0000000000115ffc       0x48 binaries/sleep.o
                                         0x60 (size before relaxing)
 .eh_frame      0x0000000000116044       0x2c binaries/stackdepth.o
                                         0x44 (size before relaxing)
 .eh_frame      0x0000000000116070       0x30 binaries/stacktrace.o
                                         0x48 (size before relaxing)
 .eh_frame      0x00000000001160a0       0x28 binaries/suspend.o
                                         0x40 (size before relaxing)
 .eh_frame      0x00000000001160c8       0x20 binaries/teststackdepth.o
                                         0x38 (size before relaxing)
 .eh_frame      0x00000000001160e8       0x28 binaries/unsleep.o
                                         0x40 (size before relaxing)
 .eh_frame      0x0000000000116110       0x20 binaries/userret.o
                                         0x38 (size before relaxing)
 .eh_frame      0x0000000000116130       0x28 binaries/wait.o
                                         0x40 (size before relaxing)
 .eh_frame      0x0000000000116158       0x20 binaries/wakeup.o
                                         0x38 (size before relaxing)
 .eh_frame      0x0000000000116178       0x28 binaries/write.o
                                         0x40 (size before relaxing)
 .eh_frame      0x00000000001161a0       0x20 binaries/xdone.o
                                         0x38 (size before relaxing)
 .eh_frame      0x00000000001161c0       0x24 binaries/yield.o
                                         0x3c (size before relaxing)
 .eh_frame      0x00000000001161e4       0x20 binaries/abs.o
                                         0x38 (size before relaxing)
 .eh_frame      0x0000000000116204       0x28 binaries/atoi.o
                                         0x40 (size before relaxing)
 .eh_frame      0x000000000011622c       0x28 binaries/atol.o
                                         0x40 (size before relaxing)
 .eh_frame      0x0000000000116254       0x20 binaries/bzero.o
                                         0x38 (size before relaxing)
 .eh_frame      0x0000000000116274       0xac binaries/doprnt.o
                                         0xc4 (size before relaxing)
 .eh_frame      0x0000000000116320       0x30 binaries/doscan.o
                                         0x48 (size before relaxing)
 .eh_frame      0x0000000000116350       0x5c binaries/fdoprnt.o
                                         0x74 (size before relaxing)
 .eh_frame      0x00000000001163ac       0x20 binaries/fgetc.o
                                         0x38 (size before relaxing)
 .eh_frame      0x00000000001163cc       0x2c binaries/fgets.o
                                         0x44 (size before relaxing)
 .eh_frame      0x00000000001163f8       0x20 binaries/fprintf.o
                                         0x38 (size before relaxing)
 .eh_frame      0x0000000000116418       0x20 binaries/fputc.o
                                         0x38 (size before relaxing)
 .eh_frame      0x0000000000116438       0x28 binaries/fputs.o
                                         0x40 (size before relaxing)
 .eh_frame      0x0000000000116460       0x64 binaries/fscanf.o
                                         0x7c (size before relaxing)
 .eh_frame      0x00000000001164c4       0x20 binaries/getchar.o
                                         0x38 (size before relaxing)
 .eh_frame      0x00000000001164e4       0x20 binaries/labs.o
                                         0x38 (size before relaxing)
 .eh_frame      0x0000000000116504       0x20 binaries/memchr.o
                                         0x38 (size before relaxing)
 .eh_frame      0x0000000000116524       0x28 binaries/memcmp.o
                                         0x40 (size before relaxing)
 .eh_frame      0x000000000011654c       0x28 binaries/memcpy.o
                                         0x40 (size before relaxing)
 .eh_frame      0x0000000000116574       0x24 binaries/memset.o
                                         0x3c (size before relaxing)
 .eh_frame      0x0000000000116598       0x20 binaries/printf.o
                                         0x38 (size before relaxing)
 .eh_frame      0x00000000001165b8       0x20 binaries/putchar.o
                                         0x38 (size before relaxing)
 .eh_frame      0x00000000001165d8       0xa4 binaries/qsort.o
                                         0xbc (size before relaxing)
 .eh_frame      0x000000000011667c       0x40 binaries/rand.o
                                         0x58 (size before relaxing)
 .eh_frame      0x00000000001166bc       0x48 binaries/sprintf.o
                                         0x60 (size before relaxing)
 .eh_frame      0x0000000000116704       0x60 binaries/sscanf.o
                                         0x78 (size before relaxing)
 .eh_frame      0x0000000000116764       0x24 binaries/strchr.o
                                         0x3c (size before relaxing)
 .eh_frame      0x0000000000116788       0x24 binaries/strcmp.o
                                         0x3c (size before relaxing)
 .eh_frame      0x00000000001167ac       0x20 binaries/strcpy.o
                                         0x38 (size before relaxing)
 .eh_frame      0x00000000001167cc       0x20 binaries/strlen.o
                                         0x38 (size before relaxing)
 .eh_frame      0x00000000001167ec       0x2c binaries/strncat.o
                                         0x44 (size before relaxing)
 .eh_frame      0x0000000000116818       0x24 binaries/strncmp.o
                                         0x3c (size before relaxing)
 .eh_frame      0x000000000011683c       0x2c binaries/strncpy.o
                                         0x44 (size before relaxing)
 .eh_frame      0x0000000000116868       0x24 binaries/strnlen.o
                                         0x3c (size before relaxing)
 .eh_frame      0x000000000011688c       0x24 binaries/strrchr.o
                                         0x3c (size before relaxing)
 .eh_frame      0x00000000001168b0       0x2c binaries/strstr.o
                                         0x44 (size before relaxing)
 .eh_frame      0x00000000001168dc       0x30 binaries/ttycontrol.o
                                         0x48 (size before relaxing)
 .eh_frame      0x000000000011690c       0x2c binaries/ttygetc.o
                                         0x44 (size before relaxing)
 .eh_frame      0x0000000000116938       0x84 binaries/ttyhandle_in.o
                                         0x9c (size before relaxing)
 .eh_frame      0x00000000001169bc       0x30 binaries/ttyhandle_out.o
                                         0x48 (size before relaxing)
 .eh_frame      0x00000000001169ec       0x28 binaries/ttyhandler.o
                                         0x40 (size before relaxing)
 .eh_frame      0x0000000000116a14       0x30 binaries/ttyinit.o
                                         0x48 (size before relaxing)
 .eh_frame      0x0000000000116a44       0x20 binaries/ttykickout.o
                                         0x38 (size before relaxing)
 .eh_frame      0x0000000000116a64       0x2c binaries/ttyputc.o
                                         0x44 (size before relaxing)
 .eh_frame      0x0000000000116a90       0x2c binaries/ttyread.o
                                         0x44 (size before relaxing)
 .eh_frame      0x0000000000116abc       0x2c binaries/ttywrite.o
                                         0x44 (size before relaxing)
 .eh_frame      0x0000000000116ae8       0x4c binaries/mount.o
                                         0x64 (size before relaxing)
 .eh_frame      0x0000000000116b34       0x30 binaries/naminit.o
                                         0x48 (size before relaxing)
 .eh_frame      0x0000000000116b64       0x84 binaries/nammap.o
                                         0x9c (size before relaxing)
 .eh_frame      0x0000000000116be8       0x20 binaries/namopen.o
                                         0x38 (size before relaxing)
 .eh_frame      0x0000000000116c08       0x2c binaries/colon2mac.o
                                         0x44 (size before relaxing)
 .eh_frame      0x0000000000116c34       0x20 binaries/ethcontrol.o
                                         0x38 (size before relaxing)
 .eh_frame      0x0000000000116c54       0x30 binaries/ethhandler.o
                                         0x48 (size before relaxing)
 .eh_frame      0x0000000000116c84       0x98 binaries/ethinit.o
                                         0xb0 (size before relaxing)
 .eh_frame      0x0000000000116d1c       0x54 binaries/ethmcast.o
                                         0x6c (size before relaxing)
 .eh_frame      0x0000000000116d70       0x30 binaries/ethread.o
                                         0x48 (size before relaxing)
 .eh_frame      0x0000000000116da0       0x2c binaries/ethwrite.o
                                         0x44 (size before relaxing)
 .eh_frame      0x0000000000116dcc       0x24 binaries/rdsbufalloc.o
                                         0x3c (size before relaxing)
 .eh_frame      0x0000000000116df0       0x2c binaries/rdsclose.o
                                         0x44 (size before relaxing)
 .eh_frame      0x0000000000116e1c       0x30 binaries/rdscomm.o
                                         0x48 (size before relaxing)
 .eh_frame      0x0000000000116e4c       0x30 binaries/rdscontrol.o
                                         0x48 (size before relaxing)
 .eh_frame      0x0000000000116e7c       0x30 binaries/rdsinit.o
                                         0x48 (size before relaxing)
 .eh_frame      0x0000000000116eac       0x30 binaries/rdsopen.o
                                         0x48 (size before relaxing)
 .eh_frame      0x0000000000116edc       0x20 binaries/rdsprocess.o
                                         0x38 (size before relaxing)
 .eh_frame      0x0000000000116efc       0x30 binaries/rdsread.o
                                         0x48 (size before relaxing)
 .eh_frame      0x0000000000116f2c       0x30 binaries/rdswrite.o
                                         0x48 (size before relaxing)
 .eh_frame      0x0000000000116f5c       0x20 binaries/ramclose.o
                                         0x38 (size before relaxing)
 .eh_frame      0x0000000000116f7c       0x20 binaries/raminit.o
                                         0x38 (size before relaxing)
 .eh_frame      0x0000000000116f9c       0x20 binaries/ramopen.o
                                         0x38 (size before relaxing)
 .eh_frame      0x0000000000116fbc       0x20 binaries/ramread.o
                                         0x38 (size before relaxing)
 .eh_frame      0x0000000000116fdc       0x20 binaries/ramwrite.o
                                         0x38 (size before relaxing)
 .eh_frame      0x0000000000116ffc       0x28 binaries/lfdballoc.o
                                         0x40 (size before relaxing)
 .eh_frame      0x0000000000117024       0x24 binaries/lfdbfree.o
                                         0x3c (size before relaxing)
 .eh_frame      0x0000000000117048       0x24 binaries/lfflush.o
                                         0x3c (size before relaxing)
 .eh_frame      0x000000000011706c       0x20 binaries/lfgetmode.o
                                         0x38 (size before relaxing)
 .eh_frame      0x000000000011708c       0x24 binaries/lfiballoc.o
                                         0x3c (size before relaxing)
 .eh_frame      0x00000000001170b0       0x20 binaries/lfibclear.o
                                         0x38 (size before relaxing)
 .eh_frame      0x00000000001170d0       0x2c binaries/lfibget.o
                                         0x44 (size before relaxing)
 .eh_frame      0x00000000001170fc       0x2c binaries/lfibput.o
                                         0x44 (size before relaxing)
 .eh_frame      0x0000000000117128       0x28 binaries/lflclose.o
                                         0x40 (size before relaxing)
 .eh_frame      0x0000000000117150       0x2c binaries/lflcontrol.o
                                         0x44 (size before relaxing)
 .eh_frame      0x000000000011717c       0x2c binaries/lflgetc.o
                                         0x44 (size before relaxing)
 .eh_frame      0x00000000001171a8       0x2c binaries/lflinit.o
                                         0x44 (size before relaxing)
 .eh_frame      0x00000000001171d4       0x30 binaries/lflputc.o
                                         0x48 (size before relaxing)
 .eh_frame      0x0000000000117204       0x2c binaries/lflread.o
                                         0x44 (size before relaxing)
 .eh_frame      0x0000000000117230       0x2c binaries/lflseek.o
                                         0x44 (size before relaxing)
 .eh_frame      0x000000000011725c       0x2c binaries/lflwrite.o
                                         0x44 (size before relaxing)
 .eh_frame      0x0000000000117288       0x30 binaries/lfsckfmt.o
                                         0x48 (size before relaxing)
 .eh_frame      0x00000000001172b8       0x30 binaries/lfscreate.o
                                         0x48 (size before relaxing)
 .eh_frame      0x00000000001172e8       0x30 binaries/lfsetup.o
                                         0x48 (size before relaxing)
 .eh_frame      0x0000000000117318       0x20 binaries/lfsinit.o
                                         0x38 (size before relaxing)
 .eh_frame      0x0000000000117338       0x30 binaries/lfsopen.o
                                         0x48 (size before relaxing)
 .eh_frame      0x0000000000117368       0x30 binaries/lftruncate.o
                                         0x48 (size before relaxing)
 .eh_frame      0x0000000000117398       0x20 binaries/rflclose.o
                                         0x38 (size before relaxing)
 .eh_frame      0x00000000001173b8       0x20 binaries/rflgetc.o
                                         0x38 (size before relaxing)
 .eh_frame      0x00000000001173d8       0x24 binaries/rflinit.o
                                         0x3c (size before relaxing)
 .eh_frame      0x00000000001173fc       0x20 binaries/rflputc.o
                                         0x38 (size before relaxing)
 .eh_frame      0x000000000011741c       0x30 binaries/rflread.o
                                         0x48 (size before relaxing)
 .eh_frame      0x000000000011744c       0x20 binaries/rflseek.o
                                         0x38 (size before relaxing)
 .eh_frame      0x000000000011746c       0x30 binaries/rflwrite.o
                                         0x48 (size before relaxing)
 .eh_frame      0x000000000011749c       0x30 binaries/rfscomm.o
                                         0x48 (size before relaxing)
 .eh_frame      0x00000000001174cc       0x2c binaries/rfscontrol.o
                                         0x44 (size before relaxing)
 .eh_frame      0x00000000001174f8       0x20 binaries/rfsgetmode.o
                                         0x38 (size before relaxing)
 .eh_frame      0x0000000000117518       0x20 binaries/rfsinit.o
                                         0x38 (size before relaxing)
 .eh_frame      0x0000000000117538       0x20 binaries/rfsndmsg.o
                                         0x38 (size before relaxing)
 .eh_frame      0x0000000000117558       0x2c binaries/rfsopen.o
                                         0x44 (size before relaxing)
 .eh_frame      0x0000000000117584       0xec binaries/arp.o
                                        0x104 (size before relaxing)
 .eh_frame      0x0000000000117670       0xd0 binaries/dhcp.o
                                         0xe8 (size before relaxing)
 .eh_frame      0x0000000000117740       0x2c binaries/dot2ip.o
                                         0x44 (size before relaxing)
 .eh_frame      0x000000000011776c       0x60 binaries/hexdump.o
                                         0x78 (size before relaxing)
 .eh_frame      0x00000000001177cc      0x198 binaries/icmp.o
                                        0x1b0 (size before relaxing)
 .eh_frame      0x0000000000117964      0x148 binaries/ip.o
                                        0x160 (size before relaxing)
 .eh_frame      0x0000000000117aac       0x7c binaries/net.o
                                         0x94 (size before relaxing)
 .eh_frame      0x0000000000117b28       0x24 binaries/netstart.o
                                         0x3c (size before relaxing)
 .eh_frame      0x0000000000117b4c       0x50 binaries/pdump.o
                                         0x68 (size before relaxing)
 .eh_frame      0x0000000000117b9c       0x80 binaries/tftp.o
                                         0x98 (size before relaxing)
 .eh_frame      0x0000000000117c1c      0x1b0 binaries/udp.o
                                        0x1c8 (size before relaxing)
 .eh_frame      0x0000000000117dcc       0x30 binaries/addargs.o
                                         0x48 (size before relaxing)
 .eh_frame      0x0000000000117dfc       0x30 binaries/lexan.o
                                         0x48 (size before relaxing)
 .eh_frame      0x0000000000117e2c       0x30 binaries/shell.o
                                         0x48 (size before relaxing)
 .eh_frame      0x0000000000117e5c       0x2c binaries/xsh_argecho.o
                                         0x44 (size before relaxing)
 .eh_frame      0x0000000000117e88       0x30 binaries/xsh_arp.o
                                         0x48 (size before relaxing)
 .eh_frame      0x0000000000117eb8       0x30 binaries/xsh_cat.o
                                         0x48 (size before relaxing)
 .eh_frame      0x0000000000117ee8       0x20 binaries/xsh_clear.o
                                         0x38 (size before relaxing)
 .eh_frame      0x0000000000117f08       0x24 binaries/xsh_date.o
                                         0x3c (size before relaxing)
 .eh_frame      0x0000000000117f2c       0x28 binaries/xsh_devdump.o
                                         0x40 (size before relaxing)
 .eh_frame      0x0000000000117f54       0x2c binaries/xsh_echo.o
                                         0x44 (size before relaxing)
 .eh_frame      0x0000000000117f80       0x20 binaries/xsh_exit.o
                                         0x38 (size before relaxing)
 .eh_frame      0x0000000000117fa0       0x30 binaries/xsh_help.o
                                         0x48 (size before relaxing)
 .eh_frame      0x0000000000117fd0       0x2c binaries/xsh_ipaddr.o
                                         0x44 (size before relaxing)
 .eh_frame      0x0000000000117ffc       0x2c binaries/xsh_kill.o
                                         0x44 (size before relaxing)
 .eh_frame      0x0000000000118028       0x58 binaries/xsh_memdump.o
                                         0x70 (size before relaxing)
 .eh_frame      0x0000000000118080       0x30 binaries/xsh_memstat.o
                                         0x48 (size before relaxing)
 .eh_frame      0x00000000001180b0       0x30 binaries/xsh_ping.o
                                         0x48 (size before relaxing)
 .eh_frame      0x00000000001180e0       0x30 binaries/xsh_ps.o
                                         0x48 (size before relaxing)
 .eh_frame      0x0000000000118110       0x30 binaries/xsh_sleep.o
                                         0x48 (size before relaxing)
 .eh_frame      0x0000000000118140       0x2c binaries/xsh_udpdump.o
                                         0x44 (size before relaxing)
 .eh_frame      0x000000000011816c       0x30 binaries/xsh_udpecho.o
                                         0x48 (size before relaxing)
 .eh_frame      0x000000000011819c       0x30 binaries/xsh_udpeserver.o
                                         0x48 (size before relaxing)
 .eh_frame      0x00000000001181cc       0x30 binaries/xsh_uptime.o
                                         0x48 (size before relaxing)
 .eh_frame      0x00000000001181fc       0x14 binaries/host2netlc.o
                                         0x2c (size before relaxing)

.iplt           0x0000000000118210        0x0
 .iplt          0x0000000000118210        0x0 binaries/start.o

.rel.dyn        0x0000000000118210        0x0
 .rel.iplt      0x0000000000118210        0x0 binaries/start.o
 .rel.text      0x0000000000118210        0x0 binaries/start.o
 .rel.data      0x0000000000118210        0x0 binaries/start.o
 .rel.rodata    0x0000000000118210        0x0 binaries/start.o

.data           0x0000000000118220      0xde0
                0x0000000000118220                data = ABSOLUTE (.)
 *(.data .data.*)
 .data          0x0000000000118220      0x85a binaries/start.o
                0x0000000000118220                gdt
                0x0000000000118270                idt
                0x0000000000118a76                cpudelay
 .data          0x0000000000118a7a        0x0 binaries/app1.o
 .data          0x0000000000118a7a        0x0 binaries/app2.o
 .data          0x0000000000118a7a        0x0 binaries/app3.o
 *fill*         0x0000000000118a7a        0x6 
 .data          0x0000000000118a80       0x88 binaries/ascdate.o
                0x0000000000118a80                Date
 .data          0x0000000000118b08        0x0 binaries/bufinit.o
 .data          0x0000000000118b08        0x0 binaries/chprio.o
 .data          0x0000000000118b08        0x4 binaries/clkhandler.o
 .data          0x0000000000118b0c        0x0 binaries/clkinit.o
 .data          0x0000000000118b0c        0x0 binaries/close.o
 *fill*         0x0000000000118b0c       0x14 
 .data          0x0000000000118b20      0x30c binaries/conf.o
                0x0000000000118b20                devtab
 .data          0x0000000000118e2c        0x0 binaries/control.o
 .data          0x0000000000118e2c        0x4 binaries/create.o
 .data          0x0000000000118e30        0x0 binaries/early_imr.o
 *fill*         0x0000000000118e30       0x10 
 .data          0x0000000000118e40       0x40 binaries/evec.o
                0x0000000000118e40                inames
 .data          0x0000000000118e80        0x0 binaries/factorial.o
 .data          0x0000000000118e80        0x0 binaries/freebuf.o
 .data          0x0000000000118e80        0x0 binaries/freemem.o
 .data          0x0000000000118e80        0x0 binaries/getbuf.o
 .data          0x0000000000118e80        0x0 binaries/getc.o
 .data          0x0000000000118e80        0x0 binaries/getdev.o
 .data          0x0000000000118e80        0x0 binaries/getitem.o
 .data          0x0000000000118e80        0x0 binaries/getmem.o
 .data          0x0000000000118e80        0x0 binaries/getpid.o
 .data          0x0000000000118e80        0x0 binaries/getpname.o
 .data          0x0000000000118e80        0x0 binaries/getppid.o
 .data          0x0000000000118e80        0x0 binaries/getprio.o
 .data          0x0000000000118e80        0x0 binaries/getstk.o
 .data          0x0000000000118e80        0x0 binaries/gettime.o
 .data          0x0000000000118e80        0x0 binaries/getutime.o
 .data          0x0000000000118e80        0x0 binaries/host2netlb.o
 .data          0x0000000000118e80        0x0 binaries/init.o
 .data          0x0000000000118e80        0x0 binaries/initialize.o
 .data          0x0000000000118e80        0x0 binaries/insert.o
 .data          0x0000000000118e80        0x0 binaries/insertd.o
 .data          0x0000000000118e80        0x0 binaries/ioerr.o
 .data          0x0000000000118e80        0x0 binaries/ionull.o
 .data          0x0000000000118e80        0x0 binaries/kill.o
 .data          0x0000000000118e80        0x0 binaries/kprintf.o
 .data          0x0000000000118e80        0x0 binaries/main.o
 .data          0x0000000000118e80        0x0 binaries/mark.o
 .data          0x0000000000118e80       0x48 binaries/meminit.o
                0x0000000000118e80                gdt_copy
                0x0000000000118ec0                bootinfo
                0x0000000000118ec4                bootsign
 .data          0x0000000000118ec8        0x0 binaries/mkbufpool.o
 .data          0x0000000000118ec8        0x0 binaries/myappA.o
 .data          0x0000000000118ec8        0x0 binaries/myfuncA.o
 .data          0x0000000000118ec8        0x0 binaries/myhacker.o
 .data          0x0000000000118ec8        0x0 binaries/myvictim.o
 .data          0x0000000000118ec8        0x0 binaries/mywelcomemsg.o
 .data          0x0000000000118ec8        0x2 binaries/newqueue.o
 .data          0x0000000000118eca        0x0 binaries/open.o
 .data          0x0000000000118eca        0x0 binaries/panic.o
 .data          0x0000000000118eca        0x0 binaries/pci.o
 .data          0x0000000000118eca        0x0 binaries/platinit.o
 .data          0x0000000000118eca        0x0 binaries/printsegaddr.o
 .data          0x0000000000118eca        0x0 binaries/ptclear.o
 .data          0x0000000000118eca        0x0 binaries/ptcount.o
 .data          0x0000000000118eca        0x0 binaries/ptcreate.o
 .data          0x0000000000118eca        0x0 binaries/ptdelete.o
 .data          0x0000000000118eca        0x0 binaries/ptinit.o
 .data          0x0000000000118eca        0x0 binaries/ptrecv.o
 .data          0x0000000000118eca        0x0 binaries/ptreset.o
 .data          0x0000000000118eca        0x0 binaries/ptsend.o
 .data          0x0000000000118eca        0x0 binaries/putc.o
 .data          0x0000000000118eca        0x0 binaries/quark_irq.o
 .data          0x0000000000118eca        0x0 binaries/quark_pdat.o
 .data          0x0000000000118eca        0x0 binaries/queue.o
 .data          0x0000000000118eca        0x0 binaries/read.o
 .data          0x0000000000118eca        0x0 binaries/ready.o
 .data          0x0000000000118eca        0x0 binaries/receive.o
 .data          0x0000000000118eca        0x0 binaries/recvclr.o
 .data          0x0000000000118eca        0x0 binaries/recvtime.o
 .data          0x0000000000118eca        0x0 binaries/resched.o
 .data          0x0000000000118eca        0x0 binaries/resume.o
 .data          0x0000000000118eca        0x0 binaries/seek.o
 .data          0x0000000000118eca        0x0 binaries/semcount.o
 .data          0x0000000000118eca        0x0 binaries/semcreate.o
 .data          0x0000000000118eca        0x0 binaries/semdelete.o
 .data          0x0000000000118eca        0x0 binaries/semreset.o
 .data          0x0000000000118eca        0x0 binaries/send.o
 .data          0x0000000000118eca        0x0 binaries/signal.o
 .data          0x0000000000118eca        0x0 binaries/signaln.o
 .data          0x0000000000118eca        0x0 binaries/sleep.o
 .data          0x0000000000118eca        0x0 binaries/stackdepth.o
 .data          0x0000000000118eca        0x0 binaries/stacktrace.o
 .data          0x0000000000118eca        0x0 binaries/suspend.o
 .data          0x0000000000118eca        0x0 binaries/teststackdepth.o
 .data          0x0000000000118eca        0x0 binaries/unsleep.o
 .data          0x0000000000118eca        0x0 binaries/userret.o
 .data          0x0000000000118eca        0x0 binaries/wait.o
 .data          0x0000000000118eca        0x0 binaries/wakeup.o
 .data          0x0000000000118eca        0x0 binaries/write.o
 .data          0x0000000000118eca        0x0 binaries/xdone.o
 .data          0x0000000000118eca        0x0 binaries/yield.o
 .data          0x0000000000118eca        0x0 binaries/abs.o
 .data          0x0000000000118eca        0x0 binaries/atoi.o
 .data          0x0000000000118eca        0x0 binaries/atol.o
 .data          0x0000000000118eca        0x0 binaries/bzero.o
 .data          0x0000000000118eca        0x0 binaries/ctype_.o
 .data          0x0000000000118eca        0x0 binaries/doprnt.o
 *fill*         0x0000000000118eca       0x16 
 .data          0x0000000000118ee0       0x80 binaries/doscan.o
                0x0000000000118ee0                _sctab
 .data          0x0000000000118f60        0x0 binaries/fdoprnt.o
 .data          0x0000000000118f60        0x0 binaries/fgetc.o
 .data          0x0000000000118f60        0x0 binaries/fgets.o
 .data          0x0000000000118f60        0x0 binaries/fprintf.o
 .data          0x0000000000118f60        0x0 binaries/fputc.o
 .data          0x0000000000118f60        0x0 binaries/fputs.o
 .data          0x0000000000118f60        0x0 binaries/fscanf.o
 .data          0x0000000000118f60        0x0 binaries/getchar.o
 .data          0x0000000000118f60        0x0 binaries/labs.o
 .data          0x0000000000118f60        0x0 binaries/memchr.o
 .data          0x0000000000118f60        0x0 binaries/memcmp.o
 .data          0x0000000000118f60        0x0 binaries/memcpy.o
 .data          0x0000000000118f60        0x0 binaries/memset.o
 .data          0x0000000000118f60        0x0 binaries/printf.o
 .data          0x0000000000118f60        0x0 binaries/putchar.o
 .data          0x0000000000118f60        0x0 binaries/qsort.o
 .data          0x0000000000118f60        0x4 binaries/rand.o
 .data          0x0000000000118f64        0x0 binaries/sprintf.o
 .data          0x0000000000118f64        0x0 binaries/sscanf.o
 .data          0x0000000000118f64        0x0 binaries/strchr.o
 .data          0x0000000000118f64        0x0 binaries/strcmp.o
 .data          0x0000000000118f64        0x0 binaries/strcpy.o
 .data          0x0000000000118f64        0x0 binaries/strlen.o
 .data          0x0000000000118f64        0x0 binaries/strncat.o
 .data          0x0000000000118f64        0x0 binaries/strncmp.o
 .data          0x0000000000118f64        0x0 binaries/strncpy.o
 .data          0x0000000000118f64        0x0 binaries/strnlen.o
 .data          0x0000000000118f64        0x0 binaries/strrchr.o
 .data          0x0000000000118f64        0x0 binaries/strstr.o
 .data          0x0000000000118f64        0x0 binaries/ttycontrol.o
 .data          0x0000000000118f64        0x0 binaries/ttygetc.o
 .data          0x0000000000118f64        0x0 binaries/ttyhandle_in.o
 .data          0x0000000000118f64        0x0 binaries/ttyhandle_out.o
 .data          0x0000000000118f64        0x0 binaries/ttyhandler.o
 .data          0x0000000000118f64        0x0 binaries/ttyinit.o
 .data          0x0000000000118f64        0x0 binaries/ttykickout.o
 .data          0x0000000000118f64        0x0 binaries/ttyputc.o
 .data          0x0000000000118f64        0x0 binaries/ttyread.o
 .data          0x0000000000118f64        0x0 binaries/ttywrite.o
 .data          0x0000000000118f64        0x0 binaries/mount.o
 .data          0x0000000000118f64        0x0 binaries/naminit.o
 .data          0x0000000000118f64        0x0 binaries/nammap.o
 .data          0x0000000000118f64        0x0 binaries/namopen.o
 .data          0x0000000000118f64        0x0 binaries/colon2mac.o
 .data          0x0000000000118f64        0x0 binaries/ethcontrol.o
 .data          0x0000000000118f64        0x0 binaries/ethhandler.o
 .data          0x0000000000118f64        0x0 binaries/ethinit.o
 .data          0x0000000000118f64        0x0 binaries/ethmcast.o
 .data          0x0000000000118f64        0x0 binaries/ethread.o
 .data          0x0000000000118f64        0x0 binaries/ethwrite.o
 .data          0x0000000000118f64        0x0 binaries/rdsbufalloc.o
 .data          0x0000000000118f64        0x0 binaries/rdsclose.o
 .data          0x0000000000118f64        0x0 binaries/rdscomm.o
 .data          0x0000000000118f64        0x0 binaries/rdscontrol.o
 .data          0x0000000000118f64        0x0 binaries/rdsinit.o
 .data          0x0000000000118f64        0x0 binaries/rdsopen.o
 .data          0x0000000000118f64        0x0 binaries/rdsprocess.o
 .data          0x0000000000118f64        0x0 binaries/rdsread.o
 .data          0x0000000000118f64        0x0 binaries/rdswrite.o
 .data          0x0000000000118f64        0x0 binaries/ramclose.o
 .data          0x0000000000118f64        0x0 binaries/raminit.o
 .data          0x0000000000118f64        0x0 binaries/ramopen.o
 .data          0x0000000000118f64        0x0 binaries/ramread.o
 .data          0x0000000000118f64        0x0 binaries/ramwrite.o
 .data          0x0000000000118f64        0x0 binaries/lfdballoc.o
 .data          0x0000000000118f64        0x0 binaries/lfdbfree.o
 .data          0x0000000000118f64        0x0 binaries/lfflush.o
 .data          0x0000000000118f64        0x0 binaries/lfgetmode.o
 .data          0x0000000000118f64        0x0 binaries/lfiballoc.o
 .data          0x0000000000118f64        0x0 binaries/lfibclear.o
 .data          0x0000000000118f64        0x0 binaries/lfibget.o
 .data          0x0000000000118f64        0x0 binaries/lfibput.o
 .data          0x0000000000118f64        0x0 binaries/lflclose.o
 .data          0x0000000000118f64        0x0 binaries/lflcontrol.o
 .data          0x0000000000118f64        0x0 binaries/lflgetc.o
 .data          0x0000000000118f64        0x0 binaries/lflinit.o
 .data          0x0000000000118f64        0x0 binaries/lflputc.o
 .data          0x0000000000118f64        0x0 binaries/lflread.o
 .data          0x0000000000118f64        0x0 binaries/lflseek.o
 .data          0x0000000000118f64        0x0 binaries/lflwrite.o
 .data          0x0000000000118f64        0x0 binaries/lfsckfmt.o
 .data          0x0000000000118f64        0x0 binaries/lfscreate.o
 .data          0x0000000000118f64        0x0 binaries/lfsetup.o
 .data          0x0000000000118f64        0x0 binaries/lfsinit.o
 .data          0x0000000000118f64        0x0 binaries/lfsopen.o
 .data          0x0000000000118f64        0x0 binaries/lftruncate.o
 .data          0x0000000000118f64        0x0 binaries/rflclose.o
 .data          0x0000000000118f64        0x0 binaries/rflgetc.o
 .data          0x0000000000118f64        0x0 binaries/rflinit.o
 .data          0x0000000000118f64        0x0 binaries/rflputc.o
 .data          0x0000000000118f64        0x0 binaries/rflread.o
 .data          0x0000000000118f64        0x0 binaries/rflseek.o
 .data          0x0000000000118f64        0x0 binaries/rflwrite.o
 .data          0x0000000000118f64        0x0 binaries/rfscomm.o
 .data          0x0000000000118f64        0x0 binaries/rfscontrol.o
 .data          0x0000000000118f64        0x0 binaries/rfsgetmode.o
 .data          0x0000000000118f64        0x0 binaries/rfsinit.o
 .data          0x0000000000118f64        0x0 binaries/rfsndmsg.o
 .data          0x0000000000118f64        0x0 binaries/rfsopen.o
 .data          0x0000000000118f64        0x0 binaries/arp.o
 .data          0x0000000000118f64        0x0 binaries/dhcp.o
 .data          0x0000000000118f64        0x0 binaries/dot2ip.o
 .data          0x0000000000118f64        0x0 binaries/hexdump.o
 .data          0x0000000000118f64        0x4 binaries/icmp.o
 .data          0x0000000000118f68        0x0 binaries/ip.o
 .data          0x0000000000118f68        0x0 binaries/net.o
 .data          0x0000000000118f68        0x0 binaries/netstart.o
 .data          0x0000000000118f68        0x0 binaries/pdump.o
 .data          0x0000000000118f68        0x0 binaries/tftp.o
 .data          0x0000000000118f68        0x4 binaries/udp.o
 .data          0x0000000000118f6c        0x0 binaries/addargs.o
 .data          0x0000000000118f6c        0x0 binaries/lexan.o
 .data          0x0000000000118f6c        0x4 binaries/shell.o
                0x0000000000118f6c                ncmd
 .data          0x0000000000118f70        0x0 binaries/xsh_argecho.o
 .data          0x0000000000118f70        0x0 binaries/xsh_arp.o
 .data          0x0000000000118f70        0x0 binaries/xsh_cat.o
 .data          0x0000000000118f70        0x0 binaries/xsh_clear.o
 .data          0x0000000000118f70        0x0 binaries/xsh_date.o
 .data          0x0000000000118f70        0x0 binaries/xsh_devdump.o
 .data          0x0000000000118f70        0x0 binaries/xsh_echo.o
 .data          0x0000000000118f70        0x0 binaries/xsh_exit.o
 .data          0x0000000000118f70        0x0 binaries/xsh_help.o
 .data          0x0000000000118f70        0x0 binaries/xsh_ipaddr.o
 .data          0x0000000000118f70        0x0 binaries/xsh_kill.o
 .data          0x0000000000118f70        0x0 binaries/xsh_memdump.o
 .data          0x0000000000118f70        0x0 binaries/xsh_memstat.o
 .data          0x0000000000118f70        0x0 binaries/xsh_ping.o
 .data          0x0000000000118f70        0x0 binaries/xsh_ps.o
 .data          0x0000000000118f70        0x0 binaries/xsh_sleep.o
 .data          0x0000000000118f70        0x0 binaries/xsh_udpdump.o
 .data          0x0000000000118f70        0x0 binaries/xsh_udpecho.o
 .data          0x0000000000118f70        0x0 binaries/xsh_udpeserver.o
 .data          0x0000000000118f70        0x0 binaries/xsh_uptime.o
 .data          0x0000000000118f70        0x0 binaries/clkdisp.o
 .data          0x0000000000118f70        0x0 binaries/ctxsw.o
 .data          0x0000000000118f70        0x0 binaries/host2netla.o
 .data          0x0000000000118f70        0x0 binaries/host2netlc.o
 .data          0x0000000000118f70        0x0 binaries/intr.o
 .data          0x0000000000118f70        0x0 binaries/ttydispatch.o
 .data          0x0000000000118f70        0x0 binaries/ethdispatch.o
                0x0000000000118f70                edata = ABSOLUTE (.)
                0x0000000000119000                . = ALIGN (0x1000)
 *fill*         0x0000000000118f70       0x90 

.igot.plt       0x0000000000119000        0x0
 .igot.plt      0x0000000000119000        0x0 binaries/start.o

.bss            0x0000000000119000    0x20000
                0x0000000000119000                bss = ABSOLUTE (.)
 *(.bss .bss.*)
 .bss           0x0000000000119000        0x0 binaries/start.o
 .bss           0x0000000000119000        0x0 binaries/app1.o
 .bss           0x0000000000119000        0x0 binaries/app2.o
 .bss           0x0000000000119000        0x0 binaries/app3.o
 .bss           0x0000000000119000        0x0 binaries/ascdate.o
 .bss           0x0000000000119000        0x0 binaries/bufinit.o
 .bss           0x0000000000119000        0x0 binaries/chprio.o
 .bss           0x0000000000119000        0x0 binaries/clkhandler.o
 .bss           0x0000000000119000        0x4 binaries/clkinit.o
                0x0000000000119000                ctr1000
 .bss           0x0000000000119004        0x0 binaries/close.o
 .bss           0x0000000000119004        0x0 binaries/conf.o
 .bss           0x0000000000119004        0x0 binaries/control.o
 .bss           0x0000000000119004        0x0 binaries/create.o
 .bss           0x0000000000119004        0x0 binaries/early_imr.o
 .bss           0x0000000000119004        0x0 binaries/evec.o
 .bss           0x0000000000119004        0x0 binaries/factorial.o
 .bss           0x0000000000119004        0x0 binaries/freebuf.o
 .bss           0x0000000000119004        0x0 binaries/freemem.o
 .bss           0x0000000000119004        0x0 binaries/getbuf.o
 .bss           0x0000000000119004        0x0 binaries/getc.o
 .bss           0x0000000000119004        0x0 binaries/getdev.o
 .bss           0x0000000000119004        0x0 binaries/getitem.o
 .bss           0x0000000000119004        0x0 binaries/getmem.o
 .bss           0x0000000000119004        0x0 binaries/getpid.o
 .bss           0x0000000000119004        0x0 binaries/getpname.o
 .bss           0x0000000000119004        0x0 binaries/getppid.o
 .bss           0x0000000000119004        0x0 binaries/getprio.o
 .bss           0x0000000000119004        0x0 binaries/getstk.o
 .bss           0x0000000000119004        0x0 binaries/gettime.o
 .bss           0x0000000000119004        0x0 binaries/getutime.o
 .bss           0x0000000000119004        0x0 binaries/host2netlb.o
 .bss           0x0000000000119004        0x0 binaries/init.o
 .bss           0x0000000000119004        0x0 binaries/initialize.o
 .bss           0x0000000000119004        0x0 binaries/insert.o
 .bss           0x0000000000119004        0x0 binaries/insertd.o
 .bss           0x0000000000119004        0x0 binaries/ioerr.o
 .bss           0x0000000000119004        0x0 binaries/ionull.o
 .bss           0x0000000000119004        0x0 binaries/kill.o
 .bss           0x0000000000119004        0x0 binaries/kprintf.o
 .bss           0x0000000000119004        0x4 binaries/main.o
                0x0000000000119004                victimglobal
 .bss           0x0000000000119008        0x0 binaries/mark.o
 .bss           0x0000000000119008        0x0 binaries/meminit.o
 .bss           0x0000000000119008        0x0 binaries/mkbufpool.o
 .bss           0x0000000000119008        0x0 binaries/myappA.o
 .bss           0x0000000000119008        0x0 binaries/myfuncA.o
 .bss           0x0000000000119008        0x0 binaries/myhacker.o
 .bss           0x0000000000119008        0x0 binaries/myvictim.o
 .bss           0x0000000000119008        0x0 binaries/mywelcomemsg.o
 .bss           0x0000000000119008        0x0 binaries/newqueue.o
 .bss           0x0000000000119008        0x0 binaries/open.o
 .bss           0x0000000000119008        0x0 binaries/panic.o
 .bss           0x0000000000119008        0x0 binaries/pci.o
 .bss           0x0000000000119008        0x0 binaries/platinit.o
 .bss           0x0000000000119008        0x0 binaries/printsegaddr.o
 .bss           0x0000000000119008        0x0 binaries/ptclear.o
 .bss           0x0000000000119008        0x0 binaries/ptcount.o
 .bss           0x0000000000119008        0x0 binaries/ptcreate.o
 .bss           0x0000000000119008        0x0 binaries/ptdelete.o
 .bss           0x0000000000119008        0x0 binaries/ptinit.o
 .bss           0x0000000000119008        0x0 binaries/ptrecv.o
 .bss           0x0000000000119008        0x0 binaries/ptreset.o
 .bss           0x0000000000119008        0x0 binaries/ptsend.o
 .bss           0x0000000000119008        0x0 binaries/putc.o
 .bss           0x0000000000119008        0x0 binaries/quark_irq.o
 .bss           0x0000000000119008        0x0 binaries/quark_pdat.o
 .bss           0x0000000000119008        0x0 binaries/queue.o
 .bss           0x0000000000119008        0x0 binaries/read.o
 .bss           0x0000000000119008        0x0 binaries/ready.o
 .bss           0x0000000000119008        0x0 binaries/receive.o
 .bss           0x0000000000119008        0x0 binaries/recvclr.o
 .bss           0x0000000000119008        0x0 binaries/recvtime.o
 .bss           0x0000000000119008        0x0 binaries/resched.o
 .bss           0x0000000000119008        0x0 binaries/resume.o
 .bss           0x0000000000119008        0x0 binaries/seek.o
 .bss           0x0000000000119008        0x0 binaries/semcount.o
 .bss           0x0000000000119008        0x4 binaries/semcreate.o
 .bss           0x000000000011900c        0x0 binaries/semdelete.o
 .bss           0x000000000011900c        0x0 binaries/semreset.o
 .bss           0x000000000011900c        0x0 binaries/send.o
 .bss           0x000000000011900c        0x0 binaries/signal.o
 .bss           0x000000000011900c        0x0 binaries/signaln.o
 .bss           0x000000000011900c        0x0 binaries/sleep.o
 .bss           0x000000000011900c        0x0 binaries/stackdepth.o
 .bss           0x000000000011900c        0x8 binaries/stacktrace.o
 .bss           0x0000000000119014        0x0 binaries/suspend.o
 .bss           0x0000000000119014        0x0 binaries/teststackdepth.o
 .bss           0x0000000000119014        0x0 binaries/unsleep.o
 .bss           0x0000000000119014        0x0 binaries/userret.o
 .bss           0x0000000000119014        0x0 binaries/wait.o
 .bss           0x0000000000119014        0x0 binaries/wakeup.o
 .bss           0x0000000000119014        0x0 binaries/write.o
 .bss           0x0000000000119014        0x0 binaries/xdone.o
 .bss           0x0000000000119014        0x0 binaries/yield.o
 .bss           0x0000000000119014        0x0 binaries/abs.o
 .bss           0x0000000000119014        0x0 binaries/atoi.o
 .bss           0x0000000000119014        0x0 binaries/atol.o
 .bss           0x0000000000119014        0x0 binaries/bzero.o
 .bss           0x0000000000119014        0x0 binaries/ctype_.o
 .bss           0x0000000000119014        0x0 binaries/doprnt.o
 .bss           0x0000000000119014        0x0 binaries/doscan.o
 .bss           0x0000000000119014        0x0 binaries/fdoprnt.o
 .bss           0x0000000000119014        0x0 binaries/fgetc.o
 .bss           0x0000000000119014        0x0 binaries/fgets.o
 .bss           0x0000000000119014        0x0 binaries/fprintf.o
 .bss           0x0000000000119014        0x0 binaries/fputc.o
 .bss           0x0000000000119014        0x0 binaries/fputs.o
 .bss           0x0000000000119014        0x0 binaries/fscanf.o
 .bss           0x0000000000119014        0x0 binaries/getchar.o
 .bss           0x0000000000119014        0x0 binaries/labs.o
 .bss           0x0000000000119014        0x0 binaries/memchr.o
 .bss           0x0000000000119014        0x0 binaries/memcmp.o
 .bss           0x0000000000119014        0x0 binaries/memcpy.o
 .bss           0x0000000000119014        0x0 binaries/memset.o
 .bss           0x0000000000119014        0x0 binaries/printf.o
 .bss           0x0000000000119014        0x0 binaries/putchar.o
 .bss           0x0000000000119014        0x8 binaries/qsort.o
 .bss           0x000000000011901c        0x0 binaries/rand.o
 .bss           0x000000000011901c        0x0 binaries/sprintf.o
 .bss           0x000000000011901c        0x0 binaries/sscanf.o
 .bss           0x000000000011901c        0x0 binaries/strchr.o
 .bss           0x000000000011901c        0x0 binaries/strcmp.o
 .bss           0x000000000011901c        0x0 binaries/strcpy.o
 .bss           0x000000000011901c        0x0 binaries/strlen.o
 .bss           0x000000000011901c        0x0 binaries/strncat.o
 .bss           0x000000000011901c        0x0 binaries/strncmp.o
 .bss           0x000000000011901c        0x0 binaries/strncpy.o
 .bss           0x000000000011901c        0x0 binaries/strnlen.o
 .bss           0x000000000011901c        0x0 binaries/strrchr.o
 .bss           0x000000000011901c        0x0 binaries/strstr.o
 .bss           0x000000000011901c        0x0 binaries/ttycontrol.o
 .bss           0x000000000011901c        0x0 binaries/ttygetc.o
 .bss           0x000000000011901c        0x0 binaries/ttyhandle_in.o
 .bss           0x000000000011901c        0x0 binaries/ttyhandle_out.o
 .bss           0x000000000011901c        0x0 binaries/ttyhandler.o
 .bss           0x000000000011901c        0x0 binaries/ttyinit.o
 .bss           0x000000000011901c        0x0 binaries/ttykickout.o
 .bss           0x000000000011901c        0x0 binaries/ttyputc.o
 .bss           0x000000000011901c        0x0 binaries/ttyread.o
 .bss           0x000000000011901c        0x0 binaries/ttywrite.o
 .bss           0x000000000011901c        0x0 binaries/mount.o
 .bss           0x000000000011901c        0x0 binaries/naminit.o
 .bss           0x000000000011901c        0x0 binaries/nammap.o
 .bss           0x000000000011901c        0x0 binaries/namopen.o
 .bss           0x000000000011901c        0x0 binaries/colon2mac.o
 .bss           0x000000000011901c        0x0 binaries/ethcontrol.o
 .bss           0x000000000011901c        0x0 binaries/ethhandler.o
 .bss           0x000000000011901c        0x0 binaries/ethinit.o
 .bss           0x000000000011901c        0x0 binaries/ethmcast.o
 .bss           0x000000000011901c        0x0 binaries/ethread.o
 .bss           0x000000000011901c        0x0 binaries/ethwrite.o
 .bss           0x000000000011901c        0x0 binaries/rdsbufalloc.o
 .bss           0x000000000011901c        0x0 binaries/rdsclose.o
 .bss           0x000000000011901c        0x0 binaries/rdscomm.o
 .bss           0x000000000011901c        0x0 binaries/rdscontrol.o
 .bss           0x000000000011901c        0x0 binaries/rdsinit.o
 .bss           0x000000000011901c        0x0 binaries/rdsopen.o
 .bss           0x000000000011901c        0x0 binaries/rdsprocess.o
 .bss           0x000000000011901c        0x0 binaries/rdsread.o
 .bss           0x000000000011901c        0x0 binaries/rdswrite.o
 .bss           0x000000000011901c        0x0 binaries/ramclose.o
 .bss           0x000000000011901c        0x0 binaries/raminit.o
 .bss           0x000000000011901c        0x0 binaries/ramopen.o
 .bss           0x000000000011901c        0x0 binaries/ramread.o
 .bss           0x000000000011901c        0x0 binaries/ramwrite.o
 .bss           0x000000000011901c        0x0 binaries/lfdballoc.o
 .bss           0x000000000011901c        0x0 binaries/lfdbfree.o
 .bss           0x000000000011901c        0x0 binaries/lfflush.o
 .bss           0x000000000011901c        0x0 binaries/lfgetmode.o
 .bss           0x000000000011901c        0x0 binaries/lfiballoc.o
 .bss           0x000000000011901c        0x0 binaries/lfibclear.o
 .bss           0x000000000011901c        0x0 binaries/lfibget.o
 .bss           0x000000000011901c        0x0 binaries/lfibput.o
 .bss           0x000000000011901c        0x0 binaries/lflclose.o
 .bss           0x000000000011901c        0x0 binaries/lflcontrol.o
 .bss           0x000000000011901c        0x0 binaries/lflgetc.o
 .bss           0x000000000011901c        0x0 binaries/lflinit.o
 .bss           0x000000000011901c        0x0 binaries/lflputc.o
 .bss           0x000000000011901c        0x0 binaries/lflread.o
 .bss           0x000000000011901c        0x0 binaries/lflseek.o
 .bss           0x000000000011901c        0x0 binaries/lflwrite.o
 .bss           0x000000000011901c        0x0 binaries/lfsckfmt.o
 .bss           0x000000000011901c        0x0 binaries/lfscreate.o
 .bss           0x000000000011901c        0x0 binaries/lfsetup.o
 .bss           0x000000000011901c        0x0 binaries/lfsinit.o
 .bss           0x000000000011901c        0x0 binaries/lfsopen.o
 .bss           0x000000000011901c        0x0 binaries/lftruncate.o
 .bss           0x000000000011901c        0x0 binaries/rflclose.o
 .bss           0x000000000011901c        0x0 binaries/rflgetc.o
 .bss           0x000000000011901c        0x0 binaries/rflinit.o
 .bss           0x000000000011901c        0x0 binaries/rflputc.o
 .bss           0x000000000011901c        0x0 binaries/rflread.o
 .bss           0x000000000011901c        0x0 binaries/rflseek.o
 .bss           0x000000000011901c        0x0 binaries/rflwrite.o
 .bss           0x000000000011901c        0x0 binaries/rfscomm.o
 .bss           0x000000000011901c        0x0 binaries/rfscontrol.o
 .bss           0x000000000011901c        0x0 binaries/rfsgetmode.o
 .bss           0x000000000011901c        0x0 binaries/rfsinit.o
 .bss           0x000000000011901c        0x0 binaries/rfsndmsg.o
 .bss           0x000000000011901c        0x0 binaries/rfsopen.o
 .bss           0x000000000011901c        0x0 binaries/arp.o
 .bss           0x000000000011901c        0x0 binaries/dhcp.o
 .bss           0x000000000011901c        0x0 binaries/dot2ip.o
 .bss           0x000000000011901c        0x0 binaries/hexdump.o
 .bss           0x000000000011901c        0x0 binaries/icmp.o
 .bss           0x000000000011901c        0x0 binaries/ip.o
 .bss           0x000000000011901c        0x0 binaries/net.o
 .bss           0x000000000011901c        0x0 binaries/netstart.o
 .bss           0x000000000011901c        0x0 binaries/pdump.o
 .bss           0x000000000011901c        0x0 binaries/tftp.o
 .bss           0x000000000011901c        0x0 binaries/udp.o
 .bss           0x000000000011901c        0x0 binaries/addargs.o
 .bss           0x000000000011901c        0x0 binaries/lexan.o
 .bss           0x000000000011901c        0x0 binaries/shell.o
 .bss           0x000000000011901c        0x0 binaries/xsh_argecho.o
 .bss           0x000000000011901c        0x0 binaries/xsh_arp.o
 .bss           0x000000000011901c        0x0 binaries/xsh_cat.o
 .bss           0x000000000011901c        0x0 binaries/xsh_clear.o
 .bss           0x000000000011901c        0x0 binaries/xsh_date.o
 .bss           0x000000000011901c        0x0 binaries/xsh_devdump.o
 .bss           0x000000000011901c        0x0 binaries/xsh_echo.o
 .bss           0x000000000011901c        0x0 binaries/xsh_exit.o
 .bss           0x000000000011901c        0x0 binaries/xsh_help.o
 .bss           0x000000000011901c        0x0 binaries/xsh_ipaddr.o
 .bss           0x000000000011901c        0x0 binaries/xsh_kill.o
 .bss           0x000000000011901c        0x0 binaries/xsh_memdump.o
 .bss           0x000000000011901c        0x0 binaries/xsh_memstat.o
 .bss           0x000000000011901c        0x4 binaries/xsh_ping.o
 .bss           0x0000000000119020        0x0 binaries/xsh_ps.o
 .bss           0x0000000000119020        0x0 binaries/xsh_sleep.o
 .bss           0x0000000000119020        0x0 binaries/xsh_udpdump.o
 .bss           0x0000000000119020        0x0 binaries/xsh_udpecho.o
 .bss           0x0000000000119020        0x0 binaries/xsh_udpeserver.o
 .bss           0x0000000000119020        0x0 binaries/xsh_uptime.o
 .bss           0x0000000000119020        0x0 binaries/clkdisp.o
 .bss           0x0000000000119020        0x0 binaries/ctxsw.o
 .bss           0x0000000000119020        0x0 binaries/host2netla.o
 .bss           0x0000000000119020        0x0 binaries/host2netlc.o
 .bss           0x0000000000119020        0x0 binaries/intr.o
 .bss           0x0000000000119020        0x0 binaries/ttydispatch.o
 .bss           0x0000000000119020        0x0 binaries/ethdispatch.o
 *(COMMON)
 COMMON         0x0000000000119020       0xf4 binaries/bufinit.o
                0x0000000000119020                buftab
                0x0000000000119110                nbpools
 COMMON         0x0000000000119114        0xc binaries/clkinit.o
                0x0000000000119114                sleepq
                0x0000000000119118                preempt
                0x000000000011911c                clktime
 COMMON         0x0000000000119120        0x2 binaries/evec.o
                0x0000000000119120                girmask
 *fill*         0x0000000000119122       0x1e 
 COMMON         0x0000000000119140     0x1ad8 binaries/initialize.o
                0x0000000000119140                currpid
                0x0000000000119160                proctab
                0x000000000011a740                prcount
                0x000000000011a760                semtab
                0x000000000011ac10                memlist
 COMMON         0x000000000011ac18        0x8 binaries/main.o
                0x000000000011ac18                victimsRetAddress
                0x000000000011ac1c                victimsEbp
 COMMON         0x000000000011ac20       0x58 binaries/mark.o
                0x000000000011ac20                marks
                0x000000000011ac70                nmarks
                0x000000000011ac74                mkmutex
 COMMON         0x000000000011ac78        0x8 binaries/meminit.o
                0x000000000011ac78                minheap
                0x000000000011ac7c                maxheap
 COMMON         0x000000000011ac80      0x2d8 binaries/ptinit.o
                0x000000000011ac80                porttab
                0x000000000011af50                ptnextid
                0x000000000011af54                ptfree
 *fill*         0x000000000011af58        0x8 
 COMMON         0x000000000011af60      0x980 binaries/queue.o
                0x000000000011af60                queuetab
 COMMON         0x000000000011b8e0        0x2 binaries/ready.o
                0x000000000011b8e0                readylist
 *fill*         0x000000000011b8e2        0x2 
 COMMON         0x000000000011b8e4        0x8 binaries/resched.o
                0x000000000011b8e4                Defer
 *fill*         0x000000000011b8ec       0x14 
 COMMON         0x000000000011b900      0x10c binaries/ttyinit.o
                0x000000000011b900                ttytab
 *fill*         0x000000000011ba0c       0x14 
 COMMON         0x000000000011ba20     0x19c0 binaries/naminit.o
                0x000000000011ba20                nnames
                0x000000000011ba40                nametab
 COMMON         0x000000000011d3e0      0x138 binaries/ethinit.o
                0x000000000011d3e0                ethertab
 *fill*         0x000000000011d518        0x8 
 COMMON         0x000000000011d520       0x8c binaries/rdsinit.o
                0x000000000011d520                rdstab
 *fill*         0x000000000011d5ac       0x14 
 COMMON         0x000000000011d5c0    0x19000 binaries/raminit.o
                0x000000000011d5c0                Ram
 COMMON         0x00000000001365c0      0xf00 binaries/lflinit.o
                0x00000000001365c0                lfltab
 COMMON         0x00000000001374c0      0x20c binaries/lfsinit.o
                0x00000000001374c0                Lf_data
 *fill*         0x00000000001376cc       0x14 
 COMMON         0x00000000001376e0      0x5a0 binaries/rflinit.o
                0x00000000001376e0                rfltab
 COMMON         0x0000000000137c80       0x18 binaries/rfsinit.o
                0x0000000000137c80                Rf_data
 *fill*         0x0000000000137c98        0x8 
 COMMON         0x0000000000137ca0      0x140 binaries/arp.o
                0x0000000000137ca0                arpcache
 COMMON         0x0000000000137de0      0x230 binaries/icmp.o
                0x0000000000137de0                icmptab
 *fill*         0x0000000000138010       0x10 
 COMMON         0x0000000000138020       0x2c binaries/ip.o
                0x0000000000138020                ipoqueue
 *fill*         0x000000000013804c       0x14 
 COMMON         0x0000000000138060       0xc8 binaries/net.o
                0x0000000000138060                netbufpool
                0x0000000000138080                NetData
 *fill*         0x0000000000138128       0x18 
 COMMON         0x0000000000138140      0x168 binaries/udp.o
                0x0000000000138140                udptab
                0x00000000001382a8                ebss = ABSOLUTE (.)
                0x0000000000139000                . = ALIGN (0x1000)
 *fill*         0x00000000001382a8      0xd58 
 */()
                0x0000000000139000                end = ABSOLUTE (.)
                0x0000000000139000                _end = ABSOLUTE (.)
                0x0000000000139000                . = ALIGN (0x1000)
LOAD binaries/start.o
LOAD binaries/app1.o
LOAD binaries/app2.o
LOAD binaries/app3.o
LOAD binaries/ascdate.o
LOAD binaries/bufinit.o
LOAD binaries/chprio.o
LOAD binaries/clkhandler.o
LOAD binaries/clkinit.o
LOAD binaries/close.o
LOAD binaries/conf.o
LOAD binaries/control.o
LOAD binaries/create.o
LOAD binaries/early_imr.o
LOAD binaries/evec.o
LOAD binaries/factorial.o
LOAD binaries/freebuf.o
LOAD binaries/freemem.o
LOAD binaries/getbuf.o
LOAD binaries/getc.o
LOAD binaries/getdev.o
LOAD binaries/getitem.o
LOAD binaries/getmem.o
LOAD binaries/getpid.o
LOAD binaries/getpname.o
LOAD binaries/getppid.o
LOAD binaries/getprio.o
LOAD binaries/getstk.o
LOAD binaries/gettime.o
LOAD binaries/getutime.o
LOAD binaries/host2netlb.o
LOAD binaries/init.o
LOAD binaries/initialize.o
LOAD binaries/insert.o
LOAD binaries/insertd.o
LOAD binaries/ioerr.o
LOAD binaries/ionull.o
LOAD binaries/kill.o
LOAD binaries/kprintf.o
LOAD binaries/main.o
LOAD binaries/mark.o
LOAD binaries/meminit.o
LOAD binaries/mkbufpool.o
LOAD binaries/myappA.o
LOAD binaries/myfuncA.o
LOAD binaries/myhacker.o
LOAD binaries/myvictim.o
LOAD binaries/mywelcomemsg.o
LOAD binaries/newqueue.o
LOAD binaries/open.o
LOAD binaries/panic.o
LOAD binaries/pci.o
LOAD binaries/platinit.o
LOAD binaries/printsegaddr.o
LOAD binaries/ptclear.o
LOAD binaries/ptcount.o
LOAD binaries/ptcreate.o
LOAD binaries/ptdelete.o
LOAD binaries/ptinit.o
LOAD binaries/ptrecv.o
LOAD binaries/ptreset.o
LOAD binaries/ptsend.o
LOAD binaries/putc.o
LOAD binaries/quark_irq.o
LOAD binaries/quark_pdat.o
LOAD binaries/queue.o
LOAD binaries/read.o
LOAD binaries/ready.o
LOAD binaries/receive.o
LOAD binaries/recvclr.o
LOAD binaries/recvtime.o
LOAD binaries/resched.o
LOAD binaries/resume.o
LOAD binaries/seek.o
LOAD binaries/semcount.o
LOAD binaries/semcreate.o
LOAD binaries/semdelete.o
LOAD binaries/semreset.o
LOAD binaries/send.o
LOAD binaries/signal.o
LOAD binaries/signaln.o
LOAD binaries/sleep.o
LOAD binaries/stackdepth.o
LOAD binaries/stacktrace.o
LOAD binaries/suspend.o
LOAD binaries/teststackdepth.o
LOAD binaries/unsleep.o
LOAD binaries/userret.o
LOAD binaries/wait.o
LOAD binaries/wakeup.o
LOAD binaries/write.o
LOAD binaries/xdone.o
LOAD binaries/yield.o
LOAD binaries/abs.o
LOAD binaries/atoi.o
LOAD binaries/atol.o
LOAD binaries/bzero.o
LOAD binaries/ctype_.o
LOAD binaries/doprnt.o
LOAD binaries/doscan.o
LOAD binaries/fdoprnt.o
LOAD binaries/fgetc.o
LOAD binaries/fgets.o
LOAD binaries/fprintf.o
LOAD binaries/fputc.o
LOAD binaries/fputs.o
LOAD binaries/fscanf.o
LOAD binaries/getchar.o
LOAD binaries/labs.o
LOAD binaries/memchr.o
LOAD binaries/memcmp.o
LOAD binaries/memcpy.o
LOAD binaries/memset.o
LOAD binaries/printf.o
LOAD binaries/putchar.o
LOAD binaries/qsort.o
LOAD binaries/rand.o
LOAD binaries/sprintf.o
LOAD binaries/sscanf.o
LOAD binaries/strchr.o
LOAD binaries/strcmp.o
LOAD binaries/strcpy.o
LOAD binaries/strlen.o
LOAD binaries/strncat.o
LOAD binaries/strncmp.o
LOAD binaries/strncpy.o
LOAD binaries/strnlen.o
LOAD binaries/strrchr.o
LOAD binaries/strstr.o
LOAD binaries/ttycontrol.o
LOAD binaries/ttygetc.o
LOAD binaries/ttyhandle_in.o
LOAD binaries/ttyhandle_out.o
LOAD binaries/ttyhandler.o
LOAD binaries/ttyinit.o
LOAD binaries/ttykickout.o
LOAD binaries/ttyputc.o
LOAD binaries/ttyread.o
LOAD binaries/ttywrite.o
LOAD binaries/mount.o
LOAD binaries/naminit.o
LOAD binaries/nammap.o
LOAD binaries/namopen.o
LOAD binaries/colon2mac.o
LOAD binaries/ethcontrol.o
LOAD binaries/ethhandler.o
LOAD binaries/ethinit.o
LOAD binaries/ethmcast.o
LOAD binaries/ethread.o
LOAD binaries/ethwrite.o
LOAD binaries/rdsbufalloc.o
LOAD binaries/rdsclose.o
LOAD binaries/rdscomm.o
LOAD binaries/rdscontrol.o
LOAD binaries/rdsinit.o
LOAD binaries/rdsopen.o
LOAD binaries/rdsprocess.o
LOAD binaries/rdsread.o
LOAD binaries/rdswrite.o
LOAD binaries/ramclose.o
LOAD binaries/raminit.o
LOAD binaries/ramopen.o
LOAD binaries/ramread.o
LOAD binaries/ramwrite.o
LOAD binaries/lfdballoc.o
LOAD binaries/lfdbfree.o
LOAD binaries/lfflush.o
LOAD binaries/lfgetmode.o
LOAD binaries/lfiballoc.o
LOAD binaries/lfibclear.o
LOAD binaries/lfibget.o
LOAD binaries/lfibput.o
LOAD binaries/lflclose.o
LOAD binaries/lflcontrol.o
LOAD binaries/lflgetc.o
LOAD binaries/lflinit.o
LOAD binaries/lflputc.o
LOAD binaries/lflread.o
LOAD binaries/lflseek.o
LOAD binaries/lflwrite.o
LOAD binaries/lfsckfmt.o
LOAD binaries/lfscreate.o
LOAD binaries/lfsetup.o
LOAD binaries/lfsinit.o
LOAD binaries/lfsopen.o
LOAD binaries/lftruncate.o
LOAD binaries/rflclose.o
LOAD binaries/rflgetc.o
LOAD binaries/rflinit.o
LOAD binaries/rflputc.o
LOAD binaries/rflread.o
LOAD binaries/rflseek.o
LOAD binaries/rflwrite.o
LOAD binaries/rfscomm.o
LOAD binaries/rfscontrol.o
LOAD binaries/rfsgetmode.o
LOAD binaries/rfsinit.o
LOAD binaries/rfsndmsg.o
LOAD binaries/rfsopen.o
LOAD binaries/arp.o
LOAD binaries/dhcp.o
LOAD binaries/dot2ip.o
LOAD binaries/hexdump.o
LOAD binaries/icmp.o
LOAD binaries/ip.o
LOAD binaries/net.o
LOAD binaries/netstart.o
LOAD binaries/pdump.o
LOAD binaries/tftp.o
LOAD binaries/udp.o
LOAD binaries/addargs.o
LOAD binaries/lexan.o
LOAD binaries/shell.o
LOAD binaries/xsh_argecho.o
LOAD binaries/xsh_arp.o
LOAD binaries/xsh_cat.o
LOAD binaries/xsh_clear.o
LOAD binaries/xsh_date.o
LOAD binaries/xsh_devdump.o
LOAD binaries/xsh_echo.o
LOAD binaries/xsh_exit.o
LOAD binaries/xsh_help.o
LOAD binaries/xsh_ipaddr.o
LOAD binaries/xsh_kill.o
LOAD binaries/xsh_memdump.o
LOAD binaries/xsh_memstat.o
LOAD binaries/xsh_ping.o
LOAD binaries/xsh_ps.o
LOAD binaries/xsh_sleep.o
LOAD binaries/xsh_udpdump.o
LOAD binaries/xsh_udpecho.o
LOAD binaries/xsh_udpeserver.o
LOAD binaries/xsh_uptime.o
LOAD binaries/clkdisp.o
LOAD binaries/ctxsw.o
LOAD binaries/host2netla.o
LOAD binaries/host2netlc.o
LOAD binaries/intr.o
LOAD binaries/ttydispatch.o
LOAD binaries/ethdispatch.o
OUTPUT(../compile/xinu elf32-i386)

.comment        0x0000000000000000       0x2a
 .comment       0x0000000000000000       0x2a binaries/app1.o
                                         0x2b (size before relaxing)
 .comment       0x000000000000002a       0x2b binaries/app2.o
 .comment       0x000000000000002a       0x2b binaries/app3.o
 .comment       0x000000000000002a       0x2b binaries/ascdate.o
 .comment       0x000000000000002a       0x2b binaries/bufinit.o
 .comment       0x000000000000002a       0x2b binaries/chprio.o
 .comment       0x000000000000002a       0x2b binaries/clkhandler.o
 .comment       0x000000000000002a       0x2b binaries/clkinit.o
 .comment       0x000000000000002a       0x2b binaries/close.o
 .comment       0x000000000000002a       0x2b binaries/conf.o
 .comment       0x000000000000002a       0x2b binaries/control.o
 .comment       0x000000000000002a       0x2b binaries/create.o
 .comment       0x000000000000002a       0x2b binaries/early_imr.o
 .comment       0x000000000000002a       0x2b binaries/evec.o
 .comment       0x000000000000002a       0x2b binaries/factorial.o
 .comment       0x000000000000002a       0x2b binaries/freebuf.o
 .comment       0x000000000000002a       0x2b binaries/freemem.o
 .comment       0x000000000000002a       0x2b binaries/getbuf.o
 .comment       0x000000000000002a       0x2b binaries/getc.o
 .comment       0x000000000000002a       0x2b binaries/getdev.o
 .comment       0x000000000000002a       0x2b binaries/getitem.o
 .comment       0x000000000000002a       0x2b binaries/getmem.o
 .comment       0x000000000000002a       0x2b binaries/getpid.o
 .comment       0x000000000000002a       0x2b binaries/getpname.o
 .comment       0x000000000000002a       0x2b binaries/getppid.o
 .comment       0x000000000000002a       0x2b binaries/getprio.o
 .comment       0x000000000000002a       0x2b binaries/getstk.o
 .comment       0x000000000000002a       0x2b binaries/gettime.o
 .comment       0x000000000000002a       0x2b binaries/getutime.o
 .comment       0x000000000000002a       0x2b binaries/host2netlb.o
 .comment       0x000000000000002a       0x2b binaries/init.o
 .comment       0x000000000000002a       0x2b binaries/initialize.o
 .comment       0x000000000000002a       0x2b binaries/insert.o
 .comment       0x000000000000002a       0x2b binaries/insertd.o
 .comment       0x000000000000002a       0x2b binaries/ioerr.o
 .comment       0x000000000000002a       0x2b binaries/ionull.o
 .comment       0x000000000000002a       0x2b binaries/kill.o
 .comment       0x000000000000002a       0x2b binaries/kprintf.o
 .comment       0x000000000000002a       0x2b binaries/main.o
 .comment       0x000000000000002a       0x2b binaries/mark.o
 .comment       0x000000000000002a       0x2b binaries/meminit.o
 .comment       0x000000000000002a       0x2b binaries/mkbufpool.o
 .comment       0x000000000000002a       0x2b binaries/myappA.o
 .comment       0x000000000000002a       0x2b binaries/myfuncA.o
 .comment       0x000000000000002a       0x2b binaries/myhacker.o
 .comment       0x000000000000002a       0x2b binaries/myvictim.o
 .comment       0x000000000000002a       0x2b binaries/mywelcomemsg.o
 .comment       0x000000000000002a       0x2b binaries/newqueue.o
 .comment       0x000000000000002a       0x2b binaries/open.o
 .comment       0x000000000000002a       0x2b binaries/panic.o
 .comment       0x000000000000002a       0x2b binaries/pci.o
 .comment       0x000000000000002a       0x2b binaries/platinit.o
 .comment       0x000000000000002a       0x2b binaries/printsegaddr.o
 .comment       0x000000000000002a       0x2b binaries/ptclear.o
 .comment       0x000000000000002a       0x2b binaries/ptcount.o
 .comment       0x000000000000002a       0x2b binaries/ptcreate.o
 .comment       0x000000000000002a       0x2b binaries/ptdelete.o
 .comment       0x000000000000002a       0x2b binaries/ptinit.o
 .comment       0x000000000000002a       0x2b binaries/ptrecv.o
 .comment       0x000000000000002a       0x2b binaries/ptreset.o
 .comment       0x000000000000002a       0x2b binaries/ptsend.o
 .comment       0x000000000000002a       0x2b binaries/putc.o
 .comment       0x000000000000002a       0x2b binaries/quark_irq.o
 .comment       0x000000000000002a       0x2b binaries/quark_pdat.o
 .comment       0x000000000000002a       0x2b binaries/queue.o
 .comment       0x000000000000002a       0x2b binaries/read.o
 .comment       0x000000000000002a       0x2b binaries/ready.o
 .comment       0x000000000000002a       0x2b binaries/receive.o
 .comment       0x000000000000002a       0x2b binaries/recvclr.o
 .comment       0x000000000000002a       0x2b binaries/recvtime.o
 .comment       0x000000000000002a       0x2b binaries/resched.o
 .comment       0x000000000000002a       0x2b binaries/resume.o
 .comment       0x000000000000002a       0x2b binaries/seek.o
 .comment       0x000000000000002a       0x2b binaries/semcount.o
 .comment       0x000000000000002a       0x2b binaries/semcreate.o
 .comment       0x000000000000002a       0x2b binaries/semdelete.o
 .comment       0x000000000000002a       0x2b binaries/semreset.o
 .comment       0x000000000000002a       0x2b binaries/send.o
 .comment       0x000000000000002a       0x2b binaries/signal.o
 .comment       0x000000000000002a       0x2b binaries/signaln.o
 .comment       0x000000000000002a       0x2b binaries/sleep.o
 .comment       0x000000000000002a       0x2b binaries/stackdepth.o
 .comment       0x000000000000002a       0x2b binaries/stacktrace.o
 .comment       0x000000000000002a       0x2b binaries/suspend.o
 .comment       0x000000000000002a       0x2b binaries/teststackdepth.o
 .comment       0x000000000000002a       0x2b binaries/unsleep.o
 .comment       0x000000000000002a       0x2b binaries/userret.o
 .comment       0x000000000000002a       0x2b binaries/wait.o
 .comment       0x000000000000002a       0x2b binaries/wakeup.o
 .comment       0x000000000000002a       0x2b binaries/write.o
 .comment       0x000000000000002a       0x2b binaries/xdone.o
 .comment       0x000000000000002a       0x2b binaries/yield.o
 .comment       0x000000000000002a       0x2b binaries/abs.o
 .comment       0x000000000000002a       0x2b binaries/atoi.o
 .comment       0x000000000000002a       0x2b binaries/atol.o
 .comment       0x000000000000002a       0x2b binaries/bzero.o
 .comment       0x000000000000002a       0x2b binaries/ctype_.o
 .comment       0x000000000000002a       0x2b binaries/doprnt.o
 .comment       0x000000000000002a       0x2b binaries/doscan.o
 .comment       0x000000000000002a       0x2b binaries/fdoprnt.o
 .comment       0x000000000000002a       0x2b binaries/fgetc.o
 .comment       0x000000000000002a       0x2b binaries/fgets.o
 .comment       0x000000000000002a       0x2b binaries/fprintf.o
 .comment       0x000000000000002a       0x2b binaries/fputc.o
 .comment       0x000000000000002a       0x2b binaries/fputs.o
 .comment       0x000000000000002a       0x2b binaries/fscanf.o
 .comment       0x000000000000002a       0x2b binaries/getchar.o
 .comment       0x000000000000002a       0x2b binaries/labs.o
 .comment       0x000000000000002a       0x2b binaries/memchr.o
 .comment       0x000000000000002a       0x2b binaries/memcmp.o
 .comment       0x000000000000002a       0x2b binaries/memcpy.o
 .comment       0x000000000000002a       0x2b binaries/memset.o
 .comment       0x000000000000002a       0x2b binaries/printf.o
 .comment       0x000000000000002a       0x2b binaries/putchar.o
 .comment       0x000000000000002a       0x2b binaries/qsort.o
 .comment       0x000000000000002a       0x2b binaries/rand.o
 .comment       0x000000000000002a       0x2b binaries/sprintf.o
 .comment       0x000000000000002a       0x2b binaries/sscanf.o
 .comment       0x000000000000002a       0x2b binaries/strchr.o
 .comment       0x000000000000002a       0x2b binaries/strcmp.o
 .comment       0x000000000000002a       0x2b binaries/strcpy.o
 .comment       0x000000000000002a       0x2b binaries/strlen.o
 .comment       0x000000000000002a       0x2b binaries/strncat.o
 .comment       0x000000000000002a       0x2b binaries/strncmp.o
 .comment       0x000000000000002a       0x2b binaries/strncpy.o
 .comment       0x000000000000002a       0x2b binaries/strnlen.o
 .comment       0x000000000000002a       0x2b binaries/strrchr.o
 .comment       0x000000000000002a       0x2b binaries/strstr.o
 .comment       0x000000000000002a       0x2b binaries/ttycontrol.o
 .comment       0x000000000000002a       0x2b binaries/ttygetc.o
 .comment       0x000000000000002a       0x2b binaries/ttyhandle_in.o
 .comment       0x000000000000002a       0x2b binaries/ttyhandle_out.o
 .comment       0x000000000000002a       0x2b binaries/ttyhandler.o
 .comment       0x000000000000002a       0x2b binaries/ttyinit.o
 .comment       0x000000000000002a       0x2b binaries/ttykickout.o
 .comment       0x000000000000002a       0x2b binaries/ttyputc.o
 .comment       0x000000000000002a       0x2b binaries/ttyread.o
 .comment       0x000000000000002a       0x2b binaries/ttywrite.o
 .comment       0x000000000000002a       0x2b binaries/mount.o
 .comment       0x000000000000002a       0x2b binaries/naminit.o
 .comment       0x000000000000002a       0x2b binaries/nammap.o
 .comment       0x000000000000002a       0x2b binaries/namopen.o
 .comment       0x000000000000002a       0x2b binaries/colon2mac.o
 .comment       0x000000000000002a       0x2b binaries/ethcontrol.o
 .comment       0x000000000000002a       0x2b binaries/ethhandler.o
 .comment       0x000000000000002a       0x2b binaries/ethinit.o
 .comment       0x000000000000002a       0x2b binaries/ethmcast.o
 .comment       0x000000000000002a       0x2b binaries/ethread.o
 .comment       0x000000000000002a       0x2b binaries/ethwrite.o
 .comment       0x000000000000002a       0x2b binaries/rdsbufalloc.o
 .comment       0x000000000000002a       0x2b binaries/rdsclose.o
 .comment       0x000000000000002a       0x2b binaries/rdscomm.o
 .comment       0x000000000000002a       0x2b binaries/rdscontrol.o
 .comment       0x000000000000002a       0x2b binaries/rdsinit.o
 .comment       0x000000000000002a       0x2b binaries/rdsopen.o
 .comment       0x000000000000002a       0x2b binaries/rdsprocess.o
 .comment       0x000000000000002a       0x2b binaries/rdsread.o
 .comment       0x000000000000002a       0x2b binaries/rdswrite.o
 .comment       0x000000000000002a       0x2b binaries/ramclose.o
 .comment       0x000000000000002a       0x2b binaries/raminit.o
 .comment       0x000000000000002a       0x2b binaries/ramopen.o
 .comment       0x000000000000002a       0x2b binaries/ramread.o
 .comment       0x000000000000002a       0x2b binaries/ramwrite.o
 .comment       0x000000000000002a       0x2b binaries/lfdballoc.o
 .comment       0x000000000000002a       0x2b binaries/lfdbfree.o
 .comment       0x000000000000002a       0x2b binaries/lfflush.o
 .comment       0x000000000000002a       0x2b binaries/lfgetmode.o
 .comment       0x000000000000002a       0x2b binaries/lfiballoc.o
 .comment       0x000000000000002a       0x2b binaries/lfibclear.o
 .comment       0x000000000000002a       0x2b binaries/lfibget.o
 .comment       0x000000000000002a       0x2b binaries/lfibput.o
 .comment       0x000000000000002a       0x2b binaries/lflclose.o
 .comment       0x000000000000002a       0x2b binaries/lflcontrol.o
 .comment       0x000000000000002a       0x2b binaries/lflgetc.o
 .comment       0x000000000000002a       0x2b binaries/lflinit.o
 .comment       0x000000000000002a       0x2b binaries/lflputc.o
 .comment       0x000000000000002a       0x2b binaries/lflread.o
 .comment       0x000000000000002a       0x2b binaries/lflseek.o
 .comment       0x000000000000002a       0x2b binaries/lflwrite.o
 .comment       0x000000000000002a       0x2b binaries/lfsckfmt.o
 .comment       0x000000000000002a       0x2b binaries/lfscreate.o
 .comment       0x000000000000002a       0x2b binaries/lfsetup.o
 .comment       0x000000000000002a       0x2b binaries/lfsinit.o
 .comment       0x000000000000002a       0x2b binaries/lfsopen.o
 .comment       0x000000000000002a       0x2b binaries/lftruncate.o
 .comment       0x000000000000002a       0x2b binaries/rflclose.o
 .comment       0x000000000000002a       0x2b binaries/rflgetc.o
 .comment       0x000000000000002a       0x2b binaries/rflinit.o
 .comment       0x000000000000002a       0x2b binaries/rflputc.o
 .comment       0x000000000000002a       0x2b binaries/rflread.o
 .comment       0x000000000000002a       0x2b binaries/rflseek.o
 .comment       0x000000000000002a       0x2b binaries/rflwrite.o
 .comment       0x000000000000002a       0x2b binaries/rfscomm.o
 .comment       0x000000000000002a       0x2b binaries/rfscontrol.o
 .comment       0x000000000000002a       0x2b binaries/rfsgetmode.o
 .comment       0x000000000000002a       0x2b binaries/rfsinit.o
 .comment       0x000000000000002a       0x2b binaries/rfsndmsg.o
 .comment       0x000000000000002a       0x2b binaries/rfsopen.o
 .comment       0x000000000000002a       0x2b binaries/arp.o
 .comment       0x000000000000002a       0x2b binaries/dhcp.o
 .comment       0x000000000000002a       0x2b binaries/dot2ip.o
 .comment       0x000000000000002a       0x2b binaries/hexdump.o
 .comment       0x000000000000002a       0x2b binaries/icmp.o
 .comment       0x000000000000002a       0x2b binaries/ip.o
 .comment       0x000000000000002a       0x2b binaries/net.o
 .comment       0x000000000000002a       0x2b binaries/netstart.o
 .comment       0x000000000000002a       0x2b binaries/pdump.o
 .comment       0x000000000000002a       0x2b binaries/tftp.o
 .comment       0x000000000000002a       0x2b binaries/udp.o
 .comment       0x000000000000002a       0x2b binaries/addargs.o
 .comment       0x000000000000002a       0x2b binaries/lexan.o
 .comment       0x000000000000002a       0x2b binaries/shell.o
 .comment       0x000000000000002a       0x2b binaries/xsh_argecho.o
 .comment       0x000000000000002a       0x2b binaries/xsh_arp.o
 .comment       0x000000000000002a       0x2b binaries/xsh_cat.o
 .comment       0x000000000000002a       0x2b binaries/xsh_clear.o
 .comment       0x000000000000002a       0x2b binaries/xsh_date.o
 .comment       0x000000000000002a       0x2b binaries/xsh_devdump.o
 .comment       0x000000000000002a       0x2b binaries/xsh_echo.o
 .comment       0x000000000000002a       0x2b binaries/xsh_exit.o
 .comment       0x000000000000002a       0x2b binaries/xsh_help.o
 .comment       0x000000000000002a       0x2b binaries/xsh_ipaddr.o
 .comment       0x000000000000002a       0x2b binaries/xsh_kill.o
 .comment       0x000000000000002a       0x2b binaries/xsh_memdump.o
 .comment       0x000000000000002a       0x2b binaries/xsh_memstat.o
 .comment       0x000000000000002a       0x2b binaries/xsh_ping.o
 .comment       0x000000000000002a       0x2b binaries/xsh_ps.o
 .comment       0x000000000000002a       0x2b binaries/xsh_sleep.o
 .comment       0x000000000000002a       0x2b binaries/xsh_udpdump.o
 .comment       0x000000000000002a       0x2b binaries/xsh_udpecho.o
 .comment       0x000000000000002a       0x2b binaries/xsh_udpeserver.o
 .comment       0x000000000000002a       0x2b binaries/xsh_uptime.o
 .comment       0x000000000000002a       0x2b binaries/host2netlc.o

.note.GNU-stack
                0x0000000000000000        0x0
 .note.GNU-stack
                0x0000000000000000        0x0 binaries/app1.o
 .note.GNU-stack
                0x0000000000000000        0x0 binaries/app2.o
 .note.GNU-stack
                0x0000000000000000        0x0 binaries/app3.o
 .note.GNU-stack
                0x0000000000000000        0x0 binaries/ascdate.o
 .note.GNU-stack
                0x0000000000000000        0x0 binaries/bufinit.o
 .note.GNU-stack
                0x0000000000000000        0x0 binaries/chprio.o
 .note.GNU-stack
                0x0000000000000000        0x0 binaries/clkhandler.o
 .note.GNU-stack
                0x0000000000000000        0x0 binaries/clkinit.o
 .note.GNU-stack
                0x0000000000000000        0x0 binaries/close.o
 .note.GNU-stack
                0x0000000000000000        0x0 binaries/conf.o
 .note.GNU-stack
                0x0000000000000000        0x0 binaries/control.o
 .note.GNU-stack
                0x0000000000000000        0x0 binaries/create.o
 .note.GNU-stack
                0x0000000000000000        0x0 binaries/early_imr.o
 .note.GNU-stack
                0x0000000000000000        0x0 binaries/evec.o
 .note.GNU-stack
                0x0000000000000000        0x0 binaries/factorial.o
 .note.GNU-stack
                0x0000000000000000        0x0 binaries/freebuf.o
 .note.GNU-stack
                0x0000000000000000        0x0 binaries/freemem.o
 .note.GNU-stack
                0x0000000000000000        0x0 binaries/getbuf.o
 .note.GNU-stack
                0x0000000000000000        0x0 binaries/getc.o
 .note.GNU-stack
                0x0000000000000000        0x0 binaries/getdev.o
 .note.GNU-stack
                0x0000000000000000        0x0 binaries/getitem.o
 .note.GNU-stack
                0x0000000000000000        0x0 binaries/getmem.o
 .note.GNU-stack
                0x0000000000000000        0x0 binaries/getpid.o
 .note.GNU-stack
                0x0000000000000000        0x0 binaries/getpname.o
 .note.GNU-stack
                0x0000000000000000        0x0 binaries/getppid.o
 .note.GNU-stack
                0x0000000000000000        0x0 binaries/getprio.o
 .note.GNU-stack
                0x0000000000000000        0x0 binaries/getstk.o
 .note.GNU-stack
                0x0000000000000000        0x0 binaries/gettime.o
 .note.GNU-stack
                0x0000000000000000        0x0 binaries/getutime.o
 .note.GNU-stack
                0x0000000000000000        0x0 binaries/host2netlb.o
 .note.GNU-stack
                0x0000000000000000        0x0 binaries/init.o
 .note.GNU-stack
                0x0000000000000000        0x0 binaries/initialize.o
 .note.GNU-stack
                0x0000000000000000        0x0 binaries/insert.o
 .note.GNU-stack
                0x0000000000000000        0x0 binaries/insertd.o
 .note.GNU-stack
                0x0000000000000000        0x0 binaries/ioerr.o
 .note.GNU-stack
                0x0000000000000000        0x0 binaries/ionull.o
 .note.GNU-stack
                0x0000000000000000        0x0 binaries/kill.o
 .note.GNU-stack
                0x0000000000000000        0x0 binaries/kprintf.o
 .note.GNU-stack
                0x0000000000000000        0x0 binaries/main.o
 .note.GNU-stack
                0x0000000000000000        0x0 binaries/mark.o
 .note.GNU-stack
                0x0000000000000000        0x0 binaries/meminit.o
 .note.GNU-stack
                0x0000000000000000        0x0 binaries/mkbufpool.o
 .note.GNU-stack
                0x0000000000000000        0x0 binaries/myappA.o
 .note.GNU-stack
                0x0000000000000000        0x0 binaries/myfuncA.o
 .note.GNU-stack
                0x0000000000000000        0x0 binaries/myhacker.o
 .note.GNU-stack
                0x0000000000000000        0x0 binaries/myvictim.o
 .note.GNU-stack
                0x0000000000000000        0x0 binaries/mywelcomemsg.o
 .note.GNU-stack
                0x0000000000000000        0x0 binaries/newqueue.o
 .note.GNU-stack
                0x0000000000000000        0x0 binaries/open.o
 .note.GNU-stack
                0x0000000000000000        0x0 binaries/panic.o
 .note.GNU-stack
                0x0000000000000000        0x0 binaries/pci.o
 .note.GNU-stack
                0x0000000000000000        0x0 binaries/platinit.o
 .note.GNU-stack
                0x0000000000000000        0x0 binaries/printsegaddr.o
 .note.GNU-stack
                0x0000000000000000        0x0 binaries/ptclear.o
 .note.GNU-stack
                0x0000000000000000        0x0 binaries/ptcount.o
 .note.GNU-stack
                0x0000000000000000        0x0 binaries/ptcreate.o
 .note.GNU-stack
                0x0000000000000000        0x0 binaries/ptdelete.o
 .note.GNU-stack
                0x0000000000000000        0x0 binaries/ptinit.o
 .note.GNU-stack
                0x0000000000000000        0x0 binaries/ptrecv.o
 .note.GNU-stack
                0x0000000000000000        0x0 binaries/ptreset.o
 .note.GNU-stack
                0x0000000000000000        0x0 binaries/ptsend.o
 .note.GNU-stack
                0x0000000000000000        0x0 binaries/putc.o
 .note.GNU-stack
                0x0000000000000000        0x0 binaries/quark_irq.o
 .note.GNU-stack
                0x0000000000000000        0x0 binaries/quark_pdat.o
 .note.GNU-stack
                0x0000000000000000        0x0 binaries/queue.o
 .note.GNU-stack
                0x0000000000000000        0x0 binaries/read.o
 .note.GNU-stack
                0x0000000000000000        0x0 binaries/ready.o
 .note.GNU-stack
                0x0000000000000000        0x0 binaries/receive.o
 .note.GNU-stack
                0x0000000000000000        0x0 binaries/recvclr.o
 .note.GNU-stack
                0x0000000000000000        0x0 binaries/recvtime.o
 .note.GNU-stack
                0x0000000000000000        0x0 binaries/resched.o
 .note.GNU-stack
                0x0000000000000000        0x0 binaries/resume.o
 .note.GNU-stack
                0x0000000000000000        0x0 binaries/seek.o
 .note.GNU-stack
                0x0000000000000000        0x0 binaries/semcount.o
 .note.GNU-stack
                0x0000000000000000        0x0 binaries/semcreate.o
 .note.GNU-stack
                0x0000000000000000        0x0 binaries/semdelete.o
 .note.GNU-stack
                0x0000000000000000        0x0 binaries/semreset.o
 .note.GNU-stack
                0x0000000000000000        0x0 binaries/send.o
 .note.GNU-stack
                0x0000000000000000        0x0 binaries/signal.o
 .note.GNU-stack
                0x0000000000000000        0x0 binaries/signaln.o
 .note.GNU-stack
                0x0000000000000000        0x0 binaries/sleep.o
 .note.GNU-stack
                0x0000000000000000        0x0 binaries/stackdepth.o
 .note.GNU-stack
                0x0000000000000000        0x0 binaries/stacktrace.o
 .note.GNU-stack
                0x0000000000000000        0x0 binaries/suspend.o
 .note.GNU-stack
                0x0000000000000000        0x0 binaries/teststackdepth.o
 .note.GNU-stack
                0x0000000000000000        0x0 binaries/unsleep.o
 .note.GNU-stack
                0x0000000000000000        0x0 binaries/userret.o
 .note.GNU-stack
                0x0000000000000000        0x0 binaries/wait.o
 .note.GNU-stack
                0x0000000000000000        0x0 binaries/wakeup.o
 .note.GNU-stack
                0x0000000000000000        0x0 binaries/write.o
 .note.GNU-stack
                0x0000000000000000        0x0 binaries/xdone.o
 .note.GNU-stack
                0x0000000000000000        0x0 binaries/yield.o
 .note.GNU-stack
                0x0000000000000000        0x0 binaries/abs.o
 .note.GNU-stack
                0x0000000000000000        0x0 binaries/atoi.o
 .note.GNU-stack
                0x0000000000000000        0x0 binaries/atol.o
 .note.GNU-stack
                0x0000000000000000        0x0 binaries/bzero.o
 .note.GNU-stack
                0x0000000000000000        0x0 binaries/ctype_.o
 .note.GNU-stack
                0x0000000000000000        0x0 binaries/doprnt.o
 .note.GNU-stack
                0x0000000000000000        0x0 binaries/doscan.o
 .note.GNU-stack
                0x0000000000000000        0x0 binaries/fdoprnt.o
 .note.GNU-stack
                0x0000000000000000        0x0 binaries/fgetc.o
 .note.GNU-stack
                0x0000000000000000        0x0 binaries/fgets.o
 .note.GNU-stack
                0x0000000000000000        0x0 binaries/fprintf.o
 .note.GNU-stack
                0x0000000000000000        0x0 binaries/fputc.o
 .note.GNU-stack
                0x0000000000000000        0x0 binaries/fputs.o
 .note.GNU-stack
                0x0000000000000000        0x0 binaries/fscanf.o
 .note.GNU-stack
                0x0000000000000000        0x0 binaries/getchar.o
 .note.GNU-stack
                0x0000000000000000        0x0 binaries/labs.o
 .note.GNU-stack
                0x0000000000000000        0x0 binaries/memchr.o
 .note.GNU-stack
                0x0000000000000000        0x0 binaries/memcmp.o
 .note.GNU-stack
                0x0000000000000000        0x0 binaries/memcpy.o
 .note.GNU-stack
                0x0000000000000000        0x0 binaries/memset.o
 .note.GNU-stack
                0x0000000000000000        0x0 binaries/printf.o
 .note.GNU-stack
                0x0000000000000000        0x0 binaries/putchar.o
 .note.GNU-stack
                0x0000000000000000        0x0 binaries/qsort.o
 .note.GNU-stack
                0x0000000000000000        0x0 binaries/rand.o
 .note.GNU-stack
                0x0000000000000000        0x0 binaries/sprintf.o
 .note.GNU-stack
                0x0000000000000000        0x0 binaries/sscanf.o
 .note.GNU-stack
                0x0000000000000000        0x0 binaries/strchr.o
 .note.GNU-stack
                0x0000000000000000        0x0 binaries/strcmp.o
 .note.GNU-stack
                0x0000000000000000        0x0 binaries/strcpy.o
 .note.GNU-stack
                0x0000000000000000        0x0 binaries/strlen.o
 .note.GNU-stack
                0x0000000000000000        0x0 binaries/strncat.o
 .note.GNU-stack
                0x0000000000000000        0x0 binaries/strncmp.o
 .note.GNU-stack
                0x0000000000000000        0x0 binaries/strncpy.o
 .note.GNU-stack
                0x0000000000000000        0x0 binaries/strnlen.o
 .note.GNU-stack
                0x0000000000000000        0x0 binaries/strrchr.o
 .note.GNU-stack
                0x0000000000000000        0x0 binaries/strstr.o
 .note.GNU-stack
                0x0000000000000000        0x0 binaries/ttycontrol.o
 .note.GNU-stack
                0x0000000000000000        0x0 binaries/ttygetc.o
 .note.GNU-stack
                0x0000000000000000        0x0 binaries/ttyhandle_in.o
 .note.GNU-stack
                0x0000000000000000        0x0 binaries/ttyhandle_out.o
 .note.GNU-stack
                0x0000000000000000        0x0 binaries/ttyhandler.o
 .note.GNU-stack
                0x0000000000000000        0x0 binaries/ttyinit.o
 .note.GNU-stack
                0x0000000000000000        0x0 binaries/ttykickout.o
 .note.GNU-stack
                0x0000000000000000        0x0 binaries/ttyputc.o
 .note.GNU-stack
                0x0000000000000000        0x0 binaries/ttyread.o
 .note.GNU-stack
                0x0000000000000000        0x0 binaries/ttywrite.o
 .note.GNU-stack
                0x0000000000000000        0x0 binaries/mount.o
 .note.GNU-stack
                0x0000000000000000        0x0 binaries/naminit.o
 .note.GNU-stack
                0x0000000000000000        0x0 binaries/nammap.o
 .note.GNU-stack
                0x0000000000000000        0x0 binaries/namopen.o
 .note.GNU-stack
                0x0000000000000000        0x0 binaries/colon2mac.o
 .note.GNU-stack
                0x0000000000000000        0x0 binaries/ethcontrol.o
 .note.GNU-stack
                0x0000000000000000        0x0 binaries/ethhandler.o
 .note.GNU-stack
                0x0000000000000000        0x0 binaries/ethinit.o
 .note.GNU-stack
                0x0000000000000000        0x0 binaries/ethmcast.o
 .note.GNU-stack
                0x0000000000000000        0x0 binaries/ethread.o
 .note.GNU-stack
                0x0000000000000000        0x0 binaries/ethwrite.o
 .note.GNU-stack
                0x0000000000000000        0x0 binaries/rdsbufalloc.o
 .note.GNU-stack
                0x0000000000000000        0x0 binaries/rdsclose.o
 .note.GNU-stack
                0x0000000000000000        0x0 binaries/rdscomm.o
 .note.GNU-stack
                0x0000000000000000        0x0 binaries/rdscontrol.o
 .note.GNU-stack
                0x0000000000000000        0x0 binaries/rdsinit.o
 .note.GNU-stack
                0x0000000000000000        0x0 binaries/rdsopen.o
 .note.GNU-stack
                0x0000000000000000        0x0 binaries/rdsprocess.o
 .note.GNU-stack
                0x0000000000000000        0x0 binaries/rdsread.o
 .note.GNU-stack
                0x0000000000000000        0x0 binaries/rdswrite.o
 .note.GNU-stack
                0x0000000000000000        0x0 binaries/ramclose.o
 .note.GNU-stack
                0x0000000000000000        0x0 binaries/raminit.o
 .note.GNU-stack
                0x0000000000000000        0x0 binaries/ramopen.o
 .note.GNU-stack
                0x0000000000000000        0x0 binaries/ramread.o
 .note.GNU-stack
                0x0000000000000000        0x0 binaries/ramwrite.o
 .note.GNU-stack
                0x0000000000000000        0x0 binaries/lfdballoc.o
 .note.GNU-stack
                0x0000000000000000        0x0 binaries/lfdbfree.o
 .note.GNU-stack
                0x0000000000000000        0x0 binaries/lfflush.o
 .note.GNU-stack
                0x0000000000000000        0x0 binaries/lfgetmode.o
 .note.GNU-stack
                0x0000000000000000        0x0 binaries/lfiballoc.o
 .note.GNU-stack
                0x0000000000000000        0x0 binaries/lfibclear.o
 .note.GNU-stack
                0x0000000000000000        0x0 binaries/lfibget.o
 .note.GNU-stack
                0x0000000000000000        0x0 binaries/lfibput.o
 .note.GNU-stack
                0x0000000000000000        0x0 binaries/lflclose.o
 .note.GNU-stack
                0x0000000000000000        0x0 binaries/lflcontrol.o
 .note.GNU-stack
                0x0000000000000000        0x0 binaries/lflgetc.o
 .note.GNU-stack
                0x0000000000000000        0x0 binaries/lflinit.o
 .note.GNU-stack
                0x0000000000000000        0x0 binaries/lflputc.o
 .note.GNU-stack
                0x0000000000000000        0x0 binaries/lflread.o
 .note.GNU-stack
                0x0000000000000000        0x0 binaries/lflseek.o
 .note.GNU-stack
                0x0000000000000000        0x0 binaries/lflwrite.o
 .note.GNU-stack
                0x0000000000000000        0x0 binaries/lfsckfmt.o
 .note.GNU-stack
                0x0000000000000000        0x0 binaries/lfscreate.o
 .note.GNU-stack
                0x0000000000000000        0x0 binaries/lfsetup.o
 .note.GNU-stack
                0x0000000000000000        0x0 binaries/lfsinit.o
 .note.GNU-stack
                0x0000000000000000        0x0 binaries/lfsopen.o
 .note.GNU-stack
                0x0000000000000000        0x0 binaries/lftruncate.o
 .note.GNU-stack
                0x0000000000000000        0x0 binaries/rflclose.o
 .note.GNU-stack
                0x0000000000000000        0x0 binaries/rflgetc.o
 .note.GNU-stack
                0x0000000000000000        0x0 binaries/rflinit.o
 .note.GNU-stack
                0x0000000000000000        0x0 binaries/rflputc.o
 .note.GNU-stack
                0x0000000000000000        0x0 binaries/rflread.o
 .note.GNU-stack
                0x0000000000000000        0x0 binaries/rflseek.o
 .note.GNU-stack
                0x0000000000000000        0x0 binaries/rflwrite.o
 .note.GNU-stack
                0x0000000000000000        0x0 binaries/rfscomm.o
 .note.GNU-stack
                0x0000000000000000        0x0 binaries/rfscontrol.o
 .note.GNU-stack
                0x0000000000000000        0x0 binaries/rfsgetmode.o
 .note.GNU-stack
                0x0000000000000000        0x0 binaries/rfsinit.o
 .note.GNU-stack
                0x0000000000000000        0x0 binaries/rfsndmsg.o
 .note.GNU-stack
                0x0000000000000000        0x0 binaries/rfsopen.o
 .note.GNU-stack
                0x0000000000000000        0x0 binaries/arp.o
 .note.GNU-stack
                0x0000000000000000        0x0 binaries/dhcp.o
 .note.GNU-stack
                0x0000000000000000        0x0 binaries/dot2ip.o
 .note.GNU-stack
                0x0000000000000000        0x0 binaries/hexdump.o
 .note.GNU-stack
                0x0000000000000000        0x0 binaries/icmp.o
 .note.GNU-stack
                0x0000000000000000        0x0 binaries/ip.o
 .note.GNU-stack
                0x0000000000000000        0x0 binaries/net.o
 .note.GNU-stack
                0x0000000000000000        0x0 binaries/netstart.o
 .note.GNU-stack
                0x0000000000000000        0x0 binaries/pdump.o
 .note.GNU-stack
                0x0000000000000000        0x0 binaries/tftp.o
 .note.GNU-stack
                0x0000000000000000        0x0 binaries/udp.o
 .note.GNU-stack
                0x0000000000000000        0x0 binaries/addargs.o
 .note.GNU-stack
                0x0000000000000000        0x0 binaries/lexan.o
 .note.GNU-stack
                0x0000000000000000        0x0 binaries/shell.o
 .note.GNU-stack
                0x0000000000000000        0x0 binaries/xsh_argecho.o
 .note.GNU-stack
                0x0000000000000000        0x0 binaries/xsh_arp.o
 .note.GNU-stack
                0x0000000000000000        0x0 binaries/xsh_cat.o
 .note.GNU-stack
                0x0000000000000000        0x0 binaries/xsh_clear.o
 .note.GNU-stack
                0x0000000000000000        0x0 binaries/xsh_date.o
 .note.GNU-stack
                0x0000000000000000        0x0 binaries/xsh_devdump.o
 .note.GNU-stack
                0x0000000000000000        0x0 binaries/xsh_echo.o
 .note.GNU-stack
                0x0000000000000000        0x0 binaries/xsh_exit.o
 .note.GNU-stack
                0x0000000000000000        0x0 binaries/xsh_help.o
 .note.GNU-stack
                0x0000000000000000        0x0 binaries/xsh_ipaddr.o
 .note.GNU-stack
                0x0000000000000000        0x0 binaries/xsh_kill.o
 .note.GNU-stack
                0x0000000000000000        0x0 binaries/xsh_memdump.o
 .note.GNU-stack
                0x0000000000000000        0x0 binaries/xsh_memstat.o
 .note.GNU-stack
                0x0000000000000000        0x0 binaries/xsh_ping.o
 .note.GNU-stack
                0x0000000000000000        0x0 binaries/xsh_ps.o
 .note.GNU-stack
                0x0000000000000000        0x0 binaries/xsh_sleep.o
 .note.GNU-stack
                0x0000000000000000        0x0 binaries/xsh_udpdump.o
 .note.GNU-stack
                0x0000000000000000        0x0 binaries/xsh_udpecho.o
 .note.GNU-stack
                0x0000000000000000        0x0 binaries/xsh_udpeserver.o
 .note.GNU-stack
                0x0000000000000000        0x0 binaries/xsh_uptime.o
 .note.GNU-stack
                0x0000000000000000        0x0 binaries/host2netlc.o
