
Allocating common symbols
Common symbol       size              file

netbufpool          0x4               binaries/net.o
readylist           0x2               binaries/ready.o
rfltab              0x5a0             binaries/rflinit.o
queueArr            0x28              binaries/initialize.o
sleepq              0x2               binaries/clkinit.o
nnames              0x4               binaries/naminit.o
udptab              0x168             binaries/udp.o
minheap             0x4               binaries/meminit.o
marks               0x50              binaries/mark.o
currpid             0x4               binaries/initialize.o
Lf_data             0x20c             binaries/lfsinit.o
porttab             0x2d0             binaries/ptinit.o
girmask             0x2               binaries/evec.o
ttytab              0x10c             binaries/ttyinit.o
victimglobal        0x4               binaries/myhacker.o
proctab             0x1900            binaries/initialize.o
prcount             0x4               binaries/initialize.o
victimsRetAddress   0x4               binaries/myhacker.o
lfltab              0xf00             binaries/lflinit.o
rdstab              0x8c              binaries/rdsinit.o
ethertab            0x138             binaries/ethinit.o
NetData             0xa8              binaries/net.o
nmarks              0x4               binaries/mark.o
Defer               0x8               binaries/resched.o
semtab              0x4b0             binaries/initialize.o
maxheap             0x4               binaries/meminit.o
preempt             0x4               binaries/clkinit.o
buftab              0xf0              binaries/bufinit.o
Rf_data             0x18              binaries/rfsinit.o
mkmutex             0x4               binaries/mark.o
clktimemsec         0x4               binaries/clkinit.o
clktime             0x4               binaries/clkinit.o
arpcache            0x140             binaries/arp.o
icmptab             0x230             binaries/icmp.o
nbpools             0x4               binaries/bufinit.o
queuetab            0xac0             binaries/queue.o
ptnextid            0x4               binaries/ptinit.o
Ram                 0x19000           binaries/raminit.o
ipoqueue            0x2c              binaries/ip.o
memlist             0x8               binaries/initialize.o
nametab             0x19a0            binaries/naminit.o
ptfree              0x4               binaries/ptinit.o

Memory Configuration

Name             Origin             Length             Attributes
*default*        0x0000000000000000 0xffffffffffffffff

Linker script and memory map

                0x0000000000100000                physbase = 0x100000
                0x0000000000100000                . = physbase
                0x0000000000100000                . = ALIGN (0x1000)

.text           0x0000000000100000    0x17000
                0x0000000000100000                text = ABSOLUTE (.)
 *(.text .text.*)
 .text          0x0000000000100000      0x1ac binaries/start.o
                0x0000000000100028                start
                0x00000000001000fa                inb
                0x0000000000100102                inw
                0x000000000010010b                inl
                0x0000000000100113                outb
                0x000000000010011d                outw
                0x0000000000100128                outl
                0x0000000000100132                _rtcin
                0x000000000010013d                ___udivsi3
                0x0000000000100148                ___divsi3
                0x0000000000100154                sbzero
                0x0000000000100164                bcopy
                0x0000000000100178                insw
                0x000000000010018e                outsw
                0x00000000001001a4                lidt
 .text          0x00000000001001ac       0x35 binaries/app1.o
                0x00000000001001ac                app1
 .text          0x00000000001001e1       0x8f binaries/app2.o
                0x00000000001001e1                app2
 .text          0x0000000000100270       0x67 binaries/app3.o
                0x0000000000100270                app3
 .text          0x00000000001002d7      0x2b9 binaries/ascdate.o
                0x00000000001002d7                ascdate
 .text          0x0000000000100590       0x14 binaries/bufinit.o
                0x0000000000100590                bufinit
 .text          0x00000000001005a4       0x62 binaries/chprio.o
                0x00000000001005a4                chprio
 .text          0x0000000000100606       0x90 binaries/clkhandler.o
                0x0000000000100606                clkhandler
 .text          0x0000000000100696       0x67 binaries/clkinit.o
                0x0000000000100696                clkinit
 .text          0x00000000001006fd       0x56 binaries/close.o
                0x00000000001006fd                close
 .text          0x0000000000100753        0x0 binaries/conf.o
 .text          0x0000000000100753       0x5c binaries/control.o
                0x0000000000100753                control
 .text          0x00000000001007af      0x115 binaries/cpubound.o
                0x00000000001007af                cpubound
 .text          0x00000000001008c4      0x260 binaries/create.o
                0x00000000001008c4                create
 .text          0x0000000000100b24      0x20e binaries/early_imr.o
                0x0000000000100b24                intel_cln_early_sb_read_reg
                0x0000000000100b7b                intel_cln_early_sb_write_reg
                0x0000000000100c35                remove_irm_protections
 .text          0x0000000000100d32      0x2e2 binaries/evec.o
                0x0000000000100d32                setirmask
                0x0000000000100d6a                set_evec
                0x0000000000100dc5                initevec
                0x0000000000100e97                trap
 .text          0x0000000000101014       0x30 binaries/factorial.o
                0x0000000000101014                factorial
 .text          0x0000000000101044       0x7f binaries/freebuf.o
                0x0000000000101044                freebuf
 .text          0x00000000001010c3      0x108 binaries/freemem.o
                0x00000000001010c3                freemem
 .text          0x00000000001011cb       0x6e binaries/getbuf.o
                0x00000000001011cb                getbuf
 .text          0x0000000000101239       0x56 binaries/getc.o
                0x0000000000101239                getc
 .text          0x000000000010128f       0x69 binaries/getdev.o
                0x000000000010128f                getdev
 .text          0x00000000001012f8       0x82 binaries/getitem.o
                0x00000000001012f8                getitem
                0x0000000000101327                getfirst
                0x000000000010134e                getlast
 .text          0x000000000010137a       0xc2 binaries/getmem.o
                0x000000000010137a                getmem
 .text          0x000000000010143c        0xa binaries/getpid.o
                0x000000000010143c                getpid
 .text          0x0000000000101446       0x10 binaries/getpname.o
                0x0000000000101446                getpname
 .text          0x0000000000101456       0x13 binaries/getppid.o
                0x0000000000101456                getppid
 .text          0x0000000000101469       0x54 binaries/getprio.o
                0x0000000000101469                getprio
 .text          0x00000000001014bd       0xac binaries/getstk.o
                0x00000000001014bd                getstk
 .text          0x0000000000101569       0x32 binaries/gettime.o
                0x0000000000101569                gettime
 .text          0x000000000010159b      0x186 binaries/getutime.o
                0x000000000010159b                getutime
 .text          0x0000000000101721       0x10 binaries/host2netlb.o
                0x0000000000101721                host2netlb
 .text          0x0000000000101731       0x56 binaries/init.o
                0x0000000000101731                init
 .text          0x0000000000101787      0x2e7 binaries/initialize.o
                0x0000000000101787                nulluser
                0x0000000000101a24                stop
                0x0000000000101a48                delay
 .text          0x0000000000101a6e       0xbb binaries/insert.o
                0x0000000000101a6e                insert
 .text          0x0000000000101b29       0xe8 binaries/insertd.o
                0x0000000000101b29                insertd
 .text          0x0000000000101c11       0xb2 binaries/iobound.o
                0x0000000000101c11                iobound
 .text          0x0000000000101cc3        0xa binaries/ioerr.o
                0x0000000000101cc3                ioerr
 .text          0x0000000000101ccd        0xa binaries/ionull.o
                0x0000000000101ccd                ionull
 .text          0x0000000000101cd7      0x161 binaries/kill.o
                0x0000000000101cd7                kill
 .text          0x0000000000101e38       0xa9 binaries/kprintf.o
                0x0000000000101e38                kputc
                0x0000000000101e6a                console_init
                0x0000000000101e9d                kgetc
                0x0000000000101ec3                kprintf
 .text          0x0000000000101ee1      0x3af binaries/lab2q3.o
                0x0000000000101ee1                workerProcessTypeA
                0x0000000000101ee6                workerProcessTypeB
                0x0000000000101f03                monitorProcess
                0x0000000000101f76                lab2q3t1
                0x0000000000101fd5                lab2q3t2
                0x00000000001020be                lab2q3t3
                0x00000000001021a7                lab2q3t4
 .text          0x0000000000102290      0x7f2 binaries/lab2q4.o
                0x0000000000102290                lab2q4t1
                0x0000000000102456                lab2q4t2
                0x000000000010260a                lab2q4t3
                0x00000000001027c7                lab2q4t4
                0x00000000001028b0                lab2q4t5
                0x0000000000102999                lab2q4t6
 .text          0x0000000000102a82      0x1dd binaries/lab2q5.o
                0x0000000000102a82                lab2q5t1
 .text          0x0000000000102c5f       0x56 binaries/main.o
                0x0000000000102c5f                main
 .text          0x0000000000102cb5       0x99 binaries/mark.o
                0x0000000000102cb5                markinit
                0x0000000000102cd6                mark
 .text          0x0000000000102d4e      0x1ff binaries/meminit.o
                0x0000000000102d4e                meminit
                0x0000000000102edd                setsegs
 .text          0x0000000000102f4d      0x122 binaries/mkbufpool.o
                0x0000000000102f4d                mkbufpool
 .text          0x000000000010306f       0x91 binaries/multilevelfbq.o
                0x000000000010306f                multifeedbackDQ
                0x00000000001030b5                printMFQ
 .text          0x0000000000103100       0x9c binaries/myappA.o
                0x0000000000103100                myappA
 .text          0x000000000010319c       0x23 binaries/myfuncA.o
                0x000000000010319c                myfuncA
 .text          0x00000000001031bf       0x83 binaries/myhacker.o
                0x00000000001031bf                myhackermalware
                0x00000000001031eb                getretaddrbydepth
                0x0000000000103219                myhacker
 .text          0x0000000000103242       0x9b binaries/myvictim.o
                0x0000000000103242                makevictimsleep
                0x000000000010326d                invokevictimsleep
                0x0000000000103298                myvictim
 .text          0x00000000001032dd       0x5f binaries/mywelcomemsg.o
                0x00000000001032dd                mywelcomemsg
 .text          0x000000000010333c       0x63 binaries/newqueue.o
                0x000000000010333c                newqueue
 .text          0x000000000010339f       0x5c binaries/open.o
                0x000000000010339f                open
 .text          0x00000000001033fb       0x20 binaries/panic.o
                0x00000000001033fb                panic
 .text          0x000000000010341b      0x282 binaries/pci.o
                0x000000000010341b                pci_init
                0x0000000000103425                find_pci_device
                0x00000000001034e4                pci_read_config_byte
                0x0000000000103522                pci_read_config_word
                0x0000000000103562                pci_read_config_dword
                0x00000000001035a0                pci_write_config_byte
                0x00000000001035dc                pci_write_config_word
                0x0000000000103619                pci_write_config_dword
                0x0000000000103655                pci_get_dev_mmio_base_addr
 .text          0x000000000010369d       0x50 binaries/platinit.o
                0x000000000010369d                platinit
 .text          0x00000000001036ed       0xa7 binaries/printsegaddr.o
                0x00000000001036ed                printsegaddr
 .text          0x0000000000103794      0x3ec binaries/process_state.o
                0x0000000000103794                process_state
 .text          0x0000000000103b80       0xa9 binaries/ptclear.o
                0x0000000000103b80                _ptclear
 .text          0x0000000000103c29       0x85 binaries/ptcount.o
                0x0000000000103c29                ptcount
 .text          0x0000000000103cae       0xfe binaries/ptcreate.o
                0x0000000000103cae                ptcreate
 .text          0x0000000000103dac       0x63 binaries/ptdelete.o
                0x0000000000103dac                ptdelete
 .text          0x0000000000103e0f       0x91 binaries/ptinit.o
                0x0000000000103e0f                ptinit
 .text          0x0000000000103ea0       0xf5 binaries/ptrecv.o
                0x0000000000103ea0                ptrecv
 .text          0x0000000000103f95       0x66 binaries/ptreset.o
                0x0000000000103f95                ptreset
 .text          0x0000000000103ffb      0x115 binaries/ptsend.o
                0x0000000000103ffb                ptsend
 .text          0x0000000000104110       0x64 binaries/putc.o
                0x0000000000104110                putc
 .text          0x0000000000104174       0xb3 binaries/quark_irq.o
                0x0000000000104174                quark_irq_routing
 .text          0x0000000000104227      0x19a binaries/quark_pdat.o
                0x0000000000104227                get_quark_pdat_entry_data_by_id
                0x00000000001042f1                get_quark_pdat_entry_data_by_desc
 .text          0x00000000001043c1      0x16d binaries/queue.o
                0x00000000001043c1                enqueue
                0x0000000000104467                dequeue
                0x00000000001044b2                printQueue
 .text          0x000000000010452e       0x5c binaries/read.o
                0x000000000010452e                read
 .text          0x000000000010458a       0xcc binaries/ready.o
                0x000000000010458a                ready
 .text          0x0000000000104656       0x5a binaries/receive.o
                0x0000000000104656                receive
 .text          0x00000000001046b0       0x42 binaries/recvclr.o
                0x00000000001046b0                recvclr
 .text          0x00000000001046f2       0xad binaries/recvtime.o
                0x00000000001046f2                recvtime
 .text          0x000000000010479f      0x3a8 binaries/resched.o
                0x000000000010479f                currproc_eligible
                0x00000000001047f4                resched_lab3
                0x0000000000104916                reward_ready_waiting
                0x000000000010494c                resched_lab2
                0x0000000000104ab8                resched
                0x0000000000104ad5                resched_cntl
 .text          0x0000000000104b47       0x7e binaries/resume.o
                0x0000000000104b47                resume
 .text          0x0000000000104bc5       0x59 binaries/seek.o
                0x0000000000104bc5                seek
 .text          0x0000000000104c1e       0x51 binaries/semcount.o
                0x0000000000104c1e                semcount
 .text          0x0000000000104c6f       0x93 binaries/semcreate.o
                0x0000000000104c6f                semcreate
 .text          0x0000000000104d02       0xd1 binaries/semdelete.o
                0x0000000000104d02                semdelete
 .text          0x0000000000104dd3       0xa8 binaries/semreset.o
                0x0000000000104dd3                semreset
 .text          0x0000000000104e7b       0xb3 binaries/send.o
                0x0000000000104e7b                send
 .text          0x0000000000104f2e       0x95 binaries/signal.o
                0x0000000000104f2e                signal
 .text          0x0000000000104fc3       0xc2 binaries/signaln.o
                0x0000000000104fc3                signaln
 .text          0x0000000000105085       0xbd binaries/sleep.o
                0x0000000000105085                sleepms
                0x000000000010510c                sleep
 .text          0x0000000000105142       0x94 binaries/stackdepth.o
                0x0000000000105142                stackdepth
 .text          0x00000000001051d6      0x17c binaries/stacktrace.o
                0x00000000001051d6                stacktrace
 .text          0x0000000000105352       0xac binaries/suspend.o
                0x0000000000105352                suspend
 .text          0x00000000001053fe       0x27 binaries/teststackdepth.o
                0x00000000001053fe                teststackdepth
 .text          0x0000000000105425        0x0 binaries/tsdtab.o
 .text          0x0000000000105425       0x91 binaries/unsleep.o
                0x0000000000105425                unsleep
 .text          0x00000000001054b6       0x19 binaries/userret.o
                0x00000000001054b6                userret
 .text          0x00000000001054cf       0xac binaries/wait.o
                0x00000000001054cf                wait
 .text          0x000000000010557b       0x71 binaries/wakeup.o
                0x000000000010557b                wakeup
 .text          0x00000000001055ec       0x5c binaries/write.o
                0x00000000001055ec                write
 .text          0x0000000000105648       0x1a binaries/xdone.o
                0x0000000000105648                xdone
 .text          0x0000000000105662       0x26 binaries/yield.o
                0x0000000000105662                yield
 .text          0x0000000000105688       0x11 binaries/abs.o
                0x0000000000105688                abs
 .text          0x0000000000105699       0x84 binaries/atoi.o
                0x0000000000105699                atoi
 .text          0x000000000010571d       0x84 binaries/atol.o
                0x000000000010571d                atol
 .text          0x00000000001057a1       0x1a binaries/bzero.o
                0x00000000001057a1                bzero
 .text          0x00000000001057bb        0x0 binaries/ctype_.o
 .text          0x00000000001057bb      0x6bf binaries/doprnt.o
                0x000000000010590e                _doprnt
 .text          0x0000000000105e7a      0x5f2 binaries/doscan.o
                0x0000000000105e7a                _doscan
 .text          0x000000000010646c      0x64e binaries/fdoprnt.o
                0x00000000001064f1                _fdoprnt
 .text          0x0000000000106aba       0x1c binaries/fgetc.o
                0x0000000000106aba                fgetc
 .text          0x0000000000106ad6       0x61 binaries/fgets.o
                0x0000000000106ad6                fgets
 .text          0x0000000000106b37       0x21 binaries/fprintf.o
                0x0000000000106b37                fprintf
 .text          0x0000000000106b58       0x27 binaries/fputc.o
                0x0000000000106b58                fputc
 .text          0x0000000000106b7f       0x3a binaries/fputs.o
                0x0000000000106b7f                fputs
 .text          0x0000000000106bb9       0x6a binaries/fscanf.o
                0x0000000000106bf7                fscanf
 .text          0x0000000000106c23       0x1d binaries/getchar.o
                0x0000000000106c23                getchar
 .text          0x0000000000106c40       0x11 binaries/labs.o
                0x0000000000106c40                labs
 .text          0x0000000000106c51       0x36 binaries/memchr.o
                0x0000000000106c51                memchr
 .text          0x0000000000106c87       0x4a binaries/memcmp.o
                0x0000000000106c87                memcmp
 .text          0x0000000000106cd1       0x26 binaries/memcpy.o
                0x0000000000106cd1                memcpy
 .text          0x0000000000106cf7       0x1f binaries/memset.o
                0x0000000000106cf7                memset
 .text          0x0000000000106d16       0x2e binaries/printf.o
                0x0000000000106d16                printf
 .text          0x0000000000106d44       0x20 binaries/putchar.o
                0x0000000000106d44                putchar
 .text          0x0000000000106d64      0x1cc binaries/qsort.o
                0x0000000000106f08                qsort
 .text          0x0000000000106f30       0x4c binaries/rand.o
                0x0000000000106f30                srand
                0x0000000000106f3d                rand
 .text          0x0000000000106f7c       0x48 binaries/sprintf.o
                0x0000000000106f95                sprintf
 .text          0x0000000000106fc4       0x5a binaries/sscanf.o
                0x0000000000106ff4                sscanf
 .text          0x000000000010701e       0x2f binaries/strchr.o
                0x000000000010701e                strchr
 .text          0x000000000010704d       0x45 binaries/strcmp.o
                0x000000000010704d                strcmp
 .text          0x0000000000107092       0x1c binaries/strcpy.o
                0x0000000000107092                strcpy
 .text          0x00000000001070ae       0x20 binaries/strlen.o
                0x00000000001070ae                strlen
 .text          0x00000000001070ce       0x3d binaries/strncat.o
                0x00000000001070ce                strncat
 .text          0x000000000010710b       0x3b binaries/strncmp.o
                0x000000000010710b                strncmp
 .text          0x0000000000107146       0x59 binaries/strncpy.o
                0x0000000000107146                strncpy
 .text          0x000000000010719f       0x38 binaries/strnlen.o
                0x000000000010719f                strnlen
 .text          0x00000000001071d7       0x32 binaries/strrchr.o
                0x00000000001071d7                strrchr
 .text          0x0000000000107209       0x68 binaries/strstr.o
                0x0000000000107209                strstr
 .text          0x0000000000107271      0x112 binaries/ttycontrol.o
                0x0000000000107271                ttycontrol
 .text          0x0000000000107383       0xb0 binaries/ttygetc.o
                0x0000000000107383                ttygetc
 .text          0x0000000000107433      0x4a3 binaries/ttyhandle_in.o
                0x00000000001074f7                ttyhandle_in
 .text          0x00000000001078d6      0x178 binaries/ttyhandle_out.o
                0x00000000001078d6                ttyhandle_out
 .text          0x0000000000107a4e       0x85 binaries/ttyhandler.o
                0x0000000000107a4e                ttyhandler
 .text          0x0000000000107ad3      0x15d binaries/ttyinit.o
                0x0000000000107ad3                ttyinit
 .text          0x0000000000107c30        0xf binaries/ttykickout.o
                0x0000000000107c30                ttykickout
 .text          0x0000000000107c3f       0xb2 binaries/ttyputc.o
                0x0000000000107c3f                ttyputc
 .text          0x0000000000107cf1       0xff binaries/ttyread.o
                0x0000000000107cf1                ttyread
 .text          0x0000000000107df0       0x4d binaries/ttywrite.o
                0x0000000000107df0                ttywrite
 .text          0x0000000000107e3d      0x129 binaries/mount.o
                0x0000000000107e3d                namlen
                0x0000000000107e79                mount
 .text          0x0000000000107f66      0x1c4 binaries/naminit.o
                0x0000000000107f66                naminit
 .text          0x000000000010812a      0x1fe binaries/nammap.o
                0x000000000010812a                namrepl
                0x000000000010824d                namcpy
                0x000000000010829b                nammap
 .text          0x0000000000108328       0x44 binaries/namopen.o
                0x0000000000108328                namopen
 .text          0x000000000010836c       0xd4 binaries/colon2mac.o
                0x000000000010836c                colon2mac
 .text          0x0000000000108440       0x7d binaries/ethcontrol.o
                0x0000000000108440                ethcontrol
 .text          0x00000000001084bd      0x17e binaries/ethhandler.o
                0x00000000001084bd                ethhandler
 .text          0x000000000010863b      0x548 binaries/ethinit.o
                0x000000000010863b                eth_phy_read
                0x000000000010867b                eth_phy_write
                0x00000000001086bc                eth_phy_reset
                0x0000000000108796                ethinit
 .text          0x0000000000108b83      0x107 binaries/ethmcast.o
                0x0000000000108b83                ethmcast_add
                0x0000000000108bcf                ethmcast_remove
 .text          0x0000000000108c8a      0x172 binaries/ethread.o
                0x0000000000108c8a                ethread
 .text          0x0000000000108dfc       0xc1 binaries/ethwrite.o
                0x0000000000108dfc                ethwrite
 .text          0x0000000000108ebd       0x68 binaries/rdsbufalloc.o
                0x0000000000108ebd                rdsbufalloc
 .text          0x0000000000108f25       0xd6 binaries/rdsclose.o
                0x0000000000108f25                rdsclose
 .text          0x0000000000108ffb      0x1df binaries/rdscomm.o
                0x0000000000108ffb                rdscomm
 .text          0x00000000001091da      0x1c4 binaries/rdscontrol.o
                0x00000000001091da                rdscontrol
 .text          0x000000000010939e      0x1f7 binaries/rdsinit.o
                0x000000000010939e                rdsinit
 .text          0x0000000000109595      0x199 binaries/rdsopen.o
                0x0000000000109595                rdsopen
 .text          0x000000000010972e      0x2c5 binaries/rdsprocess.o
                0x000000000010972e                rdsprocess
 .text          0x00000000001099f3      0x1d8 binaries/rdsread.o
                0x00000000001099f3                rdsread
 .text          0x0000000000109bcb      0x1ae binaries/rdswrite.o
                0x0000000000109bcb                rdswrite
 .text          0x0000000000109d79        0xa binaries/ramclose.o
                0x0000000000109d79                ramclose
 .text          0x0000000000109d83       0x35 binaries/raminit.o
                0x0000000000109d83                raminit
 .text          0x0000000000109db8        0xa binaries/ramopen.o
                0x0000000000109db8                ramopen
 .text          0x0000000000109dc2       0x26 binaries/ramread.o
                0x0000000000109dc2                ramread
 .text          0x0000000000109de8       0x26 binaries/ramwrite.o
                0x0000000000109de8                ramwrite
 .text          0x0000000000109e0e       0x87 binaries/lfdballoc.o
                0x0000000000109e0e                lfdballoc
 .text          0x0000000000109e95       0x49 binaries/lfdbfree.o
                0x0000000000109e95                lfdbfree
 .text          0x0000000000109ede       0xa1 binaries/lfflush.o
                0x0000000000109ede                lfflush
 .text          0x0000000000109f7f       0x82 binaries/lfgetmode.o
                0x0000000000109f7f                lfgetmode
 .text          0x000000000010a001       0x60 binaries/lfiballoc.o
                0x000000000010a001                lfiballoc
 .text          0x000000000010a061       0x27 binaries/lfibclear.o
                0x000000000010a061                lfibclear
 .text          0x000000000010a088       0x6c binaries/lfibget.o
                0x000000000010a088                lfibget
 .text          0x000000000010a0f4       0x88 binaries/lfibput.o
                0x000000000010a0f4                lfibput
 .text          0x000000000010a17c       0xa4 binaries/lflclose.o
                0x000000000010a17c                lflclose
 .text          0x000000000010a220       0xc2 binaries/lflcontrol.o
                0x000000000010a220                lflcontrol
 .text          0x000000000010a2e2       0xfd binaries/lflgetc.o
                0x000000000010a2e2                lflgetc
 .text          0x000000000010a3df       0xe7 binaries/lflinit.o
                0x000000000010a3df                lflinit
 .text          0x000000000010a4c6      0x12f binaries/lflputc.o
                0x000000000010a4c6                lflputc
 .text          0x000000000010a5f5       0x6b binaries/lflread.o
                0x000000000010a5f5                lflread
 .text          0x000000000010a660       0xbd binaries/lflseek.o
                0x000000000010a660                lflseek
 .text          0x000000000010a71d       0x52 binaries/lflwrite.o
                0x000000000010a71d                lflwrite
 .text          0x000000000010a76f      0x114 binaries/lfsckfmt.o
                0x000000000010a76f                lfsckfmt
 .text          0x000000000010a883      0x1e6 binaries/lfscreate.o
                0x000000000010a883                lfscreate
 .text          0x000000000010aa69      0x1b1 binaries/lfsetup.o
                0x000000000010aa69                lfsetup
 .text          0x000000000010ac1a       0x45 binaries/lfsinit.o
                0x000000000010ac1a                lfsinit
 .text          0x000000000010ac5f      0x302 binaries/lfsopen.o
                0x000000000010ac5f                lfsopen
 .text          0x000000000010af61      0x112 binaries/lftruncate.o
                0x000000000010af61                lftruncate
 .text          0x000000000010b073       0x69 binaries/rflclose.o
                0x000000000010b073                rflclose
 .text          0x000000000010b0dc       0x29 binaries/rflgetc.o
                0x000000000010b0dc                rflgetc
 .text          0x000000000010b105       0x6c binaries/rflinit.o
                0x000000000010b105                rflinit
 .text          0x000000000010b171       0x29 binaries/rflputc.o
                0x000000000010b171                rflputc
 .text          0x000000000010b19a      0x2b6 binaries/rflread.o
                0x000000000010b19a                rflread
 .text          0x000000000010b450       0x68 binaries/rflseek.o
                0x000000000010b450                rflseek
 .text          0x000000000010b4b8      0x2fa binaries/rflwrite.o
                0x000000000010b4b8                rflwrite
 .text          0x000000000010b7b2      0x17d binaries/rfscomm.o
                0x000000000010b7b2                rfscomm
 .text          0x000000000010b92f      0x22b binaries/rfscontrol.o
                0x000000000010b92f                rfscontrol
 .text          0x000000000010bb5a       0x82 binaries/rfsgetmode.o
                0x000000000010bb5a                rfsgetmode
 .text          0x000000000010bbdc       0x7e binaries/rfsinit.o
                0x000000000010bbdc                rfsinit
 .text          0x000000000010bc5a       0xad binaries/rfsndmsg.o
                0x000000000010bc5a                rfsndmsg
 .text          0x000000000010bd07      0x243 binaries/rfsopen.o
                0x000000000010bd07                rfsopen
 .text          0x000000000010bf4a      0x626 binaries/arp.o
                0x000000000010bf4a                arp_init
                0x000000000010bf66                arp_alloc
                0x000000000010c00d                arp_ntoh
                0x000000000010c07a                arp_hton
                0x000000000010c0e7                arp_resolve
                0x000000000010c338                arp_in
 .text          0x000000000010c570      0x5ed binaries/dhcp.o
                0x000000000010c570                dhcp_get_opt_val
                0x000000000010c5c4                dhcp_bld_bootp_msg
                0x000000000010c696                dhcp_bld_disc
                0x000000000010c6e8                dhcp_bld_req
                0x000000000010c783                getlocalip
 .text          0x000000000010cb5d       0xda binaries/dot2ip.o
                0x000000000010cb5d                dot2ip
 .text          0x000000000010cc37      0x38c binaries/hexdump.o
                0x000000000010cc37                hexdump
                0x000000000010cd91                hexadump
 .text          0x000000000010cfc3      0x6f6 binaries/icmp.o
                0x000000000010cfc3                icmp_init
                0x000000000010cfdf                icmp_register
                0x000000000010d09d                icmp_recv
                0x000000000010d240                icmp_mkpkt
                0x000000000010d30d                icmp_in
                0x000000000010d4a7                icmp_send
                0x000000000010d516                icmp_release
                0x000000000010d631                icmp_cksum
                0x000000000010d68b                icmp_hton
                0x000000000010d6a2                icmp_ntoh
 .text          0x000000000010d6b9      0x5e2 binaries/ip.o
                0x000000000010d6b9                ip_local
                0x000000000010d6f9                ipcksum
                0x000000000010d74f                ip_ntoh
                0x000000000010d7bc                ip_in
                0x000000000010d8e1                ip_hton
                0x000000000010d94e                ip_out
                0x000000000010da04                ip_send
                0x000000000010db0f                ipout
                0x000000000010dc02                ip_enqueue
 .text          0x000000000010dc9b      0x1b2 binaries/net.o
                0x000000000010dc9b                net_init
                0x000000000010dd92                eth_hton
                0x000000000010dd9f                eth_ntoh
                0x000000000010ddac                netin
 .text          0x000000000010de4d       0xb9 binaries/netstart.o
                0x000000000010de4d                netstart
 .text          0x000000000010df06      0xa30 binaries/pdump.o
                0x000000000010df06                pdump
                0x000000000010e4eb                pdumph
 .text          0x000000000010e936      0x5b8 binaries/tftp.o
                0x000000000010e936                tftp_send1
                0x000000000010ea4a                tftpget_mb
                0x000000000010eecb                tftpget
 .text          0x000000000010eeee      0xa17 binaries/udp.o
                0x000000000010eeee                udp_init
                0x000000000010ef2f                udp_in
                0x000000000010f058                udp_register
                0x000000000010f169                udp_recv
                0x000000000010f302                udp_recvaddr
                0x000000000010f4af                udp_send
                0x000000000010f65d                udp_sendto
                0x000000000010f7c6                udp_release
                0x000000000010f8d7                udp_ntoh
                0x000000000010f8ee                udp_hton
 .text          0x000000000010f905      0x10e binaries/addargs.o
                0x000000000010f905                addargs
 .text          0x000000000010fa13      0x1db binaries/lexan.o
                0x000000000010fa13                lexan
 .text          0x000000000010fbee      0x657 binaries/shell.o
                0x000000000010fbee                shell
 .text          0x0000000000110245       0x59 binaries/xsh_argecho.o
                0x0000000000110245                xsh_argecho
 .text          0x000000000011029e      0x1fb binaries/xsh_arp.o
                0x000000000011029e                xsh_arp
 .text          0x0000000000110499      0x1db binaries/xsh_cat.o
                0x0000000000110499                xsh_cat
 .text          0x0000000000110674       0x4f binaries/xsh_clear.o
                0x0000000000110674                xsh_clear
 .text          0x00000000001106c3      0x278 binaries/xsh_date.o
                0x00000000001106c3                xsh_date
 .text          0x000000000011093b       0x80 binaries/xsh_devdump.o
                0x000000000011093b                xsh_devdump
 .text          0x00000000001109bb       0x63 binaries/xsh_echo.o
                0x00000000001109bb                xsh_echo
 .text          0x0000000000110a1e        0xa binaries/xsh_exit.o
                0x0000000000110a1e                xsh_exit
 .text          0x0000000000110a28      0x323 binaries/xsh_help.o
                0x0000000000110a28                xsh_help
 .text          0x0000000000110d4b      0x367 binaries/xsh_ipaddr.o
                0x0000000000110d4b                xsh_ipaddr
 .text          0x00000000001110b2      0x1aa binaries/xsh_kill.o
                0x00000000001110b2                xsh_kill
 .text          0x000000000011125c      0x3bd binaries/xsh_memdump.o
                0x0000000000111322                xsh_memdump
 .text          0x0000000000111619      0x1cc binaries/xsh_memstat.o
                0x0000000000111619                xsh_memstat
 .text          0x00000000001117e5      0x27f binaries/xsh_ping.o
                0x00000000001117e5                xsh_ping
 .text          0x0000000000111a64      0x1a9 binaries/xsh_ps.o
                0x0000000000111a64                xsh_ps
 .text          0x0000000000111c0d      0x1a3 binaries/xsh_sleep.o
                0x0000000000111c0d                xsh_sleep
 .text          0x0000000000111db0      0x1c3 binaries/xsh_udpdump.o
                0x0000000000111db0                xsh_udpdump
 .text          0x0000000000111f73      0x3ad binaries/xsh_udpecho.o
                0x0000000000111f73                xsh_udpecho
 .text          0x0000000000112320      0x1fc binaries/xsh_udpeserver.o
                0x0000000000112320                xsh_udpeserver
 .text          0x000000000011251c      0x1b0 binaries/xsh_uptime.o
                0x000000000011251c                xsh_uptime
 .text          0x00000000001126cc        0xe binaries/clkdisp.o
                0x00000000001126cc                clkdisp
 .text          0x00000000001126da       0x19 binaries/ctxsw.o
                0x00000000001126da                ctxsw
 .text          0x00000000001126f3        0xa binaries/host2netla.o
                0x00000000001126f3                host2netla
 *fill*         0x00000000001126fd        0x3 
 .text          0x0000000000112700       0x25 binaries/host2netlc.o
                0x0000000000112700                host2netlc
 .text.unlikely
                0x0000000000112725        0x0 binaries/host2netlc.o
 .text          0x0000000000112725      0x376 binaries/intr.o
                0x0000000000112725                disable
                0x000000000011272e                restore
                0x000000000011273c                enable
                0x000000000011273e                pause
                0x0000000000112745                idle
                0x0000000000112750                halt
                0x0000000000112756                spurious_irq7
                0x000000000011275b                spurious_irq15
                0x000000000011276a                _Xint0
                0x0000000000112775                _Xint1
                0x0000000000112780                _Xint2
                0x000000000011278b                _Xint3
                0x0000000000112796                _Xint4
                0x00000000001127a1                _Xint5
                0x00000000001127ac                _Xint6
                0x00000000001127b7                _Xint7
                0x00000000001127c2                _Xint8
                0x00000000001127cd                _Xint9
                0x00000000001127d8                _Xint10
                0x00000000001127e3                _Xint11
                0x00000000001127f1                _Xint12
                0x00000000001127ff                _Xint13
                0x000000000011280d                _Xint14
                0x000000000011281b                _Xint15
                0x0000000000112829                _Xint16
                0x0000000000112837                _Xint17
                0x0000000000112845                _Xint18
                0x0000000000112853                _Xint19
                0x0000000000112861                _Xint20
                0x000000000011286f                _Xint21
                0x000000000011287d                _Xint22
                0x000000000011288b                _Xint23
                0x0000000000112899                _Xint24
                0x00000000001128a7                _Xint25
                0x00000000001128b5                _Xint26
                0x00000000001128c3                _Xint27
                0x00000000001128d1                _Xint28
                0x00000000001128df                _Xint29
                0x00000000001128ed                _Xint30
                0x00000000001128fb                _Xint31
                0x0000000000112909                _Xint32
                0x0000000000112917                _Xint33
                0x0000000000112925                _Xint34
                0x0000000000112933                _Xint35
                0x0000000000112941                _Xint36
                0x000000000011294f                _Xint37
                0x000000000011295d                _Xint38
                0x000000000011296b                _Xint39
                0x0000000000112979                _Xint40
                0x0000000000112987                _Xint41
                0x0000000000112995                _Xint42
                0x00000000001129a3                _Xint43
                0x00000000001129b1                _Xint44
                0x00000000001129bf                _Xint45
                0x00000000001129cd                _Xint46
                0x00000000001129db                defevec
 .text          0x0000000000112a9b        0xf binaries/ttydispatch.o
                0x0000000000112a9b                ttydispatch
 .text          0x0000000000112aaa       0x13 binaries/ethdispatch.o
                0x0000000000112aaa                ethdispatch
 *(.rodata .rodata.*)
 .rodata.str1.1
                0x0000000000112abd       0x17 binaries/app1.o
 .rodata.str1.1
                0x0000000000112ad4        0x5 binaries/app2.o
                                         0x1c (size before relaxing)
 *fill*         0x0000000000112ad9        0x3 
 .rodata.str1.4
                0x0000000000112adc       0x2d binaries/app2.o
 *fill*         0x0000000000112b09        0x3 
 .rodata.str1.4
                0x0000000000112b0c       0x4a binaries/app3.o
 .rodata.str1.1
                0x0000000000112b56       0x29 binaries/app3.o
 .rodata.str1.1
                0x0000000000112b7f       0x54 binaries/ascdate.o
 *fill*         0x0000000000112bd3        0x1 
 .rodata.str1.4
                0x0000000000112bd4       0x22 binaries/ascdate.o
 *fill*         0x0000000000112bf6        0x2 
 .rodata        0x0000000000112bf8        0x4 binaries/clkhandler.o
                0x0000000000112bf8                MAX_UINT32
 .rodata.str1.1
                0x0000000000112bfc       0x5f binaries/conf.o
 *fill*         0x0000000000112c5b        0x1 
 .rodata.str1.4
                0x0000000000112c5c      0x134 binaries/cpubound.o
 .rodata.str1.1
                0x0000000000112d90        0x7 binaries/create.o
 *fill*         0x0000000000112d97        0x1 
 .rodata.str1.4
                0x0000000000112d98       0x4f binaries/early_imr.o
 *fill*         0x0000000000112de7        0x1 
 .rodata        0x0000000000112de8       0x33 binaries/early_imr.o
 .rodata.str1.1
                0x0000000000112e1b      0x20c binaries/evec.o
 *fill*         0x0000000000113027        0x1 
 .rodata.str1.4
                0x0000000000113028       0x23 binaries/evec.o
 .rodata.str1.1
                0x000000000011304b        0xb binaries/getutime.o
 *fill*         0x0000000000113056        0x2 
 .rodata.str1.4
                0x0000000000113058       0x54 binaries/getutime.o
 .rodata.str1.1
                0x00000000001130ac       0x64 binaries/initialize.o
                                         0x6f (size before relaxing)
 .rodata.str1.4
                0x0000000000113110      0x168 binaries/initialize.o
 .rodata        0x0000000000113278        0x4 binaries/initialize.o
                0x0000000000113278                MAX_INT32
 .rodata.str1.1
                0x000000000011327c       0x18 binaries/insert.o
 .rodata.str1.4
                0x0000000000113294       0x80 binaries/iobound.o
 .rodata        0x0000000000113294       0x20 binaries/kill.o
 .rodata.str1.1
                0x00000000001132b4       0x7a binaries/lab2q3.o
 *fill*         0x000000000011332e        0x2 
 .rodata.str1.4
                0x0000000000113330      0x23b binaries/lab2q3.o
 .rodata.str1.1
                0x000000000011356b       0x7e binaries/lab2q4.o
                                         0xf8 (size before relaxing)
 *fill*         0x00000000001135e9        0x3 
 .rodata.str1.4
                0x00000000001135ec      0x1fb binaries/lab2q4.o
                                        0x28f (size before relaxing)
 .rodata.str1.1
                0x00000000001137e7       0x42 binaries/lab2q5.o
 .rodata.str1.1
                0x00000000001137e7        0x6 binaries/main.o
 *fill*         0x00000000001137ed        0x3 
 .rodata.str1.4
                0x00000000001137f0       0x23 binaries/meminit.o
 .rodata.str1.1
                0x0000000000113813       0x1b binaries/meminit.o
 *fill*         0x000000000011382e        0x2 
 .rodata.str1.4
                0x0000000000113830       0x1f binaries/multilevelfbq.o
 *fill*         0x000000000011384f        0x1 
 .rodata.str1.4
                0x0000000000113850      0x103 binaries/myappA.o
 *fill*         0x0000000000113953        0x1 
 .rodata.str1.4
                0x0000000000113954       0x57 binaries/myfuncA.o
 *fill*         0x00000000001139ab        0x1 
 .rodata.str1.4
                0x00000000001139ac       0x4c binaries/myhacker.o
 .rodata.str1.4
                0x00000000001139f8      0x178 binaries/myvictim.o
 .rodata.str1.4
                0x0000000000113b70      0x19b binaries/mywelcomemsg.o
 .rodata.str1.1
                0x0000000000113d0b       0x16 binaries/mywelcomemsg.o
 .rodata.str1.1
                0x0000000000113d21        0xf binaries/panic.o
 .rodata.str1.4
                0x0000000000113d30       0xe1 binaries/printsegaddr.o
 .rodata.str1.1
                0x0000000000113e11       0x94 binaries/process_state.o
                                         0xce (size before relaxing)
 *fill*         0x0000000000113ea5        0x3 
 .rodata.str1.4
                0x0000000000113ea8       0x97 binaries/process_state.o
 *fill*         0x0000000000113f3f        0x1 
 .rodata        0x0000000000113f40      0x1b0 binaries/process_state.o
 .rodata.str1.1
                0x00000000001140f0       0x1c binaries/ptinit.o
 .rodata.str1.4
                0x000000000011410c       0x25 binaries/ptsend.o
 .rodata.str1.1
                0x0000000000114131       0x22 binaries/quark_pdat.o
 .rodata.str1.1
                0x0000000000114153       0x1b binaries/queue.o
                                         0x2f (size before relaxing)
 *fill*         0x000000000011416e        0x2 
 .rodata.str1.4
                0x0000000000114170       0x58 binaries/stackdepth.o
 .rodata.str1.1
                0x00000000001141c8       0x18 binaries/stackdepth.o
                                         0x1b (size before relaxing)
 .rodata.str1.4
                0x00000000001141e0       0x63 binaries/stacktrace.o
 .rodata.str1.1
                0x0000000000114243       0x52 binaries/stacktrace.o
 .rodata.str1.1
                0x0000000000114295       0x1c binaries/teststackdepth.o
 *fill*         0x00000000001142b1        0x3 
 .rodata.str1.4
                0x00000000001142b4       0x27 binaries/xdone.o
 *fill*         0x00000000001142db        0x5 
 .rodata        0x00000000001142e0       0x81 binaries/ctype_.o
                0x00000000001142e0                _ctype_
 .rodata.str1.1
                0x0000000000114361       0x29 binaries/doprnt.o
 *fill*         0x000000000011438a        0x2 
 .rodata        0x000000000011438c       0xc4 binaries/doprnt.o
 .rodata        0x0000000000114450       0x98 binaries/doscan.o
 .rodata.str1.1
                0x00000000001144e8       0x29 binaries/fdoprnt.o
 .rodata        0x00000000001144e8       0x84 binaries/fdoprnt.o
 .rodata        0x000000000011456c       0x20 binaries/ttycontrol.o
 .rodata.str1.4
                0x000000000011458c       0x4c binaries/naminit.o
 .rodata.str1.1
                0x00000000001145d8       0x32 binaries/naminit.o
                                         0x35 (size before relaxing)
 .rodata.str1.1
                0x000000000011460a       0x15 binaries/ethinit.o
 *fill*         0x000000000011461f        0x1 
 .rodata.str1.4
                0x0000000000114620       0x2e binaries/ethinit.o
 *fill*         0x000000000011464e        0x2 
 .rodata.str1.4
                0x0000000000114650       0x2c binaries/rdsbufalloc.o
 .rodata.str1.4
                0x000000000011467c       0x76 binaries/rdscomm.o
 *fill*         0x00000000001146f2        0x2 
 .rodata.str1.4
                0x00000000001146f4       0x48 binaries/rdscontrol.o
 .rodata.str1.4
                0x000000000011473c       0x7e binaries/rdsinit.o
 .rodata.str1.1
                0x00000000001147ba       0x18 binaries/rdsinit.o
 *fill*         0x00000000001147d2        0x2 
 .rodata.str1.4
                0x00000000001147d4       0x22 binaries/rdsopen.o
 *fill*         0x00000000001147f6        0x2 
 .rodata.str1.4
                0x00000000001147f8       0x4d binaries/rdsprocess.o
 .rodata.str1.1
                0x0000000000114845        0x9 binaries/raminit.o
 .rodata.str1.1
                0x000000000011484e       0x13 binaries/lfdballoc.o
 *fill*         0x0000000000114861        0x3 
 .rodata.str1.4
                0x0000000000114864       0x23 binaries/lfdballoc.o
 .rodata.str1.1
                0x0000000000114887       0x14 binaries/lfiballoc.o
 *fill*         0x000000000011489b        0x1 
 .rodata.str1.4
                0x000000000011489c       0x23 binaries/lflcontrol.o
 .rodata.str1.1
                0x00000000001148bf       0x64 binaries/lfsckfmt.o
 *fill*         0x0000000000114923        0x1 
 .rodata.str1.4
                0x0000000000114924       0x51 binaries/lfsckfmt.o
 *fill*         0x0000000000114975        0x3 
 .rodata.str1.4
                0x0000000000114978       0x21 binaries/rflread.o
 .rodata.str1.4
                0x0000000000114999       0x21 binaries/rflwrite.o
 *fill*         0x0000000000114999        0x3 
 .rodata.str1.4
                0x000000000011499c       0x75 binaries/rfscomm.o
 *fill*         0x0000000000114a11        0x3 
 .rodata.str1.4
                0x0000000000114a14       0x23 binaries/rfscontrol.o
 *fill*         0x0000000000114a37        0x1 
 .rodata        0x0000000000114a38       0x18 binaries/rfscontrol.o
 .rodata.str1.1
                0x0000000000114a50       0x10 binaries/rfsinit.o
 .rodata.str1.4
                0x0000000000114a50       0x57 binaries/rfsinit.o
 *fill*         0x0000000000114aa7        0x1 
 .rodata.str1.4
                0x0000000000114aa8       0x2a binaries/rfsndmsg.o
 .rodata.str1.4
                0x0000000000114ad2       0x22 binaries/rfsopen.o
 .rodata.str1.1
                0x0000000000114ad2       0x19 binaries/arp.o
 *fill*         0x0000000000114aeb        0x1 
 .rodata.str1.4
                0x0000000000114aec       0x21 binaries/arp.o
 *fill*         0x0000000000114b0d        0x3 
 .rodata.str1.4
                0x0000000000114b10       0xa6 binaries/dhcp.o
 .rodata.str1.1
                0x0000000000114bb6       0x4a binaries/dhcp.o
 .rodata.str1.1
                0x0000000000114c00       0x5a binaries/hexdump.o
                                         0x61 (size before relaxing)
 *fill*         0x0000000000114c5a        0x2 
 .rodata.str1.4
                0x0000000000114c5c       0x67 binaries/hexdump.o
 *fill*         0x0000000000114cc3        0x1 
 .rodata.str1.4
                0x0000000000114cc4       0x29 binaries/icmp.o
 .rodata.str1.1
                0x0000000000114ced       0x4e binaries/ip.o
 *fill*         0x0000000000114d3b        0x1 
 .rodata.str1.4
                0x0000000000114d3c       0x20 binaries/ip.o
 .rodata.str1.4
                0x0000000000114d5c       0x28 binaries/net.o
 .rodata.str1.1
                0x0000000000114d84       0x27 binaries/net.o
 *fill*         0x0000000000114dab        0x1 
 .rodata.str1.4
                0x0000000000114dac       0xcf binaries/netstart.o
 .rodata.str1.1
                0x0000000000114e7b      0x141 binaries/pdump.o
                                        0x14b (size before relaxing)
 .rodata.str1.4
                0x0000000000114fbc      0x126 binaries/pdump.o
 *fill*         0x00000000001150e2        0x2 
 .rodata.str1.4
                0x00000000001150e4      0x148 binaries/tftp.o
 .rodata.str1.1
                0x000000000011522c        0x6 binaries/tftp.o
                                          0xa (size before relaxing)
 .rodata.str1.1
                0x0000000000115232       0xdd binaries/shell.o
                                         0xff (size before relaxing)
 *fill*         0x000000000011530f        0x1 
 .rodata.str1.4
                0x0000000000115310      0x1e8 binaries/shell.o
 *fill*         0x00000000001154f8        0x8 
 .rodata        0x0000000000115500       0xfc binaries/shell.o
                0x0000000000115500                cmdtab
 .rodata.str1.1
                0x00000000001155fc       0x26 binaries/xsh_argecho.o
                                         0x28 (size before relaxing)
 .rodata.str1.1
                0x0000000000115622       0x70 binaries/xsh_arp.o
                                         0x72 (size before relaxing)
 *fill*         0x0000000000115692        0x2 
 .rodata.str1.4
                0x0000000000115694       0xb4 binaries/xsh_arp.o
 .rodata.str1.1
                0x0000000000115748       0x2d binaries/xsh_cat.o
                                         0x4f (size before relaxing)
 *fill*         0x0000000000115775        0x3 
 .rodata.str1.4
                0x0000000000115778       0x52 binaries/xsh_cat.o
                                         0x79 (size before relaxing)
 .rodata.str1.1
                0x00000000001157ca       0x15 binaries/xsh_clear.o
 .rodata.str1.1
                0x00000000001157df       0x46 binaries/xsh_date.o
                                         0x5f (size before relaxing)
 *fill*         0x0000000000115825        0x3 
 .rodata.str1.4
                0x0000000000115828      0x163 binaries/xsh_date.o
 .rodata.str1.1
                0x000000000011598b       0x5d binaries/xsh_devdump.o
 .rodata.str1.1
                0x00000000001159e8        0x4 binaries/xsh_echo.o
                                          0x9 (size before relaxing)
 .rodata.str1.1
                0x00000000001159ec       0x65 binaries/xsh_help.o
                                         0xa3 (size before relaxing)
 *fill*         0x0000000000115a51        0x3 
 .rodata.str1.4
                0x0000000000115a54       0x7c binaries/xsh_help.o
                                         0xc6 (size before relaxing)
 .rodata.str1.1
                0x0000000000115ad0       0x9c binaries/xsh_ipaddr.o
                                         0xf8 (size before relaxing)
 .rodata.str1.4
                0x0000000000115b6c       0x4d binaries/xsh_ipaddr.o
                                         0x99 (size before relaxing)
 .rodata.str1.1
                0x0000000000115bb9       0x78 binaries/xsh_kill.o
                                         0x97 (size before relaxing)
 *fill*         0x0000000000115c31        0x3 
 .rodata.str1.4
                0x0000000000115c34       0x4a binaries/xsh_kill.o
                                         0x96 (size before relaxing)
 .rodata.str1.1
                0x0000000000115c7e       0x84 binaries/xsh_memdump.o
                                         0xa8 (size before relaxing)
 *fill*         0x0000000000115d02        0x2 
 .rodata.str1.4
                0x0000000000115d04      0x15a binaries/xsh_memdump.o
                                        0x1aa (size before relaxing)
 .rodata.str1.1
                0x0000000000115e5e       0x40 binaries/xsh_memstat.o
                                         0x79 (size before relaxing)
 *fill*         0x0000000000115e9e        0x2 
 .rodata.str1.4
                0x0000000000115ea0      0x187 binaries/xsh_memstat.o
                                        0x1af (size before relaxing)
 .rodata.str1.1
                0x0000000000116027       0x90 binaries/xsh_ping.o
                                         0xaf (size before relaxing)
 *fill*         0x00000000001160b7        0x1 
 .rodata.str1.4
                0x00000000001160b8       0x77 binaries/xsh_ping.o
                                         0xc6 (size before relaxing)
 .rodata.str1.1
                0x000000000011612f        0x9 binaries/xsh_ps.o
                                         0xde (size before relaxing)
 .rodata.str1.4
                0x0000000000116138       0x88 binaries/xsh_ps.o
                                         0xd8 (size before relaxing)
 .rodata        0x00000000001161c0       0x20 binaries/xsh_ps.o
 .rodata.str1.1
                0x00000000001161e0       0x31 binaries/xsh_sleep.o
                                         0x72 (size before relaxing)
 *fill*         0x0000000000116211        0x3 
 .rodata.str1.4
                0x0000000000116214       0x2a binaries/xsh_sleep.o
                                         0x7a (size before relaxing)
 .rodata.str1.1
                0x000000000011623e       0x6b binaries/xsh_udpdump.o
                                         0xd2 (size before relaxing)
 *fill*         0x00000000001162a9        0x3 
 .rodata.str1.4
                0x00000000001162ac       0x94 binaries/xsh_udpdump.o
                                         0xe4 (size before relaxing)
 .rodata.str1.1
                0x0000000000116340       0xdb binaries/xsh_udpecho.o
                                         0xfa (size before relaxing)
 *fill*         0x000000000011641b        0x1 
 .rodata.str1.4
                0x000000000011641c       0xc7 binaries/xsh_udpecho.o
                                        0x116 (size before relaxing)
 .rodata.str1.1
                0x00000000001164e3       0x66 binaries/xsh_udpeserver.o
                                         0x8f (size before relaxing)
 *fill*         0x0000000000116549        0x3 
 .rodata.str1.4
                0x000000000011654c       0x29 binaries/xsh_udpeserver.o
                                         0x9f (size before relaxing)
 .rodata.str1.1
                0x0000000000116575       0x49 binaries/xsh_uptime.o
                                         0x8c (size before relaxing)
 *fill*         0x00000000001165be        0x2 
 .rodata.str1.4
                0x00000000001165c0       0x28 binaries/xsh_uptime.o
                                         0x76 (size before relaxing)
                0x00000000001165e8                etext = ABSOLUTE (.)
                0x0000000000117000                . = ALIGN (0x1000)
 *fill*         0x00000000001165e8      0xa18 

.eh_frame       0x0000000000117000     0x3608
 .eh_frame      0x0000000000117000       0x3c binaries/app1.o
 .eh_frame      0x000000000011703c       0x28 binaries/app2.o
                                         0x40 (size before relaxing)
 .eh_frame      0x0000000000117064       0x24 binaries/app3.o
                                         0x3c (size before relaxing)
 .eh_frame      0x0000000000117088       0x30 binaries/ascdate.o
                                         0x48 (size before relaxing)
 .eh_frame      0x00000000001170b8       0x20 binaries/bufinit.o
                                         0x38 (size before relaxing)
 .eh_frame      0x00000000001170d8       0x2c binaries/chprio.o
                                         0x44 (size before relaxing)
 .eh_frame      0x0000000000117104       0x20 binaries/clkhandler.o
                                         0x38 (size before relaxing)
 .eh_frame      0x0000000000117124       0x20 binaries/clkinit.o
                                         0x38 (size before relaxing)
 .eh_frame      0x0000000000117144       0x28 binaries/close.o
                                         0x40 (size before relaxing)
 .eh_frame      0x000000000011716c       0x28 binaries/control.o
                                         0x40 (size before relaxing)
 .eh_frame      0x0000000000117194       0x30 binaries/cpubound.o
                                         0x48 (size before relaxing)
 .eh_frame      0x00000000001171c4       0x30 binaries/create.o
                                         0x48 (size before relaxing)
 .eh_frame      0x00000000001171f4       0x94 binaries/early_imr.o
                                         0xac (size before relaxing)
 .eh_frame      0x0000000000117288       0x94 binaries/evec.o
                                         0xac (size before relaxing)
 .eh_frame      0x000000000011731c       0x24 binaries/factorial.o
                                         0x3c (size before relaxing)
 .eh_frame      0x0000000000117340       0x2c binaries/freebuf.o
                                         0x44 (size before relaxing)
 .eh_frame      0x000000000011736c       0x2c binaries/freemem.o
                                         0x44 (size before relaxing)
 .eh_frame      0x0000000000117398       0x2c binaries/getbuf.o
                                         0x44 (size before relaxing)
 .eh_frame      0x00000000001173c4       0x28 binaries/getc.o
                                         0x40 (size before relaxing)
 .eh_frame      0x00000000001173ec       0x2c binaries/getdev.o
                                         0x44 (size before relaxing)
 .eh_frame      0x0000000000117418       0x64 binaries/getitem.o
                                         0x7c (size before relaxing)
 .eh_frame      0x000000000011747c       0x28 binaries/getmem.o
                                         0x40 (size before relaxing)
 .eh_frame      0x00000000001174a4       0x20 binaries/getpid.o
                                         0x38 (size before relaxing)
 .eh_frame      0x00000000001174c4       0x20 binaries/getpname.o
                                         0x38 (size before relaxing)
 .eh_frame      0x00000000001174e4       0x20 binaries/getppid.o
                                         0x38 (size before relaxing)
 .eh_frame      0x0000000000117504       0x24 binaries/getprio.o
                                         0x3c (size before relaxing)
 .eh_frame      0x0000000000117528       0x2c binaries/getstk.o
                                         0x44 (size before relaxing)
 .eh_frame      0x0000000000117554       0x20 binaries/gettime.o
                                         0x38 (size before relaxing)
 .eh_frame      0x0000000000117574       0x24 binaries/getutime.o
                                         0x3c (size before relaxing)
 .eh_frame      0x0000000000117598       0x20 binaries/host2netlb.o
                                         0x38 (size before relaxing)
 .eh_frame      0x00000000001175b8       0x28 binaries/init.o
                                         0x40 (size before relaxing)
 .eh_frame      0x00000000001175e0       0x68 binaries/initialize.o
                                         0x80 (size before relaxing)
 .eh_frame      0x0000000000117648       0x28 binaries/insert.o
                                         0x40 (size before relaxing)
 .eh_frame      0x0000000000117670       0x2c binaries/insertd.o
                                         0x44 (size before relaxing)
 .eh_frame      0x000000000011769c       0x2c binaries/iobound.o
                                         0x44 (size before relaxing)
 .eh_frame      0x00000000001176c8       0x20 binaries/ioerr.o
                                         0x38 (size before relaxing)
 .eh_frame      0x00000000001176e8       0x20 binaries/ionull.o
                                         0x38 (size before relaxing)
 .eh_frame      0x0000000000117708       0x30 binaries/kill.o
                                         0x48 (size before relaxing)
 .eh_frame      0x0000000000117738       0x80 binaries/kprintf.o
                                         0x98 (size before relaxing)
 .eh_frame      0x00000000001177b8      0x108 binaries/lab2q3.o
                                        0x120 (size before relaxing)
 .eh_frame      0x00000000001178c0      0x114 binaries/lab2q4.o
                                        0x12c (size before relaxing)
 .eh_frame      0x00000000001179d4       0x30 binaries/lab2q5.o
                                         0x48 (size before relaxing)
 .eh_frame      0x0000000000117a04       0x2c binaries/main.o
                                         0x44 (size before relaxing)
 .eh_frame      0x0000000000117a30       0x44 binaries/mark.o
                                         0x5c (size before relaxing)
 .eh_frame      0x0000000000117a74       0x50 binaries/meminit.o
                                         0x68 (size before relaxing)
 .eh_frame      0x0000000000117ac4       0x30 binaries/mkbufpool.o
                                         0x48 (size before relaxing)
 .eh_frame      0x0000000000117af4       0x44 binaries/multilevelfbq.o
                                         0x5c (size before relaxing)
 .eh_frame      0x0000000000117b38       0x2c binaries/myappA.o
                                         0x44 (size before relaxing)
 .eh_frame      0x0000000000117b64       0x20 binaries/myfuncA.o
                                         0x38 (size before relaxing)
 .eh_frame      0x0000000000117b84       0x64 binaries/myhacker.o
                                         0x7c (size before relaxing)
 .eh_frame      0x0000000000117be8       0x60 binaries/myvictim.o
                                         0x78 (size before relaxing)
 .eh_frame      0x0000000000117c48       0x20 binaries/mywelcomemsg.o
                                         0x38 (size before relaxing)
 .eh_frame      0x0000000000117c68       0x20 binaries/newqueue.o
                                         0x38 (size before relaxing)
 .eh_frame      0x0000000000117c88       0x28 binaries/open.o
                                         0x40 (size before relaxing)
 .eh_frame      0x0000000000117cb0       0x1c binaries/panic.o
                                         0x34 (size before relaxing)
 .eh_frame      0x0000000000117ccc      0x12c binaries/pci.o
                                        0x144 (size before relaxing)
 .eh_frame      0x0000000000117df8       0x20 binaries/platinit.o
                                         0x38 (size before relaxing)
 .eh_frame      0x0000000000117e18       0x20 binaries/printsegaddr.o
                                         0x38 (size before relaxing)
 .eh_frame      0x0000000000117e38       0x30 binaries/process_state.o
                                         0x48 (size before relaxing)
 .eh_frame      0x0000000000117e68       0x2c binaries/ptclear.o
                                         0x44 (size before relaxing)
 .eh_frame      0x0000000000117e94       0x2c binaries/ptcount.o
                                         0x44 (size before relaxing)
 .eh_frame      0x0000000000117ec0       0x2c binaries/ptcreate.o
                                         0x44 (size before relaxing)
 .eh_frame      0x0000000000117eec       0x28 binaries/ptdelete.o
                                         0x40 (size before relaxing)
 .eh_frame      0x0000000000117f14       0x28 binaries/ptinit.o
                                         0x40 (size before relaxing)
 .eh_frame      0x0000000000117f3c       0x2c binaries/ptrecv.o
                                         0x44 (size before relaxing)
 .eh_frame      0x0000000000117f68       0x28 binaries/ptreset.o
                                         0x40 (size before relaxing)
 .eh_frame      0x0000000000117f90       0x30 binaries/ptsend.o
                                         0x48 (size before relaxing)
 .eh_frame      0x0000000000117fc0       0x2c binaries/putc.o
                                         0x44 (size before relaxing)
 .eh_frame      0x0000000000117fec       0x24 binaries/quark_irq.o
                                         0x3c (size before relaxing)
 .eh_frame      0x0000000000118010       0x54 binaries/quark_pdat.o
                                         0x6c (size before relaxing)
 .eh_frame      0x0000000000118064       0x74 binaries/queue.o
                                         0x8c (size before relaxing)
 .eh_frame      0x00000000001180d8       0x28 binaries/read.o
                                         0x40 (size before relaxing)
 .eh_frame      0x0000000000118100       0x20 binaries/ready.o
                                         0x38 (size before relaxing)
 .eh_frame      0x0000000000118120       0x2c binaries/receive.o
                                         0x44 (size before relaxing)
 .eh_frame      0x000000000011814c       0x24 binaries/recvclr.o
                                         0x3c (size before relaxing)
 .eh_frame      0x0000000000118170       0x2c binaries/recvtime.o
                                         0x44 (size before relaxing)
 .eh_frame      0x000000000011819c       0xe0 binaries/resched.o
                                         0xf8 (size before relaxing)
 .eh_frame      0x000000000011827c       0x2c binaries/resume.o
                                         0x44 (size before relaxing)
 .eh_frame      0x00000000001182a8       0x28 binaries/seek.o
                                         0x40 (size before relaxing)
 .eh_frame      0x00000000001182d0       0x24 binaries/semcount.o
                                         0x3c (size before relaxing)
 .eh_frame      0x00000000001182f4       0x2c binaries/semcreate.o
                                         0x44 (size before relaxing)
 .eh_frame      0x0000000000118320       0x2c binaries/semdelete.o
                                         0x44 (size before relaxing)
 .eh_frame      0x000000000011834c       0x2c binaries/semreset.o
                                         0x44 (size before relaxing)
 .eh_frame      0x0000000000118378       0x28 binaries/send.o
                                         0x40 (size before relaxing)
 .eh_frame      0x00000000001183a0       0x28 binaries/signal.o
                                         0x40 (size before relaxing)
 .eh_frame      0x00000000001183c8       0x2c binaries/signaln.o
                                         0x44 (size before relaxing)
 .eh_frame      0x00000000001183f4       0x48 binaries/sleep.o
                                         0x60 (size before relaxing)
 .eh_frame      0x000000000011843c       0x2c binaries/stackdepth.o
                                         0x44 (size before relaxing)
 .eh_frame      0x0000000000118468       0x30 binaries/stacktrace.o
                                         0x48 (size before relaxing)
 .eh_frame      0x0000000000118498       0x28 binaries/suspend.o
                                         0x40 (size before relaxing)
 .eh_frame      0x00000000001184c0       0x20 binaries/teststackdepth.o
                                         0x38 (size before relaxing)
 .eh_frame      0x00000000001184e0       0x28 binaries/unsleep.o
                                         0x40 (size before relaxing)
 .eh_frame      0x0000000000118508       0x20 binaries/userret.o
                                         0x38 (size before relaxing)
 .eh_frame      0x0000000000118528       0x28 binaries/wait.o
                                         0x40 (size before relaxing)
 .eh_frame      0x0000000000118550       0x20 binaries/wakeup.o
                                         0x38 (size before relaxing)
 .eh_frame      0x0000000000118570       0x28 binaries/write.o
                                         0x40 (size before relaxing)
 .eh_frame      0x0000000000118598       0x20 binaries/xdone.o
                                         0x38 (size before relaxing)
 .eh_frame      0x00000000001185b8       0x24 binaries/yield.o
                                         0x3c (size before relaxing)
 .eh_frame      0x00000000001185dc       0x20 binaries/abs.o
                                         0x38 (size before relaxing)
 .eh_frame      0x00000000001185fc       0x28 binaries/atoi.o
                                         0x40 (size before relaxing)
 .eh_frame      0x0000000000118624       0x28 binaries/atol.o
                                         0x40 (size before relaxing)
 .eh_frame      0x000000000011864c       0x20 binaries/bzero.o
                                         0x38 (size before relaxing)
 .eh_frame      0x000000000011866c       0xac binaries/doprnt.o
                                         0xc4 (size before relaxing)
 .eh_frame      0x0000000000118718       0x30 binaries/doscan.o
                                         0x48 (size before relaxing)
 .eh_frame      0x0000000000118748       0x5c binaries/fdoprnt.o
                                         0x74 (size before relaxing)
 .eh_frame      0x00000000001187a4       0x20 binaries/fgetc.o
                                         0x38 (size before relaxing)
 .eh_frame      0x00000000001187c4       0x2c binaries/fgets.o
                                         0x44 (size before relaxing)
 .eh_frame      0x00000000001187f0       0x20 binaries/fprintf.o
                                         0x38 (size before relaxing)
 .eh_frame      0x0000000000118810       0x20 binaries/fputc.o
                                         0x38 (size before relaxing)
 .eh_frame      0x0000000000118830       0x28 binaries/fputs.o
                                         0x40 (size before relaxing)
 .eh_frame      0x0000000000118858       0x64 binaries/fscanf.o
                                         0x7c (size before relaxing)
 .eh_frame      0x00000000001188bc       0x20 binaries/getchar.o
                                         0x38 (size before relaxing)
 .eh_frame      0x00000000001188dc       0x20 binaries/labs.o
                                         0x38 (size before relaxing)
 .eh_frame      0x00000000001188fc       0x20 binaries/memchr.o
                                         0x38 (size before relaxing)
 .eh_frame      0x000000000011891c       0x28 binaries/memcmp.o
                                         0x40 (size before relaxing)
 .eh_frame      0x0000000000118944       0x28 binaries/memcpy.o
                                         0x40 (size before relaxing)
 .eh_frame      0x000000000011896c       0x24 binaries/memset.o
                                         0x3c (size before relaxing)
 .eh_frame      0x0000000000118990       0x20 binaries/printf.o
                                         0x38 (size before relaxing)
 .eh_frame      0x00000000001189b0       0x20 binaries/putchar.o
                                         0x38 (size before relaxing)
 .eh_frame      0x00000000001189d0       0xa4 binaries/qsort.o
                                         0xbc (size before relaxing)
 .eh_frame      0x0000000000118a74       0x40 binaries/rand.o
                                         0x58 (size before relaxing)
 .eh_frame      0x0000000000118ab4       0x48 binaries/sprintf.o
                                         0x60 (size before relaxing)
 .eh_frame      0x0000000000118afc       0x60 binaries/sscanf.o
                                         0x78 (size before relaxing)
 .eh_frame      0x0000000000118b5c       0x24 binaries/strchr.o
                                         0x3c (size before relaxing)
 .eh_frame      0x0000000000118b80       0x24 binaries/strcmp.o
                                         0x3c (size before relaxing)
 .eh_frame      0x0000000000118ba4       0x20 binaries/strcpy.o
                                         0x38 (size before relaxing)
 .eh_frame      0x0000000000118bc4       0x20 binaries/strlen.o
                                         0x38 (size before relaxing)
 .eh_frame      0x0000000000118be4       0x2c binaries/strncat.o
                                         0x44 (size before relaxing)
 .eh_frame      0x0000000000118c10       0x24 binaries/strncmp.o
                                         0x3c (size before relaxing)
 .eh_frame      0x0000000000118c34       0x2c binaries/strncpy.o
                                         0x44 (size before relaxing)
 .eh_frame      0x0000000000118c60       0x24 binaries/strnlen.o
                                         0x3c (size before relaxing)
 .eh_frame      0x0000000000118c84       0x24 binaries/strrchr.o
                                         0x3c (size before relaxing)
 .eh_frame      0x0000000000118ca8       0x2c binaries/strstr.o
                                         0x44 (size before relaxing)
 .eh_frame      0x0000000000118cd4       0x30 binaries/ttycontrol.o
                                         0x48 (size before relaxing)
 .eh_frame      0x0000000000118d04       0x2c binaries/ttygetc.o
                                         0x44 (size before relaxing)
 .eh_frame      0x0000000000118d30       0x84 binaries/ttyhandle_in.o
                                         0x9c (size before relaxing)
 .eh_frame      0x0000000000118db4       0x30 binaries/ttyhandle_out.o
                                         0x48 (size before relaxing)
 .eh_frame      0x0000000000118de4       0x28 binaries/ttyhandler.o
                                         0x40 (size before relaxing)
 .eh_frame      0x0000000000118e0c       0x30 binaries/ttyinit.o
                                         0x48 (size before relaxing)
 .eh_frame      0x0000000000118e3c       0x20 binaries/ttykickout.o
                                         0x38 (size before relaxing)
 .eh_frame      0x0000000000118e5c       0x2c binaries/ttyputc.o
                                         0x44 (size before relaxing)
 .eh_frame      0x0000000000118e88       0x2c binaries/ttyread.o
                                         0x44 (size before relaxing)
 .eh_frame      0x0000000000118eb4       0x2c binaries/ttywrite.o
                                         0x44 (size before relaxing)
 .eh_frame      0x0000000000118ee0       0x4c binaries/mount.o
                                         0x64 (size before relaxing)
 .eh_frame      0x0000000000118f2c       0x30 binaries/naminit.o
                                         0x48 (size before relaxing)
 .eh_frame      0x0000000000118f5c       0x84 binaries/nammap.o
                                         0x9c (size before relaxing)
 .eh_frame      0x0000000000118fe0       0x20 binaries/namopen.o
                                         0x38 (size before relaxing)
 .eh_frame      0x0000000000119000       0x2c binaries/colon2mac.o
                                         0x44 (size before relaxing)
 .eh_frame      0x000000000011902c       0x20 binaries/ethcontrol.o
                                         0x38 (size before relaxing)
 .eh_frame      0x000000000011904c       0x30 binaries/ethhandler.o
                                         0x48 (size before relaxing)
 .eh_frame      0x000000000011907c       0x98 binaries/ethinit.o
                                         0xb0 (size before relaxing)
 .eh_frame      0x0000000000119114       0x54 binaries/ethmcast.o
                                         0x6c (size before relaxing)
 .eh_frame      0x0000000000119168       0x30 binaries/ethread.o
                                         0x48 (size before relaxing)
 .eh_frame      0x0000000000119198       0x2c binaries/ethwrite.o
                                         0x44 (size before relaxing)
 .eh_frame      0x00000000001191c4       0x24 binaries/rdsbufalloc.o
                                         0x3c (size before relaxing)
 .eh_frame      0x00000000001191e8       0x2c binaries/rdsclose.o
                                         0x44 (size before relaxing)
 .eh_frame      0x0000000000119214       0x30 binaries/rdscomm.o
                                         0x48 (size before relaxing)
 .eh_frame      0x0000000000119244       0x30 binaries/rdscontrol.o
                                         0x48 (size before relaxing)
 .eh_frame      0x0000000000119274       0x30 binaries/rdsinit.o
                                         0x48 (size before relaxing)
 .eh_frame      0x00000000001192a4       0x30 binaries/rdsopen.o
                                         0x48 (size before relaxing)
 .eh_frame      0x00000000001192d4       0x20 binaries/rdsprocess.o
                                         0x38 (size before relaxing)
 .eh_frame      0x00000000001192f4       0x30 binaries/rdsread.o
                                         0x48 (size before relaxing)
 .eh_frame      0x0000000000119324       0x30 binaries/rdswrite.o
                                         0x48 (size before relaxing)
 .eh_frame      0x0000000000119354       0x20 binaries/ramclose.o
                                         0x38 (size before relaxing)
 .eh_frame      0x0000000000119374       0x20 binaries/raminit.o
                                         0x38 (size before relaxing)
 .eh_frame      0x0000000000119394       0x20 binaries/ramopen.o
                                         0x38 (size before relaxing)
 .eh_frame      0x00000000001193b4       0x20 binaries/ramread.o
                                         0x38 (size before relaxing)
 .eh_frame      0x00000000001193d4       0x20 binaries/ramwrite.o
                                         0x38 (size before relaxing)
 .eh_frame      0x00000000001193f4       0x28 binaries/lfdballoc.o
                                         0x40 (size before relaxing)
 .eh_frame      0x000000000011941c       0x24 binaries/lfdbfree.o
                                         0x3c (size before relaxing)
 .eh_frame      0x0000000000119440       0x24 binaries/lfflush.o
                                         0x3c (size before relaxing)
 .eh_frame      0x0000000000119464       0x20 binaries/lfgetmode.o
                                         0x38 (size before relaxing)
 .eh_frame      0x0000000000119484       0x24 binaries/lfiballoc.o
                                         0x3c (size before relaxing)
 .eh_frame      0x00000000001194a8       0x20 binaries/lfibclear.o
                                         0x38 (size before relaxing)
 .eh_frame      0x00000000001194c8       0x2c binaries/lfibget.o
                                         0x44 (size before relaxing)
 .eh_frame      0x00000000001194f4       0x2c binaries/lfibput.o
                                         0x44 (size before relaxing)
 .eh_frame      0x0000000000119520       0x28 binaries/lflclose.o
                                         0x40 (size before relaxing)
 .eh_frame      0x0000000000119548       0x2c binaries/lflcontrol.o
                                         0x44 (size before relaxing)
 .eh_frame      0x0000000000119574       0x2c binaries/lflgetc.o
                                         0x44 (size before relaxing)
 .eh_frame      0x00000000001195a0       0x2c binaries/lflinit.o
                                         0x44 (size before relaxing)
 .eh_frame      0x00000000001195cc       0x30 binaries/lflputc.o
                                         0x48 (size before relaxing)
 .eh_frame      0x00000000001195fc       0x2c binaries/lflread.o
                                         0x44 (size before relaxing)
 .eh_frame      0x0000000000119628       0x2c binaries/lflseek.o
                                         0x44 (size before relaxing)
 .eh_frame      0x0000000000119654       0x2c binaries/lflwrite.o
                                         0x44 (size before relaxing)
 .eh_frame      0x0000000000119680       0x30 binaries/lfsckfmt.o
                                         0x48 (size before relaxing)
 .eh_frame      0x00000000001196b0       0x30 binaries/lfscreate.o
                                         0x48 (size before relaxing)
 .eh_frame      0x00000000001196e0       0x30 binaries/lfsetup.o
                                         0x48 (size before relaxing)
 .eh_frame      0x0000000000119710       0x20 binaries/lfsinit.o
                                         0x38 (size before relaxing)
 .eh_frame      0x0000000000119730       0x30 binaries/lfsopen.o
                                         0x48 (size before relaxing)
 .eh_frame      0x0000000000119760       0x30 binaries/lftruncate.o
                                         0x48 (size before relaxing)
 .eh_frame      0x0000000000119790       0x20 binaries/rflclose.o
                                         0x38 (size before relaxing)
 .eh_frame      0x00000000001197b0       0x20 binaries/rflgetc.o
                                         0x38 (size before relaxing)
 .eh_frame      0x00000000001197d0       0x24 binaries/rflinit.o
                                         0x3c (size before relaxing)
 .eh_frame      0x00000000001197f4       0x20 binaries/rflputc.o
                                         0x38 (size before relaxing)
 .eh_frame      0x0000000000119814       0x30 binaries/rflread.o
                                         0x48 (size before relaxing)
 .eh_frame      0x0000000000119844       0x20 binaries/rflseek.o
                                         0x38 (size before relaxing)
 .eh_frame      0x0000000000119864       0x30 binaries/rflwrite.o
                                         0x48 (size before relaxing)
 .eh_frame      0x0000000000119894       0x30 binaries/rfscomm.o
                                         0x48 (size before relaxing)
 .eh_frame      0x00000000001198c4       0x2c binaries/rfscontrol.o
                                         0x44 (size before relaxing)
 .eh_frame      0x00000000001198f0       0x20 binaries/rfsgetmode.o
                                         0x38 (size before relaxing)
 .eh_frame      0x0000000000119910       0x20 binaries/rfsinit.o
                                         0x38 (size before relaxing)
 .eh_frame      0x0000000000119930       0x20 binaries/rfsndmsg.o
                                         0x38 (size before relaxing)
 .eh_frame      0x0000000000119950       0x2c binaries/rfsopen.o
                                         0x44 (size before relaxing)
 .eh_frame      0x000000000011997c       0xec binaries/arp.o
                                        0x104 (size before relaxing)
 .eh_frame      0x0000000000119a68       0xd0 binaries/dhcp.o
                                         0xe8 (size before relaxing)
 .eh_frame      0x0000000000119b38       0x2c binaries/dot2ip.o
                                         0x44 (size before relaxing)
 .eh_frame      0x0000000000119b64       0x60 binaries/hexdump.o
                                         0x78 (size before relaxing)
 .eh_frame      0x0000000000119bc4      0x198 binaries/icmp.o
                                        0x1b0 (size before relaxing)
 .eh_frame      0x0000000000119d5c      0x148 binaries/ip.o
                                        0x160 (size before relaxing)
 .eh_frame      0x0000000000119ea4       0x7c binaries/net.o
                                         0x94 (size before relaxing)
 .eh_frame      0x0000000000119f20       0x24 binaries/netstart.o
                                         0x3c (size before relaxing)
 .eh_frame      0x0000000000119f44       0x50 binaries/pdump.o
                                         0x68 (size before relaxing)
 .eh_frame      0x0000000000119f94       0x80 binaries/tftp.o
                                         0x98 (size before relaxing)
 .eh_frame      0x000000000011a014      0x1b0 binaries/udp.o
                                        0x1c8 (size before relaxing)
 .eh_frame      0x000000000011a1c4       0x30 binaries/addargs.o
                                         0x48 (size before relaxing)
 .eh_frame      0x000000000011a1f4       0x30 binaries/lexan.o
                                         0x48 (size before relaxing)
 .eh_frame      0x000000000011a224       0x30 binaries/shell.o
                                         0x48 (size before relaxing)
 .eh_frame      0x000000000011a254       0x2c binaries/xsh_argecho.o
                                         0x44 (size before relaxing)
 .eh_frame      0x000000000011a280       0x30 binaries/xsh_arp.o
                                         0x48 (size before relaxing)
 .eh_frame      0x000000000011a2b0       0x30 binaries/xsh_cat.o
                                         0x48 (size before relaxing)
 .eh_frame      0x000000000011a2e0       0x20 binaries/xsh_clear.o
                                         0x38 (size before relaxing)
 .eh_frame      0x000000000011a300       0x24 binaries/xsh_date.o
                                         0x3c (size before relaxing)
 .eh_frame      0x000000000011a324       0x28 binaries/xsh_devdump.o
                                         0x40 (size before relaxing)
 .eh_frame      0x000000000011a34c       0x2c binaries/xsh_echo.o
                                         0x44 (size before relaxing)
 .eh_frame      0x000000000011a378       0x20 binaries/xsh_exit.o
                                         0x38 (size before relaxing)
 .eh_frame      0x000000000011a398       0x30 binaries/xsh_help.o
                                         0x48 (size before relaxing)
 .eh_frame      0x000000000011a3c8       0x2c binaries/xsh_ipaddr.o
                                         0x44 (size before relaxing)
 .eh_frame      0x000000000011a3f4       0x2c binaries/xsh_kill.o
                                         0x44 (size before relaxing)
 .eh_frame      0x000000000011a420       0x58 binaries/xsh_memdump.o
                                         0x70 (size before relaxing)
 .eh_frame      0x000000000011a478       0x30 binaries/xsh_memstat.o
                                         0x48 (size before relaxing)
 .eh_frame      0x000000000011a4a8       0x30 binaries/xsh_ping.o
                                         0x48 (size before relaxing)
 .eh_frame      0x000000000011a4d8       0x30 binaries/xsh_ps.o
                                         0x48 (size before relaxing)
 .eh_frame      0x000000000011a508       0x30 binaries/xsh_sleep.o
                                         0x48 (size before relaxing)
 .eh_frame      0x000000000011a538       0x2c binaries/xsh_udpdump.o
                                         0x44 (size before relaxing)
 .eh_frame      0x000000000011a564       0x30 binaries/xsh_udpecho.o
                                         0x48 (size before relaxing)
 .eh_frame      0x000000000011a594       0x30 binaries/xsh_udpeserver.o
                                         0x48 (size before relaxing)
 .eh_frame      0x000000000011a5c4       0x30 binaries/xsh_uptime.o
                                         0x48 (size before relaxing)
 .eh_frame      0x000000000011a5f4       0x14 binaries/host2netlc.o
                                         0x2c (size before relaxing)

.iplt           0x000000000011a610        0x0
 .iplt          0x000000000011a610        0x0 binaries/start.o

.rel.dyn        0x000000000011a608        0x0
 .rel.iplt      0x000000000011a608        0x0 binaries/start.o
 .rel.text      0x000000000011a608        0x0 binaries/start.o
 .rel.data      0x000000000011a608        0x0 binaries/start.o
 .rel.rodata    0x000000000011a608        0x0 binaries/start.o

.data           0x000000000011a620     0x19e0
                0x000000000011a620                data = ABSOLUTE (.)
 *(.data .data.*)
 .data          0x000000000011a620      0x85a binaries/start.o
                0x000000000011a620                gdt
                0x000000000011a670                idt
                0x000000000011ae76                cpudelay
 .data          0x000000000011ae7a        0x0 binaries/app1.o
 .data          0x000000000011ae7a        0x0 binaries/app2.o
 .data          0x000000000011ae7a        0x0 binaries/app3.o
 *fill*         0x000000000011ae7a        0x6 
 .data          0x000000000011ae80       0x88 binaries/ascdate.o
                0x000000000011ae80                Date
 .data          0x000000000011af08        0x0 binaries/bufinit.o
 .data          0x000000000011af08        0x0 binaries/chprio.o
 .data          0x000000000011af08        0x4 binaries/clkhandler.o
 .data          0x000000000011af0c        0x0 binaries/clkinit.o
 .data          0x000000000011af0c        0x0 binaries/close.o
 *fill*         0x000000000011af0c       0x14 
 .data          0x000000000011af20      0x30c binaries/conf.o
                0x000000000011af20                devtab
 .data          0x000000000011b22c        0x0 binaries/control.o
 .data          0x000000000011b22c        0x0 binaries/cpubound.o
 .data          0x000000000011b22c        0x4 binaries/create.o
 .data          0x000000000011b230        0x0 binaries/early_imr.o
 *fill*         0x000000000011b230       0x10 
 .data          0x000000000011b240       0x40 binaries/evec.o
                0x000000000011b240                inames
 .data          0x000000000011b280        0x0 binaries/factorial.o
 .data          0x000000000011b280        0x0 binaries/freebuf.o
 .data          0x000000000011b280        0x0 binaries/freemem.o
 .data          0x000000000011b280        0x0 binaries/getbuf.o
 .data          0x000000000011b280        0x0 binaries/getc.o
 .data          0x000000000011b280        0x0 binaries/getdev.o
 .data          0x000000000011b280        0x0 binaries/getitem.o
 .data          0x000000000011b280        0x0 binaries/getmem.o
 .data          0x000000000011b280        0x0 binaries/getpid.o
 .data          0x000000000011b280        0x0 binaries/getpname.o
 .data          0x000000000011b280        0x0 binaries/getppid.o
 .data          0x000000000011b280        0x0 binaries/getprio.o
 .data          0x000000000011b280        0x0 binaries/getstk.o
 .data          0x000000000011b280        0x0 binaries/gettime.o
 .data          0x000000000011b280        0x0 binaries/getutime.o
 .data          0x000000000011b280        0x0 binaries/host2netlb.o
 .data          0x000000000011b280        0x0 binaries/init.o
 .data          0x000000000011b280        0x0 binaries/initialize.o
 .data          0x000000000011b280        0x0 binaries/insert.o
 .data          0x000000000011b280        0x0 binaries/insertd.o
 .data          0x000000000011b280        0x0 binaries/iobound.o
 .data          0x000000000011b280        0x0 binaries/ioerr.o
 .data          0x000000000011b280        0x0 binaries/ionull.o
 .data          0x000000000011b280        0x0 binaries/kill.o
 .data          0x000000000011b280        0x0 binaries/kprintf.o
 .data          0x000000000011b280        0x0 binaries/lab2q3.o
 .data          0x000000000011b280        0x0 binaries/lab2q4.o
 .data          0x000000000011b280        0x0 binaries/lab2q5.o
 .data          0x000000000011b280        0x0 binaries/main.o
 .data          0x000000000011b280        0x0 binaries/mark.o
 .data          0x000000000011b280       0x48 binaries/meminit.o
                0x000000000011b280                gdt_copy
                0x000000000011b2c0                bootinfo
                0x000000000011b2c4                bootsign
 .data          0x000000000011b2c8        0x0 binaries/mkbufpool.o
 .data          0x000000000011b2c8        0x0 binaries/multilevelfbq.o
 .data          0x000000000011b2c8        0x0 binaries/myappA.o
 .data          0x000000000011b2c8        0x0 binaries/myfuncA.o
 .data          0x000000000011b2c8        0x0 binaries/myhacker.o
 .data          0x000000000011b2c8        0x0 binaries/myvictim.o
 .data          0x000000000011b2c8        0x0 binaries/mywelcomemsg.o
 .data          0x000000000011b2c8        0x2 binaries/newqueue.o
 .data          0x000000000011b2ca        0x0 binaries/open.o
 .data          0x000000000011b2ca        0x0 binaries/panic.o
 .data          0x000000000011b2ca        0x0 binaries/pci.o
 .data          0x000000000011b2ca        0x0 binaries/platinit.o
 .data          0x000000000011b2ca        0x0 binaries/printsegaddr.o
 .data          0x000000000011b2ca        0x0 binaries/process_state.o
 .data          0x000000000011b2ca        0x0 binaries/ptclear.o
 .data          0x000000000011b2ca        0x0 binaries/ptcount.o
 .data          0x000000000011b2ca        0x0 binaries/ptcreate.o
 .data          0x000000000011b2ca        0x0 binaries/ptdelete.o
 .data          0x000000000011b2ca        0x0 binaries/ptinit.o
 .data          0x000000000011b2ca        0x0 binaries/ptrecv.o
 .data          0x000000000011b2ca        0x0 binaries/ptreset.o
 .data          0x000000000011b2ca        0x0 binaries/ptsend.o
 .data          0x000000000011b2ca        0x0 binaries/putc.o
 .data          0x000000000011b2ca        0x0 binaries/quark_irq.o
 .data          0x000000000011b2ca        0x0 binaries/quark_pdat.o
 .data          0x000000000011b2ca        0x0 binaries/queue.o
 .data          0x000000000011b2ca        0x0 binaries/read.o
 .data          0x000000000011b2ca        0x0 binaries/ready.o
 .data          0x000000000011b2ca        0x0 binaries/receive.o
 .data          0x000000000011b2ca        0x0 binaries/recvclr.o
 .data          0x000000000011b2ca        0x0 binaries/recvtime.o
 .data          0x000000000011b2ca        0x0 binaries/resched.o
 .data          0x000000000011b2ca        0x0 binaries/resume.o
 .data          0x000000000011b2ca        0x0 binaries/seek.o
 .data          0x000000000011b2ca        0x0 binaries/semcount.o
 .data          0x000000000011b2ca        0x0 binaries/semcreate.o
 .data          0x000000000011b2ca        0x0 binaries/semdelete.o
 .data          0x000000000011b2ca        0x0 binaries/semreset.o
 .data          0x000000000011b2ca        0x0 binaries/send.o
 .data          0x000000000011b2ca        0x0 binaries/signal.o
 .data          0x000000000011b2ca        0x0 binaries/signaln.o
 .data          0x000000000011b2ca        0x0 binaries/sleep.o
 .data          0x000000000011b2ca        0x0 binaries/stackdepth.o
 .data          0x000000000011b2ca        0x0 binaries/stacktrace.o
 .data          0x000000000011b2ca        0x0 binaries/suspend.o
 .data          0x000000000011b2ca        0x0 binaries/teststackdepth.o
 *fill*         0x000000000011b2ca       0x16 
 .data          0x000000000011b2e0       0xf0 binaries/tsdtab.o
                0x000000000011b2e0                tsdtab
 .data          0x000000000011b3d0        0x0 binaries/unsleep.o
 .data          0x000000000011b3d0        0x0 binaries/userret.o
 .data          0x000000000011b3d0        0x0 binaries/wait.o
 .data          0x000000000011b3d0        0x0 binaries/wakeup.o
 .data          0x000000000011b3d0        0x0 binaries/write.o
 .data          0x000000000011b3d0        0x0 binaries/xdone.o
 .data          0x000000000011b3d0        0x0 binaries/yield.o
 .data          0x000000000011b3d0        0x0 binaries/abs.o
 .data          0x000000000011b3d0        0x0 binaries/atoi.o
 .data          0x000000000011b3d0        0x0 binaries/atol.o
 .data          0x000000000011b3d0        0x0 binaries/bzero.o
 .data          0x000000000011b3d0        0x0 binaries/ctype_.o
 .data          0x000000000011b3d0        0x0 binaries/doprnt.o
 *fill*         0x000000000011b3d0       0x10 
 .data          0x000000000011b3e0       0x80 binaries/doscan.o
                0x000000000011b3e0                _sctab
 .data          0x000000000011b460        0x0 binaries/fdoprnt.o
 .data          0x000000000011b460        0x0 binaries/fgetc.o
 .data          0x000000000011b460        0x0 binaries/fgets.o
 .data          0x000000000011b460        0x0 binaries/fprintf.o
 .data          0x000000000011b460        0x0 binaries/fputc.o
 .data          0x000000000011b460        0x0 binaries/fputs.o
 .data          0x000000000011b460        0x0 binaries/fscanf.o
 .data          0x000000000011b460        0x0 binaries/getchar.o
 .data          0x000000000011b460        0x0 binaries/labs.o
 .data          0x000000000011b460        0x0 binaries/memchr.o
 .data          0x000000000011b460        0x0 binaries/memcmp.o
 .data          0x000000000011b460        0x0 binaries/memcpy.o
 .data          0x000000000011b460        0x0 binaries/memset.o
 .data          0x000000000011b460        0x0 binaries/printf.o
 .data          0x000000000011b460        0x0 binaries/putchar.o
 .data          0x000000000011b460        0x0 binaries/qsort.o
 .data          0x000000000011b460        0x4 binaries/rand.o
 .data          0x000000000011b464        0x0 binaries/sprintf.o
 .data          0x000000000011b464        0x0 binaries/sscanf.o
 .data          0x000000000011b464        0x0 binaries/strchr.o
 .data          0x000000000011b464        0x0 binaries/strcmp.o
 .data          0x000000000011b464        0x0 binaries/strcpy.o
 .data          0x000000000011b464        0x0 binaries/strlen.o
 .data          0x000000000011b464        0x0 binaries/strncat.o
 .data          0x000000000011b464        0x0 binaries/strncmp.o
 .data          0x000000000011b464        0x0 binaries/strncpy.o
 .data          0x000000000011b464        0x0 binaries/strnlen.o
 .data          0x000000000011b464        0x0 binaries/strrchr.o
 .data          0x000000000011b464        0x0 binaries/strstr.o
 .data          0x000000000011b464        0x0 binaries/ttycontrol.o
 .data          0x000000000011b464        0x0 binaries/ttygetc.o
 .data          0x000000000011b464        0x0 binaries/ttyhandle_in.o
 .data          0x000000000011b464        0x0 binaries/ttyhandle_out.o
 .data          0x000000000011b464        0x0 binaries/ttyhandler.o
 .data          0x000000000011b464        0x0 binaries/ttyinit.o
 .data          0x000000000011b464        0x0 binaries/ttykickout.o
 .data          0x000000000011b464        0x0 binaries/ttyputc.o
 .data          0x000000000011b464        0x0 binaries/ttyread.o
 .data          0x000000000011b464        0x0 binaries/ttywrite.o
 .data          0x000000000011b464        0x0 binaries/mount.o
 .data          0x000000000011b464        0x0 binaries/naminit.o
 .data          0x000000000011b464        0x0 binaries/nammap.o
 .data          0x000000000011b464        0x0 binaries/namopen.o
 .data          0x000000000011b464        0x0 binaries/colon2mac.o
 .data          0x000000000011b464        0x0 binaries/ethcontrol.o
 .data          0x000000000011b464        0x0 binaries/ethhandler.o
 .data          0x000000000011b464        0x0 binaries/ethinit.o
 .data          0x000000000011b464        0x0 binaries/ethmcast.o
 .data          0x000000000011b464        0x0 binaries/ethread.o
 .data          0x000000000011b464        0x0 binaries/ethwrite.o
 .data          0x000000000011b464        0x0 binaries/rdsbufalloc.o
 .data          0x000000000011b464        0x0 binaries/rdsclose.o
 .data          0x000000000011b464        0x0 binaries/rdscomm.o
 .data          0x000000000011b464        0x0 binaries/rdscontrol.o
 .data          0x000000000011b464        0x0 binaries/rdsinit.o
 .data          0x000000000011b464        0x0 binaries/rdsopen.o
 .data          0x000000000011b464        0x0 binaries/rdsprocess.o
 .data          0x000000000011b464        0x0 binaries/rdsread.o
 .data          0x000000000011b464        0x0 binaries/rdswrite.o
 .data          0x000000000011b464        0x0 binaries/ramclose.o
 .data          0x000000000011b464        0x0 binaries/raminit.o
 .data          0x000000000011b464        0x0 binaries/ramopen.o
 .data          0x000000000011b464        0x0 binaries/ramread.o
 .data          0x000000000011b464        0x0 binaries/ramwrite.o
 .data          0x000000000011b464        0x0 binaries/lfdballoc.o
 .data          0x000000000011b464        0x0 binaries/lfdbfree.o
 .data          0x000000000011b464        0x0 binaries/lfflush.o
 .data          0x000000000011b464        0x0 binaries/lfgetmode.o
 .data          0x000000000011b464        0x0 binaries/lfiballoc.o
 .data          0x000000000011b464        0x0 binaries/lfibclear.o
 .data          0x000000000011b464        0x0 binaries/lfibget.o
 .data          0x000000000011b464        0x0 binaries/lfibput.o
 .data          0x000000000011b464        0x0 binaries/lflclose.o
 .data          0x000000000011b464        0x0 binaries/lflcontrol.o
 .data          0x000000000011b464        0x0 binaries/lflgetc.o
 .data          0x000000000011b464        0x0 binaries/lflinit.o
 .data          0x000000000011b464        0x0 binaries/lflputc.o
 .data          0x000000000011b464        0x0 binaries/lflread.o
 .data          0x000000000011b464        0x0 binaries/lflseek.o
 .data          0x000000000011b464        0x0 binaries/lflwrite.o
 .data          0x000000000011b464        0x0 binaries/lfsckfmt.o
 .data          0x000000000011b464        0x0 binaries/lfscreate.o
 .data          0x000000000011b464        0x0 binaries/lfsetup.o
 .data          0x000000000011b464        0x0 binaries/lfsinit.o
 .data          0x000000000011b464        0x0 binaries/lfsopen.o
 .data          0x000000000011b464        0x0 binaries/lftruncate.o
 .data          0x000000000011b464        0x0 binaries/rflclose.o
 .data          0x000000000011b464        0x0 binaries/rflgetc.o
 .data          0x000000000011b464        0x0 binaries/rflinit.o
 .data          0x000000000011b464        0x0 binaries/rflputc.o
 .data          0x000000000011b464        0x0 binaries/rflread.o
 .data          0x000000000011b464        0x0 binaries/rflseek.o
 .data          0x000000000011b464        0x0 binaries/rflwrite.o
 .data          0x000000000011b464        0x0 binaries/rfscomm.o
 .data          0x000000000011b464        0x0 binaries/rfscontrol.o
 .data          0x000000000011b464        0x0 binaries/rfsgetmode.o
 .data          0x000000000011b464        0x0 binaries/rfsinit.o
 .data          0x000000000011b464        0x0 binaries/rfsndmsg.o
 .data          0x000000000011b464        0x0 binaries/rfsopen.o
 .data          0x000000000011b464        0x0 binaries/arp.o
 .data          0x000000000011b464        0x0 binaries/dhcp.o
 .data          0x000000000011b464        0x0 binaries/dot2ip.o
 .data          0x000000000011b464        0x0 binaries/hexdump.o
 .data          0x000000000011b464        0x4 binaries/icmp.o
 .data          0x000000000011b468        0x0 binaries/ip.o
 .data          0x000000000011b468        0x0 binaries/net.o
 .data          0x000000000011b468        0x0 binaries/netstart.o
 .data          0x000000000011b468        0x0 binaries/pdump.o
 .data          0x000000000011b468        0x0 binaries/tftp.o
 .data          0x000000000011b468        0x4 binaries/udp.o
 .data          0x000000000011b46c        0x0 binaries/addargs.o
 .data          0x000000000011b46c        0x0 binaries/lexan.o
 .data          0x000000000011b46c        0x4 binaries/shell.o
                0x000000000011b46c                ncmd
 .data          0x000000000011b470        0x0 binaries/xsh_argecho.o
 .data          0x000000000011b470        0x0 binaries/xsh_arp.o
 .data          0x000000000011b470        0x0 binaries/xsh_cat.o
 .data          0x000000000011b470        0x0 binaries/xsh_clear.o
 .data          0x000000000011b470        0x0 binaries/xsh_date.o
 .data          0x000000000011b470        0x0 binaries/xsh_devdump.o
 .data          0x000000000011b470        0x0 binaries/xsh_echo.o
 .data          0x000000000011b470        0x0 binaries/xsh_exit.o
 .data          0x000000000011b470        0x0 binaries/xsh_help.o
 .data          0x000000000011b470        0x0 binaries/xsh_ipaddr.o
 .data          0x000000000011b470        0x0 binaries/xsh_kill.o
 .data          0x000000000011b470        0x0 binaries/xsh_memdump.o
 .data          0x000000000011b470        0x0 binaries/xsh_memstat.o
 .data          0x000000000011b470        0x0 binaries/xsh_ping.o
 .data          0x000000000011b470        0x0 binaries/xsh_ps.o
 .data          0x000000000011b470        0x0 binaries/xsh_sleep.o
 .data          0x000000000011b470        0x0 binaries/xsh_udpdump.o
 .data          0x000000000011b470        0x0 binaries/xsh_udpecho.o
 .data          0x000000000011b470        0x0 binaries/xsh_udpeserver.o
 .data          0x000000000011b470        0x0 binaries/xsh_uptime.o
 .data          0x000000000011b470        0x0 binaries/clkdisp.o
 .data          0x000000000011b470        0x0 binaries/ctxsw.o
 .data          0x000000000011b470        0x0 binaries/host2netla.o
 .data          0x000000000011b470        0x0 binaries/host2netlc.o
 .data          0x000000000011b470        0x0 binaries/intr.o
 .data          0x000000000011b470        0x0 binaries/ttydispatch.o
 .data          0x000000000011b470        0x0 binaries/ethdispatch.o
                0x000000000011b470                edata = ABSOLUTE (.)
                0x000000000011c000                . = ALIGN (0x1000)
 *fill*         0x000000000011b470      0xb90 

.igot.plt       0x000000000011c000        0x0
 .igot.plt      0x000000000011c000        0x0 binaries/start.o

.bss            0x000000000011c000    0x20000
                0x000000000011c000                bss = ABSOLUTE (.)
 *(.bss .bss.*)
 .bss           0x000000000011c000        0x0 binaries/start.o
 .bss           0x000000000011c000        0x0 binaries/app1.o
 .bss           0x000000000011c000        0x0 binaries/app2.o
 .bss           0x000000000011c000        0x0 binaries/app3.o
 .bss           0x000000000011c000        0x0 binaries/ascdate.o
 .bss           0x000000000011c000        0x0 binaries/bufinit.o
 .bss           0x000000000011c000        0x0 binaries/chprio.o
 .bss           0x000000000011c000        0x0 binaries/clkhandler.o
 .bss           0x000000000011c000        0x4 binaries/clkinit.o
                0x000000000011c000                ctr1000
 .bss           0x000000000011c004        0x0 binaries/close.o
 .bss           0x000000000011c004        0x0 binaries/conf.o
 .bss           0x000000000011c004        0x0 binaries/control.o
 .bss           0x000000000011c004        0x0 binaries/cpubound.o
 .bss           0x000000000011c004        0x0 binaries/create.o
 .bss           0x000000000011c004        0x0 binaries/early_imr.o
 .bss           0x000000000011c004        0x0 binaries/evec.o
 .bss           0x000000000011c004        0x0 binaries/factorial.o
 .bss           0x000000000011c004        0x0 binaries/freebuf.o
 .bss           0x000000000011c004        0x0 binaries/freemem.o
 .bss           0x000000000011c004        0x0 binaries/getbuf.o
 .bss           0x000000000011c004        0x0 binaries/getc.o
 .bss           0x000000000011c004        0x0 binaries/getdev.o
 .bss           0x000000000011c004        0x0 binaries/getitem.o
 .bss           0x000000000011c004        0x0 binaries/getmem.o
 .bss           0x000000000011c004        0x0 binaries/getpid.o
 .bss           0x000000000011c004        0x0 binaries/getpname.o
 .bss           0x000000000011c004        0x0 binaries/getppid.o
 .bss           0x000000000011c004        0x0 binaries/getprio.o
 .bss           0x000000000011c004        0x0 binaries/getstk.o
 .bss           0x000000000011c004        0x0 binaries/gettime.o
 .bss           0x000000000011c004        0x0 binaries/getutime.o
 .bss           0x000000000011c004        0x0 binaries/host2netlb.o
 .bss           0x000000000011c004        0x0 binaries/init.o
 .bss           0x000000000011c004        0x0 binaries/initialize.o
 .bss           0x000000000011c004        0x0 binaries/insert.o
 .bss           0x000000000011c004        0x0 binaries/insertd.o
 .bss           0x000000000011c004        0x0 binaries/iobound.o
 .bss           0x000000000011c004        0x0 binaries/ioerr.o
 .bss           0x000000000011c004        0x0 binaries/ionull.o
 .bss           0x000000000011c004        0x0 binaries/kill.o
 .bss           0x000000000011c004        0x0 binaries/kprintf.o
 .bss           0x000000000011c004        0x0 binaries/lab2q3.o
 .bss           0x000000000011c004        0x0 binaries/lab2q4.o
 .bss           0x000000000011c004        0x0 binaries/lab2q5.o
 .bss           0x000000000011c004        0x5 binaries/main.o
                0x000000000011c004                lab2flag
                0x000000000011c008                lab2
 .bss           0x000000000011c009        0x0 binaries/mark.o
 .bss           0x000000000011c009        0x0 binaries/meminit.o
 .bss           0x000000000011c009        0x0 binaries/mkbufpool.o
 .bss           0x000000000011c009        0x0 binaries/multilevelfbq.o
 .bss           0x000000000011c009        0x0 binaries/myappA.o
 .bss           0x000000000011c009        0x0 binaries/myfuncA.o
 .bss           0x000000000011c009        0x0 binaries/myhacker.o
 .bss           0x000000000011c009        0x0 binaries/myvictim.o
 .bss           0x000000000011c009        0x0 binaries/mywelcomemsg.o
 .bss           0x000000000011c009        0x0 binaries/newqueue.o
 .bss           0x000000000011c009        0x0 binaries/open.o
 .bss           0x000000000011c009        0x0 binaries/panic.o
 .bss           0x000000000011c009        0x0 binaries/pci.o
 .bss           0x000000000011c009        0x0 binaries/platinit.o
 .bss           0x000000000011c009        0x0 binaries/printsegaddr.o
 .bss           0x000000000011c009        0x0 binaries/process_state.o
 .bss           0x000000000011c009        0x0 binaries/ptclear.o
 .bss           0x000000000011c009        0x0 binaries/ptcount.o
 .bss           0x000000000011c009        0x0 binaries/ptcreate.o
 .bss           0x000000000011c009        0x0 binaries/ptdelete.o
 .bss           0x000000000011c009        0x0 binaries/ptinit.o
 .bss           0x000000000011c009        0x0 binaries/ptrecv.o
 .bss           0x000000000011c009        0x0 binaries/ptreset.o
 .bss           0x000000000011c009        0x0 binaries/ptsend.o
 .bss           0x000000000011c009        0x0 binaries/putc.o
 .bss           0x000000000011c009        0x0 binaries/quark_irq.o
 .bss           0x000000000011c009        0x0 binaries/quark_pdat.o
 .bss           0x000000000011c009        0x0 binaries/queue.o
 .bss           0x000000000011c009        0x0 binaries/read.o
 .bss           0x000000000011c009        0x0 binaries/ready.o
 .bss           0x000000000011c009        0x0 binaries/receive.o
 .bss           0x000000000011c009        0x0 binaries/recvclr.o
 .bss           0x000000000011c009        0x0 binaries/recvtime.o
 .bss           0x000000000011c009        0x0 binaries/resched.o
 .bss           0x000000000011c009        0x0 binaries/resume.o
 .bss           0x000000000011c009        0x0 binaries/seek.o
 .bss           0x000000000011c009        0x0 binaries/semcount.o
 *fill*         0x000000000011c009        0x3 
 .bss           0x000000000011c00c        0x4 binaries/semcreate.o
 .bss           0x000000000011c010        0x0 binaries/semdelete.o
 .bss           0x000000000011c010        0x0 binaries/semreset.o
 .bss           0x000000000011c010        0x0 binaries/send.o
 .bss           0x000000000011c010        0x0 binaries/signal.o
 .bss           0x000000000011c010        0x0 binaries/signaln.o
 .bss           0x000000000011c010        0x0 binaries/sleep.o
 .bss           0x000000000011c010        0x0 binaries/stackdepth.o
 .bss           0x000000000011c010        0x8 binaries/stacktrace.o
 .bss           0x000000000011c018        0x0 binaries/suspend.o
 .bss           0x000000000011c018        0x0 binaries/teststackdepth.o
 .bss           0x000000000011c018        0x0 binaries/tsdtab.o
 .bss           0x000000000011c018        0x0 binaries/unsleep.o
 .bss           0x000000000011c018        0x0 binaries/userret.o
 .bss           0x000000000011c018        0x0 binaries/wait.o
 .bss           0x000000000011c018        0x0 binaries/wakeup.o
 .bss           0x000000000011c018        0x0 binaries/write.o
 .bss           0x000000000011c018        0x0 binaries/xdone.o
 .bss           0x000000000011c018        0x0 binaries/yield.o
 .bss           0x000000000011c018        0x0 binaries/abs.o
 .bss           0x000000000011c018        0x0 binaries/atoi.o
 .bss           0x000000000011c018        0x0 binaries/atol.o
 .bss           0x000000000011c018        0x0 binaries/bzero.o
 .bss           0x000000000011c018        0x0 binaries/ctype_.o
 .bss           0x000000000011c018        0x0 binaries/doprnt.o
 .bss           0x000000000011c018        0x0 binaries/doscan.o
 .bss           0x000000000011c018        0x0 binaries/fdoprnt.o
 .bss           0x000000000011c018        0x0 binaries/fgetc.o
 .bss           0x000000000011c018        0x0 binaries/fgets.o
 .bss           0x000000000011c018        0x0 binaries/fprintf.o
 .bss           0x000000000011c018        0x0 binaries/fputc.o
 .bss           0x000000000011c018        0x0 binaries/fputs.o
 .bss           0x000000000011c018        0x0 binaries/fscanf.o
 .bss           0x000000000011c018        0x0 binaries/getchar.o
 .bss           0x000000000011c018        0x0 binaries/labs.o
 .bss           0x000000000011c018        0x0 binaries/memchr.o
 .bss           0x000000000011c018        0x0 binaries/memcmp.o
 .bss           0x000000000011c018        0x0 binaries/memcpy.o
 .bss           0x000000000011c018        0x0 binaries/memset.o
 .bss           0x000000000011c018        0x0 binaries/printf.o
 .bss           0x000000000011c018        0x0 binaries/putchar.o
 .bss           0x000000000011c018        0x8 binaries/qsort.o
 .bss           0x000000000011c020        0x0 binaries/rand.o
 .bss           0x000000000011c020        0x0 binaries/sprintf.o
 .bss           0x000000000011c020        0x0 binaries/sscanf.o
 .bss           0x000000000011c020        0x0 binaries/strchr.o
 .bss           0x000000000011c020        0x0 binaries/strcmp.o
 .bss           0x000000000011c020        0x0 binaries/strcpy.o
 .bss           0x000000000011c020        0x0 binaries/strlen.o
 .bss           0x000000000011c020        0x0 binaries/strncat.o
 .bss           0x000000000011c020        0x0 binaries/strncmp.o
 .bss           0x000000000011c020        0x0 binaries/strncpy.o
 .bss           0x000000000011c020        0x0 binaries/strnlen.o
 .bss           0x000000000011c020        0x0 binaries/strrchr.o
 .bss           0x000000000011c020        0x0 binaries/strstr.o
 .bss           0x000000000011c020        0x0 binaries/ttycontrol.o
 .bss           0x000000000011c020        0x0 binaries/ttygetc.o
 .bss           0x000000000011c020        0x0 binaries/ttyhandle_in.o
 .bss           0x000000000011c020        0x0 binaries/ttyhandle_out.o
 .bss           0x000000000011c020        0x0 binaries/ttyhandler.o
 .bss           0x000000000011c020        0x0 binaries/ttyinit.o
 .bss           0x000000000011c020        0x0 binaries/ttykickout.o
 .bss           0x000000000011c020        0x0 binaries/ttyputc.o
 .bss           0x000000000011c020        0x0 binaries/ttyread.o
 .bss           0x000000000011c020        0x0 binaries/ttywrite.o
 .bss           0x000000000011c020        0x0 binaries/mount.o
 .bss           0x000000000011c020        0x0 binaries/naminit.o
 .bss           0x000000000011c020        0x0 binaries/nammap.o
 .bss           0x000000000011c020        0x0 binaries/namopen.o
 .bss           0x000000000011c020        0x0 binaries/colon2mac.o
 .bss           0x000000000011c020        0x0 binaries/ethcontrol.o
 .bss           0x000000000011c020        0x0 binaries/ethhandler.o
 .bss           0x000000000011c020        0x0 binaries/ethinit.o
 .bss           0x000000000011c020        0x0 binaries/ethmcast.o
 .bss           0x000000000011c020        0x0 binaries/ethread.o
 .bss           0x000000000011c020        0x0 binaries/ethwrite.o
 .bss           0x000000000011c020        0x0 binaries/rdsbufalloc.o
 .bss           0x000000000011c020        0x0 binaries/rdsclose.o
 .bss           0x000000000011c020        0x0 binaries/rdscomm.o
 .bss           0x000000000011c020        0x0 binaries/rdscontrol.o
 .bss           0x000000000011c020        0x0 binaries/rdsinit.o
 .bss           0x000000000011c020        0x0 binaries/rdsopen.o
 .bss           0x000000000011c020        0x0 binaries/rdsprocess.o
 .bss           0x000000000011c020        0x0 binaries/rdsread.o
 .bss           0x000000000011c020        0x0 binaries/rdswrite.o
 .bss           0x000000000011c020        0x0 binaries/ramclose.o
 .bss           0x000000000011c020        0x0 binaries/raminit.o
 .bss           0x000000000011c020        0x0 binaries/ramopen.o
 .bss           0x000000000011c020        0x0 binaries/ramread.o
 .bss           0x000000000011c020        0x0 binaries/ramwrite.o
 .bss           0x000000000011c020        0x0 binaries/lfdballoc.o
 .bss           0x000000000011c020        0x0 binaries/lfdbfree.o
 .bss           0x000000000011c020        0x0 binaries/lfflush.o
 .bss           0x000000000011c020        0x0 binaries/lfgetmode.o
 .bss           0x000000000011c020        0x0 binaries/lfiballoc.o
 .bss           0x000000000011c020        0x0 binaries/lfibclear.o
 .bss           0x000000000011c020        0x0 binaries/lfibget.o
 .bss           0x000000000011c020        0x0 binaries/lfibput.o
 .bss           0x000000000011c020        0x0 binaries/lflclose.o
 .bss           0x000000000011c020        0x0 binaries/lflcontrol.o
 .bss           0x000000000011c020        0x0 binaries/lflgetc.o
 .bss           0x000000000011c020        0x0 binaries/lflinit.o
 .bss           0x000000000011c020        0x0 binaries/lflputc.o
 .bss           0x000000000011c020        0x0 binaries/lflread.o
 .bss           0x000000000011c020        0x0 binaries/lflseek.o
 .bss           0x000000000011c020        0x0 binaries/lflwrite.o
 .bss           0x000000000011c020        0x0 binaries/lfsckfmt.o
 .bss           0x000000000011c020        0x0 binaries/lfscreate.o
 .bss           0x000000000011c020        0x0 binaries/lfsetup.o
 .bss           0x000000000011c020        0x0 binaries/lfsinit.o
 .bss           0x000000000011c020        0x0 binaries/lfsopen.o
 .bss           0x000000000011c020        0x0 binaries/lftruncate.o
 .bss           0x000000000011c020        0x0 binaries/rflclose.o
 .bss           0x000000000011c020        0x0 binaries/rflgetc.o
 .bss           0x000000000011c020        0x0 binaries/rflinit.o
 .bss           0x000000000011c020        0x0 binaries/rflputc.o
 .bss           0x000000000011c020        0x0 binaries/rflread.o
 .bss           0x000000000011c020        0x0 binaries/rflseek.o
 .bss           0x000000000011c020        0x0 binaries/rflwrite.o
 .bss           0x000000000011c020        0x0 binaries/rfscomm.o
 .bss           0x000000000011c020        0x0 binaries/rfscontrol.o
 .bss           0x000000000011c020        0x0 binaries/rfsgetmode.o
 .bss           0x000000000011c020        0x0 binaries/rfsinit.o
 .bss           0x000000000011c020        0x0 binaries/rfsndmsg.o
 .bss           0x000000000011c020        0x0 binaries/rfsopen.o
 .bss           0x000000000011c020        0x0 binaries/arp.o
 .bss           0x000000000011c020        0x0 binaries/dhcp.o
 .bss           0x000000000011c020        0x0 binaries/dot2ip.o
 .bss           0x000000000011c020        0x0 binaries/hexdump.o
 .bss           0x000000000011c020        0x0 binaries/icmp.o
 .bss           0x000000000011c020        0x0 binaries/ip.o
 .bss           0x000000000011c020        0x0 binaries/net.o
 .bss           0x000000000011c020        0x0 binaries/netstart.o
 .bss           0x000000000011c020        0x0 binaries/pdump.o
 .bss           0x000000000011c020        0x0 binaries/tftp.o
 .bss           0x000000000011c020        0x0 binaries/udp.o
 .bss           0x000000000011c020        0x0 binaries/addargs.o
 .bss           0x000000000011c020        0x0 binaries/lexan.o
 .bss           0x000000000011c020        0x0 binaries/shell.o
 .bss           0x000000000011c020        0x0 binaries/xsh_argecho.o
 .bss           0x000000000011c020        0x0 binaries/xsh_arp.o
 .bss           0x000000000011c020        0x0 binaries/xsh_cat.o
 .bss           0x000000000011c020        0x0 binaries/xsh_clear.o
 .bss           0x000000000011c020        0x0 binaries/xsh_date.o
 .bss           0x000000000011c020        0x0 binaries/xsh_devdump.o
 .bss           0x000000000011c020        0x0 binaries/xsh_echo.o
 .bss           0x000000000011c020        0x0 binaries/xsh_exit.o
 .bss           0x000000000011c020        0x0 binaries/xsh_help.o
 .bss           0x000000000011c020        0x0 binaries/xsh_ipaddr.o
 .bss           0x000000000011c020        0x0 binaries/xsh_kill.o
 .bss           0x000000000011c020        0x0 binaries/xsh_memdump.o
 .bss           0x000000000011c020        0x0 binaries/xsh_memstat.o
 .bss           0x000000000011c020        0x4 binaries/xsh_ping.o
 .bss           0x000000000011c024        0x0 binaries/xsh_ps.o
 .bss           0x000000000011c024        0x0 binaries/xsh_sleep.o
 .bss           0x000000000011c024        0x0 binaries/xsh_udpdump.o
 .bss           0x000000000011c024        0x0 binaries/xsh_udpecho.o
 .bss           0x000000000011c024        0x0 binaries/xsh_udpeserver.o
 .bss           0x000000000011c024        0x0 binaries/xsh_uptime.o
 .bss           0x000000000011c024        0x0 binaries/clkdisp.o
 .bss           0x000000000011c024        0x0 binaries/ctxsw.o
 .bss           0x000000000011c024        0x0 binaries/host2netla.o
 .bss           0x000000000011c024        0x0 binaries/host2netlc.o
 .bss           0x000000000011c024        0x0 binaries/intr.o
 .bss           0x000000000011c024        0x0 binaries/ttydispatch.o
 .bss           0x000000000011c024        0x0 binaries/ethdispatch.o
 *(COMMON)
 *fill*         0x000000000011c024       0x1c 
 COMMON         0x000000000011c040       0xf4 binaries/bufinit.o
                0x000000000011c040                buftab
                0x000000000011c130                nbpools
 COMMON         0x000000000011c134       0x10 binaries/clkinit.o
                0x000000000011c134                sleepq
                0x000000000011c138                preempt
                0x000000000011c13c                clktimemsec
                0x000000000011c140                clktime
 COMMON         0x000000000011c144        0x2 binaries/evec.o
                0x000000000011c144                girmask
 *fill*         0x000000000011c146       0x1a 
 COMMON         0x000000000011c160     0x1e18 binaries/initialize.o
                0x000000000011c160                queueArr
                0x000000000011c188                currpid
                0x000000000011c1a0                proctab
                0x000000000011daa0                prcount
                0x000000000011dac0                semtab
                0x000000000011df70                memlist
 *fill*         0x000000000011df78        0x8 
 COMMON         0x000000000011df80       0x58 binaries/mark.o
                0x000000000011df80                marks
                0x000000000011dfd0                nmarks
                0x000000000011dfd4                mkmutex
 COMMON         0x000000000011dfd8        0x8 binaries/meminit.o
                0x000000000011dfd8                minheap
                0x000000000011dfdc                maxheap
 COMMON         0x000000000011dfe0        0x8 binaries/myhacker.o
                0x000000000011dfe0                victimglobal
                0x000000000011dfe4                victimsRetAddress
 *fill*         0x000000000011dfe8       0x18 
 COMMON         0x000000000011e000      0x2d8 binaries/ptinit.o
                0x000000000011e000                porttab
                0x000000000011e2d0                ptnextid
                0x000000000011e2d4                ptfree
 *fill*         0x000000000011e2d8        0x8 
 COMMON         0x000000000011e2e0      0xac0 binaries/queue.o
                0x000000000011e2e0                queuetab
 COMMON         0x000000000011eda0        0x2 binaries/ready.o
                0x000000000011eda0                readylist
 *fill*         0x000000000011eda2        0x2 
 COMMON         0x000000000011eda4        0x8 binaries/resched.o
                0x000000000011eda4                Defer
 *fill*         0x000000000011edac       0x14 
 COMMON         0x000000000011edc0      0x10c binaries/ttyinit.o
                0x000000000011edc0                ttytab
 *fill*         0x000000000011eecc       0x14 
 COMMON         0x000000000011eee0     0x19c0 binaries/naminit.o
                0x000000000011eee0                nnames
                0x000000000011ef00                nametab
 COMMON         0x00000000001208a0      0x138 binaries/ethinit.o
                0x00000000001208a0                ethertab
 *fill*         0x00000000001209d8        0x8 
 COMMON         0x00000000001209e0       0x8c binaries/rdsinit.o
                0x00000000001209e0                rdstab
 *fill*         0x0000000000120a6c       0x14 
 COMMON         0x0000000000120a80    0x19000 binaries/raminit.o
                0x0000000000120a80                Ram
 COMMON         0x0000000000139a80      0xf00 binaries/lflinit.o
                0x0000000000139a80                lfltab
 COMMON         0x000000000013a980      0x20c binaries/lfsinit.o
                0x000000000013a980                Lf_data
 *fill*         0x000000000013ab8c       0x14 
 COMMON         0x000000000013aba0      0x5a0 binaries/rflinit.o
                0x000000000013aba0                rfltab
 COMMON         0x000000000013b140       0x18 binaries/rfsinit.o
                0x000000000013b140                Rf_data
 *fill*         0x000000000013b158        0x8 
 COMMON         0x000000000013b160      0x140 binaries/arp.o
                0x000000000013b160                arpcache
 COMMON         0x000000000013b2a0      0x230 binaries/icmp.o
                0x000000000013b2a0                icmptab
 *fill*         0x000000000013b4d0       0x10 
 COMMON         0x000000000013b4e0       0x2c binaries/ip.o
                0x000000000013b4e0                ipoqueue
 *fill*         0x000000000013b50c       0x14 
 COMMON         0x000000000013b520       0xc8 binaries/net.o
                0x000000000013b520                netbufpool
                0x000000000013b540                NetData
 *fill*         0x000000000013b5e8       0x18 
 COMMON         0x000000000013b600      0x168 binaries/udp.o
                0x000000000013b600                udptab
                0x000000000013b768                ebss = ABSOLUTE (.)
                0x000000000013c000                . = ALIGN (0x1000)
 *fill*         0x000000000013b768      0x898 
 */()
                0x000000000013c000                end = ABSOLUTE (.)
                0x000000000013c000                _end = ABSOLUTE (.)
                0x000000000013c000                . = ALIGN (0x1000)
LOAD binaries/start.o
LOAD binaries/app1.o
LOAD binaries/app2.o
LOAD binaries/app3.o
LOAD binaries/ascdate.o
LOAD binaries/bufinit.o
LOAD binaries/chprio.o
LOAD binaries/clkhandler.o
LOAD binaries/clkinit.o
LOAD binaries/close.o
LOAD binaries/conf.o
LOAD binaries/control.o
LOAD binaries/cpubound.o
LOAD binaries/create.o
LOAD binaries/early_imr.o
LOAD binaries/evec.o
LOAD binaries/factorial.o
LOAD binaries/freebuf.o
LOAD binaries/freemem.o
LOAD binaries/getbuf.o
LOAD binaries/getc.o
LOAD binaries/getdev.o
LOAD binaries/getitem.o
LOAD binaries/getmem.o
LOAD binaries/getpid.o
LOAD binaries/getpname.o
LOAD binaries/getppid.o
LOAD binaries/getprio.o
LOAD binaries/getstk.o
LOAD binaries/gettime.o
LOAD binaries/getutime.o
LOAD binaries/host2netlb.o
LOAD binaries/init.o
LOAD binaries/initialize.o
LOAD binaries/insert.o
LOAD binaries/insertd.o
LOAD binaries/iobound.o
LOAD binaries/ioerr.o
LOAD binaries/ionull.o
LOAD binaries/kill.o
LOAD binaries/kprintf.o
LOAD binaries/lab2q3.o
LOAD binaries/lab2q4.o
LOAD binaries/lab2q5.o
LOAD binaries/main.o
LOAD binaries/mark.o
LOAD binaries/meminit.o
LOAD binaries/mkbufpool.o
LOAD binaries/multilevelfbq.o
LOAD binaries/myappA.o
LOAD binaries/myfuncA.o
LOAD binaries/myhacker.o
LOAD binaries/myvictim.o
LOAD binaries/mywelcomemsg.o
LOAD binaries/newqueue.o
LOAD binaries/open.o
LOAD binaries/panic.o
LOAD binaries/pci.o
LOAD binaries/platinit.o
LOAD binaries/printsegaddr.o
LOAD binaries/process_state.o
LOAD binaries/ptclear.o
LOAD binaries/ptcount.o
LOAD binaries/ptcreate.o
LOAD binaries/ptdelete.o
LOAD binaries/ptinit.o
LOAD binaries/ptrecv.o
LOAD binaries/ptreset.o
LOAD binaries/ptsend.o
LOAD binaries/putc.o
LOAD binaries/quark_irq.o
LOAD binaries/quark_pdat.o
LOAD binaries/queue.o
LOAD binaries/read.o
LOAD binaries/ready.o
LOAD binaries/receive.o
LOAD binaries/recvclr.o
LOAD binaries/recvtime.o
LOAD binaries/resched.o
LOAD binaries/resume.o
LOAD binaries/seek.o
LOAD binaries/semcount.o
LOAD binaries/semcreate.o
LOAD binaries/semdelete.o
LOAD binaries/semreset.o
LOAD binaries/send.o
LOAD binaries/signal.o
LOAD binaries/signaln.o
LOAD binaries/sleep.o
LOAD binaries/stackdepth.o
LOAD binaries/stacktrace.o
LOAD binaries/suspend.o
LOAD binaries/teststackdepth.o
LOAD binaries/tsdtab.o
LOAD binaries/unsleep.o
LOAD binaries/userret.o
LOAD binaries/wait.o
LOAD binaries/wakeup.o
LOAD binaries/write.o
LOAD binaries/xdone.o
LOAD binaries/yield.o
LOAD binaries/abs.o
LOAD binaries/atoi.o
LOAD binaries/atol.o
LOAD binaries/bzero.o
LOAD binaries/ctype_.o
LOAD binaries/doprnt.o
LOAD binaries/doscan.o
LOAD binaries/fdoprnt.o
LOAD binaries/fgetc.o
LOAD binaries/fgets.o
LOAD binaries/fprintf.o
LOAD binaries/fputc.o
LOAD binaries/fputs.o
LOAD binaries/fscanf.o
LOAD binaries/getchar.o
LOAD binaries/labs.o
LOAD binaries/memchr.o
LOAD binaries/memcmp.o
LOAD binaries/memcpy.o
LOAD binaries/memset.o
LOAD binaries/printf.o
LOAD binaries/putchar.o
LOAD binaries/qsort.o
LOAD binaries/rand.o
LOAD binaries/sprintf.o
LOAD binaries/sscanf.o
LOAD binaries/strchr.o
LOAD binaries/strcmp.o
LOAD binaries/strcpy.o
LOAD binaries/strlen.o
LOAD binaries/strncat.o
LOAD binaries/strncmp.o
LOAD binaries/strncpy.o
LOAD binaries/strnlen.o
LOAD binaries/strrchr.o
LOAD binaries/strstr.o
LOAD binaries/ttycontrol.o
LOAD binaries/ttygetc.o
LOAD binaries/ttyhandle_in.o
LOAD binaries/ttyhandle_out.o
LOAD binaries/ttyhandler.o
LOAD binaries/ttyinit.o
LOAD binaries/ttykickout.o
LOAD binaries/ttyputc.o
LOAD binaries/ttyread.o
LOAD binaries/ttywrite.o
LOAD binaries/mount.o
LOAD binaries/naminit.o
LOAD binaries/nammap.o
LOAD binaries/namopen.o
LOAD binaries/colon2mac.o
LOAD binaries/ethcontrol.o
LOAD binaries/ethhandler.o
LOAD binaries/ethinit.o
LOAD binaries/ethmcast.o
LOAD binaries/ethread.o
LOAD binaries/ethwrite.o
LOAD binaries/rdsbufalloc.o
LOAD binaries/rdsclose.o
LOAD binaries/rdscomm.o
LOAD binaries/rdscontrol.o
LOAD binaries/rdsinit.o
LOAD binaries/rdsopen.o
LOAD binaries/rdsprocess.o
LOAD binaries/rdsread.o
LOAD binaries/rdswrite.o
LOAD binaries/ramclose.o
LOAD binaries/raminit.o
LOAD binaries/ramopen.o
LOAD binaries/ramread.o
LOAD binaries/ramwrite.o
LOAD binaries/lfdballoc.o
LOAD binaries/lfdbfree.o
LOAD binaries/lfflush.o
LOAD binaries/lfgetmode.o
LOAD binaries/lfiballoc.o
LOAD binaries/lfibclear.o
LOAD binaries/lfibget.o
LOAD binaries/lfibput.o
LOAD binaries/lflclose.o
LOAD binaries/lflcontrol.o
LOAD binaries/lflgetc.o
LOAD binaries/lflinit.o
LOAD binaries/lflputc.o
LOAD binaries/lflread.o
LOAD binaries/lflseek.o
LOAD binaries/lflwrite.o
LOAD binaries/lfsckfmt.o
LOAD binaries/lfscreate.o
LOAD binaries/lfsetup.o
LOAD binaries/lfsinit.o
LOAD binaries/lfsopen.o
LOAD binaries/lftruncate.o
LOAD binaries/rflclose.o
LOAD binaries/rflgetc.o
LOAD binaries/rflinit.o
LOAD binaries/rflputc.o
LOAD binaries/rflread.o
LOAD binaries/rflseek.o
LOAD binaries/rflwrite.o
LOAD binaries/rfscomm.o
LOAD binaries/rfscontrol.o
LOAD binaries/rfsgetmode.o
LOAD binaries/rfsinit.o
LOAD binaries/rfsndmsg.o
LOAD binaries/rfsopen.o
LOAD binaries/arp.o
LOAD binaries/dhcp.o
LOAD binaries/dot2ip.o
LOAD binaries/hexdump.o
LOAD binaries/icmp.o
LOAD binaries/ip.o
LOAD binaries/net.o
LOAD binaries/netstart.o
LOAD binaries/pdump.o
LOAD binaries/tftp.o
LOAD binaries/udp.o
LOAD binaries/addargs.o
LOAD binaries/lexan.o
LOAD binaries/shell.o
LOAD binaries/xsh_argecho.o
LOAD binaries/xsh_arp.o
LOAD binaries/xsh_cat.o
LOAD binaries/xsh_clear.o
LOAD binaries/xsh_date.o
LOAD binaries/xsh_devdump.o
LOAD binaries/xsh_echo.o
LOAD binaries/xsh_exit.o
LOAD binaries/xsh_help.o
LOAD binaries/xsh_ipaddr.o
LOAD binaries/xsh_kill.o
LOAD binaries/xsh_memdump.o
LOAD binaries/xsh_memstat.o
LOAD binaries/xsh_ping.o
LOAD binaries/xsh_ps.o
LOAD binaries/xsh_sleep.o
LOAD binaries/xsh_udpdump.o
LOAD binaries/xsh_udpecho.o
LOAD binaries/xsh_udpeserver.o
LOAD binaries/xsh_uptime.o
LOAD binaries/clkdisp.o
LOAD binaries/ctxsw.o
LOAD binaries/host2netla.o
LOAD binaries/host2netlc.o
LOAD binaries/intr.o
LOAD binaries/ttydispatch.o
LOAD binaries/ethdispatch.o
OUTPUT(../compile/xinu elf32-i386)

.comment        0x0000000000000000       0x2a
 .comment       0x0000000000000000       0x2a binaries/app1.o
                                         0x2b (size before relaxing)
 .comment       0x000000000000002a       0x2b binaries/app2.o
 .comment       0x000000000000002a       0x2b binaries/app3.o
 .comment       0x000000000000002a       0x2b binaries/ascdate.o
 .comment       0x000000000000002a       0x2b binaries/bufinit.o
 .comment       0x000000000000002a       0x2b binaries/chprio.o
 .comment       0x000000000000002a       0x2b binaries/clkhandler.o
 .comment       0x000000000000002a       0x2b binaries/clkinit.o
 .comment       0x000000000000002a       0x2b binaries/close.o
 .comment       0x000000000000002a       0x2b binaries/conf.o
 .comment       0x000000000000002a       0x2b binaries/control.o
 .comment       0x000000000000002a       0x2b binaries/cpubound.o
 .comment       0x000000000000002a       0x2b binaries/create.o
 .comment       0x000000000000002a       0x2b binaries/early_imr.o
 .comment       0x000000000000002a       0x2b binaries/evec.o
 .comment       0x000000000000002a       0x2b binaries/factorial.o
 .comment       0x000000000000002a       0x2b binaries/freebuf.o
 .comment       0x000000000000002a       0x2b binaries/freemem.o
 .comment       0x000000000000002a       0x2b binaries/getbuf.o
 .comment       0x000000000000002a       0x2b binaries/getc.o
 .comment       0x000000000000002a       0x2b binaries/getdev.o
 .comment       0x000000000000002a       0x2b binaries/getitem.o
 .comment       0x000000000000002a       0x2b binaries/getmem.o
 .comment       0x000000000000002a       0x2b binaries/getpid.o
 .comment       0x000000000000002a       0x2b binaries/getpname.o
 .comment       0x000000000000002a       0x2b binaries/getppid.o
 .comment       0x000000000000002a       0x2b binaries/getprio.o
 .comment       0x000000000000002a       0x2b binaries/getstk.o
 .comment       0x000000000000002a       0x2b binaries/gettime.o
 .comment       0x000000000000002a       0x2b binaries/getutime.o
 .comment       0x000000000000002a       0x2b binaries/host2netlb.o
 .comment       0x000000000000002a       0x2b binaries/init.o
 .comment       0x000000000000002a       0x2b binaries/initialize.o
 .comment       0x000000000000002a       0x2b binaries/insert.o
 .comment       0x000000000000002a       0x2b binaries/insertd.o
 .comment       0x000000000000002a       0x2b binaries/iobound.o
 .comment       0x000000000000002a       0x2b binaries/ioerr.o
 .comment       0x000000000000002a       0x2b binaries/ionull.o
 .comment       0x000000000000002a       0x2b binaries/kill.o
 .comment       0x000000000000002a       0x2b binaries/kprintf.o
 .comment       0x000000000000002a       0x2b binaries/lab2q3.o
 .comment       0x000000000000002a       0x2b binaries/lab2q4.o
 .comment       0x000000000000002a       0x2b binaries/lab2q5.o
 .comment       0x000000000000002a       0x2b binaries/main.o
 .comment       0x000000000000002a       0x2b binaries/mark.o
 .comment       0x000000000000002a       0x2b binaries/meminit.o
 .comment       0x000000000000002a       0x2b binaries/mkbufpool.o
 .comment       0x000000000000002a       0x2b binaries/multilevelfbq.o
 .comment       0x000000000000002a       0x2b binaries/myappA.o
 .comment       0x000000000000002a       0x2b binaries/myfuncA.o
 .comment       0x000000000000002a       0x2b binaries/myhacker.o
 .comment       0x000000000000002a       0x2b binaries/myvictim.o
 .comment       0x000000000000002a       0x2b binaries/mywelcomemsg.o
 .comment       0x000000000000002a       0x2b binaries/newqueue.o
 .comment       0x000000000000002a       0x2b binaries/open.o
 .comment       0x000000000000002a       0x2b binaries/panic.o
 .comment       0x000000000000002a       0x2b binaries/pci.o
 .comment       0x000000000000002a       0x2b binaries/platinit.o
 .comment       0x000000000000002a       0x2b binaries/printsegaddr.o
 .comment       0x000000000000002a       0x2b binaries/process_state.o
 .comment       0x000000000000002a       0x2b binaries/ptclear.o
 .comment       0x000000000000002a       0x2b binaries/ptcount.o
 .comment       0x000000000000002a       0x2b binaries/ptcreate.o
 .comment       0x000000000000002a       0x2b binaries/ptdelete.o
 .comment       0x000000000000002a       0x2b binaries/ptinit.o
 .comment       0x000000000000002a       0x2b binaries/ptrecv.o
 .comment       0x000000000000002a       0x2b binaries/ptreset.o
 .comment       0x000000000000002a       0x2b binaries/ptsend.o
 .comment       0x000000000000002a       0x2b binaries/putc.o
 .comment       0x000000000000002a       0x2b binaries/quark_irq.o
 .comment       0x000000000000002a       0x2b binaries/quark_pdat.o
 .comment       0x000000000000002a       0x2b binaries/queue.o
 .comment       0x000000000000002a       0x2b binaries/read.o
 .comment       0x000000000000002a       0x2b binaries/ready.o
 .comment       0x000000000000002a       0x2b binaries/receive.o
 .comment       0x000000000000002a       0x2b binaries/recvclr.o
 .comment       0x000000000000002a       0x2b binaries/recvtime.o
 .comment       0x000000000000002a       0x2b binaries/resched.o
 .comment       0x000000000000002a       0x2b binaries/resume.o
 .comment       0x000000000000002a       0x2b binaries/seek.o
 .comment       0x000000000000002a       0x2b binaries/semcount.o
 .comment       0x000000000000002a       0x2b binaries/semcreate.o
 .comment       0x000000000000002a       0x2b binaries/semdelete.o
 .comment       0x000000000000002a       0x2b binaries/semreset.o
 .comment       0x000000000000002a       0x2b binaries/send.o
 .comment       0x000000000000002a       0x2b binaries/signal.o
 .comment       0x000000000000002a       0x2b binaries/signaln.o
 .comment       0x000000000000002a       0x2b binaries/sleep.o
 .comment       0x000000000000002a       0x2b binaries/stackdepth.o
 .comment       0x000000000000002a       0x2b binaries/stacktrace.o
 .comment       0x000000000000002a       0x2b binaries/suspend.o
 .comment       0x000000000000002a       0x2b binaries/teststackdepth.o
 .comment       0x000000000000002a       0x2b binaries/tsdtab.o
 .comment       0x000000000000002a       0x2b binaries/unsleep.o
 .comment       0x000000000000002a       0x2b binaries/userret.o
 .comment       0x000000000000002a       0x2b binaries/wait.o
 .comment       0x000000000000002a       0x2b binaries/wakeup.o
 .comment       0x000000000000002a       0x2b binaries/write.o
 .comment       0x000000000000002a       0x2b binaries/xdone.o
 .comment       0x000000000000002a       0x2b binaries/yield.o
 .comment       0x000000000000002a       0x2b binaries/abs.o
 .comment       0x000000000000002a       0x2b binaries/atoi.o
 .comment       0x000000000000002a       0x2b binaries/atol.o
 .comment       0x000000000000002a       0x2b binaries/bzero.o
 .comment       0x000000000000002a       0x2b binaries/ctype_.o
 .comment       0x000000000000002a       0x2b binaries/doprnt.o
 .comment       0x000000000000002a       0x2b binaries/doscan.o
 .comment       0x000000000000002a       0x2b binaries/fdoprnt.o
 .comment       0x000000000000002a       0x2b binaries/fgetc.o
 .comment       0x000000000000002a       0x2b binaries/fgets.o
 .comment       0x000000000000002a       0x2b binaries/fprintf.o
 .comment       0x000000000000002a       0x2b binaries/fputc.o
 .comment       0x000000000000002a       0x2b binaries/fputs.o
 .comment       0x000000000000002a       0x2b binaries/fscanf.o
 .comment       0x000000000000002a       0x2b binaries/getchar.o
 .comment       0x000000000000002a       0x2b binaries/labs.o
 .comment       0x000000000000002a       0x2b binaries/memchr.o
 .comment       0x000000000000002a       0x2b binaries/memcmp.o
 .comment       0x000000000000002a       0x2b binaries/memcpy.o
 .comment       0x000000000000002a       0x2b binaries/memset.o
 .comment       0x000000000000002a       0x2b binaries/printf.o
 .comment       0x000000000000002a       0x2b binaries/putchar.o
 .comment       0x000000000000002a       0x2b binaries/qsort.o
 .comment       0x000000000000002a       0x2b binaries/rand.o
 .comment       0x000000000000002a       0x2b binaries/sprintf.o
 .comment       0x000000000000002a       0x2b binaries/sscanf.o
 .comment       0x000000000000002a       0x2b binaries/strchr.o
 .comment       0x000000000000002a       0x2b binaries/strcmp.o
 .comment       0x000000000000002a       0x2b binaries/strcpy.o
 .comment       0x000000000000002a       0x2b binaries/strlen.o
 .comment       0x000000000000002a       0x2b binaries/strncat.o
 .comment       0x000000000000002a       0x2b binaries/strncmp.o
 .comment       0x000000000000002a       0x2b binaries/strncpy.o
 .comment       0x000000000000002a       0x2b binaries/strnlen.o
 .comment       0x000000000000002a       0x2b binaries/strrchr.o
 .comment       0x000000000000002a       0x2b binaries/strstr.o
 .comment       0x000000000000002a       0x2b binaries/ttycontrol.o
 .comment       0x000000000000002a       0x2b binaries/ttygetc.o
 .comment       0x000000000000002a       0x2b binaries/ttyhandle_in.o
 .comment       0x000000000000002a       0x2b binaries/ttyhandle_out.o
 .comment       0x000000000000002a       0x2b binaries/ttyhandler.o
 .comment       0x000000000000002a       0x2b binaries/ttyinit.o
 .comment       0x000000000000002a       0x2b binaries/ttykickout.o
 .comment       0x000000000000002a       0x2b binaries/ttyputc.o
 .comment       0x000000000000002a       0x2b binaries/ttyread.o
 .comment       0x000000000000002a       0x2b binaries/ttywrite.o
 .comment       0x000000000000002a       0x2b binaries/mount.o
 .comment       0x000000000000002a       0x2b binaries/naminit.o
 .comment       0x000000000000002a       0x2b binaries/nammap.o
 .comment       0x000000000000002a       0x2b binaries/namopen.o
 .comment       0x000000000000002a       0x2b binaries/colon2mac.o
 .comment       0x000000000000002a       0x2b binaries/ethcontrol.o
 .comment       0x000000000000002a       0x2b binaries/ethhandler.o
 .comment       0x000000000000002a       0x2b binaries/ethinit.o
 .comment       0x000000000000002a       0x2b binaries/ethmcast.o
 .comment       0x000000000000002a       0x2b binaries/ethread.o
 .comment       0x000000000000002a       0x2b binaries/ethwrite.o
 .comment       0x000000000000002a       0x2b binaries/rdsbufalloc.o
 .comment       0x000000000000002a       0x2b binaries/rdsclose.o
 .comment       0x000000000000002a       0x2b binaries/rdscomm.o
 .comment       0x000000000000002a       0x2b binaries/rdscontrol.o
 .comment       0x000000000000002a       0x2b binaries/rdsinit.o
 .comment       0x000000000000002a       0x2b binaries/rdsopen.o
 .comment       0x000000000000002a       0x2b binaries/rdsprocess.o
 .comment       0x000000000000002a       0x2b binaries/rdsread.o
 .comment       0x000000000000002a       0x2b binaries/rdswrite.o
 .comment       0x000000000000002a       0x2b binaries/ramclose.o
 .comment       0x000000000000002a       0x2b binaries/raminit.o
 .comment       0x000000000000002a       0x2b binaries/ramopen.o
 .comment       0x000000000000002a       0x2b binaries/ramread.o
 .comment       0x000000000000002a       0x2b binaries/ramwrite.o
 .comment       0x000000000000002a       0x2b binaries/lfdballoc.o
 .comment       0x000000000000002a       0x2b binaries/lfdbfree.o
 .comment       0x000000000000002a       0x2b binaries/lfflush.o
 .comment       0x000000000000002a       0x2b binaries/lfgetmode.o
 .comment       0x000000000000002a       0x2b binaries/lfiballoc.o
 .comment       0x000000000000002a       0x2b binaries/lfibclear.o
 .comment       0x000000000000002a       0x2b binaries/lfibget.o
 .comment       0x000000000000002a       0x2b binaries/lfibput.o
 .comment       0x000000000000002a       0x2b binaries/lflclose.o
 .comment       0x000000000000002a       0x2b binaries/lflcontrol.o
 .comment       0x000000000000002a       0x2b binaries/lflgetc.o
 .comment       0x000000000000002a       0x2b binaries/lflinit.o
 .comment       0x000000000000002a       0x2b binaries/lflputc.o
 .comment       0x000000000000002a       0x2b binaries/lflread.o
 .comment       0x000000000000002a       0x2b binaries/lflseek.o
 .comment       0x000000000000002a       0x2b binaries/lflwrite.o
 .comment       0x000000000000002a       0x2b binaries/lfsckfmt.o
 .comment       0x000000000000002a       0x2b binaries/lfscreate.o
 .comment       0x000000000000002a       0x2b binaries/lfsetup.o
 .comment       0x000000000000002a       0x2b binaries/lfsinit.o
 .comment       0x000000000000002a       0x2b binaries/lfsopen.o
 .comment       0x000000000000002a       0x2b binaries/lftruncate.o
 .comment       0x000000000000002a       0x2b binaries/rflclose.o
 .comment       0x000000000000002a       0x2b binaries/rflgetc.o
 .comment       0x000000000000002a       0x2b binaries/rflinit.o
 .comment       0x000000000000002a       0x2b binaries/rflputc.o
 .comment       0x000000000000002a       0x2b binaries/rflread.o
 .comment       0x000000000000002a       0x2b binaries/rflseek.o
 .comment       0x000000000000002a       0x2b binaries/rflwrite.o
 .comment       0x000000000000002a       0x2b binaries/rfscomm.o
 .comment       0x000000000000002a       0x2b binaries/rfscontrol.o
 .comment       0x000000000000002a       0x2b binaries/rfsgetmode.o
 .comment       0x000000000000002a       0x2b binaries/rfsinit.o
 .comment       0x000000000000002a       0x2b binaries/rfsndmsg.o
 .comment       0x000000000000002a       0x2b binaries/rfsopen.o
 .comment       0x000000000000002a       0x2b binaries/arp.o
 .comment       0x000000000000002a       0x2b binaries/dhcp.o
 .comment       0x000000000000002a       0x2b binaries/dot2ip.o
 .comment       0x000000000000002a       0x2b binaries/hexdump.o
 .comment       0x000000000000002a       0x2b binaries/icmp.o
 .comment       0x000000000000002a       0x2b binaries/ip.o
 .comment       0x000000000000002a       0x2b binaries/net.o
 .comment       0x000000000000002a       0x2b binaries/netstart.o
 .comment       0x000000000000002a       0x2b binaries/pdump.o
 .comment       0x000000000000002a       0x2b binaries/tftp.o
 .comment       0x000000000000002a       0x2b binaries/udp.o
 .comment       0x000000000000002a       0x2b binaries/addargs.o
 .comment       0x000000000000002a       0x2b binaries/lexan.o
 .comment       0x000000000000002a       0x2b binaries/shell.o
 .comment       0x000000000000002a       0x2b binaries/xsh_argecho.o
 .comment       0x000000000000002a       0x2b binaries/xsh_arp.o
 .comment       0x000000000000002a       0x2b binaries/xsh_cat.o
 .comment       0x000000000000002a       0x2b binaries/xsh_clear.o
 .comment       0x000000000000002a       0x2b binaries/xsh_date.o
 .comment       0x000000000000002a       0x2b binaries/xsh_devdump.o
 .comment       0x000000000000002a       0x2b binaries/xsh_echo.o
 .comment       0x000000000000002a       0x2b binaries/xsh_exit.o
 .comment       0x000000000000002a       0x2b binaries/xsh_help.o
 .comment       0x000000000000002a       0x2b binaries/xsh_ipaddr.o
 .comment       0x000000000000002a       0x2b binaries/xsh_kill.o
 .comment       0x000000000000002a       0x2b binaries/xsh_memdump.o
 .comment       0x000000000000002a       0x2b binaries/xsh_memstat.o
 .comment       0x000000000000002a       0x2b binaries/xsh_ping.o
 .comment       0x000000000000002a       0x2b binaries/xsh_ps.o
 .comment       0x000000000000002a       0x2b binaries/xsh_sleep.o
 .comment       0x000000000000002a       0x2b binaries/xsh_udpdump.o
 .comment       0x000000000000002a       0x2b binaries/xsh_udpecho.o
 .comment       0x000000000000002a       0x2b binaries/xsh_udpeserver.o
 .comment       0x000000000000002a       0x2b binaries/xsh_uptime.o
 .comment       0x000000000000002a       0x2b binaries/host2netlc.o

.note.GNU-stack
                0x0000000000000000        0x0
 .note.GNU-stack
                0x0000000000000000        0x0 binaries/app1.o
 .note.GNU-stack
                0x0000000000000000        0x0 binaries/app2.o
 .note.GNU-stack
                0x0000000000000000        0x0 binaries/app3.o
 .note.GNU-stack
                0x0000000000000000        0x0 binaries/ascdate.o
 .note.GNU-stack
                0x0000000000000000        0x0 binaries/bufinit.o
 .note.GNU-stack
                0x0000000000000000        0x0 binaries/chprio.o
 .note.GNU-stack
                0x0000000000000000        0x0 binaries/clkhandler.o
 .note.GNU-stack
                0x0000000000000000        0x0 binaries/clkinit.o
 .note.GNU-stack
                0x0000000000000000        0x0 binaries/close.o
 .note.GNU-stack
                0x0000000000000000        0x0 binaries/conf.o
 .note.GNU-stack
                0x0000000000000000        0x0 binaries/control.o
 .note.GNU-stack
                0x0000000000000000        0x0 binaries/cpubound.o
 .note.GNU-stack
                0x0000000000000000        0x0 binaries/create.o
 .note.GNU-stack
                0x0000000000000000        0x0 binaries/early_imr.o
 .note.GNU-stack
                0x0000000000000000        0x0 binaries/evec.o
 .note.GNU-stack
                0x0000000000000000        0x0 binaries/factorial.o
 .note.GNU-stack
                0x0000000000000000        0x0 binaries/freebuf.o
 .note.GNU-stack
                0x0000000000000000        0x0 binaries/freemem.o
 .note.GNU-stack
                0x0000000000000000        0x0 binaries/getbuf.o
 .note.GNU-stack
                0x0000000000000000        0x0 binaries/getc.o
 .note.GNU-stack
                0x0000000000000000        0x0 binaries/getdev.o
 .note.GNU-stack
                0x0000000000000000        0x0 binaries/getitem.o
 .note.GNU-stack
                0x0000000000000000        0x0 binaries/getmem.o
 .note.GNU-stack
                0x0000000000000000        0x0 binaries/getpid.o
 .note.GNU-stack
                0x0000000000000000        0x0 binaries/getpname.o
 .note.GNU-stack
                0x0000000000000000        0x0 binaries/getppid.o
 .note.GNU-stack
                0x0000000000000000        0x0 binaries/getprio.o
 .note.GNU-stack
                0x0000000000000000        0x0 binaries/getstk.o
 .note.GNU-stack
                0x0000000000000000        0x0 binaries/gettime.o
 .note.GNU-stack
                0x0000000000000000        0x0 binaries/getutime.o
 .note.GNU-stack
                0x0000000000000000        0x0 binaries/host2netlb.o
 .note.GNU-stack
                0x0000000000000000        0x0 binaries/init.o
 .note.GNU-stack
                0x0000000000000000        0x0 binaries/initialize.o
 .note.GNU-stack
                0x0000000000000000        0x0 binaries/insert.o
 .note.GNU-stack
                0x0000000000000000        0x0 binaries/insertd.o
 .note.GNU-stack
                0x0000000000000000        0x0 binaries/iobound.o
 .note.GNU-stack
                0x0000000000000000        0x0 binaries/ioerr.o
 .note.GNU-stack
                0x0000000000000000        0x0 binaries/ionull.o
 .note.GNU-stack
                0x0000000000000000        0x0 binaries/kill.o
 .note.GNU-stack
                0x0000000000000000        0x0 binaries/kprintf.o
 .note.GNU-stack
                0x0000000000000000        0x0 binaries/lab2q3.o
 .note.GNU-stack
                0x0000000000000000        0x0 binaries/lab2q4.o
 .note.GNU-stack
                0x0000000000000000        0x0 binaries/lab2q5.o
 .note.GNU-stack
                0x0000000000000000        0x0 binaries/main.o
 .note.GNU-stack
                0x0000000000000000        0x0 binaries/mark.o
 .note.GNU-stack
                0x0000000000000000        0x0 binaries/meminit.o
 .note.GNU-stack
                0x0000000000000000        0x0 binaries/mkbufpool.o
 .note.GNU-stack
                0x0000000000000000        0x0 binaries/multilevelfbq.o
 .note.GNU-stack
                0x0000000000000000        0x0 binaries/myappA.o
 .note.GNU-stack
                0x0000000000000000        0x0 binaries/myfuncA.o
 .note.GNU-stack
                0x0000000000000000        0x0 binaries/myhacker.o
 .note.GNU-stack
                0x0000000000000000        0x0 binaries/myvictim.o
 .note.GNU-stack
                0x0000000000000000        0x0 binaries/mywelcomemsg.o
 .note.GNU-stack
                0x0000000000000000        0x0 binaries/newqueue.o
 .note.GNU-stack
                0x0000000000000000        0x0 binaries/open.o
 .note.GNU-stack
                0x0000000000000000        0x0 binaries/panic.o
 .note.GNU-stack
                0x0000000000000000        0x0 binaries/pci.o
 .note.GNU-stack
                0x0000000000000000        0x0 binaries/platinit.o
 .note.GNU-stack
                0x0000000000000000        0x0 binaries/printsegaddr.o
 .note.GNU-stack
                0x0000000000000000        0x0 binaries/process_state.o
 .note.GNU-stack
                0x0000000000000000        0x0 binaries/ptclear.o
 .note.GNU-stack
                0x0000000000000000        0x0 binaries/ptcount.o
 .note.GNU-stack
                0x0000000000000000        0x0 binaries/ptcreate.o
 .note.GNU-stack
                0x0000000000000000        0x0 binaries/ptdelete.o
 .note.GNU-stack
                0x0000000000000000        0x0 binaries/ptinit.o
 .note.GNU-stack
                0x0000000000000000        0x0 binaries/ptrecv.o
 .note.GNU-stack
                0x0000000000000000        0x0 binaries/ptreset.o
 .note.GNU-stack
                0x0000000000000000        0x0 binaries/ptsend.o
 .note.GNU-stack
                0x0000000000000000        0x0 binaries/putc.o
 .note.GNU-stack
                0x0000000000000000        0x0 binaries/quark_irq.o
 .note.GNU-stack
                0x0000000000000000        0x0 binaries/quark_pdat.o
 .note.GNU-stack
                0x0000000000000000        0x0 binaries/queue.o
 .note.GNU-stack
                0x0000000000000000        0x0 binaries/read.o
 .note.GNU-stack
                0x0000000000000000        0x0 binaries/ready.o
 .note.GNU-stack
                0x0000000000000000        0x0 binaries/receive.o
 .note.GNU-stack
                0x0000000000000000        0x0 binaries/recvclr.o
 .note.GNU-stack
                0x0000000000000000        0x0 binaries/recvtime.o
 .note.GNU-stack
                0x0000000000000000        0x0 binaries/resched.o
 .note.GNU-stack
                0x0000000000000000        0x0 binaries/resume.o
 .note.GNU-stack
                0x0000000000000000        0x0 binaries/seek.o
 .note.GNU-stack
                0x0000000000000000        0x0 binaries/semcount.o
 .note.GNU-stack
                0x0000000000000000        0x0 binaries/semcreate.o
 .note.GNU-stack
                0x0000000000000000        0x0 binaries/semdelete.o
 .note.GNU-stack
                0x0000000000000000        0x0 binaries/semreset.o
 .note.GNU-stack
                0x0000000000000000        0x0 binaries/send.o
 .note.GNU-stack
                0x0000000000000000        0x0 binaries/signal.o
 .note.GNU-stack
                0x0000000000000000        0x0 binaries/signaln.o
 .note.GNU-stack
                0x0000000000000000        0x0 binaries/sleep.o
 .note.GNU-stack
                0x0000000000000000        0x0 binaries/stackdepth.o
 .note.GNU-stack
                0x0000000000000000        0x0 binaries/stacktrace.o
 .note.GNU-stack
                0x0000000000000000        0x0 binaries/suspend.o
 .note.GNU-stack
                0x0000000000000000        0x0 binaries/teststackdepth.o
 .note.GNU-stack
                0x0000000000000000        0x0 binaries/tsdtab.o
 .note.GNU-stack
                0x0000000000000000        0x0 binaries/unsleep.o
 .note.GNU-stack
                0x0000000000000000        0x0 binaries/userret.o
 .note.GNU-stack
                0x0000000000000000        0x0 binaries/wait.o
 .note.GNU-stack
                0x0000000000000000        0x0 binaries/wakeup.o
 .note.GNU-stack
                0x0000000000000000        0x0 binaries/write.o
 .note.GNU-stack
                0x0000000000000000        0x0 binaries/xdone.o
 .note.GNU-stack
                0x0000000000000000        0x0 binaries/yield.o
 .note.GNU-stack
                0x0000000000000000        0x0 binaries/abs.o
 .note.GNU-stack
                0x0000000000000000        0x0 binaries/atoi.o
 .note.GNU-stack
                0x0000000000000000        0x0 binaries/atol.o
 .note.GNU-stack
                0x0000000000000000        0x0 binaries/bzero.o
 .note.GNU-stack
                0x0000000000000000        0x0 binaries/ctype_.o
 .note.GNU-stack
                0x0000000000000000        0x0 binaries/doprnt.o
 .note.GNU-stack
                0x0000000000000000        0x0 binaries/doscan.o
 .note.GNU-stack
                0x0000000000000000        0x0 binaries/fdoprnt.o
 .note.GNU-stack
                0x0000000000000000        0x0 binaries/fgetc.o
 .note.GNU-stack
                0x0000000000000000        0x0 binaries/fgets.o
 .note.GNU-stack
                0x0000000000000000        0x0 binaries/fprintf.o
 .note.GNU-stack
                0x0000000000000000        0x0 binaries/fputc.o
 .note.GNU-stack
                0x0000000000000000        0x0 binaries/fputs.o
 .note.GNU-stack
                0x0000000000000000        0x0 binaries/fscanf.o
 .note.GNU-stack
                0x0000000000000000        0x0 binaries/getchar.o
 .note.GNU-stack
                0x0000000000000000        0x0 binaries/labs.o
 .note.GNU-stack
                0x0000000000000000        0x0 binaries/memchr.o
 .note.GNU-stack
                0x0000000000000000        0x0 binaries/memcmp.o
 .note.GNU-stack
                0x0000000000000000        0x0 binaries/memcpy.o
 .note.GNU-stack
                0x0000000000000000        0x0 binaries/memset.o
 .note.GNU-stack
                0x0000000000000000        0x0 binaries/printf.o
 .note.GNU-stack
                0x0000000000000000        0x0 binaries/putchar.o
 .note.GNU-stack
                0x0000000000000000        0x0 binaries/qsort.o
 .note.GNU-stack
                0x0000000000000000        0x0 binaries/rand.o
 .note.GNU-stack
                0x0000000000000000        0x0 binaries/sprintf.o
 .note.GNU-stack
                0x0000000000000000        0x0 binaries/sscanf.o
 .note.GNU-stack
                0x0000000000000000        0x0 binaries/strchr.o
 .note.GNU-stack
                0x0000000000000000        0x0 binaries/strcmp.o
 .note.GNU-stack
                0x0000000000000000        0x0 binaries/strcpy.o
 .note.GNU-stack
                0x0000000000000000        0x0 binaries/strlen.o
 .note.GNU-stack
                0x0000000000000000        0x0 binaries/strncat.o
 .note.GNU-stack
                0x0000000000000000        0x0 binaries/strncmp.o
 .note.GNU-stack
                0x0000000000000000        0x0 binaries/strncpy.o
 .note.GNU-stack
                0x0000000000000000        0x0 binaries/strnlen.o
 .note.GNU-stack
                0x0000000000000000        0x0 binaries/strrchr.o
 .note.GNU-stack
                0x0000000000000000        0x0 binaries/strstr.o
 .note.GNU-stack
                0x0000000000000000        0x0 binaries/ttycontrol.o
 .note.GNU-stack
                0x0000000000000000        0x0 binaries/ttygetc.o
 .note.GNU-stack
                0x0000000000000000        0x0 binaries/ttyhandle_in.o
 .note.GNU-stack
                0x0000000000000000        0x0 binaries/ttyhandle_out.o
 .note.GNU-stack
                0x0000000000000000        0x0 binaries/ttyhandler.o
 .note.GNU-stack
                0x0000000000000000        0x0 binaries/ttyinit.o
 .note.GNU-stack
                0x0000000000000000        0x0 binaries/ttykickout.o
 .note.GNU-stack
                0x0000000000000000        0x0 binaries/ttyputc.o
 .note.GNU-stack
                0x0000000000000000        0x0 binaries/ttyread.o
 .note.GNU-stack
                0x0000000000000000        0x0 binaries/ttywrite.o
 .note.GNU-stack
                0x0000000000000000        0x0 binaries/mount.o
 .note.GNU-stack
                0x0000000000000000        0x0 binaries/naminit.o
 .note.GNU-stack
                0x0000000000000000        0x0 binaries/nammap.o
 .note.GNU-stack
                0x0000000000000000        0x0 binaries/namopen.o
 .note.GNU-stack
                0x0000000000000000        0x0 binaries/colon2mac.o
 .note.GNU-stack
                0x0000000000000000        0x0 binaries/ethcontrol.o
 .note.GNU-stack
                0x0000000000000000        0x0 binaries/ethhandler.o
 .note.GNU-stack
                0x0000000000000000        0x0 binaries/ethinit.o
 .note.GNU-stack
                0x0000000000000000        0x0 binaries/ethmcast.o
 .note.GNU-stack
                0x0000000000000000        0x0 binaries/ethread.o
 .note.GNU-stack
                0x0000000000000000        0x0 binaries/ethwrite.o
 .note.GNU-stack
                0x0000000000000000        0x0 binaries/rdsbufalloc.o
 .note.GNU-stack
                0x0000000000000000        0x0 binaries/rdsclose.o
 .note.GNU-stack
                0x0000000000000000        0x0 binaries/rdscomm.o
 .note.GNU-stack
                0x0000000000000000        0x0 binaries/rdscontrol.o
 .note.GNU-stack
                0x0000000000000000        0x0 binaries/rdsinit.o
 .note.GNU-stack
                0x0000000000000000        0x0 binaries/rdsopen.o
 .note.GNU-stack
                0x0000000000000000        0x0 binaries/rdsprocess.o
 .note.GNU-stack
                0x0000000000000000        0x0 binaries/rdsread.o
 .note.GNU-stack
                0x0000000000000000        0x0 binaries/rdswrite.o
 .note.GNU-stack
                0x0000000000000000        0x0 binaries/ramclose.o
 .note.GNU-stack
                0x0000000000000000        0x0 binaries/raminit.o
 .note.GNU-stack
                0x0000000000000000        0x0 binaries/ramopen.o
 .note.GNU-stack
                0x0000000000000000        0x0 binaries/ramread.o
 .note.GNU-stack
                0x0000000000000000        0x0 binaries/ramwrite.o
 .note.GNU-stack
                0x0000000000000000        0x0 binaries/lfdballoc.o
 .note.GNU-stack
                0x0000000000000000        0x0 binaries/lfdbfree.o
 .note.GNU-stack
                0x0000000000000000        0x0 binaries/lfflush.o
 .note.GNU-stack
                0x0000000000000000        0x0 binaries/lfgetmode.o
 .note.GNU-stack
                0x0000000000000000        0x0 binaries/lfiballoc.o
 .note.GNU-stack
                0x0000000000000000        0x0 binaries/lfibclear.o
 .note.GNU-stack
                0x0000000000000000        0x0 binaries/lfibget.o
 .note.GNU-stack
                0x0000000000000000        0x0 binaries/lfibput.o
 .note.GNU-stack
                0x0000000000000000        0x0 binaries/lflclose.o
 .note.GNU-stack
                0x0000000000000000        0x0 binaries/lflcontrol.o
 .note.GNU-stack
                0x0000000000000000        0x0 binaries/lflgetc.o
 .note.GNU-stack
                0x0000000000000000        0x0 binaries/lflinit.o
 .note.GNU-stack
                0x0000000000000000        0x0 binaries/lflputc.o
 .note.GNU-stack
                0x0000000000000000        0x0 binaries/lflread.o
 .note.GNU-stack
                0x0000000000000000        0x0 binaries/lflseek.o
 .note.GNU-stack
                0x0000000000000000        0x0 binaries/lflwrite.o
 .note.GNU-stack
                0x0000000000000000        0x0 binaries/lfsckfmt.o
 .note.GNU-stack
                0x0000000000000000        0x0 binaries/lfscreate.o
 .note.GNU-stack
                0x0000000000000000        0x0 binaries/lfsetup.o
 .note.GNU-stack
                0x0000000000000000        0x0 binaries/lfsinit.o
 .note.GNU-stack
                0x0000000000000000        0x0 binaries/lfsopen.o
 .note.GNU-stack
                0x0000000000000000        0x0 binaries/lftruncate.o
 .note.GNU-stack
                0x0000000000000000        0x0 binaries/rflclose.o
 .note.GNU-stack
                0x0000000000000000        0x0 binaries/rflgetc.o
 .note.GNU-stack
                0x0000000000000000        0x0 binaries/rflinit.o
 .note.GNU-stack
                0x0000000000000000        0x0 binaries/rflputc.o
 .note.GNU-stack
                0x0000000000000000        0x0 binaries/rflread.o
 .note.GNU-stack
                0x0000000000000000        0x0 binaries/rflseek.o
 .note.GNU-stack
                0x0000000000000000        0x0 binaries/rflwrite.o
 .note.GNU-stack
                0x0000000000000000        0x0 binaries/rfscomm.o
 .note.GNU-stack
                0x0000000000000000        0x0 binaries/rfscontrol.o
 .note.GNU-stack
                0x0000000000000000        0x0 binaries/rfsgetmode.o
 .note.GNU-stack
                0x0000000000000000        0x0 binaries/rfsinit.o
 .note.GNU-stack
                0x0000000000000000        0x0 binaries/rfsndmsg.o
 .note.GNU-stack
                0x0000000000000000        0x0 binaries/rfsopen.o
 .note.GNU-stack
                0x0000000000000000        0x0 binaries/arp.o
 .note.GNU-stack
                0x0000000000000000        0x0 binaries/dhcp.o
 .note.GNU-stack
                0x0000000000000000        0x0 binaries/dot2ip.o
 .note.GNU-stack
                0x0000000000000000        0x0 binaries/hexdump.o
 .note.GNU-stack
                0x0000000000000000        0x0 binaries/icmp.o
 .note.GNU-stack
                0x0000000000000000        0x0 binaries/ip.o
 .note.GNU-stack
                0x0000000000000000        0x0 binaries/net.o
 .note.GNU-stack
                0x0000000000000000        0x0 binaries/netstart.o
 .note.GNU-stack
                0x0000000000000000        0x0 binaries/pdump.o
 .note.GNU-stack
                0x0000000000000000        0x0 binaries/tftp.o
 .note.GNU-stack
                0x0000000000000000        0x0 binaries/udp.o
 .note.GNU-stack
                0x0000000000000000        0x0 binaries/addargs.o
 .note.GNU-stack
                0x0000000000000000        0x0 binaries/lexan.o
 .note.GNU-stack
                0x0000000000000000        0x0 binaries/shell.o
 .note.GNU-stack
                0x0000000000000000        0x0 binaries/xsh_argecho.o
 .note.GNU-stack
                0x0000000000000000        0x0 binaries/xsh_arp.o
 .note.GNU-stack
                0x0000000000000000        0x0 binaries/xsh_cat.o
 .note.GNU-stack
                0x0000000000000000        0x0 binaries/xsh_clear.o
 .note.GNU-stack
                0x0000000000000000        0x0 binaries/xsh_date.o
 .note.GNU-stack
                0x0000000000000000        0x0 binaries/xsh_devdump.o
 .note.GNU-stack
                0x0000000000000000        0x0 binaries/xsh_echo.o
 .note.GNU-stack
                0x0000000000000000        0x0 binaries/xsh_exit.o
 .note.GNU-stack
                0x0000000000000000        0x0 binaries/xsh_help.o
 .note.GNU-stack
                0x0000000000000000        0x0 binaries/xsh_ipaddr.o
 .note.GNU-stack
                0x0000000000000000        0x0 binaries/xsh_kill.o
 .note.GNU-stack
                0x0000000000000000        0x0 binaries/xsh_memdump.o
 .note.GNU-stack
                0x0000000000000000        0x0 binaries/xsh_memstat.o
 .note.GNU-stack
                0x0000000000000000        0x0 binaries/xsh_ping.o
 .note.GNU-stack
                0x0000000000000000        0x0 binaries/xsh_ps.o
 .note.GNU-stack
                0x0000000000000000        0x0 binaries/xsh_sleep.o
 .note.GNU-stack
                0x0000000000000000        0x0 binaries/xsh_udpdump.o
 .note.GNU-stack
                0x0000000000000000        0x0 binaries/xsh_udpecho.o
 .note.GNU-stack
                0x0000000000000000        0x0 binaries/xsh_udpeserver.o
 .note.GNU-stack
                0x0000000000000000        0x0 binaries/xsh_uptime.o
 .note.GNU-stack
                0x0000000000000000        0x0 binaries/host2netlc.o
