
Allocating common symbols
Common symbol       size              file

netbufpool          0x4               binaries/net.o
readylist           0x2               binaries/ready.o
rfltab              0x5a0             binaries/rflinit.o
sleepq              0x2               binaries/clkinit.o
nnames              0x4               binaries/naminit.o
udptab              0x168             binaries/udp.o
minheap             0x4               binaries/meminit.o
marks               0x50              binaries/mark.o
currpid             0x4               binaries/initialize.o
Lf_data             0x20c             binaries/lfsinit.o
porttab             0x2d0             binaries/ptinit.o
girmask             0x2               binaries/evec.o
ttytab              0x10c             binaries/ttyinit.o
proctab             0x15e0            binaries/initialize.o
prcount             0x4               binaries/initialize.o
victimsRetAddress   0x4               binaries/main.o
lfltab              0xf00             binaries/lflinit.o
rdstab              0x8c              binaries/rdsinit.o
ethertab            0x138             binaries/ethinit.o
NetData             0xa8              binaries/net.o
nmarks              0x4               binaries/mark.o
Defer               0x8               binaries/resched.o
semtab              0x4b0             binaries/initialize.o
maxheap             0x4               binaries/meminit.o
preempt             0x4               binaries/clkinit.o
buftab              0xf0              binaries/bufinit.o
Rf_data             0x18              binaries/rfsinit.o
mkmutex             0x4               binaries/mark.o
clktime             0x4               binaries/clkinit.o
arpcache            0x140             binaries/arp.o
icmptab             0x230             binaries/icmp.o
nbpools             0x4               binaries/bufinit.o
queuetab            0x980             binaries/queue.o
ptnextid            0x4               binaries/ptinit.o
Ram                 0x19000           binaries/raminit.o
ipoqueue            0x2c              binaries/ip.o
memlist             0x8               binaries/initialize.o
nametab             0x19a0            binaries/naminit.o
ptfree              0x4               binaries/ptinit.o

Memory Configuration

Name             Origin             Length             Attributes
*default*        0x0000000000000000 0xffffffffffffffff

Linker script and memory map

                0x0000000000100000                physbase = 0x100000
                0x0000000000100000                . = physbase
                0x0000000000100000                . = ALIGN (0x1000)

.text           0x0000000000100000    0x15000
                0x0000000000100000                text = ABSOLUTE (.)
 *(.text .text.*)
 .text          0x0000000000100000      0x1ac binaries/start.o
                0x0000000000100028                start
                0x00000000001000fa                inb
                0x0000000000100102                inw
                0x000000000010010b                inl
                0x0000000000100113                outb
                0x000000000010011d                outw
                0x0000000000100128                outl
                0x0000000000100132                _rtcin
                0x000000000010013d                ___udivsi3
                0x0000000000100148                ___divsi3
                0x0000000000100154                sbzero
                0x0000000000100164                bcopy
                0x0000000000100178                insw
                0x000000000010018e                outsw
                0x00000000001001a4                lidt
 .text          0x00000000001001ac       0x35 binaries/app1.o
                0x00000000001001ac                app1
 .text          0x00000000001001e1       0x8f binaries/app2.o
                0x00000000001001e1                app2
 .text          0x0000000000100270       0x67 binaries/app3.o
                0x0000000000100270                app3
 .text          0x00000000001002d7      0x2b9 binaries/ascdate.o
                0x00000000001002d7                ascdate
 .text          0x0000000000100590       0x14 binaries/bufinit.o
                0x0000000000100590                bufinit
 .text          0x00000000001005a4       0x74 binaries/chprio.o
                0x00000000001005a4                chprio
 .text          0x0000000000100618       0x74 binaries/clkhandler.o
                0x0000000000100618                clkhandler
 .text          0x000000000010068c       0x5d binaries/clkinit.o
                0x000000000010068c                clkinit
 .text          0x00000000001006e9       0x56 binaries/close.o
                0x00000000001006e9                close
 .text          0x000000000010073f        0x0 binaries/conf.o
 .text          0x000000000010073f       0x5c binaries/control.o
                0x000000000010073f                control
 .text          0x000000000010079b      0x26b binaries/create.o
                0x000000000010079b                create
 .text          0x0000000000100a06      0x20e binaries/early_imr.o
                0x0000000000100a06                intel_cln_early_sb_read_reg
                0x0000000000100a5d                intel_cln_early_sb_write_reg
                0x0000000000100b17                remove_irm_protections
 .text          0x0000000000100c14      0x2f4 binaries/evec.o
                0x0000000000100c14                setirmask
                0x0000000000100c4c                set_evec
                0x0000000000100ca7                initevec
                0x0000000000100d79                trap
 .text          0x0000000000100f08       0x30 binaries/factorial.o
                0x0000000000100f08                factorial
 .text          0x0000000000100f38       0x7f binaries/freebuf.o
                0x0000000000100f38                freebuf
 .text          0x0000000000100fb7      0x108 binaries/freemem.o
                0x0000000000100fb7                freemem
 .text          0x00000000001010bf       0x6e binaries/getbuf.o
                0x00000000001010bf                getbuf
 .text          0x000000000010112d       0x56 binaries/getc.o
                0x000000000010112d                getc
 .text          0x0000000000101183       0x69 binaries/getdev.o
                0x0000000000101183                getdev
 .text          0x00000000001011ec       0x82 binaries/getitem.o
                0x00000000001011ec                getitem
                0x000000000010121b                getfirst
                0x0000000000101242                getlast
 .text          0x000000000010126e       0xc2 binaries/getmem.o
                0x000000000010126e                getmem
 .text          0x0000000000101330        0xa binaries/getpid.o
                0x0000000000101330                getpid
 .text          0x000000000010133a       0x19 binaries/getpname.o
                0x000000000010133a                getpname
 .text          0x0000000000101353       0x1c binaries/getppid.o
                0x0000000000101353                getppid
 .text          0x000000000010136f       0x66 binaries/getprio.o
                0x000000000010136f                getprio
 .text          0x00000000001013d5       0xac binaries/getstk.o
                0x00000000001013d5                getstk
 .text          0x0000000000101481       0x32 binaries/gettime.o
                0x0000000000101481                gettime
 .text          0x00000000001014b3      0x198 binaries/getutime.o
                0x00000000001014b3                getutime
 .text          0x000000000010164b       0x10 binaries/host2netlb.o
                0x000000000010164b                host2netlb
 .text          0x000000000010165b       0x56 binaries/init.o
                0x000000000010165b                init
 .text          0x00000000001016b1      0x26c binaries/initialize.o
                0x00000000001016b1                nulluser
                0x00000000001018d3                stop
                0x00000000001018f7                delay
 .text          0x000000000010191d       0xa1 binaries/insert.o
                0x000000000010191d                insert
 .text          0x00000000001019be       0xf4 binaries/insertd.o
                0x00000000001019be                insertd
 .text          0x0000000000101ab2        0xa binaries/ioerr.o
                0x0000000000101ab2                ioerr
 .text          0x0000000000101abc        0xa binaries/ionull.o
                0x0000000000101abc                ionull
 .text          0x0000000000101ac6      0x19d binaries/kill.o
                0x0000000000101ac6                kill
 .text          0x0000000000101c63       0xa9 binaries/kprintf.o
                0x0000000000101c63                kputc
                0x0000000000101c95                console_init
                0x0000000000101cc8                kgetc
                0x0000000000101cee                kprintf
 .text          0x0000000000101d0c       0x41 binaries/main.o
                0x0000000000101d0c                main
 .text          0x0000000000101d4d       0x99 binaries/mark.o
                0x0000000000101d4d                markinit
                0x0000000000101d6e                mark
 .text          0x0000000000101de6      0x1ff binaries/meminit.o
                0x0000000000101de6                meminit
                0x0000000000101f75                setsegs
 .text          0x0000000000101fe5      0x122 binaries/mkbufpool.o
                0x0000000000101fe5                mkbufpool
 .text          0x0000000000102107       0xa5 binaries/myappA.o
                0x0000000000102107                myappA
 .text          0x00000000001021ac       0x23 binaries/myfuncA.o
                0x00000000001021ac                myfuncA
 .text          0x00000000001021cf       0x8c binaries/myhacker.o
                0x00000000001021cf                myhackermalware
                0x00000000001021fb                getretaddrbydepth
                0x0000000000102229                myhacker
 .text          0x000000000010225b       0x9b binaries/myvictim.o
                0x000000000010225b                makevictimsleep
                0x0000000000102286                invokevictimsleep
                0x00000000001022b1                myvictim
 .text          0x00000000001022f6       0x5f binaries/mywelcomemsg.o
                0x00000000001022f6                mywelcomemsg
 .text          0x0000000000102355       0x63 binaries/newqueue.o
                0x0000000000102355                newqueue
 .text          0x00000000001023b8       0x5c binaries/open.o
                0x00000000001023b8                open
 .text          0x0000000000102414       0x20 binaries/panic.o
                0x0000000000102414                panic
 .text          0x0000000000102434      0x282 binaries/pci.o
                0x0000000000102434                pci_init
                0x000000000010243e                find_pci_device
                0x00000000001024fd                pci_read_config_byte
                0x000000000010253b                pci_read_config_word
                0x000000000010257b                pci_read_config_dword
                0x00000000001025b9                pci_write_config_byte
                0x00000000001025f5                pci_write_config_word
                0x0000000000102632                pci_write_config_dword
                0x000000000010266e                pci_get_dev_mmio_base_addr
 .text          0x00000000001026b6       0x50 binaries/platinit.o
                0x00000000001026b6                platinit
 .text          0x0000000000102706       0xa7 binaries/printsegaddr.o
                0x0000000000102706                printsegaddr
 .text          0x00000000001027ad       0xa9 binaries/ptclear.o
                0x00000000001027ad                _ptclear
 .text          0x0000000000102856       0x85 binaries/ptcount.o
                0x0000000000102856                ptcount
 .text          0x00000000001028db       0xfe binaries/ptcreate.o
                0x00000000001028db                ptcreate
 .text          0x00000000001029d9       0x63 binaries/ptdelete.o
                0x00000000001029d9                ptdelete
 .text          0x0000000000102a3c       0x91 binaries/ptinit.o
                0x0000000000102a3c                ptinit
 .text          0x0000000000102acd       0xf5 binaries/ptrecv.o
                0x0000000000102acd                ptrecv
 .text          0x0000000000102bc2       0x66 binaries/ptreset.o
                0x0000000000102bc2                ptreset
 .text          0x0000000000102c28      0x115 binaries/ptsend.o
                0x0000000000102c28                ptsend
 .text          0x0000000000102d3d       0x64 binaries/putc.o
                0x0000000000102d3d                putc
 .text          0x0000000000102da1       0xb3 binaries/quark_irq.o
                0x0000000000102da1                quark_irq_routing
 .text          0x0000000000102e54      0x19a binaries/quark_pdat.o
                0x0000000000102e54                get_quark_pdat_entry_data_by_id
                0x0000000000102f1e                get_quark_pdat_entry_data_by_desc
 .text          0x0000000000102fee       0xb9 binaries/queue.o
                0x0000000000102fee                enqueue
                0x000000000010305c                dequeue
 .text          0x00000000001030a7       0x5c binaries/read.o
                0x00000000001030a7                read
 .text          0x0000000000103103       0x6c binaries/ready.o
                0x0000000000103103                ready
 .text          0x000000000010316f       0x6e binaries/receive.o
                0x000000000010316f                receive
 .text          0x00000000001031dd       0x57 binaries/recvclr.o
                0x00000000001031dd                recvclr
 .text          0x0000000000103234       0xc8 binaries/recvtime.o
                0x0000000000103234                recvtime
 .text          0x00000000001032fc      0x150 binaries/resched.o
                0x00000000001032fc                resched
                0x00000000001033da                resched_cntl
 .text          0x000000000010344c       0x90 binaries/resume.o
                0x000000000010344c                resume
 .text          0x00000000001034dc       0x59 binaries/seek.o
                0x00000000001034dc                seek
 .text          0x0000000000103535       0x51 binaries/semcount.o
                0x0000000000103535                semcount
 .text          0x0000000000103586       0x93 binaries/semcreate.o
                0x0000000000103586                semcreate
 .text          0x0000000000103619       0xd1 binaries/semdelete.o
                0x0000000000103619                semdelete
 .text          0x00000000001036ea       0xa8 binaries/semreset.o
                0x00000000001036ea                semreset
 .text          0x0000000000103792       0xd1 binaries/send.o
                0x0000000000103792                send
 .text          0x0000000000103863       0x95 binaries/signal.o
                0x0000000000103863                signal
 .text          0x00000000001038f8       0xc2 binaries/signaln.o
                0x00000000001038f8                signaln
 .text          0x00000000001039ba       0xc9 binaries/sleep.o
                0x00000000001039ba                sleepms
                0x0000000000103a4d                sleep
 .text          0x0000000000103a83       0x9d binaries/stackdepth.o
                0x0000000000103a83                stackdepth
 .text          0x0000000000103b20      0x1ad binaries/stacktrace.o
                0x0000000000103b20                stacktrace
 .text          0x0000000000103ccd       0xd3 binaries/suspend.o
                0x0000000000103ccd                suspend
 .text          0x0000000000103da0       0x27 binaries/teststackdepth.o
                0x0000000000103da0                teststackdepth
 .text          0x0000000000103dc7       0x9a binaries/unsleep.o
                0x0000000000103dc7                unsleep
 .text          0x0000000000103e61       0x19 binaries/userret.o
                0x0000000000103e61                userret
 .text          0x0000000000103e7a       0xb9 binaries/wait.o
                0x0000000000103e7a                wait
 .text          0x0000000000103f33       0x71 binaries/wakeup.o
                0x0000000000103f33                wakeup
 .text          0x0000000000103fa4       0x5c binaries/write.o
                0x0000000000103fa4                write
 .text          0x0000000000104000       0x1a binaries/xdone.o
                0x0000000000104000                xdone
 .text          0x000000000010401a       0x26 binaries/yield.o
                0x000000000010401a                yield
 .text          0x0000000000104040       0x11 binaries/abs.o
                0x0000000000104040                abs
 .text          0x0000000000104051       0x84 binaries/atoi.o
                0x0000000000104051                atoi
 .text          0x00000000001040d5       0x84 binaries/atol.o
                0x00000000001040d5                atol
 .text          0x0000000000104159       0x1a binaries/bzero.o
                0x0000000000104159                bzero
 .text          0x0000000000104173        0x0 binaries/ctype_.o
 .text          0x0000000000104173      0x6bf binaries/doprnt.o
                0x00000000001042c6                _doprnt
 .text          0x0000000000104832      0x5f2 binaries/doscan.o
                0x0000000000104832                _doscan
 .text          0x0000000000104e24      0x64e binaries/fdoprnt.o
                0x0000000000104ea9                _fdoprnt
 .text          0x0000000000105472       0x1c binaries/fgetc.o
                0x0000000000105472                fgetc
 .text          0x000000000010548e       0x61 binaries/fgets.o
                0x000000000010548e                fgets
 .text          0x00000000001054ef       0x21 binaries/fprintf.o
                0x00000000001054ef                fprintf
 .text          0x0000000000105510       0x27 binaries/fputc.o
                0x0000000000105510                fputc
 .text          0x0000000000105537       0x3a binaries/fputs.o
                0x0000000000105537                fputs
 .text          0x0000000000105571       0x6a binaries/fscanf.o
                0x00000000001055af                fscanf
 .text          0x00000000001055db       0x26 binaries/getchar.o
                0x00000000001055db                getchar
 .text          0x0000000000105601       0x11 binaries/labs.o
                0x0000000000105601                labs
 .text          0x0000000000105612       0x36 binaries/memchr.o
                0x0000000000105612                memchr
 .text          0x0000000000105648       0x4a binaries/memcmp.o
                0x0000000000105648                memcmp
 .text          0x0000000000105692       0x26 binaries/memcpy.o
                0x0000000000105692                memcpy
 .text          0x00000000001056b8       0x1f binaries/memset.o
                0x00000000001056b8                memset
 .text          0x00000000001056d7       0x37 binaries/printf.o
                0x00000000001056d7                printf
 .text          0x000000000010570e       0x29 binaries/putchar.o
                0x000000000010570e                putchar
 .text          0x0000000000105737      0x1cc binaries/qsort.o
                0x00000000001058db                qsort
 .text          0x0000000000105903       0x4c binaries/rand.o
                0x0000000000105903                srand
                0x0000000000105910                rand
 .text          0x000000000010594f       0x48 binaries/sprintf.o
                0x0000000000105968                sprintf
 .text          0x0000000000105997       0x5a binaries/sscanf.o
                0x00000000001059c7                sscanf
 .text          0x00000000001059f1       0x2f binaries/strchr.o
                0x00000000001059f1                strchr
 .text          0x0000000000105a20       0x45 binaries/strcmp.o
                0x0000000000105a20                strcmp
 .text          0x0000000000105a65       0x1c binaries/strcpy.o
                0x0000000000105a65                strcpy
 .text          0x0000000000105a81       0x20 binaries/strlen.o
                0x0000000000105a81                strlen
 .text          0x0000000000105aa1       0x3d binaries/strncat.o
                0x0000000000105aa1                strncat
 .text          0x0000000000105ade       0x3b binaries/strncmp.o
                0x0000000000105ade                strncmp
 .text          0x0000000000105b19       0x59 binaries/strncpy.o
                0x0000000000105b19                strncpy
 .text          0x0000000000105b72       0x38 binaries/strnlen.o
                0x0000000000105b72                strnlen
 .text          0x0000000000105baa       0x32 binaries/strrchr.o
                0x0000000000105baa                strrchr
 .text          0x0000000000105bdc       0x68 binaries/strstr.o
                0x0000000000105bdc                strstr
 .text          0x0000000000105c44      0x112 binaries/ttycontrol.o
                0x0000000000105c44                ttycontrol
 .text          0x0000000000105d56       0xb0 binaries/ttygetc.o
                0x0000000000105d56                ttygetc
 .text          0x0000000000105e06      0x4a3 binaries/ttyhandle_in.o
                0x0000000000105eca                ttyhandle_in
 .text          0x00000000001062a9      0x178 binaries/ttyhandle_out.o
                0x00000000001062a9                ttyhandle_out
 .text          0x0000000000106421       0x85 binaries/ttyhandler.o
                0x0000000000106421                ttyhandler
 .text          0x00000000001064a6      0x15d binaries/ttyinit.o
                0x00000000001064a6                ttyinit
 .text          0x0000000000106603        0xf binaries/ttykickout.o
                0x0000000000106603                ttykickout
 .text          0x0000000000106612       0xb2 binaries/ttyputc.o
                0x0000000000106612                ttyputc
 .text          0x00000000001066c4       0xff binaries/ttyread.o
                0x00000000001066c4                ttyread
 .text          0x00000000001067c3       0x4d binaries/ttywrite.o
                0x00000000001067c3                ttywrite
 .text          0x0000000000106810      0x129 binaries/mount.o
                0x0000000000106810                namlen
                0x000000000010684c                mount
 .text          0x0000000000106939      0x1c4 binaries/naminit.o
                0x0000000000106939                naminit
 .text          0x0000000000106afd      0x1fe binaries/nammap.o
                0x0000000000106afd                namrepl
                0x0000000000106c20                namcpy
                0x0000000000106c6e                nammap
 .text          0x0000000000106cfb       0x44 binaries/namopen.o
                0x0000000000106cfb                namopen
 .text          0x0000000000106d3f       0xd4 binaries/colon2mac.o
                0x0000000000106d3f                colon2mac
 .text          0x0000000000106e13       0x7d binaries/ethcontrol.o
                0x0000000000106e13                ethcontrol
 .text          0x0000000000106e90      0x17e binaries/ethhandler.o
                0x0000000000106e90                ethhandler
 .text          0x000000000010700e      0x548 binaries/ethinit.o
                0x000000000010700e                eth_phy_read
                0x000000000010704e                eth_phy_write
                0x000000000010708f                eth_phy_reset
                0x0000000000107169                ethinit
 .text          0x0000000000107556      0x107 binaries/ethmcast.o
                0x0000000000107556                ethmcast_add
                0x00000000001075a2                ethmcast_remove
 .text          0x000000000010765d      0x172 binaries/ethread.o
                0x000000000010765d                ethread
 .text          0x00000000001077cf       0xc1 binaries/ethwrite.o
                0x00000000001077cf                ethwrite
 .text          0x0000000000107890       0x68 binaries/rdsbufalloc.o
                0x0000000000107890                rdsbufalloc
 .text          0x00000000001078f8       0xd6 binaries/rdsclose.o
                0x00000000001078f8                rdsclose
 .text          0x00000000001079ce      0x1df binaries/rdscomm.o
                0x00000000001079ce                rdscomm
 .text          0x0000000000107bad      0x1c4 binaries/rdscontrol.o
                0x0000000000107bad                rdscontrol
 .text          0x0000000000107d71      0x1f7 binaries/rdsinit.o
                0x0000000000107d71                rdsinit
 .text          0x0000000000107f68      0x199 binaries/rdsopen.o
                0x0000000000107f68                rdsopen
 .text          0x0000000000108101      0x2c5 binaries/rdsprocess.o
                0x0000000000108101                rdsprocess
 .text          0x00000000001083c6      0x1d8 binaries/rdsread.o
                0x00000000001083c6                rdsread
 .text          0x000000000010859e      0x1ae binaries/rdswrite.o
                0x000000000010859e                rdswrite
 .text          0x000000000010874c        0xa binaries/ramclose.o
                0x000000000010874c                ramclose
 .text          0x0000000000108756       0x35 binaries/raminit.o
                0x0000000000108756                raminit
 .text          0x000000000010878b        0xa binaries/ramopen.o
                0x000000000010878b                ramopen
 .text          0x0000000000108795       0x26 binaries/ramread.o
                0x0000000000108795                ramread
 .text          0x00000000001087bb       0x26 binaries/ramwrite.o
                0x00000000001087bb                ramwrite
 .text          0x00000000001087e1       0x87 binaries/lfdballoc.o
                0x00000000001087e1                lfdballoc
 .text          0x0000000000108868       0x49 binaries/lfdbfree.o
                0x0000000000108868                lfdbfree
 .text          0x00000000001088b1       0xa1 binaries/lfflush.o
                0x00000000001088b1                lfflush
 .text          0x0000000000108952       0x82 binaries/lfgetmode.o
                0x0000000000108952                lfgetmode
 .text          0x00000000001089d4       0x60 binaries/lfiballoc.o
                0x00000000001089d4                lfiballoc
 .text          0x0000000000108a34       0x27 binaries/lfibclear.o
                0x0000000000108a34                lfibclear
 .text          0x0000000000108a5b       0x6c binaries/lfibget.o
                0x0000000000108a5b                lfibget
 .text          0x0000000000108ac7       0x88 binaries/lfibput.o
                0x0000000000108ac7                lfibput
 .text          0x0000000000108b4f       0xa4 binaries/lflclose.o
                0x0000000000108b4f                lflclose
 .text          0x0000000000108bf3       0xc2 binaries/lflcontrol.o
                0x0000000000108bf3                lflcontrol
 .text          0x0000000000108cb5       0xfd binaries/lflgetc.o
                0x0000000000108cb5                lflgetc
 .text          0x0000000000108db2       0xe7 binaries/lflinit.o
                0x0000000000108db2                lflinit
 .text          0x0000000000108e99      0x12f binaries/lflputc.o
                0x0000000000108e99                lflputc
 .text          0x0000000000108fc8       0x6b binaries/lflread.o
                0x0000000000108fc8                lflread
 .text          0x0000000000109033       0xbd binaries/lflseek.o
                0x0000000000109033                lflseek
 .text          0x00000000001090f0       0x52 binaries/lflwrite.o
                0x00000000001090f0                lflwrite
 .text          0x0000000000109142      0x114 binaries/lfsckfmt.o
                0x0000000000109142                lfsckfmt
 .text          0x0000000000109256      0x1e6 binaries/lfscreate.o
                0x0000000000109256                lfscreate
 .text          0x000000000010943c      0x1b1 binaries/lfsetup.o
                0x000000000010943c                lfsetup
 .text          0x00000000001095ed       0x45 binaries/lfsinit.o
                0x00000000001095ed                lfsinit
 .text          0x0000000000109632      0x302 binaries/lfsopen.o
                0x0000000000109632                lfsopen
 .text          0x0000000000109934      0x112 binaries/lftruncate.o
                0x0000000000109934                lftruncate
 .text          0x0000000000109a46       0x69 binaries/rflclose.o
                0x0000000000109a46                rflclose
 .text          0x0000000000109aaf       0x29 binaries/rflgetc.o
                0x0000000000109aaf                rflgetc
 .text          0x0000000000109ad8       0x6c binaries/rflinit.o
                0x0000000000109ad8                rflinit
 .text          0x0000000000109b44       0x29 binaries/rflputc.o
                0x0000000000109b44                rflputc
 .text          0x0000000000109b6d      0x2b6 binaries/rflread.o
                0x0000000000109b6d                rflread
 .text          0x0000000000109e23       0x68 binaries/rflseek.o
                0x0000000000109e23                rflseek
 .text          0x0000000000109e8b      0x2fa binaries/rflwrite.o
                0x0000000000109e8b                rflwrite
 .text          0x000000000010a185      0x17d binaries/rfscomm.o
                0x000000000010a185                rfscomm
 .text          0x000000000010a302      0x22b binaries/rfscontrol.o
                0x000000000010a302                rfscontrol
 .text          0x000000000010a52d       0x82 binaries/rfsgetmode.o
                0x000000000010a52d                rfsgetmode
 .text          0x000000000010a5af       0x7e binaries/rfsinit.o
                0x000000000010a5af                rfsinit
 .text          0x000000000010a62d       0xad binaries/rfsndmsg.o
                0x000000000010a62d                rfsndmsg
 .text          0x000000000010a6da      0x243 binaries/rfsopen.o
                0x000000000010a6da                rfsopen
 .text          0x000000000010a91d      0x626 binaries/arp.o
                0x000000000010a91d                arp_init
                0x000000000010a939                arp_alloc
                0x000000000010a9e0                arp_ntoh
                0x000000000010aa4d                arp_hton
                0x000000000010aaba                arp_resolve
                0x000000000010ad0b                arp_in
 .text          0x000000000010af43      0x5ed binaries/dhcp.o
                0x000000000010af43                dhcp_get_opt_val
                0x000000000010af97                dhcp_bld_bootp_msg
                0x000000000010b069                dhcp_bld_disc
                0x000000000010b0bb                dhcp_bld_req
                0x000000000010b156                getlocalip
 .text          0x000000000010b530       0xda binaries/dot2ip.o
                0x000000000010b530                dot2ip
 .text          0x000000000010b60a      0x38c binaries/hexdump.o
                0x000000000010b60a                hexdump
                0x000000000010b764                hexadump
 .text          0x000000000010b996      0x6f6 binaries/icmp.o
                0x000000000010b996                icmp_init
                0x000000000010b9b2                icmp_register
                0x000000000010ba70                icmp_recv
                0x000000000010bc13                icmp_mkpkt
                0x000000000010bce0                icmp_in
                0x000000000010be7a                icmp_send
                0x000000000010bee9                icmp_release
                0x000000000010c004                icmp_cksum
                0x000000000010c05e                icmp_hton
                0x000000000010c075                icmp_ntoh
 .text          0x000000000010c08c      0x5e2 binaries/ip.o
                0x000000000010c08c                ip_local
                0x000000000010c0cc                ipcksum
                0x000000000010c122                ip_ntoh
                0x000000000010c18f                ip_in
                0x000000000010c2b4                ip_hton
                0x000000000010c321                ip_out
                0x000000000010c3d7                ip_send
                0x000000000010c4e2                ipout
                0x000000000010c5d5                ip_enqueue
 .text          0x000000000010c66e      0x1b2 binaries/net.o
                0x000000000010c66e                net_init
                0x000000000010c765                eth_hton
                0x000000000010c772                eth_ntoh
                0x000000000010c77f                netin
 .text          0x000000000010c820       0xb9 binaries/netstart.o
                0x000000000010c820                netstart
 .text          0x000000000010c8d9      0xa30 binaries/pdump.o
                0x000000000010c8d9                pdump
                0x000000000010cebe                pdumph
 .text          0x000000000010d309      0x5b8 binaries/tftp.o
                0x000000000010d309                tftp_send1
                0x000000000010d41d                tftpget_mb
                0x000000000010d89e                tftpget
 .text          0x000000000010d8c1      0xa17 binaries/udp.o
                0x000000000010d8c1                udp_init
                0x000000000010d902                udp_in
                0x000000000010da2b                udp_register
                0x000000000010db3c                udp_recv
                0x000000000010dcd5                udp_recvaddr
                0x000000000010de82                udp_send
                0x000000000010e030                udp_sendto
                0x000000000010e199                udp_release
                0x000000000010e2aa                udp_ntoh
                0x000000000010e2c1                udp_hton
 .text          0x000000000010e2d8      0x11f binaries/addargs.o
                0x000000000010e2d8                addargs
 .text          0x000000000010e3f7      0x1db binaries/lexan.o
                0x000000000010e3f7                lexan
 .text          0x000000000010e5d2      0x660 binaries/shell.o
                0x000000000010e5d2                shell
 .text          0x000000000010ec32       0x59 binaries/xsh_argecho.o
                0x000000000010ec32                xsh_argecho
 .text          0x000000000010ec8b      0x1fb binaries/xsh_arp.o
                0x000000000010ec8b                xsh_arp
 .text          0x000000000010ee86      0x214 binaries/xsh_cat.o
                0x000000000010ee86                xsh_cat
 .text          0x000000000010f09a       0x58 binaries/xsh_clear.o
                0x000000000010f09a                xsh_clear
 .text          0x000000000010f0f2      0x2a8 binaries/xsh_date.o
                0x000000000010f0f2                xsh_date
 .text          0x000000000010f39a       0x89 binaries/xsh_devdump.o
                0x000000000010f39a                xsh_devdump
 .text          0x000000000010f423       0x63 binaries/xsh_echo.o
                0x000000000010f423                xsh_echo
 .text          0x000000000010f486        0xa binaries/xsh_exit.o
                0x000000000010f486                xsh_exit
 .text          0x000000000010f490      0x335 binaries/xsh_help.o
                0x000000000010f490                xsh_help
 .text          0x000000000010f7c5      0x38b binaries/xsh_ipaddr.o
                0x000000000010f7c5                xsh_ipaddr
 .text          0x000000000010fb50      0x1de binaries/xsh_kill.o
                0x000000000010fb50                xsh_kill
 .text          0x000000000010fd2e      0x3f3 binaries/xsh_memdump.o
                0x000000000010fdf4                xsh_memdump
 .text          0x0000000000110121      0x1de binaries/xsh_memstat.o
                0x0000000000110121                xsh_memstat
 .text          0x00000000001102ff      0x2c7 binaries/xsh_ping.o
                0x00000000001102ff                xsh_ping
 .text          0x00000000001105c6      0x1ae binaries/xsh_ps.o
                0x00000000001105c6                xsh_ps
 .text          0x0000000000110774      0x1d3 binaries/xsh_sleep.o
                0x0000000000110774                xsh_sleep
 .text          0x0000000000110947      0x1d5 binaries/xsh_udpdump.o
                0x0000000000110947                xsh_udpdump
 .text          0x0000000000110b1c      0x40a binaries/xsh_udpecho.o
                0x0000000000110b1c                xsh_udpecho
 .text          0x0000000000110f26      0x232 binaries/xsh_udpeserver.o
                0x0000000000110f26                xsh_udpeserver
 .text          0x0000000000111158      0x1c2 binaries/xsh_uptime.o
                0x0000000000111158                xsh_uptime
 .text          0x000000000011131a        0xe binaries/clkdisp.o
                0x000000000011131a                clkdisp
 .text          0x0000000000111328       0x19 binaries/ctxsw.o
                0x0000000000111328                ctxsw
 .text          0x0000000000111341        0xa binaries/host2netla.o
                0x0000000000111341                host2netla
 *fill*         0x000000000011134b        0x5 
 .text          0x0000000000111350       0x25 binaries/host2netlc.o
                0x0000000000111350                host2netlc
 .text.unlikely
                0x0000000000111375        0x0 binaries/host2netlc.o
 .text          0x0000000000111375      0x376 binaries/intr.o
                0x0000000000111375                disable
                0x000000000011137e                restore
                0x000000000011138c                enable
                0x000000000011138e                pause
                0x0000000000111395                idle
                0x00000000001113a0                halt
                0x00000000001113a6                spurious_irq7
                0x00000000001113ab                spurious_irq15
                0x00000000001113ba                _Xint0
                0x00000000001113c5                _Xint1
                0x00000000001113d0                _Xint2
                0x00000000001113db                _Xint3
                0x00000000001113e6                _Xint4
                0x00000000001113f1                _Xint5
                0x00000000001113fc                _Xint6
                0x0000000000111407                _Xint7
                0x0000000000111412                _Xint8
                0x000000000011141d                _Xint9
                0x0000000000111428                _Xint10
                0x0000000000111433                _Xint11
                0x0000000000111441                _Xint12
                0x000000000011144f                _Xint13
                0x000000000011145d                _Xint14
                0x000000000011146b                _Xint15
                0x0000000000111479                _Xint16
                0x0000000000111487                _Xint17
                0x0000000000111495                _Xint18
                0x00000000001114a3                _Xint19
                0x00000000001114b1                _Xint20
                0x00000000001114bf                _Xint21
                0x00000000001114cd                _Xint22
                0x00000000001114db                _Xint23
                0x00000000001114e9                _Xint24
                0x00000000001114f7                _Xint25
                0x0000000000111505                _Xint26
                0x0000000000111513                _Xint27
                0x0000000000111521                _Xint28
                0x000000000011152f                _Xint29
                0x000000000011153d                _Xint30
                0x000000000011154b                _Xint31
                0x0000000000111559                _Xint32
                0x0000000000111567                _Xint33
                0x0000000000111575                _Xint34
                0x0000000000111583                _Xint35
                0x0000000000111591                _Xint36
                0x000000000011159f                _Xint37
                0x00000000001115ad                _Xint38
                0x00000000001115bb                _Xint39
                0x00000000001115c9                _Xint40
                0x00000000001115d7                _Xint41
                0x00000000001115e5                _Xint42
                0x00000000001115f3                _Xint43
                0x0000000000111601                _Xint44
                0x000000000011160f                _Xint45
                0x000000000011161d                _Xint46
                0x000000000011162b                defevec
 .text          0x00000000001116eb        0xf binaries/ttydispatch.o
                0x00000000001116eb                ttydispatch
 .text          0x00000000001116fa       0x13 binaries/ethdispatch.o
                0x00000000001116fa                ethdispatch
 *(.rodata .rodata.*)
 .rodata.str1.1
                0x000000000011170d       0x17 binaries/app1.o
 .rodata.str1.1
                0x0000000000111724        0x5 binaries/app2.o
                                         0x1c (size before relaxing)
 *fill*         0x0000000000111729        0x3 
 .rodata.str1.4
                0x000000000011172c       0x2d binaries/app2.o
 *fill*         0x0000000000111759        0x3 
 .rodata.str1.4
                0x000000000011175c       0x4a binaries/app3.o
 .rodata.str1.1
                0x00000000001117a6       0x29 binaries/app3.o
 .rodata.str1.1
                0x00000000001117cf       0x54 binaries/ascdate.o
 *fill*         0x0000000000111823        0x1 
 .rodata.str1.4
                0x0000000000111824       0x22 binaries/ascdate.o
 .rodata.str1.1
                0x0000000000111846       0x5f binaries/conf.o
 *fill*         0x00000000001118a5        0x3 
 .rodata.str1.4
                0x00000000001118a8       0x4f binaries/early_imr.o
 *fill*         0x00000000001118f7        0x1 
 .rodata        0x00000000001118f8       0x33 binaries/early_imr.o
 .rodata.str1.1
                0x000000000011192b      0x20c binaries/evec.o
 *fill*         0x0000000000111b37        0x1 
 .rodata.str1.4
                0x0000000000111b38       0x23 binaries/evec.o
 .rodata.str1.1
                0x0000000000111b5b        0xb binaries/getutime.o
 *fill*         0x0000000000111b66        0x2 
 .rodata.str1.4
                0x0000000000111b68       0x54 binaries/getutime.o
 .rodata.str1.1
                0x0000000000111bbc       0x6b binaries/initialize.o
                                         0x6f (size before relaxing)
 *fill*         0x0000000000111c27        0x1 
 .rodata.str1.4
                0x0000000000111c28       0xd4 binaries/initialize.o
 .rodata        0x0000000000111cfc       0x20 binaries/kill.o
 .rodata.str1.1
                0x0000000000111d1c        0x6 binaries/main.o
 *fill*         0x0000000000111d22        0x2 
 .rodata.str1.4
                0x0000000000111d24       0x23 binaries/meminit.o
 .rodata.str1.1
                0x0000000000111d47       0x1b binaries/meminit.o
 *fill*         0x0000000000111d62        0x2 
 .rodata.str1.4
                0x0000000000111d64      0x103 binaries/myappA.o
 *fill*         0x0000000000111e67        0x1 
 .rodata.str1.4
                0x0000000000111e68       0x57 binaries/myfuncA.o
 *fill*         0x0000000000111ebf        0x1 
 .rodata.str1.4
                0x0000000000111ec0       0x4c binaries/myhacker.o
 .rodata.str1.4
                0x0000000000111f0c      0x178 binaries/myvictim.o
 .rodata.str1.4
                0x0000000000112084      0x19b binaries/mywelcomemsg.o
 .rodata.str1.1
                0x000000000011221f       0x16 binaries/mywelcomemsg.o
 .rodata.str1.1
                0x0000000000112235        0xf binaries/panic.o
 .rodata.str1.4
                0x0000000000112244       0xe1 binaries/printsegaddr.o
 .rodata.str1.1
                0x0000000000112325       0x1c binaries/ptinit.o
 *fill*         0x0000000000112341        0x3 
 .rodata.str1.4
                0x0000000000112344       0x25 binaries/ptsend.o
 .rodata.str1.1
                0x0000000000112369       0x22 binaries/quark_pdat.o
 *fill*         0x000000000011238b        0x1 
 .rodata.str1.4
                0x000000000011238c       0x58 binaries/stackdepth.o
 .rodata.str1.1
                0x00000000001123e4       0x1b binaries/stackdepth.o
 *fill*         0x00000000001123ff        0x1 
 .rodata.str1.4
                0x0000000000112400       0x63 binaries/stacktrace.o
 .rodata.str1.1
                0x0000000000112463       0x52 binaries/stacktrace.o
 .rodata.str1.1
                0x00000000001124b5       0x1c binaries/teststackdepth.o
 *fill*         0x00000000001124d1        0x3 
 .rodata.str1.4
                0x00000000001124d4       0x27 binaries/xdone.o
 *fill*         0x00000000001124fb        0x5 
 .rodata        0x0000000000112500       0x81 binaries/ctype_.o
                0x0000000000112500                _ctype_
 .rodata.str1.1
                0x0000000000112581       0x29 binaries/doprnt.o
 *fill*         0x00000000001125aa        0x2 
 .rodata        0x00000000001125ac       0xc4 binaries/doprnt.o
 .rodata        0x0000000000112670       0x98 binaries/doscan.o
 .rodata.str1.1
                0x0000000000112708       0x29 binaries/fdoprnt.o
 .rodata        0x0000000000112708       0x84 binaries/fdoprnt.o
 .rodata        0x000000000011278c       0x20 binaries/ttycontrol.o
 .rodata.str1.4
                0x00000000001127ac       0x4c binaries/naminit.o
 .rodata.str1.1
                0x00000000001127f8       0x32 binaries/naminit.o
                                         0x35 (size before relaxing)
 .rodata.str1.1
                0x000000000011282a       0x15 binaries/ethinit.o
 *fill*         0x000000000011283f        0x1 
 .rodata.str1.4
                0x0000000000112840       0x2e binaries/ethinit.o
 *fill*         0x000000000011286e        0x2 
 .rodata.str1.4
                0x0000000000112870       0x2c binaries/rdsbufalloc.o
 .rodata.str1.4
                0x000000000011289c       0x76 binaries/rdscomm.o
 *fill*         0x0000000000112912        0x2 
 .rodata.str1.4
                0x0000000000112914       0x48 binaries/rdscontrol.o
 .rodata.str1.4
                0x000000000011295c       0x7e binaries/rdsinit.o
 .rodata.str1.1
                0x00000000001129da       0x18 binaries/rdsinit.o
 *fill*         0x00000000001129f2        0x2 
 .rodata.str1.4
                0x00000000001129f4       0x22 binaries/rdsopen.o
 *fill*         0x0000000000112a16        0x2 
 .rodata.str1.4
                0x0000000000112a18       0x4d binaries/rdsprocess.o
 .rodata.str1.1
                0x0000000000112a65        0x9 binaries/raminit.o
 .rodata.str1.1
                0x0000000000112a6e       0x13 binaries/lfdballoc.o
 *fill*         0x0000000000112a81        0x3 
 .rodata.str1.4
                0x0000000000112a84       0x23 binaries/lfdballoc.o
 .rodata.str1.1
                0x0000000000112aa7       0x14 binaries/lfiballoc.o
 *fill*         0x0000000000112abb        0x1 
 .rodata.str1.4
                0x0000000000112abc       0x23 binaries/lflcontrol.o
 .rodata.str1.1
                0x0000000000112adf       0x64 binaries/lfsckfmt.o
 *fill*         0x0000000000112b43        0x1 
 .rodata.str1.4
                0x0000000000112b44       0x51 binaries/lfsckfmt.o
 *fill*         0x0000000000112b95        0x3 
 .rodata.str1.4
                0x0000000000112b98       0x21 binaries/rflread.o
 .rodata.str1.4
                0x0000000000112bb9       0x21 binaries/rflwrite.o
 *fill*         0x0000000000112bb9        0x3 
 .rodata.str1.4
                0x0000000000112bbc       0x75 binaries/rfscomm.o
 *fill*         0x0000000000112c31        0x3 
 .rodata.str1.4
                0x0000000000112c34       0x23 binaries/rfscontrol.o
 *fill*         0x0000000000112c57        0x1 
 .rodata        0x0000000000112c58       0x18 binaries/rfscontrol.o
 .rodata.str1.1
                0x0000000000112c70       0x10 binaries/rfsinit.o
 .rodata.str1.4
                0x0000000000112c70       0x57 binaries/rfsinit.o
 *fill*         0x0000000000112cc7        0x1 
 .rodata.str1.4
                0x0000000000112cc8       0x2a binaries/rfsndmsg.o
 .rodata.str1.4
                0x0000000000112cf2       0x22 binaries/rfsopen.o
 .rodata.str1.1
                0x0000000000112cf2       0x19 binaries/arp.o
 *fill*         0x0000000000112d0b        0x1 
 .rodata.str1.4
                0x0000000000112d0c       0x21 binaries/arp.o
 *fill*         0x0000000000112d2d        0x3 
 .rodata.str1.4
                0x0000000000112d30       0xa6 binaries/dhcp.o
 .rodata.str1.1
                0x0000000000112dd6       0x4a binaries/dhcp.o
 .rodata.str1.1
                0x0000000000112e20       0x5a binaries/hexdump.o
                                         0x61 (size before relaxing)
 *fill*         0x0000000000112e7a        0x2 
 .rodata.str1.4
                0x0000000000112e7c       0x67 binaries/hexdump.o
 *fill*         0x0000000000112ee3        0x1 
 .rodata.str1.4
                0x0000000000112ee4       0x29 binaries/icmp.o
 .rodata.str1.1
                0x0000000000112f0d       0x4e binaries/ip.o
 *fill*         0x0000000000112f5b        0x1 
 .rodata.str1.4
                0x0000000000112f5c       0x20 binaries/ip.o
 .rodata.str1.4
                0x0000000000112f7c       0x28 binaries/net.o
 .rodata.str1.1
                0x0000000000112fa4       0x27 binaries/net.o
 *fill*         0x0000000000112fcb        0x1 
 .rodata.str1.4
                0x0000000000112fcc       0xcf binaries/netstart.o
 .rodata.str1.1
                0x000000000011309b      0x141 binaries/pdump.o
                                        0x14b (size before relaxing)
 .rodata.str1.4
                0x00000000001131dc      0x126 binaries/pdump.o
 *fill*         0x0000000000113302        0x2 
 .rodata.str1.4
                0x0000000000113304      0x148 binaries/tftp.o
 .rodata.str1.1
                0x000000000011344c        0x6 binaries/tftp.o
                                          0xa (size before relaxing)
 .rodata.str1.1
                0x0000000000113452       0xe3 binaries/shell.o
                                         0xff (size before relaxing)
 *fill*         0x0000000000113535        0x3 
 .rodata.str1.4
                0x0000000000113538      0x1e8 binaries/shell.o
 .rodata        0x0000000000113720       0xfc binaries/shell.o
                0x0000000000113720                cmdtab
 .rodata.str1.1
                0x000000000011381c       0x26 binaries/xsh_argecho.o
                                         0x28 (size before relaxing)
 .rodata.str1.1
                0x0000000000113842       0x70 binaries/xsh_arp.o
                                         0x72 (size before relaxing)
 *fill*         0x00000000001138b2        0x2 
 .rodata.str1.4
                0x00000000001138b4       0xb4 binaries/xsh_arp.o
 .rodata.str1.1
                0x0000000000113968       0x2d binaries/xsh_cat.o
                                         0x4f (size before relaxing)
 *fill*         0x0000000000113995        0x3 
 .rodata.str1.4
                0x0000000000113998       0x52 binaries/xsh_cat.o
                                         0x79 (size before relaxing)
 .rodata.str1.1
                0x00000000001139ea       0x15 binaries/xsh_clear.o
 .rodata.str1.1
                0x00000000001139ff       0x46 binaries/xsh_date.o
                                         0x5f (size before relaxing)
 *fill*         0x0000000000113a45        0x3 
 .rodata.str1.4
                0x0000000000113a48      0x163 binaries/xsh_date.o
 .rodata.str1.1
                0x0000000000113bab       0x5d binaries/xsh_devdump.o
 .rodata.str1.1
                0x0000000000113c08        0x4 binaries/xsh_echo.o
                                          0x9 (size before relaxing)
 .rodata.str1.1
                0x0000000000113c0c       0x65 binaries/xsh_help.o
                                         0xa3 (size before relaxing)
 *fill*         0x0000000000113c71        0x3 
 .rodata.str1.4
                0x0000000000113c74       0x7c binaries/xsh_help.o
                                         0xc6 (size before relaxing)
 .rodata.str1.1
                0x0000000000113cf0       0x9c binaries/xsh_ipaddr.o
                                         0xf8 (size before relaxing)
 .rodata.str1.4
                0x0000000000113d8c       0x4d binaries/xsh_ipaddr.o
                                         0x99 (size before relaxing)
 .rodata.str1.1
                0x0000000000113dd9       0x78 binaries/xsh_kill.o
                                         0x97 (size before relaxing)
 *fill*         0x0000000000113e51        0x3 
 .rodata.str1.4
                0x0000000000113e54       0x4a binaries/xsh_kill.o
                                         0x96 (size before relaxing)
 .rodata.str1.1
                0x0000000000113e9e       0x84 binaries/xsh_memdump.o
                                         0xa8 (size before relaxing)
 *fill*         0x0000000000113f22        0x2 
 .rodata.str1.4
                0x0000000000113f24      0x15a binaries/xsh_memdump.o
                                        0x1aa (size before relaxing)
 .rodata.str1.1
                0x000000000011407e       0x40 binaries/xsh_memstat.o
                                         0x79 (size before relaxing)
 *fill*         0x00000000001140be        0x2 
 .rodata.str1.4
                0x00000000001140c0      0x187 binaries/xsh_memstat.o
                                        0x1af (size before relaxing)
 .rodata.str1.1
                0x0000000000114247       0x90 binaries/xsh_ping.o
                                         0xaf (size before relaxing)
 *fill*         0x00000000001142d7        0x1 
 .rodata.str1.4
                0x00000000001142d8       0x77 binaries/xsh_ping.o
                                         0xc6 (size before relaxing)
 .rodata.str1.1
                0x000000000011434f       0x74 binaries/xsh_ps.o
                                         0xd5 (size before relaxing)
 *fill*         0x00000000001143c3        0x1 
 .rodata.str1.4
                0x00000000001143c4       0x80 binaries/xsh_ps.o
                                         0xd0 (size before relaxing)
 *fill*         0x0000000000114444       0x1c 
 .rodata        0x0000000000114460       0x20 binaries/xsh_ps.o
 .rodata.str1.1
                0x0000000000114480       0x31 binaries/xsh_sleep.o
                                         0x72 (size before relaxing)
 *fill*         0x00000000001144b1        0x3 
 .rodata.str1.4
                0x00000000001144b4       0x2a binaries/xsh_sleep.o
                                         0x7a (size before relaxing)
 .rodata.str1.1
                0x00000000001144de       0x6b binaries/xsh_udpdump.o
                                         0xd2 (size before relaxing)
 *fill*         0x0000000000114549        0x3 
 .rodata.str1.4
                0x000000000011454c       0x94 binaries/xsh_udpdump.o
                                         0xe4 (size before relaxing)
 .rodata.str1.1
                0x00000000001145e0       0xdb binaries/xsh_udpecho.o
                                         0xfa (size before relaxing)
 *fill*         0x00000000001146bb        0x1 
 .rodata.str1.4
                0x00000000001146bc       0xc7 binaries/xsh_udpecho.o
                                        0x116 (size before relaxing)
 .rodata.str1.1
                0x0000000000114783       0x66 binaries/xsh_udpeserver.o
                                         0x8f (size before relaxing)
 *fill*         0x00000000001147e9        0x3 
 .rodata.str1.4
                0x00000000001147ec       0x29 binaries/xsh_udpeserver.o
                                         0x9f (size before relaxing)
 .rodata.str1.1
                0x0000000000114815       0x49 binaries/xsh_uptime.o
                                         0x8c (size before relaxing)
 *fill*         0x000000000011485e        0x2 
 .rodata.str1.4
                0x0000000000114860       0x28 binaries/xsh_uptime.o
                                         0x76 (size before relaxing)
                0x0000000000114888                etext = ABSOLUTE (.)
                0x0000000000115000                . = ALIGN (0x1000)
 *fill*         0x0000000000114888      0x778 

.eh_frame       0x0000000000115000     0x3224
 .eh_frame      0x0000000000115000       0x3c binaries/app1.o
 .eh_frame      0x000000000011503c       0x28 binaries/app2.o
                                         0x40 (size before relaxing)
 .eh_frame      0x0000000000115064       0x24 binaries/app3.o
                                         0x3c (size before relaxing)
 .eh_frame      0x0000000000115088       0x30 binaries/ascdate.o
                                         0x48 (size before relaxing)
 .eh_frame      0x00000000001150b8       0x20 binaries/bufinit.o
                                         0x38 (size before relaxing)
 .eh_frame      0x00000000001150d8       0x2c binaries/chprio.o
                                         0x44 (size before relaxing)
 .eh_frame      0x0000000000115104       0x20 binaries/clkhandler.o
                                         0x38 (size before relaxing)
 .eh_frame      0x0000000000115124       0x20 binaries/clkinit.o
                                         0x38 (size before relaxing)
 .eh_frame      0x0000000000115144       0x28 binaries/close.o
                                         0x40 (size before relaxing)
 .eh_frame      0x000000000011516c       0x28 binaries/control.o
                                         0x40 (size before relaxing)
 .eh_frame      0x0000000000115194       0x30 binaries/create.o
                                         0x48 (size before relaxing)
 .eh_frame      0x00000000001151c4       0x94 binaries/early_imr.o
                                         0xac (size before relaxing)
 .eh_frame      0x0000000000115258       0x94 binaries/evec.o
                                         0xac (size before relaxing)
 .eh_frame      0x00000000001152ec       0x24 binaries/factorial.o
                                         0x3c (size before relaxing)
 .eh_frame      0x0000000000115310       0x2c binaries/freebuf.o
                                         0x44 (size before relaxing)
 .eh_frame      0x000000000011533c       0x2c binaries/freemem.o
                                         0x44 (size before relaxing)
 .eh_frame      0x0000000000115368       0x2c binaries/getbuf.o
                                         0x44 (size before relaxing)
 .eh_frame      0x0000000000115394       0x28 binaries/getc.o
                                         0x40 (size before relaxing)
 .eh_frame      0x00000000001153bc       0x2c binaries/getdev.o
                                         0x44 (size before relaxing)
 .eh_frame      0x00000000001153e8       0x64 binaries/getitem.o
                                         0x7c (size before relaxing)
 .eh_frame      0x000000000011544c       0x28 binaries/getmem.o
                                         0x40 (size before relaxing)
 .eh_frame      0x0000000000115474       0x20 binaries/getpid.o
                                         0x38 (size before relaxing)
 .eh_frame      0x0000000000115494       0x20 binaries/getpname.o
                                         0x38 (size before relaxing)
 .eh_frame      0x00000000001154b4       0x20 binaries/getppid.o
                                         0x38 (size before relaxing)
 .eh_frame      0x00000000001154d4       0x24 binaries/getprio.o
                                         0x3c (size before relaxing)
 .eh_frame      0x00000000001154f8       0x2c binaries/getstk.o
                                         0x44 (size before relaxing)
 .eh_frame      0x0000000000115524       0x20 binaries/gettime.o
                                         0x38 (size before relaxing)
 .eh_frame      0x0000000000115544       0x24 binaries/getutime.o
                                         0x3c (size before relaxing)
 .eh_frame      0x0000000000115568       0x20 binaries/host2netlb.o
                                         0x38 (size before relaxing)
 .eh_frame      0x0000000000115588       0x28 binaries/init.o
                                         0x40 (size before relaxing)
 .eh_frame      0x00000000001155b0       0x68 binaries/initialize.o
                                         0x80 (size before relaxing)
 .eh_frame      0x0000000000115618       0x28 binaries/insert.o
                                         0x40 (size before relaxing)
 .eh_frame      0x0000000000115640       0x2c binaries/insertd.o
                                         0x44 (size before relaxing)
 .eh_frame      0x000000000011566c       0x20 binaries/ioerr.o
                                         0x38 (size before relaxing)
 .eh_frame      0x000000000011568c       0x20 binaries/ionull.o
                                         0x38 (size before relaxing)
 .eh_frame      0x00000000001156ac       0x30 binaries/kill.o
                                         0x48 (size before relaxing)
 .eh_frame      0x00000000001156dc       0x80 binaries/kprintf.o
                                         0x98 (size before relaxing)
 .eh_frame      0x000000000011575c       0x2c binaries/main.o
                                         0x44 (size before relaxing)
 .eh_frame      0x0000000000115788       0x44 binaries/mark.o
                                         0x5c (size before relaxing)
 .eh_frame      0x00000000001157cc       0x50 binaries/meminit.o
                                         0x68 (size before relaxing)
 .eh_frame      0x000000000011581c       0x30 binaries/mkbufpool.o
                                         0x48 (size before relaxing)
 .eh_frame      0x000000000011584c       0x2c binaries/myappA.o
                                         0x44 (size before relaxing)
 .eh_frame      0x0000000000115878       0x20 binaries/myfuncA.o
                                         0x38 (size before relaxing)
 .eh_frame      0x0000000000115898       0x64 binaries/myhacker.o
                                         0x7c (size before relaxing)
 .eh_frame      0x00000000001158fc       0x60 binaries/myvictim.o
                                         0x78 (size before relaxing)
 .eh_frame      0x000000000011595c       0x20 binaries/mywelcomemsg.o
                                         0x38 (size before relaxing)
 .eh_frame      0x000000000011597c       0x20 binaries/newqueue.o
                                         0x38 (size before relaxing)
 .eh_frame      0x000000000011599c       0x28 binaries/open.o
                                         0x40 (size before relaxing)
 .eh_frame      0x00000000001159c4       0x1c binaries/panic.o
                                         0x34 (size before relaxing)
 .eh_frame      0x00000000001159e0      0x12c binaries/pci.o
                                        0x144 (size before relaxing)
 .eh_frame      0x0000000000115b0c       0x20 binaries/platinit.o
                                         0x38 (size before relaxing)
 .eh_frame      0x0000000000115b2c       0x20 binaries/printsegaddr.o
                                         0x38 (size before relaxing)
 .eh_frame      0x0000000000115b4c       0x2c binaries/ptclear.o
                                         0x44 (size before relaxing)
 .eh_frame      0x0000000000115b78       0x2c binaries/ptcount.o
                                         0x44 (size before relaxing)
 .eh_frame      0x0000000000115ba4       0x2c binaries/ptcreate.o
                                         0x44 (size before relaxing)
 .eh_frame      0x0000000000115bd0       0x28 binaries/ptdelete.o
                                         0x40 (size before relaxing)
 .eh_frame      0x0000000000115bf8       0x28 binaries/ptinit.o
                                         0x40 (size before relaxing)
 .eh_frame      0x0000000000115c20       0x2c binaries/ptrecv.o
                                         0x44 (size before relaxing)
 .eh_frame      0x0000000000115c4c       0x28 binaries/ptreset.o
                                         0x40 (size before relaxing)
 .eh_frame      0x0000000000115c74       0x30 binaries/ptsend.o
                                         0x48 (size before relaxing)
 .eh_frame      0x0000000000115ca4       0x2c binaries/putc.o
                                         0x44 (size before relaxing)
 .eh_frame      0x0000000000115cd0       0x24 binaries/quark_irq.o
                                         0x3c (size before relaxing)
 .eh_frame      0x0000000000115cf4       0x54 binaries/quark_pdat.o
                                         0x6c (size before relaxing)
 .eh_frame      0x0000000000115d48       0x44 binaries/queue.o
                                         0x5c (size before relaxing)
 .eh_frame      0x0000000000115d8c       0x28 binaries/read.o
                                         0x40 (size before relaxing)
 .eh_frame      0x0000000000115db4       0x20 binaries/ready.o
                                         0x38 (size before relaxing)
 .eh_frame      0x0000000000115dd4       0x2c binaries/receive.o
                                         0x44 (size before relaxing)
 .eh_frame      0x0000000000115e00       0x24 binaries/recvclr.o
                                         0x3c (size before relaxing)
 .eh_frame      0x0000000000115e24       0x2c binaries/recvtime.o
                                         0x44 (size before relaxing)
 .eh_frame      0x0000000000115e50       0x48 binaries/resched.o
                                         0x60 (size before relaxing)
 .eh_frame      0x0000000000115e98       0x2c binaries/resume.o
                                         0x44 (size before relaxing)
 .eh_frame      0x0000000000115ec4       0x28 binaries/seek.o
                                         0x40 (size before relaxing)
 .eh_frame      0x0000000000115eec       0x24 binaries/semcount.o
                                         0x3c (size before relaxing)
 .eh_frame      0x0000000000115f10       0x2c binaries/semcreate.o
                                         0x44 (size before relaxing)
 .eh_frame      0x0000000000115f3c       0x2c binaries/semdelete.o
                                         0x44 (size before relaxing)
 .eh_frame      0x0000000000115f68       0x2c binaries/semreset.o
                                         0x44 (size before relaxing)
 .eh_frame      0x0000000000115f94       0x28 binaries/send.o
                                         0x40 (size before relaxing)
 .eh_frame      0x0000000000115fbc       0x28 binaries/signal.o
                                         0x40 (size before relaxing)
 .eh_frame      0x0000000000115fe4       0x2c binaries/signaln.o
                                         0x44 (size before relaxing)
 .eh_frame      0x0000000000116010       0x48 binaries/sleep.o
                                         0x60 (size before relaxing)
 .eh_frame      0x0000000000116058       0x2c binaries/stackdepth.o
                                         0x44 (size before relaxing)
 .eh_frame      0x0000000000116084       0x30 binaries/stacktrace.o
                                         0x48 (size before relaxing)
 .eh_frame      0x00000000001160b4       0x28 binaries/suspend.o
                                         0x40 (size before relaxing)
 .eh_frame      0x00000000001160dc       0x20 binaries/teststackdepth.o
                                         0x38 (size before relaxing)
 .eh_frame      0x00000000001160fc       0x28 binaries/unsleep.o
                                         0x40 (size before relaxing)
 .eh_frame      0x0000000000116124       0x20 binaries/userret.o
                                         0x38 (size before relaxing)
 .eh_frame      0x0000000000116144       0x28 binaries/wait.o
                                         0x40 (size before relaxing)
 .eh_frame      0x000000000011616c       0x20 binaries/wakeup.o
                                         0x38 (size before relaxing)
 .eh_frame      0x000000000011618c       0x28 binaries/write.o
                                         0x40 (size before relaxing)
 .eh_frame      0x00000000001161b4       0x20 binaries/xdone.o
                                         0x38 (size before relaxing)
 .eh_frame      0x00000000001161d4       0x24 binaries/yield.o
                                         0x3c (size before relaxing)
 .eh_frame      0x00000000001161f8       0x20 binaries/abs.o
                                         0x38 (size before relaxing)
 .eh_frame      0x0000000000116218       0x28 binaries/atoi.o
                                         0x40 (size before relaxing)
 .eh_frame      0x0000000000116240       0x28 binaries/atol.o
                                         0x40 (size before relaxing)
 .eh_frame      0x0000000000116268       0x20 binaries/bzero.o
                                         0x38 (size before relaxing)
 .eh_frame      0x0000000000116288       0xac binaries/doprnt.o
                                         0xc4 (size before relaxing)
 .eh_frame      0x0000000000116334       0x30 binaries/doscan.o
                                         0x48 (size before relaxing)
 .eh_frame      0x0000000000116364       0x5c binaries/fdoprnt.o
                                         0x74 (size before relaxing)
 .eh_frame      0x00000000001163c0       0x20 binaries/fgetc.o
                                         0x38 (size before relaxing)
 .eh_frame      0x00000000001163e0       0x2c binaries/fgets.o
                                         0x44 (size before relaxing)
 .eh_frame      0x000000000011640c       0x20 binaries/fprintf.o
                                         0x38 (size before relaxing)
 .eh_frame      0x000000000011642c       0x20 binaries/fputc.o
                                         0x38 (size before relaxing)
 .eh_frame      0x000000000011644c       0x28 binaries/fputs.o
                                         0x40 (size before relaxing)
 .eh_frame      0x0000000000116474       0x64 binaries/fscanf.o
                                         0x7c (size before relaxing)
 .eh_frame      0x00000000001164d8       0x20 binaries/getchar.o
                                         0x38 (size before relaxing)
 .eh_frame      0x00000000001164f8       0x20 binaries/labs.o
                                         0x38 (size before relaxing)
 .eh_frame      0x0000000000116518       0x20 binaries/memchr.o
                                         0x38 (size before relaxing)
 .eh_frame      0x0000000000116538       0x28 binaries/memcmp.o
                                         0x40 (size before relaxing)
 .eh_frame      0x0000000000116560       0x28 binaries/memcpy.o
                                         0x40 (size before relaxing)
 .eh_frame      0x0000000000116588       0x24 binaries/memset.o
                                         0x3c (size before relaxing)
 .eh_frame      0x00000000001165ac       0x20 binaries/printf.o
                                         0x38 (size before relaxing)
 .eh_frame      0x00000000001165cc       0x20 binaries/putchar.o
                                         0x38 (size before relaxing)
 .eh_frame      0x00000000001165ec       0xa4 binaries/qsort.o
                                         0xbc (size before relaxing)
 .eh_frame      0x0000000000116690       0x40 binaries/rand.o
                                         0x58 (size before relaxing)
 .eh_frame      0x00000000001166d0       0x48 binaries/sprintf.o
                                         0x60 (size before relaxing)
 .eh_frame      0x0000000000116718       0x60 binaries/sscanf.o
                                         0x78 (size before relaxing)
 .eh_frame      0x0000000000116778       0x24 binaries/strchr.o
                                         0x3c (size before relaxing)
 .eh_frame      0x000000000011679c       0x24 binaries/strcmp.o
                                         0x3c (size before relaxing)
 .eh_frame      0x00000000001167c0       0x20 binaries/strcpy.o
                                         0x38 (size before relaxing)
 .eh_frame      0x00000000001167e0       0x20 binaries/strlen.o
                                         0x38 (size before relaxing)
 .eh_frame      0x0000000000116800       0x2c binaries/strncat.o
                                         0x44 (size before relaxing)
 .eh_frame      0x000000000011682c       0x24 binaries/strncmp.o
                                         0x3c (size before relaxing)
 .eh_frame      0x0000000000116850       0x2c binaries/strncpy.o
                                         0x44 (size before relaxing)
 .eh_frame      0x000000000011687c       0x24 binaries/strnlen.o
                                         0x3c (size before relaxing)
 .eh_frame      0x00000000001168a0       0x24 binaries/strrchr.o
                                         0x3c (size before relaxing)
 .eh_frame      0x00000000001168c4       0x2c binaries/strstr.o
                                         0x44 (size before relaxing)
 .eh_frame      0x00000000001168f0       0x30 binaries/ttycontrol.o
                                         0x48 (size before relaxing)
 .eh_frame      0x0000000000116920       0x2c binaries/ttygetc.o
                                         0x44 (size before relaxing)
 .eh_frame      0x000000000011694c       0x84 binaries/ttyhandle_in.o
                                         0x9c (size before relaxing)
 .eh_frame      0x00000000001169d0       0x30 binaries/ttyhandle_out.o
                                         0x48 (size before relaxing)
 .eh_frame      0x0000000000116a00       0x28 binaries/ttyhandler.o
                                         0x40 (size before relaxing)
 .eh_frame      0x0000000000116a28       0x30 binaries/ttyinit.o
                                         0x48 (size before relaxing)
 .eh_frame      0x0000000000116a58       0x20 binaries/ttykickout.o
                                         0x38 (size before relaxing)
 .eh_frame      0x0000000000116a78       0x2c binaries/ttyputc.o
                                         0x44 (size before relaxing)
 .eh_frame      0x0000000000116aa4       0x2c binaries/ttyread.o
                                         0x44 (size before relaxing)
 .eh_frame      0x0000000000116ad0       0x2c binaries/ttywrite.o
                                         0x44 (size before relaxing)
 .eh_frame      0x0000000000116afc       0x4c binaries/mount.o
                                         0x64 (size before relaxing)
 .eh_frame      0x0000000000116b48       0x30 binaries/naminit.o
                                         0x48 (size before relaxing)
 .eh_frame      0x0000000000116b78       0x84 binaries/nammap.o
                                         0x9c (size before relaxing)
 .eh_frame      0x0000000000116bfc       0x20 binaries/namopen.o
                                         0x38 (size before relaxing)
 .eh_frame      0x0000000000116c1c       0x2c binaries/colon2mac.o
                                         0x44 (size before relaxing)
 .eh_frame      0x0000000000116c48       0x20 binaries/ethcontrol.o
                                         0x38 (size before relaxing)
 .eh_frame      0x0000000000116c68       0x30 binaries/ethhandler.o
                                         0x48 (size before relaxing)
 .eh_frame      0x0000000000116c98       0x98 binaries/ethinit.o
                                         0xb0 (size before relaxing)
 .eh_frame      0x0000000000116d30       0x54 binaries/ethmcast.o
                                         0x6c (size before relaxing)
 .eh_frame      0x0000000000116d84       0x30 binaries/ethread.o
                                         0x48 (size before relaxing)
 .eh_frame      0x0000000000116db4       0x2c binaries/ethwrite.o
                                         0x44 (size before relaxing)
 .eh_frame      0x0000000000116de0       0x24 binaries/rdsbufalloc.o
                                         0x3c (size before relaxing)
 .eh_frame      0x0000000000116e04       0x2c binaries/rdsclose.o
                                         0x44 (size before relaxing)
 .eh_frame      0x0000000000116e30       0x30 binaries/rdscomm.o
                                         0x48 (size before relaxing)
 .eh_frame      0x0000000000116e60       0x30 binaries/rdscontrol.o
                                         0x48 (size before relaxing)
 .eh_frame      0x0000000000116e90       0x30 binaries/rdsinit.o
                                         0x48 (size before relaxing)
 .eh_frame      0x0000000000116ec0       0x30 binaries/rdsopen.o
                                         0x48 (size before relaxing)
 .eh_frame      0x0000000000116ef0       0x20 binaries/rdsprocess.o
                                         0x38 (size before relaxing)
 .eh_frame      0x0000000000116f10       0x30 binaries/rdsread.o
                                         0x48 (size before relaxing)
 .eh_frame      0x0000000000116f40       0x30 binaries/rdswrite.o
                                         0x48 (size before relaxing)
 .eh_frame      0x0000000000116f70       0x20 binaries/ramclose.o
                                         0x38 (size before relaxing)
 .eh_frame      0x0000000000116f90       0x20 binaries/raminit.o
                                         0x38 (size before relaxing)
 .eh_frame      0x0000000000116fb0       0x20 binaries/ramopen.o
                                         0x38 (size before relaxing)
 .eh_frame      0x0000000000116fd0       0x20 binaries/ramread.o
                                         0x38 (size before relaxing)
 .eh_frame      0x0000000000116ff0       0x20 binaries/ramwrite.o
                                         0x38 (size before relaxing)
 .eh_frame      0x0000000000117010       0x28 binaries/lfdballoc.o
                                         0x40 (size before relaxing)
 .eh_frame      0x0000000000117038       0x24 binaries/lfdbfree.o
                                         0x3c (size before relaxing)
 .eh_frame      0x000000000011705c       0x24 binaries/lfflush.o
                                         0x3c (size before relaxing)
 .eh_frame      0x0000000000117080       0x20 binaries/lfgetmode.o
                                         0x38 (size before relaxing)
 .eh_frame      0x00000000001170a0       0x24 binaries/lfiballoc.o
                                         0x3c (size before relaxing)
 .eh_frame      0x00000000001170c4       0x20 binaries/lfibclear.o
                                         0x38 (size before relaxing)
 .eh_frame      0x00000000001170e4       0x2c binaries/lfibget.o
                                         0x44 (size before relaxing)
 .eh_frame      0x0000000000117110       0x2c binaries/lfibput.o
                                         0x44 (size before relaxing)
 .eh_frame      0x000000000011713c       0x28 binaries/lflclose.o
                                         0x40 (size before relaxing)
 .eh_frame      0x0000000000117164       0x2c binaries/lflcontrol.o
                                         0x44 (size before relaxing)
 .eh_frame      0x0000000000117190       0x2c binaries/lflgetc.o
                                         0x44 (size before relaxing)
 .eh_frame      0x00000000001171bc       0x2c binaries/lflinit.o
                                         0x44 (size before relaxing)
 .eh_frame      0x00000000001171e8       0x30 binaries/lflputc.o
                                         0x48 (size before relaxing)
 .eh_frame      0x0000000000117218       0x2c binaries/lflread.o
                                         0x44 (size before relaxing)
 .eh_frame      0x0000000000117244       0x2c binaries/lflseek.o
                                         0x44 (size before relaxing)
 .eh_frame      0x0000000000117270       0x2c binaries/lflwrite.o
                                         0x44 (size before relaxing)
 .eh_frame      0x000000000011729c       0x30 binaries/lfsckfmt.o
                                         0x48 (size before relaxing)
 .eh_frame      0x00000000001172cc       0x30 binaries/lfscreate.o
                                         0x48 (size before relaxing)
 .eh_frame      0x00000000001172fc       0x30 binaries/lfsetup.o
                                         0x48 (size before relaxing)
 .eh_frame      0x000000000011732c       0x20 binaries/lfsinit.o
                                         0x38 (size before relaxing)
 .eh_frame      0x000000000011734c       0x30 binaries/lfsopen.o
                                         0x48 (size before relaxing)
 .eh_frame      0x000000000011737c       0x30 binaries/lftruncate.o
                                         0x48 (size before relaxing)
 .eh_frame      0x00000000001173ac       0x20 binaries/rflclose.o
                                         0x38 (size before relaxing)
 .eh_frame      0x00000000001173cc       0x20 binaries/rflgetc.o
                                         0x38 (size before relaxing)
 .eh_frame      0x00000000001173ec       0x24 binaries/rflinit.o
                                         0x3c (size before relaxing)
 .eh_frame      0x0000000000117410       0x20 binaries/rflputc.o
                                         0x38 (size before relaxing)
 .eh_frame      0x0000000000117430       0x30 binaries/rflread.o
                                         0x48 (size before relaxing)
 .eh_frame      0x0000000000117460       0x20 binaries/rflseek.o
                                         0x38 (size before relaxing)
 .eh_frame      0x0000000000117480       0x30 binaries/rflwrite.o
                                         0x48 (size before relaxing)
 .eh_frame      0x00000000001174b0       0x30 binaries/rfscomm.o
                                         0x48 (size before relaxing)
 .eh_frame      0x00000000001174e0       0x2c binaries/rfscontrol.o
                                         0x44 (size before relaxing)
 .eh_frame      0x000000000011750c       0x20 binaries/rfsgetmode.o
                                         0x38 (size before relaxing)
 .eh_frame      0x000000000011752c       0x20 binaries/rfsinit.o
                                         0x38 (size before relaxing)
 .eh_frame      0x000000000011754c       0x20 binaries/rfsndmsg.o
                                         0x38 (size before relaxing)
 .eh_frame      0x000000000011756c       0x2c binaries/rfsopen.o
                                         0x44 (size before relaxing)
 .eh_frame      0x0000000000117598       0xec binaries/arp.o
                                        0x104 (size before relaxing)
 .eh_frame      0x0000000000117684       0xd0 binaries/dhcp.o
                                         0xe8 (size before relaxing)
 .eh_frame      0x0000000000117754       0x2c binaries/dot2ip.o
                                         0x44 (size before relaxing)
 .eh_frame      0x0000000000117780       0x60 binaries/hexdump.o
                                         0x78 (size before relaxing)
 .eh_frame      0x00000000001177e0      0x198 binaries/icmp.o
                                        0x1b0 (size before relaxing)
 .eh_frame      0x0000000000117978      0x148 binaries/ip.o
                                        0x160 (size before relaxing)
 .eh_frame      0x0000000000117ac0       0x7c binaries/net.o
                                         0x94 (size before relaxing)
 .eh_frame      0x0000000000117b3c       0x24 binaries/netstart.o
                                         0x3c (size before relaxing)
 .eh_frame      0x0000000000117b60       0x50 binaries/pdump.o
                                         0x68 (size before relaxing)
 .eh_frame      0x0000000000117bb0       0x80 binaries/tftp.o
                                         0x98 (size before relaxing)
 .eh_frame      0x0000000000117c30      0x1b0 binaries/udp.o
                                        0x1c8 (size before relaxing)
 .eh_frame      0x0000000000117de0       0x30 binaries/addargs.o
                                         0x48 (size before relaxing)
 .eh_frame      0x0000000000117e10       0x30 binaries/lexan.o
                                         0x48 (size before relaxing)
 .eh_frame      0x0000000000117e40       0x30 binaries/shell.o
                                         0x48 (size before relaxing)
 .eh_frame      0x0000000000117e70       0x2c binaries/xsh_argecho.o
                                         0x44 (size before relaxing)
 .eh_frame      0x0000000000117e9c       0x30 binaries/xsh_arp.o
                                         0x48 (size before relaxing)
 .eh_frame      0x0000000000117ecc       0x30 binaries/xsh_cat.o
                                         0x48 (size before relaxing)
 .eh_frame      0x0000000000117efc       0x20 binaries/xsh_clear.o
                                         0x38 (size before relaxing)
 .eh_frame      0x0000000000117f1c       0x24 binaries/xsh_date.o
                                         0x3c (size before relaxing)
 .eh_frame      0x0000000000117f40       0x28 binaries/xsh_devdump.o
                                         0x40 (size before relaxing)
 .eh_frame      0x0000000000117f68       0x2c binaries/xsh_echo.o
                                         0x44 (size before relaxing)
 .eh_frame      0x0000000000117f94       0x20 binaries/xsh_exit.o
                                         0x38 (size before relaxing)
 .eh_frame      0x0000000000117fb4       0x30 binaries/xsh_help.o
                                         0x48 (size before relaxing)
 .eh_frame      0x0000000000117fe4       0x2c binaries/xsh_ipaddr.o
                                         0x44 (size before relaxing)
 .eh_frame      0x0000000000118010       0x2c binaries/xsh_kill.o
                                         0x44 (size before relaxing)
 .eh_frame      0x000000000011803c       0x58 binaries/xsh_memdump.o
                                         0x70 (size before relaxing)
 .eh_frame      0x0000000000118094       0x30 binaries/xsh_memstat.o
                                         0x48 (size before relaxing)
 .eh_frame      0x00000000001180c4       0x30 binaries/xsh_ping.o
                                         0x48 (size before relaxing)
 .eh_frame      0x00000000001180f4       0x30 binaries/xsh_ps.o
                                         0x48 (size before relaxing)
 .eh_frame      0x0000000000118124       0x30 binaries/xsh_sleep.o
                                         0x48 (size before relaxing)
 .eh_frame      0x0000000000118154       0x2c binaries/xsh_udpdump.o
                                         0x44 (size before relaxing)
 .eh_frame      0x0000000000118180       0x30 binaries/xsh_udpecho.o
                                         0x48 (size before relaxing)
 .eh_frame      0x00000000001181b0       0x30 binaries/xsh_udpeserver.o
                                         0x48 (size before relaxing)
 .eh_frame      0x00000000001181e0       0x30 binaries/xsh_uptime.o
                                         0x48 (size before relaxing)
 .eh_frame      0x0000000000118210       0x14 binaries/host2netlc.o
                                         0x2c (size before relaxing)

.iplt           0x0000000000118230        0x0
 .iplt          0x0000000000118230        0x0 binaries/start.o

.rel.dyn        0x0000000000118224        0x0
 .rel.iplt      0x0000000000118224        0x0 binaries/start.o
 .rel.text      0x0000000000118224        0x0 binaries/start.o
 .rel.data      0x0000000000118224        0x0 binaries/start.o
 .rel.rodata    0x0000000000118224        0x0 binaries/start.o

.data           0x0000000000118240      0xdc0
                0x0000000000118240                data = ABSOLUTE (.)
 *(.data .data.*)
 .data          0x0000000000118240      0x85a binaries/start.o
                0x0000000000118240                gdt
                0x0000000000118290                idt
                0x0000000000118a96                cpudelay
 .data          0x0000000000118a9a        0x0 binaries/app1.o
 .data          0x0000000000118a9a        0x0 binaries/app2.o
 .data          0x0000000000118a9a        0x0 binaries/app3.o
 *fill*         0x0000000000118a9a        0x6 
 .data          0x0000000000118aa0       0x88 binaries/ascdate.o
                0x0000000000118aa0                Date
 .data          0x0000000000118b28        0x0 binaries/bufinit.o
 .data          0x0000000000118b28        0x0 binaries/chprio.o
 .data          0x0000000000118b28        0x4 binaries/clkhandler.o
 .data          0x0000000000118b2c        0x0 binaries/clkinit.o
 .data          0x0000000000118b2c        0x0 binaries/close.o
 *fill*         0x0000000000118b2c       0x14 
 .data          0x0000000000118b40      0x30c binaries/conf.o
                0x0000000000118b40                devtab
 .data          0x0000000000118e4c        0x0 binaries/control.o
 .data          0x0000000000118e4c        0x4 binaries/create.o
 .data          0x0000000000118e50        0x0 binaries/early_imr.o
 *fill*         0x0000000000118e50       0x10 
 .data          0x0000000000118e60       0x40 binaries/evec.o
                0x0000000000118e60                inames
 .data          0x0000000000118ea0        0x0 binaries/factorial.o
 .data          0x0000000000118ea0        0x0 binaries/freebuf.o
 .data          0x0000000000118ea0        0x0 binaries/freemem.o
 .data          0x0000000000118ea0        0x0 binaries/getbuf.o
 .data          0x0000000000118ea0        0x0 binaries/getc.o
 .data          0x0000000000118ea0        0x0 binaries/getdev.o
 .data          0x0000000000118ea0        0x0 binaries/getitem.o
 .data          0x0000000000118ea0        0x0 binaries/getmem.o
 .data          0x0000000000118ea0        0x0 binaries/getpid.o
 .data          0x0000000000118ea0        0x0 binaries/getpname.o
 .data          0x0000000000118ea0        0x0 binaries/getppid.o
 .data          0x0000000000118ea0        0x0 binaries/getprio.o
 .data          0x0000000000118ea0        0x0 binaries/getstk.o
 .data          0x0000000000118ea0        0x0 binaries/gettime.o
 .data          0x0000000000118ea0        0x0 binaries/getutime.o
 .data          0x0000000000118ea0        0x0 binaries/host2netlb.o
 .data          0x0000000000118ea0        0x0 binaries/init.o
 .data          0x0000000000118ea0        0x0 binaries/initialize.o
 .data          0x0000000000118ea0        0x0 binaries/insert.o
 .data          0x0000000000118ea0        0x0 binaries/insertd.o
 .data          0x0000000000118ea0        0x0 binaries/ioerr.o
 .data          0x0000000000118ea0        0x0 binaries/ionull.o
 .data          0x0000000000118ea0        0x0 binaries/kill.o
 .data          0x0000000000118ea0        0x0 binaries/kprintf.o
 .data          0x0000000000118ea0        0x0 binaries/main.o
 .data          0x0000000000118ea0        0x0 binaries/mark.o
 .data          0x0000000000118ea0       0x48 binaries/meminit.o
                0x0000000000118ea0                gdt_copy
                0x0000000000118ee0                bootinfo
                0x0000000000118ee4                bootsign
 .data          0x0000000000118ee8        0x0 binaries/mkbufpool.o
 .data          0x0000000000118ee8        0x0 binaries/myappA.o
 .data          0x0000000000118ee8        0x0 binaries/myfuncA.o
 .data          0x0000000000118ee8        0x0 binaries/myhacker.o
 .data          0x0000000000118ee8        0x0 binaries/myvictim.o
 .data          0x0000000000118ee8        0x0 binaries/mywelcomemsg.o
 .data          0x0000000000118ee8        0x2 binaries/newqueue.o
 .data          0x0000000000118eea        0x0 binaries/open.o
 .data          0x0000000000118eea        0x0 binaries/panic.o
 .data          0x0000000000118eea        0x0 binaries/pci.o
 .data          0x0000000000118eea        0x0 binaries/platinit.o
 .data          0x0000000000118eea        0x0 binaries/printsegaddr.o
 .data          0x0000000000118eea        0x0 binaries/ptclear.o
 .data          0x0000000000118eea        0x0 binaries/ptcount.o
 .data          0x0000000000118eea        0x0 binaries/ptcreate.o
 .data          0x0000000000118eea        0x0 binaries/ptdelete.o
 .data          0x0000000000118eea        0x0 binaries/ptinit.o
 .data          0x0000000000118eea        0x0 binaries/ptrecv.o
 .data          0x0000000000118eea        0x0 binaries/ptreset.o
 .data          0x0000000000118eea        0x0 binaries/ptsend.o
 .data          0x0000000000118eea        0x0 binaries/putc.o
 .data          0x0000000000118eea        0x0 binaries/quark_irq.o
 .data          0x0000000000118eea        0x0 binaries/quark_pdat.o
 .data          0x0000000000118eea        0x0 binaries/queue.o
 .data          0x0000000000118eea        0x0 binaries/read.o
 .data          0x0000000000118eea        0x0 binaries/ready.o
 .data          0x0000000000118eea        0x0 binaries/receive.o
 .data          0x0000000000118eea        0x0 binaries/recvclr.o
 .data          0x0000000000118eea        0x0 binaries/recvtime.o
 .data          0x0000000000118eea        0x0 binaries/resched.o
 .data          0x0000000000118eea        0x0 binaries/resume.o
 .data          0x0000000000118eea        0x0 binaries/seek.o
 .data          0x0000000000118eea        0x0 binaries/semcount.o
 .data          0x0000000000118eea        0x0 binaries/semcreate.o
 .data          0x0000000000118eea        0x0 binaries/semdelete.o
 .data          0x0000000000118eea        0x0 binaries/semreset.o
 .data          0x0000000000118eea        0x0 binaries/send.o
 .data          0x0000000000118eea        0x0 binaries/signal.o
 .data          0x0000000000118eea        0x0 binaries/signaln.o
 .data          0x0000000000118eea        0x0 binaries/sleep.o
 .data          0x0000000000118eea        0x0 binaries/stackdepth.o
 .data          0x0000000000118eea        0x0 binaries/stacktrace.o
 .data          0x0000000000118eea        0x0 binaries/suspend.o
 .data          0x0000000000118eea        0x0 binaries/teststackdepth.o
 .data          0x0000000000118eea        0x0 binaries/unsleep.o
 .data          0x0000000000118eea        0x0 binaries/userret.o
 .data          0x0000000000118eea        0x0 binaries/wait.o
 .data          0x0000000000118eea        0x0 binaries/wakeup.o
 .data          0x0000000000118eea        0x0 binaries/write.o
 .data          0x0000000000118eea        0x0 binaries/xdone.o
 .data          0x0000000000118eea        0x0 binaries/yield.o
 .data          0x0000000000118eea        0x0 binaries/abs.o
 .data          0x0000000000118eea        0x0 binaries/atoi.o
 .data          0x0000000000118eea        0x0 binaries/atol.o
 .data          0x0000000000118eea        0x0 binaries/bzero.o
 .data          0x0000000000118eea        0x0 binaries/ctype_.o
 .data          0x0000000000118eea        0x0 binaries/doprnt.o
 *fill*         0x0000000000118eea       0x16 
 .data          0x0000000000118f00       0x80 binaries/doscan.o
                0x0000000000118f00                _sctab
 .data          0x0000000000118f80        0x0 binaries/fdoprnt.o
 .data          0x0000000000118f80        0x0 binaries/fgetc.o
 .data          0x0000000000118f80        0x0 binaries/fgets.o
 .data          0x0000000000118f80        0x0 binaries/fprintf.o
 .data          0x0000000000118f80        0x0 binaries/fputc.o
 .data          0x0000000000118f80        0x0 binaries/fputs.o
 .data          0x0000000000118f80        0x0 binaries/fscanf.o
 .data          0x0000000000118f80        0x0 binaries/getchar.o
 .data          0x0000000000118f80        0x0 binaries/labs.o
 .data          0x0000000000118f80        0x0 binaries/memchr.o
 .data          0x0000000000118f80        0x0 binaries/memcmp.o
 .data          0x0000000000118f80        0x0 binaries/memcpy.o
 .data          0x0000000000118f80        0x0 binaries/memset.o
 .data          0x0000000000118f80        0x0 binaries/printf.o
 .data          0x0000000000118f80        0x0 binaries/putchar.o
 .data          0x0000000000118f80        0x0 binaries/qsort.o
 .data          0x0000000000118f80        0x4 binaries/rand.o
 .data          0x0000000000118f84        0x0 binaries/sprintf.o
 .data          0x0000000000118f84        0x0 binaries/sscanf.o
 .data          0x0000000000118f84        0x0 binaries/strchr.o
 .data          0x0000000000118f84        0x0 binaries/strcmp.o
 .data          0x0000000000118f84        0x0 binaries/strcpy.o
 .data          0x0000000000118f84        0x0 binaries/strlen.o
 .data          0x0000000000118f84        0x0 binaries/strncat.o
 .data          0x0000000000118f84        0x0 binaries/strncmp.o
 .data          0x0000000000118f84        0x0 binaries/strncpy.o
 .data          0x0000000000118f84        0x0 binaries/strnlen.o
 .data          0x0000000000118f84        0x0 binaries/strrchr.o
 .data          0x0000000000118f84        0x0 binaries/strstr.o
 .data          0x0000000000118f84        0x0 binaries/ttycontrol.o
 .data          0x0000000000118f84        0x0 binaries/ttygetc.o
 .data          0x0000000000118f84        0x0 binaries/ttyhandle_in.o
 .data          0x0000000000118f84        0x0 binaries/ttyhandle_out.o
 .data          0x0000000000118f84        0x0 binaries/ttyhandler.o
 .data          0x0000000000118f84        0x0 binaries/ttyinit.o
 .data          0x0000000000118f84        0x0 binaries/ttykickout.o
 .data          0x0000000000118f84        0x0 binaries/ttyputc.o
 .data          0x0000000000118f84        0x0 binaries/ttyread.o
 .data          0x0000000000118f84        0x0 binaries/ttywrite.o
 .data          0x0000000000118f84        0x0 binaries/mount.o
 .data          0x0000000000118f84        0x0 binaries/naminit.o
 .data          0x0000000000118f84        0x0 binaries/nammap.o
 .data          0x0000000000118f84        0x0 binaries/namopen.o
 .data          0x0000000000118f84        0x0 binaries/colon2mac.o
 .data          0x0000000000118f84        0x0 binaries/ethcontrol.o
 .data          0x0000000000118f84        0x0 binaries/ethhandler.o
 .data          0x0000000000118f84        0x0 binaries/ethinit.o
 .data          0x0000000000118f84        0x0 binaries/ethmcast.o
 .data          0x0000000000118f84        0x0 binaries/ethread.o
 .data          0x0000000000118f84        0x0 binaries/ethwrite.o
 .data          0x0000000000118f84        0x0 binaries/rdsbufalloc.o
 .data          0x0000000000118f84        0x0 binaries/rdsclose.o
 .data          0x0000000000118f84        0x0 binaries/rdscomm.o
 .data          0x0000000000118f84        0x0 binaries/rdscontrol.o
 .data          0x0000000000118f84        0x0 binaries/rdsinit.o
 .data          0x0000000000118f84        0x0 binaries/rdsopen.o
 .data          0x0000000000118f84        0x0 binaries/rdsprocess.o
 .data          0x0000000000118f84        0x0 binaries/rdsread.o
 .data          0x0000000000118f84        0x0 binaries/rdswrite.o
 .data          0x0000000000118f84        0x0 binaries/ramclose.o
 .data          0x0000000000118f84        0x0 binaries/raminit.o
 .data          0x0000000000118f84        0x0 binaries/ramopen.o
 .data          0x0000000000118f84        0x0 binaries/ramread.o
 .data          0x0000000000118f84        0x0 binaries/ramwrite.o
 .data          0x0000000000118f84        0x0 binaries/lfdballoc.o
 .data          0x0000000000118f84        0x0 binaries/lfdbfree.o
 .data          0x0000000000118f84        0x0 binaries/lfflush.o
 .data          0x0000000000118f84        0x0 binaries/lfgetmode.o
 .data          0x0000000000118f84        0x0 binaries/lfiballoc.o
 .data          0x0000000000118f84        0x0 binaries/lfibclear.o
 .data          0x0000000000118f84        0x0 binaries/lfibget.o
 .data          0x0000000000118f84        0x0 binaries/lfibput.o
 .data          0x0000000000118f84        0x0 binaries/lflclose.o
 .data          0x0000000000118f84        0x0 binaries/lflcontrol.o
 .data          0x0000000000118f84        0x0 binaries/lflgetc.o
 .data          0x0000000000118f84        0x0 binaries/lflinit.o
 .data          0x0000000000118f84        0x0 binaries/lflputc.o
 .data          0x0000000000118f84        0x0 binaries/lflread.o
 .data          0x0000000000118f84        0x0 binaries/lflseek.o
 .data          0x0000000000118f84        0x0 binaries/lflwrite.o
 .data          0x0000000000118f84        0x0 binaries/lfsckfmt.o
 .data          0x0000000000118f84        0x0 binaries/lfscreate.o
 .data          0x0000000000118f84        0x0 binaries/lfsetup.o
 .data          0x0000000000118f84        0x0 binaries/lfsinit.o
 .data          0x0000000000118f84        0x0 binaries/lfsopen.o
 .data          0x0000000000118f84        0x0 binaries/lftruncate.o
 .data          0x0000000000118f84        0x0 binaries/rflclose.o
 .data          0x0000000000118f84        0x0 binaries/rflgetc.o
 .data          0x0000000000118f84        0x0 binaries/rflinit.o
 .data          0x0000000000118f84        0x0 binaries/rflputc.o
 .data          0x0000000000118f84        0x0 binaries/rflread.o
 .data          0x0000000000118f84        0x0 binaries/rflseek.o
 .data          0x0000000000118f84        0x0 binaries/rflwrite.o
 .data          0x0000000000118f84        0x0 binaries/rfscomm.o
 .data          0x0000000000118f84        0x0 binaries/rfscontrol.o
 .data          0x0000000000118f84        0x0 binaries/rfsgetmode.o
 .data          0x0000000000118f84        0x0 binaries/rfsinit.o
 .data          0x0000000000118f84        0x0 binaries/rfsndmsg.o
 .data          0x0000000000118f84        0x0 binaries/rfsopen.o
 .data          0x0000000000118f84        0x0 binaries/arp.o
 .data          0x0000000000118f84        0x0 binaries/dhcp.o
 .data          0x0000000000118f84        0x0 binaries/dot2ip.o
 .data          0x0000000000118f84        0x0 binaries/hexdump.o
 .data          0x0000000000118f84        0x4 binaries/icmp.o
 .data          0x0000000000118f88        0x0 binaries/ip.o
 .data          0x0000000000118f88        0x0 binaries/net.o
 .data          0x0000000000118f88        0x0 binaries/netstart.o
 .data          0x0000000000118f88        0x0 binaries/pdump.o
 .data          0x0000000000118f88        0x0 binaries/tftp.o
 .data          0x0000000000118f88        0x4 binaries/udp.o
 .data          0x0000000000118f8c        0x0 binaries/addargs.o
 .data          0x0000000000118f8c        0x0 binaries/lexan.o
 .data          0x0000000000118f8c        0x4 binaries/shell.o
                0x0000000000118f8c                ncmd
 .data          0x0000000000118f90        0x0 binaries/xsh_argecho.o
 .data          0x0000000000118f90        0x0 binaries/xsh_arp.o
 .data          0x0000000000118f90        0x0 binaries/xsh_cat.o
 .data          0x0000000000118f90        0x0 binaries/xsh_clear.o
 .data          0x0000000000118f90        0x0 binaries/xsh_date.o
 .data          0x0000000000118f90        0x0 binaries/xsh_devdump.o
 .data          0x0000000000118f90        0x0 binaries/xsh_echo.o
 .data          0x0000000000118f90        0x0 binaries/xsh_exit.o
 .data          0x0000000000118f90        0x0 binaries/xsh_help.o
 .data          0x0000000000118f90        0x0 binaries/xsh_ipaddr.o
 .data          0x0000000000118f90        0x0 binaries/xsh_kill.o
 .data          0x0000000000118f90        0x0 binaries/xsh_memdump.o
 .data          0x0000000000118f90        0x0 binaries/xsh_memstat.o
 .data          0x0000000000118f90        0x0 binaries/xsh_ping.o
 .data          0x0000000000118f90        0x0 binaries/xsh_ps.o
 .data          0x0000000000118f90        0x0 binaries/xsh_sleep.o
 .data          0x0000000000118f90        0x0 binaries/xsh_udpdump.o
 .data          0x0000000000118f90        0x0 binaries/xsh_udpecho.o
 .data          0x0000000000118f90        0x0 binaries/xsh_udpeserver.o
 .data          0x0000000000118f90        0x0 binaries/xsh_uptime.o
 .data          0x0000000000118f90        0x0 binaries/clkdisp.o
 .data          0x0000000000118f90        0x0 binaries/ctxsw.o
 .data          0x0000000000118f90        0x0 binaries/host2netla.o
 .data          0x0000000000118f90        0x0 binaries/host2netlc.o
 .data          0x0000000000118f90        0x0 binaries/intr.o
 .data          0x0000000000118f90        0x0 binaries/ttydispatch.o
 .data          0x0000000000118f90        0x0 binaries/ethdispatch.o
                0x0000000000118f90                edata = ABSOLUTE (.)
                0x0000000000119000                . = ALIGN (0x1000)
 *fill*         0x0000000000118f90       0x70 

.igot.plt       0x0000000000119000        0x0
 .igot.plt      0x0000000000119000        0x0 binaries/start.o

.bss            0x0000000000119000    0x20000
                0x0000000000119000                bss = ABSOLUTE (.)
 *(.bss .bss.*)
 .bss           0x0000000000119000        0x0 binaries/start.o
 .bss           0x0000000000119000        0x0 binaries/app1.o
 .bss           0x0000000000119000        0x0 binaries/app2.o
 .bss           0x0000000000119000        0x0 binaries/app3.o
 .bss           0x0000000000119000        0x0 binaries/ascdate.o
 .bss           0x0000000000119000        0x0 binaries/bufinit.o
 .bss           0x0000000000119000        0x0 binaries/chprio.o
 .bss           0x0000000000119000        0x0 binaries/clkhandler.o
 .bss           0x0000000000119000        0x4 binaries/clkinit.o
                0x0000000000119000                ctr1000
 .bss           0x0000000000119004        0x0 binaries/close.o
 .bss           0x0000000000119004        0x0 binaries/conf.o
 .bss           0x0000000000119004        0x0 binaries/control.o
 .bss           0x0000000000119004        0x0 binaries/create.o
 .bss           0x0000000000119004        0x0 binaries/early_imr.o
 .bss           0x0000000000119004        0x0 binaries/evec.o
 .bss           0x0000000000119004        0x0 binaries/factorial.o
 .bss           0x0000000000119004        0x0 binaries/freebuf.o
 .bss           0x0000000000119004        0x0 binaries/freemem.o
 .bss           0x0000000000119004        0x0 binaries/getbuf.o
 .bss           0x0000000000119004        0x0 binaries/getc.o
 .bss           0x0000000000119004        0x0 binaries/getdev.o
 .bss           0x0000000000119004        0x0 binaries/getitem.o
 .bss           0x0000000000119004        0x0 binaries/getmem.o
 .bss           0x0000000000119004        0x0 binaries/getpid.o
 .bss           0x0000000000119004        0x0 binaries/getpname.o
 .bss           0x0000000000119004        0x0 binaries/getppid.o
 .bss           0x0000000000119004        0x0 binaries/getprio.o
 .bss           0x0000000000119004        0x0 binaries/getstk.o
 .bss           0x0000000000119004        0x0 binaries/gettime.o
 .bss           0x0000000000119004        0x0 binaries/getutime.o
 .bss           0x0000000000119004        0x0 binaries/host2netlb.o
 .bss           0x0000000000119004        0x0 binaries/init.o
 .bss           0x0000000000119004        0x0 binaries/initialize.o
 .bss           0x0000000000119004        0x0 binaries/insert.o
 .bss           0x0000000000119004        0x0 binaries/insertd.o
 .bss           0x0000000000119004        0x0 binaries/ioerr.o
 .bss           0x0000000000119004        0x0 binaries/ionull.o
 .bss           0x0000000000119004        0x0 binaries/kill.o
 .bss           0x0000000000119004        0x0 binaries/kprintf.o
 .bss           0x0000000000119004        0x4 binaries/main.o
                0x0000000000119004                victimglobal
 .bss           0x0000000000119008        0x0 binaries/mark.o
 .bss           0x0000000000119008        0x0 binaries/meminit.o
 .bss           0x0000000000119008        0x0 binaries/mkbufpool.o
 .bss           0x0000000000119008        0x0 binaries/myappA.o
 .bss           0x0000000000119008        0x0 binaries/myfuncA.o
 .bss           0x0000000000119008        0x0 binaries/myhacker.o
 .bss           0x0000000000119008        0x0 binaries/myvictim.o
 .bss           0x0000000000119008        0x0 binaries/mywelcomemsg.o
 .bss           0x0000000000119008        0x0 binaries/newqueue.o
 .bss           0x0000000000119008        0x0 binaries/open.o
 .bss           0x0000000000119008        0x0 binaries/panic.o
 .bss           0x0000000000119008        0x0 binaries/pci.o
 .bss           0x0000000000119008        0x0 binaries/platinit.o
 .bss           0x0000000000119008        0x0 binaries/printsegaddr.o
 .bss           0x0000000000119008        0x0 binaries/ptclear.o
 .bss           0x0000000000119008        0x0 binaries/ptcount.o
 .bss           0x0000000000119008        0x0 binaries/ptcreate.o
 .bss           0x0000000000119008        0x0 binaries/ptdelete.o
 .bss           0x0000000000119008        0x0 binaries/ptinit.o
 .bss           0x0000000000119008        0x0 binaries/ptrecv.o
 .bss           0x0000000000119008        0x0 binaries/ptreset.o
 .bss           0x0000000000119008        0x0 binaries/ptsend.o
 .bss           0x0000000000119008        0x0 binaries/putc.o
 .bss           0x0000000000119008        0x0 binaries/quark_irq.o
 .bss           0x0000000000119008        0x0 binaries/quark_pdat.o
 .bss           0x0000000000119008        0x0 binaries/queue.o
 .bss           0x0000000000119008        0x0 binaries/read.o
 .bss           0x0000000000119008        0x0 binaries/ready.o
 .bss           0x0000000000119008        0x0 binaries/receive.o
 .bss           0x0000000000119008        0x0 binaries/recvclr.o
 .bss           0x0000000000119008        0x0 binaries/recvtime.o
 .bss           0x0000000000119008        0x0 binaries/resched.o
 .bss           0x0000000000119008        0x0 binaries/resume.o
 .bss           0x0000000000119008        0x0 binaries/seek.o
 .bss           0x0000000000119008        0x0 binaries/semcount.o
 .bss           0x0000000000119008        0x4 binaries/semcreate.o
 .bss           0x000000000011900c        0x0 binaries/semdelete.o
 .bss           0x000000000011900c        0x0 binaries/semreset.o
 .bss           0x000000000011900c        0x0 binaries/send.o
 .bss           0x000000000011900c        0x0 binaries/signal.o
 .bss           0x000000000011900c        0x0 binaries/signaln.o
 .bss           0x000000000011900c        0x0 binaries/sleep.o
 .bss           0x000000000011900c        0x0 binaries/stackdepth.o
 .bss           0x000000000011900c        0x8 binaries/stacktrace.o
 .bss           0x0000000000119014        0x0 binaries/suspend.o
 .bss           0x0000000000119014        0x0 binaries/teststackdepth.o
 .bss           0x0000000000119014        0x0 binaries/unsleep.o
 .bss           0x0000000000119014        0x0 binaries/userret.o
 .bss           0x0000000000119014        0x0 binaries/wait.o
 .bss           0x0000000000119014        0x0 binaries/wakeup.o
 .bss           0x0000000000119014        0x0 binaries/write.o
 .bss           0x0000000000119014        0x0 binaries/xdone.o
 .bss           0x0000000000119014        0x0 binaries/yield.o
 .bss           0x0000000000119014        0x0 binaries/abs.o
 .bss           0x0000000000119014        0x0 binaries/atoi.o
 .bss           0x0000000000119014        0x0 binaries/atol.o
 .bss           0x0000000000119014        0x0 binaries/bzero.o
 .bss           0x0000000000119014        0x0 binaries/ctype_.o
 .bss           0x0000000000119014        0x0 binaries/doprnt.o
 .bss           0x0000000000119014        0x0 binaries/doscan.o
 .bss           0x0000000000119014        0x0 binaries/fdoprnt.o
 .bss           0x0000000000119014        0x0 binaries/fgetc.o
 .bss           0x0000000000119014        0x0 binaries/fgets.o
 .bss           0x0000000000119014        0x0 binaries/fprintf.o
 .bss           0x0000000000119014        0x0 binaries/fputc.o
 .bss           0x0000000000119014        0x0 binaries/fputs.o
 .bss           0x0000000000119014        0x0 binaries/fscanf.o
 .bss           0x0000000000119014        0x0 binaries/getchar.o
 .bss           0x0000000000119014        0x0 binaries/labs.o
 .bss           0x0000000000119014        0x0 binaries/memchr.o
 .bss           0x0000000000119014        0x0 binaries/memcmp.o
 .bss           0x0000000000119014        0x0 binaries/memcpy.o
 .bss           0x0000000000119014        0x0 binaries/memset.o
 .bss           0x0000000000119014        0x0 binaries/printf.o
 .bss           0x0000000000119014        0x0 binaries/putchar.o
 .bss           0x0000000000119014        0x8 binaries/qsort.o
 .bss           0x000000000011901c        0x0 binaries/rand.o
 .bss           0x000000000011901c        0x0 binaries/sprintf.o
 .bss           0x000000000011901c        0x0 binaries/sscanf.o
 .bss           0x000000000011901c        0x0 binaries/strchr.o
 .bss           0x000000000011901c        0x0 binaries/strcmp.o
 .bss           0x000000000011901c        0x0 binaries/strcpy.o
 .bss           0x000000000011901c        0x0 binaries/strlen.o
 .bss           0x000000000011901c        0x0 binaries/strncat.o
 .bss           0x000000000011901c        0x0 binaries/strncmp.o
 .bss           0x000000000011901c        0x0 binaries/strncpy.o
 .bss           0x000000000011901c        0x0 binaries/strnlen.o
 .bss           0x000000000011901c        0x0 binaries/strrchr.o
 .bss           0x000000000011901c        0x0 binaries/strstr.o
 .bss           0x000000000011901c        0x0 binaries/ttycontrol.o
 .bss           0x000000000011901c        0x0 binaries/ttygetc.o
 .bss           0x000000000011901c        0x0 binaries/ttyhandle_in.o
 .bss           0x000000000011901c        0x0 binaries/ttyhandle_out.o
 .bss           0x000000000011901c        0x0 binaries/ttyhandler.o
 .bss           0x000000000011901c        0x0 binaries/ttyinit.o
 .bss           0x000000000011901c        0x0 binaries/ttykickout.o
 .bss           0x000000000011901c        0x0 binaries/ttyputc.o
 .bss           0x000000000011901c        0x0 binaries/ttyread.o
 .bss           0x000000000011901c        0x0 binaries/ttywrite.o
 .bss           0x000000000011901c        0x0 binaries/mount.o
 .bss           0x000000000011901c        0x0 binaries/naminit.o
 .bss           0x000000000011901c        0x0 binaries/nammap.o
 .bss           0x000000000011901c        0x0 binaries/namopen.o
 .bss           0x000000000011901c        0x0 binaries/colon2mac.o
 .bss           0x000000000011901c        0x0 binaries/ethcontrol.o
 .bss           0x000000000011901c        0x0 binaries/ethhandler.o
 .bss           0x000000000011901c        0x0 binaries/ethinit.o
 .bss           0x000000000011901c        0x0 binaries/ethmcast.o
 .bss           0x000000000011901c        0x0 binaries/ethread.o
 .bss           0x000000000011901c        0x0 binaries/ethwrite.o
 .bss           0x000000000011901c        0x0 binaries/rdsbufalloc.o
 .bss           0x000000000011901c        0x0 binaries/rdsclose.o
 .bss           0x000000000011901c        0x0 binaries/rdscomm.o
 .bss           0x000000000011901c        0x0 binaries/rdscontrol.o
 .bss           0x000000000011901c        0x0 binaries/rdsinit.o
 .bss           0x000000000011901c        0x0 binaries/rdsopen.o
 .bss           0x000000000011901c        0x0 binaries/rdsprocess.o
 .bss           0x000000000011901c        0x0 binaries/rdsread.o
 .bss           0x000000000011901c        0x0 binaries/rdswrite.o
 .bss           0x000000000011901c        0x0 binaries/ramclose.o
 .bss           0x000000000011901c        0x0 binaries/raminit.o
 .bss           0x000000000011901c        0x0 binaries/ramopen.o
 .bss           0x000000000011901c        0x0 binaries/ramread.o
 .bss           0x000000000011901c        0x0 binaries/ramwrite.o
 .bss           0x000000000011901c        0x0 binaries/lfdballoc.o
 .bss           0x000000000011901c        0x0 binaries/lfdbfree.o
 .bss           0x000000000011901c        0x0 binaries/lfflush.o
 .bss           0x000000000011901c        0x0 binaries/lfgetmode.o
 .bss           0x000000000011901c        0x0 binaries/lfiballoc.o
 .bss           0x000000000011901c        0x0 binaries/lfibclear.o
 .bss           0x000000000011901c        0x0 binaries/lfibget.o
 .bss           0x000000000011901c        0x0 binaries/lfibput.o
 .bss           0x000000000011901c        0x0 binaries/lflclose.o
 .bss           0x000000000011901c        0x0 binaries/lflcontrol.o
 .bss           0x000000000011901c        0x0 binaries/lflgetc.o
 .bss           0x000000000011901c        0x0 binaries/lflinit.o
 .bss           0x000000000011901c        0x0 binaries/lflputc.o
 .bss           0x000000000011901c        0x0 binaries/lflread.o
 .bss           0x000000000011901c        0x0 binaries/lflseek.o
 .bss           0x000000000011901c        0x0 binaries/lflwrite.o
 .bss           0x000000000011901c        0x0 binaries/lfsckfmt.o
 .bss           0x000000000011901c        0x0 binaries/lfscreate.o
 .bss           0x000000000011901c        0x0 binaries/lfsetup.o
 .bss           0x000000000011901c        0x0 binaries/lfsinit.o
 .bss           0x000000000011901c        0x0 binaries/lfsopen.o
 .bss           0x000000000011901c        0x0 binaries/lftruncate.o
 .bss           0x000000000011901c        0x0 binaries/rflclose.o
 .bss           0x000000000011901c        0x0 binaries/rflgetc.o
 .bss           0x000000000011901c        0x0 binaries/rflinit.o
 .bss           0x000000000011901c        0x0 binaries/rflputc.o
 .bss           0x000000000011901c        0x0 binaries/rflread.o
 .bss           0x000000000011901c        0x0 binaries/rflseek.o
 .bss           0x000000000011901c        0x0 binaries/rflwrite.o
 .bss           0x000000000011901c        0x0 binaries/rfscomm.o
 .bss           0x000000000011901c        0x0 binaries/rfscontrol.o
 .bss           0x000000000011901c        0x0 binaries/rfsgetmode.o
 .bss           0x000000000011901c        0x0 binaries/rfsinit.o
 .bss           0x000000000011901c        0x0 binaries/rfsndmsg.o
 .bss           0x000000000011901c        0x0 binaries/rfsopen.o
 .bss           0x000000000011901c        0x0 binaries/arp.o
 .bss           0x000000000011901c        0x0 binaries/dhcp.o
 .bss           0x000000000011901c        0x0 binaries/dot2ip.o
 .bss           0x000000000011901c        0x0 binaries/hexdump.o
 .bss           0x000000000011901c        0x0 binaries/icmp.o
 .bss           0x000000000011901c        0x0 binaries/ip.o
 .bss           0x000000000011901c        0x0 binaries/net.o
 .bss           0x000000000011901c        0x0 binaries/netstart.o
 .bss           0x000000000011901c        0x0 binaries/pdump.o
 .bss           0x000000000011901c        0x0 binaries/tftp.o
 .bss           0x000000000011901c        0x0 binaries/udp.o
 .bss           0x000000000011901c        0x0 binaries/addargs.o
 .bss           0x000000000011901c        0x0 binaries/lexan.o
 .bss           0x000000000011901c        0x0 binaries/shell.o
 .bss           0x000000000011901c        0x0 binaries/xsh_argecho.o
 .bss           0x000000000011901c        0x0 binaries/xsh_arp.o
 .bss           0x000000000011901c        0x0 binaries/xsh_cat.o
 .bss           0x000000000011901c        0x0 binaries/xsh_clear.o
 .bss           0x000000000011901c        0x0 binaries/xsh_date.o
 .bss           0x000000000011901c        0x0 binaries/xsh_devdump.o
 .bss           0x000000000011901c        0x0 binaries/xsh_echo.o
 .bss           0x000000000011901c        0x0 binaries/xsh_exit.o
 .bss           0x000000000011901c        0x0 binaries/xsh_help.o
 .bss           0x000000000011901c        0x0 binaries/xsh_ipaddr.o
 .bss           0x000000000011901c        0x0 binaries/xsh_kill.o
 .bss           0x000000000011901c        0x0 binaries/xsh_memdump.o
 .bss           0x000000000011901c        0x0 binaries/xsh_memstat.o
 .bss           0x000000000011901c        0x4 binaries/xsh_ping.o
 .bss           0x0000000000119020        0x0 binaries/xsh_ps.o
 .bss           0x0000000000119020        0x0 binaries/xsh_sleep.o
 .bss           0x0000000000119020        0x0 binaries/xsh_udpdump.o
 .bss           0x0000000000119020        0x0 binaries/xsh_udpecho.o
 .bss           0x0000000000119020        0x0 binaries/xsh_udpeserver.o
 .bss           0x0000000000119020        0x0 binaries/xsh_uptime.o
 .bss           0x0000000000119020        0x0 binaries/clkdisp.o
 .bss           0x0000000000119020        0x0 binaries/ctxsw.o
 .bss           0x0000000000119020        0x0 binaries/host2netla.o
 .bss           0x0000000000119020        0x0 binaries/host2netlc.o
 .bss           0x0000000000119020        0x0 binaries/intr.o
 .bss           0x0000000000119020        0x0 binaries/ttydispatch.o
 .bss           0x0000000000119020        0x0 binaries/ethdispatch.o
 *(COMMON)
 COMMON         0x0000000000119020       0xf4 binaries/bufinit.o
                0x0000000000119020                buftab
                0x0000000000119110                nbpools
 COMMON         0x0000000000119114        0xc binaries/clkinit.o
                0x0000000000119114                sleepq
                0x0000000000119118                preempt
                0x000000000011911c                clktime
 COMMON         0x0000000000119120        0x2 binaries/evec.o
                0x0000000000119120                girmask
 *fill*         0x0000000000119122       0x1e 
 COMMON         0x0000000000119140     0x1ad8 binaries/initialize.o
                0x0000000000119140                currpid
                0x0000000000119160                proctab
                0x000000000011a740                prcount
                0x000000000011a760                semtab
                0x000000000011ac10                memlist
 COMMON         0x000000000011ac18        0x4 binaries/main.o
                0x000000000011ac18                victimsRetAddress
 *fill*         0x000000000011ac1c        0x4 
 COMMON         0x000000000011ac20       0x58 binaries/mark.o
                0x000000000011ac20                marks
                0x000000000011ac70                nmarks
                0x000000000011ac74                mkmutex
 COMMON         0x000000000011ac78        0x8 binaries/meminit.o
                0x000000000011ac78                minheap
                0x000000000011ac7c                maxheap
 COMMON         0x000000000011ac80      0x2d8 binaries/ptinit.o
                0x000000000011ac80                porttab
                0x000000000011af50                ptnextid
                0x000000000011af54                ptfree
 *fill*         0x000000000011af58        0x8 
 COMMON         0x000000000011af60      0x980 binaries/queue.o
                0x000000000011af60                queuetab
 COMMON         0x000000000011b8e0        0x2 binaries/ready.o
                0x000000000011b8e0                readylist
 *fill*         0x000000000011b8e2        0x2 
 COMMON         0x000000000011b8e4        0x8 binaries/resched.o
                0x000000000011b8e4                Defer
 *fill*         0x000000000011b8ec       0x14 
 COMMON         0x000000000011b900      0x10c binaries/ttyinit.o
                0x000000000011b900                ttytab
 *fill*         0x000000000011ba0c       0x14 
 COMMON         0x000000000011ba20     0x19c0 binaries/naminit.o
                0x000000000011ba20                nnames
                0x000000000011ba40                nametab
 COMMON         0x000000000011d3e0      0x138 binaries/ethinit.o
                0x000000000011d3e0                ethertab
 *fill*         0x000000000011d518        0x8 
 COMMON         0x000000000011d520       0x8c binaries/rdsinit.o
                0x000000000011d520                rdstab
 *fill*         0x000000000011d5ac       0x14 
 COMMON         0x000000000011d5c0    0x19000 binaries/raminit.o
                0x000000000011d5c0                Ram
 COMMON         0x00000000001365c0      0xf00 binaries/lflinit.o
                0x00000000001365c0                lfltab
 COMMON         0x00000000001374c0      0x20c binaries/lfsinit.o
                0x00000000001374c0                Lf_data
 *fill*         0x00000000001376cc       0x14 
 COMMON         0x00000000001376e0      0x5a0 binaries/rflinit.o
                0x00000000001376e0                rfltab
 COMMON         0x0000000000137c80       0x18 binaries/rfsinit.o
                0x0000000000137c80                Rf_data
 *fill*         0x0000000000137c98        0x8 
 COMMON         0x0000000000137ca0      0x140 binaries/arp.o
                0x0000000000137ca0                arpcache
 COMMON         0x0000000000137de0      0x230 binaries/icmp.o
                0x0000000000137de0                icmptab
 *fill*         0x0000000000138010       0x10 
 COMMON         0x0000000000138020       0x2c binaries/ip.o
                0x0000000000138020                ipoqueue
 *fill*         0x000000000013804c       0x14 
 COMMON         0x0000000000138060       0xc8 binaries/net.o
                0x0000000000138060                netbufpool
                0x0000000000138080                NetData
 *fill*         0x0000000000138128       0x18 
 COMMON         0x0000000000138140      0x168 binaries/udp.o
                0x0000000000138140                udptab
                0x00000000001382a8                ebss = ABSOLUTE (.)
                0x0000000000139000                . = ALIGN (0x1000)
 *fill*         0x00000000001382a8      0xd58 
 */()
                0x0000000000139000                end = ABSOLUTE (.)
                0x0000000000139000                _end = ABSOLUTE (.)
                0x0000000000139000                . = ALIGN (0x1000)
LOAD binaries/start.o
LOAD binaries/app1.o
LOAD binaries/app2.o
LOAD binaries/app3.o
LOAD binaries/ascdate.o
LOAD binaries/bufinit.o
LOAD binaries/chprio.o
LOAD binaries/clkhandler.o
LOAD binaries/clkinit.o
LOAD binaries/close.o
LOAD binaries/conf.o
LOAD binaries/control.o
LOAD binaries/create.o
LOAD binaries/early_imr.o
LOAD binaries/evec.o
LOAD binaries/factorial.o
LOAD binaries/freebuf.o
LOAD binaries/freemem.o
LOAD binaries/getbuf.o
LOAD binaries/getc.o
LOAD binaries/getdev.o
LOAD binaries/getitem.o
LOAD binaries/getmem.o
LOAD binaries/getpid.o
LOAD binaries/getpname.o
LOAD binaries/getppid.o
LOAD binaries/getprio.o
LOAD binaries/getstk.o
LOAD binaries/gettime.o
LOAD binaries/getutime.o
LOAD binaries/host2netlb.o
LOAD binaries/init.o
LOAD binaries/initialize.o
LOAD binaries/insert.o
LOAD binaries/insertd.o
LOAD binaries/ioerr.o
LOAD binaries/ionull.o
LOAD binaries/kill.o
LOAD binaries/kprintf.o
LOAD binaries/main.o
LOAD binaries/mark.o
LOAD binaries/meminit.o
LOAD binaries/mkbufpool.o
LOAD binaries/myappA.o
LOAD binaries/myfuncA.o
LOAD binaries/myhacker.o
LOAD binaries/myvictim.o
LOAD binaries/mywelcomemsg.o
LOAD binaries/newqueue.o
LOAD binaries/open.o
LOAD binaries/panic.o
LOAD binaries/pci.o
LOAD binaries/platinit.o
LOAD binaries/printsegaddr.o
LOAD binaries/ptclear.o
LOAD binaries/ptcount.o
LOAD binaries/ptcreate.o
LOAD binaries/ptdelete.o
LOAD binaries/ptinit.o
LOAD binaries/ptrecv.o
LOAD binaries/ptreset.o
LOAD binaries/ptsend.o
LOAD binaries/putc.o
LOAD binaries/quark_irq.o
LOAD binaries/quark_pdat.o
LOAD binaries/queue.o
LOAD binaries/read.o
LOAD binaries/ready.o
LOAD binaries/receive.o
LOAD binaries/recvclr.o
LOAD binaries/recvtime.o
LOAD binaries/resched.o
LOAD binaries/resume.o
LOAD binaries/seek.o
LOAD binaries/semcount.o
LOAD binaries/semcreate.o
LOAD binaries/semdelete.o
LOAD binaries/semreset.o
LOAD binaries/send.o
LOAD binaries/signal.o
LOAD binaries/signaln.o
LOAD binaries/sleep.o
LOAD binaries/stackdepth.o
LOAD binaries/stacktrace.o
LOAD binaries/suspend.o
LOAD binaries/teststackdepth.o
LOAD binaries/unsleep.o
LOAD binaries/userret.o
LOAD binaries/wait.o
LOAD binaries/wakeup.o
LOAD binaries/write.o
LOAD binaries/xdone.o
LOAD binaries/yield.o
LOAD binaries/abs.o
LOAD binaries/atoi.o
LOAD binaries/atol.o
LOAD binaries/bzero.o
LOAD binaries/ctype_.o
LOAD binaries/doprnt.o
LOAD binaries/doscan.o
LOAD binaries/fdoprnt.o
LOAD binaries/fgetc.o
LOAD binaries/fgets.o
LOAD binaries/fprintf.o
LOAD binaries/fputc.o
LOAD binaries/fputs.o
LOAD binaries/fscanf.o
LOAD binaries/getchar.o
LOAD binaries/labs.o
LOAD binaries/memchr.o
LOAD binaries/memcmp.o
LOAD binaries/memcpy.o
LOAD binaries/memset.o
LOAD binaries/printf.o
LOAD binaries/putchar.o
LOAD binaries/qsort.o
LOAD binaries/rand.o
LOAD binaries/sprintf.o
LOAD binaries/sscanf.o
LOAD binaries/strchr.o
LOAD binaries/strcmp.o
LOAD binaries/strcpy.o
LOAD binaries/strlen.o
LOAD binaries/strncat.o
LOAD binaries/strncmp.o
LOAD binaries/strncpy.o
LOAD binaries/strnlen.o
LOAD binaries/strrchr.o
LOAD binaries/strstr.o
LOAD binaries/ttycontrol.o
LOAD binaries/ttygetc.o
LOAD binaries/ttyhandle_in.o
LOAD binaries/ttyhandle_out.o
LOAD binaries/ttyhandler.o
LOAD binaries/ttyinit.o
LOAD binaries/ttykickout.o
LOAD binaries/ttyputc.o
LOAD binaries/ttyread.o
LOAD binaries/ttywrite.o
LOAD binaries/mount.o
LOAD binaries/naminit.o
LOAD binaries/nammap.o
LOAD binaries/namopen.o
LOAD binaries/colon2mac.o
LOAD binaries/ethcontrol.o
LOAD binaries/ethhandler.o
LOAD binaries/ethinit.o
LOAD binaries/ethmcast.o
LOAD binaries/ethread.o
LOAD binaries/ethwrite.o
LOAD binaries/rdsbufalloc.o
LOAD binaries/rdsclose.o
LOAD binaries/rdscomm.o
LOAD binaries/rdscontrol.o
LOAD binaries/rdsinit.o
LOAD binaries/rdsopen.o
LOAD binaries/rdsprocess.o
LOAD binaries/rdsread.o
LOAD binaries/rdswrite.o
LOAD binaries/ramclose.o
LOAD binaries/raminit.o
LOAD binaries/ramopen.o
LOAD binaries/ramread.o
LOAD binaries/ramwrite.o
LOAD binaries/lfdballoc.o
LOAD binaries/lfdbfree.o
LOAD binaries/lfflush.o
LOAD binaries/lfgetmode.o
LOAD binaries/lfiballoc.o
LOAD binaries/lfibclear.o
LOAD binaries/lfibget.o
LOAD binaries/lfibput.o
LOAD binaries/lflclose.o
LOAD binaries/lflcontrol.o
LOAD binaries/lflgetc.o
LOAD binaries/lflinit.o
LOAD binaries/lflputc.o
LOAD binaries/lflread.o
LOAD binaries/lflseek.o
LOAD binaries/lflwrite.o
LOAD binaries/lfsckfmt.o
LOAD binaries/lfscreate.o
LOAD binaries/lfsetup.o
LOAD binaries/lfsinit.o
LOAD binaries/lfsopen.o
LOAD binaries/lftruncate.o
LOAD binaries/rflclose.o
LOAD binaries/rflgetc.o
LOAD binaries/rflinit.o
LOAD binaries/rflputc.o
LOAD binaries/rflread.o
LOAD binaries/rflseek.o
LOAD binaries/rflwrite.o
LOAD binaries/rfscomm.o
LOAD binaries/rfscontrol.o
LOAD binaries/rfsgetmode.o
LOAD binaries/rfsinit.o
LOAD binaries/rfsndmsg.o
LOAD binaries/rfsopen.o
LOAD binaries/arp.o
LOAD binaries/dhcp.o
LOAD binaries/dot2ip.o
LOAD binaries/hexdump.o
LOAD binaries/icmp.o
LOAD binaries/ip.o
LOAD binaries/net.o
LOAD binaries/netstart.o
LOAD binaries/pdump.o
LOAD binaries/tftp.o
LOAD binaries/udp.o
LOAD binaries/addargs.o
LOAD binaries/lexan.o
LOAD binaries/shell.o
LOAD binaries/xsh_argecho.o
LOAD binaries/xsh_arp.o
LOAD binaries/xsh_cat.o
LOAD binaries/xsh_clear.o
LOAD binaries/xsh_date.o
LOAD binaries/xsh_devdump.o
LOAD binaries/xsh_echo.o
LOAD binaries/xsh_exit.o
LOAD binaries/xsh_help.o
LOAD binaries/xsh_ipaddr.o
LOAD binaries/xsh_kill.o
LOAD binaries/xsh_memdump.o
LOAD binaries/xsh_memstat.o
LOAD binaries/xsh_ping.o
LOAD binaries/xsh_ps.o
LOAD binaries/xsh_sleep.o
LOAD binaries/xsh_udpdump.o
LOAD binaries/xsh_udpecho.o
LOAD binaries/xsh_udpeserver.o
LOAD binaries/xsh_uptime.o
LOAD binaries/clkdisp.o
LOAD binaries/ctxsw.o
LOAD binaries/host2netla.o
LOAD binaries/host2netlc.o
LOAD binaries/intr.o
LOAD binaries/ttydispatch.o
LOAD binaries/ethdispatch.o
OUTPUT(../compile/xinu elf32-i386)

.comment        0x0000000000000000       0x2a
 .comment       0x0000000000000000       0x2a binaries/app1.o
                                         0x2b (size before relaxing)
 .comment       0x000000000000002a       0x2b binaries/app2.o
 .comment       0x000000000000002a       0x2b binaries/app3.o
 .comment       0x000000000000002a       0x2b binaries/ascdate.o
 .comment       0x000000000000002a       0x2b binaries/bufinit.o
 .comment       0x000000000000002a       0x2b binaries/chprio.o
 .comment       0x000000000000002a       0x2b binaries/clkhandler.o
 .comment       0x000000000000002a       0x2b binaries/clkinit.o
 .comment       0x000000000000002a       0x2b binaries/close.o
 .comment       0x000000000000002a       0x2b binaries/conf.o
 .comment       0x000000000000002a       0x2b binaries/control.o
 .comment       0x000000000000002a       0x2b binaries/create.o
 .comment       0x000000000000002a       0x2b binaries/early_imr.o
 .comment       0x000000000000002a       0x2b binaries/evec.o
 .comment       0x000000000000002a       0x2b binaries/factorial.o
 .comment       0x000000000000002a       0x2b binaries/freebuf.o
 .comment       0x000000000000002a       0x2b binaries/freemem.o
 .comment       0x000000000000002a       0x2b binaries/getbuf.o
 .comment       0x000000000000002a       0x2b binaries/getc.o
 .comment       0x000000000000002a       0x2b binaries/getdev.o
 .comment       0x000000000000002a       0x2b binaries/getitem.o
 .comment       0x000000000000002a       0x2b binaries/getmem.o
 .comment       0x000000000000002a       0x2b binaries/getpid.o
 .comment       0x000000000000002a       0x2b binaries/getpname.o
 .comment       0x000000000000002a       0x2b binaries/getppid.o
 .comment       0x000000000000002a       0x2b binaries/getprio.o
 .comment       0x000000000000002a       0x2b binaries/getstk.o
 .comment       0x000000000000002a       0x2b binaries/gettime.o
 .comment       0x000000000000002a       0x2b binaries/getutime.o
 .comment       0x000000000000002a       0x2b binaries/host2netlb.o
 .comment       0x000000000000002a       0x2b binaries/init.o
 .comment       0x000000000000002a       0x2b binaries/initialize.o
 .comment       0x000000000000002a       0x2b binaries/insert.o
 .comment       0x000000000000002a       0x2b binaries/insertd.o
 .comment       0x000000000000002a       0x2b binaries/ioerr.o
 .comment       0x000000000000002a       0x2b binaries/ionull.o
 .comment       0x000000000000002a       0x2b binaries/kill.o
 .comment       0x000000000000002a       0x2b binaries/kprintf.o
 .comment       0x000000000000002a       0x2b binaries/main.o
 .comment       0x000000000000002a       0x2b binaries/mark.o
 .comment       0x000000000000002a       0x2b binaries/meminit.o
 .comment       0x000000000000002a       0x2b binaries/mkbufpool.o
 .comment       0x000000000000002a       0x2b binaries/myappA.o
 .comment       0x000000000000002a       0x2b binaries/myfuncA.o
 .comment       0x000000000000002a       0x2b binaries/myhacker.o
 .comment       0x000000000000002a       0x2b binaries/myvictim.o
 .comment       0x000000000000002a       0x2b binaries/mywelcomemsg.o
 .comment       0x000000000000002a       0x2b binaries/newqueue.o
 .comment       0x000000000000002a       0x2b binaries/open.o
 .comment       0x000000000000002a       0x2b binaries/panic.o
 .comment       0x000000000000002a       0x2b binaries/pci.o
 .comment       0x000000000000002a       0x2b binaries/platinit.o
 .comment       0x000000000000002a       0x2b binaries/printsegaddr.o
 .comment       0x000000000000002a       0x2b binaries/ptclear.o
 .comment       0x000000000000002a       0x2b binaries/ptcount.o
 .comment       0x000000000000002a       0x2b binaries/ptcreate.o
 .comment       0x000000000000002a       0x2b binaries/ptdelete.o
 .comment       0x000000000000002a       0x2b binaries/ptinit.o
 .comment       0x000000000000002a       0x2b binaries/ptrecv.o
 .comment       0x000000000000002a       0x2b binaries/ptreset.o
 .comment       0x000000000000002a       0x2b binaries/ptsend.o
 .comment       0x000000000000002a       0x2b binaries/putc.o
 .comment       0x000000000000002a       0x2b binaries/quark_irq.o
 .comment       0x000000000000002a       0x2b binaries/quark_pdat.o
 .comment       0x000000000000002a       0x2b binaries/queue.o
 .comment       0x000000000000002a       0x2b binaries/read.o
 .comment       0x000000000000002a       0x2b binaries/ready.o
 .comment       0x000000000000002a       0x2b binaries/receive.o
 .comment       0x000000000000002a       0x2b binaries/recvclr.o
 .comment       0x000000000000002a       0x2b binaries/recvtime.o
 .comment       0x000000000000002a       0x2b binaries/resched.o
 .comment       0x000000000000002a       0x2b binaries/resume.o
 .comment       0x000000000000002a       0x2b binaries/seek.o
 .comment       0x000000000000002a       0x2b binaries/semcount.o
 .comment       0x000000000000002a       0x2b binaries/semcreate.o
 .comment       0x000000000000002a       0x2b binaries/semdelete.o
 .comment       0x000000000000002a       0x2b binaries/semreset.o
 .comment       0x000000000000002a       0x2b binaries/send.o
 .comment       0x000000000000002a       0x2b binaries/signal.o
 .comment       0x000000000000002a       0x2b binaries/signaln.o
 .comment       0x000000000000002a       0x2b binaries/sleep.o
 .comment       0x000000000000002a       0x2b binaries/stackdepth.o
 .comment       0x000000000000002a       0x2b binaries/stacktrace.o
 .comment       0x000000000000002a       0x2b binaries/suspend.o
 .comment       0x000000000000002a       0x2b binaries/teststackdepth.o
 .comment       0x000000000000002a       0x2b binaries/unsleep.o
 .comment       0x000000000000002a       0x2b binaries/userret.o
 .comment       0x000000000000002a       0x2b binaries/wait.o
 .comment       0x000000000000002a       0x2b binaries/wakeup.o
 .comment       0x000000000000002a       0x2b binaries/write.o
 .comment       0x000000000000002a       0x2b binaries/xdone.o
 .comment       0x000000000000002a       0x2b binaries/yield.o
 .comment       0x000000000000002a       0x2b binaries/abs.o
 .comment       0x000000000000002a       0x2b binaries/atoi.o
 .comment       0x000000000000002a       0x2b binaries/atol.o
 .comment       0x000000000000002a       0x2b binaries/bzero.o
 .comment       0x000000000000002a       0x2b binaries/ctype_.o
 .comment       0x000000000000002a       0x2b binaries/doprnt.o
 .comment       0x000000000000002a       0x2b binaries/doscan.o
 .comment       0x000000000000002a       0x2b binaries/fdoprnt.o
 .comment       0x000000000000002a       0x2b binaries/fgetc.o
 .comment       0x000000000000002a       0x2b binaries/fgets.o
 .comment       0x000000000000002a       0x2b binaries/fprintf.o
 .comment       0x000000000000002a       0x2b binaries/fputc.o
 .comment       0x000000000000002a       0x2b binaries/fputs.o
 .comment       0x000000000000002a       0x2b binaries/fscanf.o
 .comment       0x000000000000002a       0x2b binaries/getchar.o
 .comment       0x000000000000002a       0x2b binaries/labs.o
 .comment       0x000000000000002a       0x2b binaries/memchr.o
 .comment       0x000000000000002a       0x2b binaries/memcmp.o
 .comment       0x000000000000002a       0x2b binaries/memcpy.o
 .comment       0x000000000000002a       0x2b binaries/memset.o
 .comment       0x000000000000002a       0x2b binaries/printf.o
 .comment       0x000000000000002a       0x2b binaries/putchar.o
 .comment       0x000000000000002a       0x2b binaries/qsort.o
 .comment       0x000000000000002a       0x2b binaries/rand.o
 .comment       0x000000000000002a       0x2b binaries/sprintf.o
 .comment       0x000000000000002a       0x2b binaries/sscanf.o
 .comment       0x000000000000002a       0x2b binaries/strchr.o
 .comment       0x000000000000002a       0x2b binaries/strcmp.o
 .comment       0x000000000000002a       0x2b binaries/strcpy.o
 .comment       0x000000000000002a       0x2b binaries/strlen.o
 .comment       0x000000000000002a       0x2b binaries/strncat.o
 .comment       0x000000000000002a       0x2b binaries/strncmp.o
 .comment       0x000000000000002a       0x2b binaries/strncpy.o
 .comment       0x000000000000002a       0x2b binaries/strnlen.o
 .comment       0x000000000000002a       0x2b binaries/strrchr.o
 .comment       0x000000000000002a       0x2b binaries/strstr.o
 .comment       0x000000000000002a       0x2b binaries/ttycontrol.o
 .comment       0x000000000000002a       0x2b binaries/ttygetc.o
 .comment       0x000000000000002a       0x2b binaries/ttyhandle_in.o
 .comment       0x000000000000002a       0x2b binaries/ttyhandle_out.o
 .comment       0x000000000000002a       0x2b binaries/ttyhandler.o
 .comment       0x000000000000002a       0x2b binaries/ttyinit.o
 .comment       0x000000000000002a       0x2b binaries/ttykickout.o
 .comment       0x000000000000002a       0x2b binaries/ttyputc.o
 .comment       0x000000000000002a       0x2b binaries/ttyread.o
 .comment       0x000000000000002a       0x2b binaries/ttywrite.o
 .comment       0x000000000000002a       0x2b binaries/mount.o
 .comment       0x000000000000002a       0x2b binaries/naminit.o
 .comment       0x000000000000002a       0x2b binaries/nammap.o
 .comment       0x000000000000002a       0x2b binaries/namopen.o
 .comment       0x000000000000002a       0x2b binaries/colon2mac.o
 .comment       0x000000000000002a       0x2b binaries/ethcontrol.o
 .comment       0x000000000000002a       0x2b binaries/ethhandler.o
 .comment       0x000000000000002a       0x2b binaries/ethinit.o
 .comment       0x000000000000002a       0x2b binaries/ethmcast.o
 .comment       0x000000000000002a       0x2b binaries/ethread.o
 .comment       0x000000000000002a       0x2b binaries/ethwrite.o
 .comment       0x000000000000002a       0x2b binaries/rdsbufalloc.o
 .comment       0x000000000000002a       0x2b binaries/rdsclose.o
 .comment       0x000000000000002a       0x2b binaries/rdscomm.o
 .comment       0x000000000000002a       0x2b binaries/rdscontrol.o
 .comment       0x000000000000002a       0x2b binaries/rdsinit.o
 .comment       0x000000000000002a       0x2b binaries/rdsopen.o
 .comment       0x000000000000002a       0x2b binaries/rdsprocess.o
 .comment       0x000000000000002a       0x2b binaries/rdsread.o
 .comment       0x000000000000002a       0x2b binaries/rdswrite.o
 .comment       0x000000000000002a       0x2b binaries/ramclose.o
 .comment       0x000000000000002a       0x2b binaries/raminit.o
 .comment       0x000000000000002a       0x2b binaries/ramopen.o
 .comment       0x000000000000002a       0x2b binaries/ramread.o
 .comment       0x000000000000002a       0x2b binaries/ramwrite.o
 .comment       0x000000000000002a       0x2b binaries/lfdballoc.o
 .comment       0x000000000000002a       0x2b binaries/lfdbfree.o
 .comment       0x000000000000002a       0x2b binaries/lfflush.o
 .comment       0x000000000000002a       0x2b binaries/lfgetmode.o
 .comment       0x000000000000002a       0x2b binaries/lfiballoc.o
 .comment       0x000000000000002a       0x2b binaries/lfibclear.o
 .comment       0x000000000000002a       0x2b binaries/lfibget.o
 .comment       0x000000000000002a       0x2b binaries/lfibput.o
 .comment       0x000000000000002a       0x2b binaries/lflclose.o
 .comment       0x000000000000002a       0x2b binaries/lflcontrol.o
 .comment       0x000000000000002a       0x2b binaries/lflgetc.o
 .comment       0x000000000000002a       0x2b binaries/lflinit.o
 .comment       0x000000000000002a       0x2b binaries/lflputc.o
 .comment       0x000000000000002a       0x2b binaries/lflread.o
 .comment       0x000000000000002a       0x2b binaries/lflseek.o
 .comment       0x000000000000002a       0x2b binaries/lflwrite.o
 .comment       0x000000000000002a       0x2b binaries/lfsckfmt.o
 .comment       0x000000000000002a       0x2b binaries/lfscreate.o
 .comment       0x000000000000002a       0x2b binaries/lfsetup.o
 .comment       0x000000000000002a       0x2b binaries/lfsinit.o
 .comment       0x000000000000002a       0x2b binaries/lfsopen.o
 .comment       0x000000000000002a       0x2b binaries/lftruncate.o
 .comment       0x000000000000002a       0x2b binaries/rflclose.o
 .comment       0x000000000000002a       0x2b binaries/rflgetc.o
 .comment       0x000000000000002a       0x2b binaries/rflinit.o
 .comment       0x000000000000002a       0x2b binaries/rflputc.o
 .comment       0x000000000000002a       0x2b binaries/rflread.o
 .comment       0x000000000000002a       0x2b binaries/rflseek.o
 .comment       0x000000000000002a       0x2b binaries/rflwrite.o
 .comment       0x000000000000002a       0x2b binaries/rfscomm.o
 .comment       0x000000000000002a       0x2b binaries/rfscontrol.o
 .comment       0x000000000000002a       0x2b binaries/rfsgetmode.o
 .comment       0x000000000000002a       0x2b binaries/rfsinit.o
 .comment       0x000000000000002a       0x2b binaries/rfsndmsg.o
 .comment       0x000000000000002a       0x2b binaries/rfsopen.o
 .comment       0x000000000000002a       0x2b binaries/arp.o
 .comment       0x000000000000002a       0x2b binaries/dhcp.o
 .comment       0x000000000000002a       0x2b binaries/dot2ip.o
 .comment       0x000000000000002a       0x2b binaries/hexdump.o
 .comment       0x000000000000002a       0x2b binaries/icmp.o
 .comment       0x000000000000002a       0x2b binaries/ip.o
 .comment       0x000000000000002a       0x2b binaries/net.o
 .comment       0x000000000000002a       0x2b binaries/netstart.o
 .comment       0x000000000000002a       0x2b binaries/pdump.o
 .comment       0x000000000000002a       0x2b binaries/tftp.o
 .comment       0x000000000000002a       0x2b binaries/udp.o
 .comment       0x000000000000002a       0x2b binaries/addargs.o
 .comment       0x000000000000002a       0x2b binaries/lexan.o
 .comment       0x000000000000002a       0x2b binaries/shell.o
 .comment       0x000000000000002a       0x2b binaries/xsh_argecho.o
 .comment       0x000000000000002a       0x2b binaries/xsh_arp.o
 .comment       0x000000000000002a       0x2b binaries/xsh_cat.o
 .comment       0x000000000000002a       0x2b binaries/xsh_clear.o
 .comment       0x000000000000002a       0x2b binaries/xsh_date.o
 .comment       0x000000000000002a       0x2b binaries/xsh_devdump.o
 .comment       0x000000000000002a       0x2b binaries/xsh_echo.o
 .comment       0x000000000000002a       0x2b binaries/xsh_exit.o
 .comment       0x000000000000002a       0x2b binaries/xsh_help.o
 .comment       0x000000000000002a       0x2b binaries/xsh_ipaddr.o
 .comment       0x000000000000002a       0x2b binaries/xsh_kill.o
 .comment       0x000000000000002a       0x2b binaries/xsh_memdump.o
 .comment       0x000000000000002a       0x2b binaries/xsh_memstat.o
 .comment       0x000000000000002a       0x2b binaries/xsh_ping.o
 .comment       0x000000000000002a       0x2b binaries/xsh_ps.o
 .comment       0x000000000000002a       0x2b binaries/xsh_sleep.o
 .comment       0x000000000000002a       0x2b binaries/xsh_udpdump.o
 .comment       0x000000000000002a       0x2b binaries/xsh_udpecho.o
 .comment       0x000000000000002a       0x2b binaries/xsh_udpeserver.o
 .comment       0x000000000000002a       0x2b binaries/xsh_uptime.o
 .comment       0x000000000000002a       0x2b binaries/host2netlc.o

.note.GNU-stack
                0x0000000000000000        0x0
 .note.GNU-stack
                0x0000000000000000        0x0 binaries/app1.o
 .note.GNU-stack
                0x0000000000000000        0x0 binaries/app2.o
 .note.GNU-stack
                0x0000000000000000        0x0 binaries/app3.o
 .note.GNU-stack
                0x0000000000000000        0x0 binaries/ascdate.o
 .note.GNU-stack
                0x0000000000000000        0x0 binaries/bufinit.o
 .note.GNU-stack
                0x0000000000000000        0x0 binaries/chprio.o
 .note.GNU-stack
                0x0000000000000000        0x0 binaries/clkhandler.o
 .note.GNU-stack
                0x0000000000000000        0x0 binaries/clkinit.o
 .note.GNU-stack
                0x0000000000000000        0x0 binaries/close.o
 .note.GNU-stack
                0x0000000000000000        0x0 binaries/conf.o
 .note.GNU-stack
                0x0000000000000000        0x0 binaries/control.o
 .note.GNU-stack
                0x0000000000000000        0x0 binaries/create.o
 .note.GNU-stack
                0x0000000000000000        0x0 binaries/early_imr.o
 .note.GNU-stack
                0x0000000000000000        0x0 binaries/evec.o
 .note.GNU-stack
                0x0000000000000000        0x0 binaries/factorial.o
 .note.GNU-stack
                0x0000000000000000        0x0 binaries/freebuf.o
 .note.GNU-stack
                0x0000000000000000        0x0 binaries/freemem.o
 .note.GNU-stack
                0x0000000000000000        0x0 binaries/getbuf.o
 .note.GNU-stack
                0x0000000000000000        0x0 binaries/getc.o
 .note.GNU-stack
                0x0000000000000000        0x0 binaries/getdev.o
 .note.GNU-stack
                0x0000000000000000        0x0 binaries/getitem.o
 .note.GNU-stack
                0x0000000000000000        0x0 binaries/getmem.o
 .note.GNU-stack
                0x0000000000000000        0x0 binaries/getpid.o
 .note.GNU-stack
                0x0000000000000000        0x0 binaries/getpname.o
 .note.GNU-stack
                0x0000000000000000        0x0 binaries/getppid.o
 .note.GNU-stack
                0x0000000000000000        0x0 binaries/getprio.o
 .note.GNU-stack
                0x0000000000000000        0x0 binaries/getstk.o
 .note.GNU-stack
                0x0000000000000000        0x0 binaries/gettime.o
 .note.GNU-stack
                0x0000000000000000        0x0 binaries/getutime.o
 .note.GNU-stack
                0x0000000000000000        0x0 binaries/host2netlb.o
 .note.GNU-stack
                0x0000000000000000        0x0 binaries/init.o
 .note.GNU-stack
                0x0000000000000000        0x0 binaries/initialize.o
 .note.GNU-stack
                0x0000000000000000        0x0 binaries/insert.o
 .note.GNU-stack
                0x0000000000000000        0x0 binaries/insertd.o
 .note.GNU-stack
                0x0000000000000000        0x0 binaries/ioerr.o
 .note.GNU-stack
                0x0000000000000000        0x0 binaries/ionull.o
 .note.GNU-stack
                0x0000000000000000        0x0 binaries/kill.o
 .note.GNU-stack
                0x0000000000000000        0x0 binaries/kprintf.o
 .note.GNU-stack
                0x0000000000000000        0x0 binaries/main.o
 .note.GNU-stack
                0x0000000000000000        0x0 binaries/mark.o
 .note.GNU-stack
                0x0000000000000000        0x0 binaries/meminit.o
 .note.GNU-stack
                0x0000000000000000        0x0 binaries/mkbufpool.o
 .note.GNU-stack
                0x0000000000000000        0x0 binaries/myappA.o
 .note.GNU-stack
                0x0000000000000000        0x0 binaries/myfuncA.o
 .note.GNU-stack
                0x0000000000000000        0x0 binaries/myhacker.o
 .note.GNU-stack
                0x0000000000000000        0x0 binaries/myvictim.o
 .note.GNU-stack
                0x0000000000000000        0x0 binaries/mywelcomemsg.o
 .note.GNU-stack
                0x0000000000000000        0x0 binaries/newqueue.o
 .note.GNU-stack
                0x0000000000000000        0x0 binaries/open.o
 .note.GNU-stack
                0x0000000000000000        0x0 binaries/panic.o
 .note.GNU-stack
                0x0000000000000000        0x0 binaries/pci.o
 .note.GNU-stack
                0x0000000000000000        0x0 binaries/platinit.o
 .note.GNU-stack
                0x0000000000000000        0x0 binaries/printsegaddr.o
 .note.GNU-stack
                0x0000000000000000        0x0 binaries/ptclear.o
 .note.GNU-stack
                0x0000000000000000        0x0 binaries/ptcount.o
 .note.GNU-stack
                0x0000000000000000        0x0 binaries/ptcreate.o
 .note.GNU-stack
                0x0000000000000000        0x0 binaries/ptdelete.o
 .note.GNU-stack
                0x0000000000000000        0x0 binaries/ptinit.o
 .note.GNU-stack
                0x0000000000000000        0x0 binaries/ptrecv.o
 .note.GNU-stack
                0x0000000000000000        0x0 binaries/ptreset.o
 .note.GNU-stack
                0x0000000000000000        0x0 binaries/ptsend.o
 .note.GNU-stack
                0x0000000000000000        0x0 binaries/putc.o
 .note.GNU-stack
                0x0000000000000000        0x0 binaries/quark_irq.o
 .note.GNU-stack
                0x0000000000000000        0x0 binaries/quark_pdat.o
 .note.GNU-stack
                0x0000000000000000        0x0 binaries/queue.o
 .note.GNU-stack
                0x0000000000000000        0x0 binaries/read.o
 .note.GNU-stack
                0x0000000000000000        0x0 binaries/ready.o
 .note.GNU-stack
                0x0000000000000000        0x0 binaries/receive.o
 .note.GNU-stack
                0x0000000000000000        0x0 binaries/recvclr.o
 .note.GNU-stack
                0x0000000000000000        0x0 binaries/recvtime.o
 .note.GNU-stack
                0x0000000000000000        0x0 binaries/resched.o
 .note.GNU-stack
                0x0000000000000000        0x0 binaries/resume.o
 .note.GNU-stack
                0x0000000000000000        0x0 binaries/seek.o
 .note.GNU-stack
                0x0000000000000000        0x0 binaries/semcount.o
 .note.GNU-stack
                0x0000000000000000        0x0 binaries/semcreate.o
 .note.GNU-stack
                0x0000000000000000        0x0 binaries/semdelete.o
 .note.GNU-stack
                0x0000000000000000        0x0 binaries/semreset.o
 .note.GNU-stack
                0x0000000000000000        0x0 binaries/send.o
 .note.GNU-stack
                0x0000000000000000        0x0 binaries/signal.o
 .note.GNU-stack
                0x0000000000000000        0x0 binaries/signaln.o
 .note.GNU-stack
                0x0000000000000000        0x0 binaries/sleep.o
 .note.GNU-stack
                0x0000000000000000        0x0 binaries/stackdepth.o
 .note.GNU-stack
                0x0000000000000000        0x0 binaries/stacktrace.o
 .note.GNU-stack
                0x0000000000000000        0x0 binaries/suspend.o
 .note.GNU-stack
                0x0000000000000000        0x0 binaries/teststackdepth.o
 .note.GNU-stack
                0x0000000000000000        0x0 binaries/unsleep.o
 .note.GNU-stack
                0x0000000000000000        0x0 binaries/userret.o
 .note.GNU-stack
                0x0000000000000000        0x0 binaries/wait.o
 .note.GNU-stack
                0x0000000000000000        0x0 binaries/wakeup.o
 .note.GNU-stack
                0x0000000000000000        0x0 binaries/write.o
 .note.GNU-stack
                0x0000000000000000        0x0 binaries/xdone.o
 .note.GNU-stack
                0x0000000000000000        0x0 binaries/yield.o
 .note.GNU-stack
                0x0000000000000000        0x0 binaries/abs.o
 .note.GNU-stack
                0x0000000000000000        0x0 binaries/atoi.o
 .note.GNU-stack
                0x0000000000000000        0x0 binaries/atol.o
 .note.GNU-stack
                0x0000000000000000        0x0 binaries/bzero.o
 .note.GNU-stack
                0x0000000000000000        0x0 binaries/ctype_.o
 .note.GNU-stack
                0x0000000000000000        0x0 binaries/doprnt.o
 .note.GNU-stack
                0x0000000000000000        0x0 binaries/doscan.o
 .note.GNU-stack
                0x0000000000000000        0x0 binaries/fdoprnt.o
 .note.GNU-stack
                0x0000000000000000        0x0 binaries/fgetc.o
 .note.GNU-stack
                0x0000000000000000        0x0 binaries/fgets.o
 .note.GNU-stack
                0x0000000000000000        0x0 binaries/fprintf.o
 .note.GNU-stack
                0x0000000000000000        0x0 binaries/fputc.o
 .note.GNU-stack
                0x0000000000000000        0x0 binaries/fputs.o
 .note.GNU-stack
                0x0000000000000000        0x0 binaries/fscanf.o
 .note.GNU-stack
                0x0000000000000000        0x0 binaries/getchar.o
 .note.GNU-stack
                0x0000000000000000        0x0 binaries/labs.o
 .note.GNU-stack
                0x0000000000000000        0x0 binaries/memchr.o
 .note.GNU-stack
                0x0000000000000000        0x0 binaries/memcmp.o
 .note.GNU-stack
                0x0000000000000000        0x0 binaries/memcpy.o
 .note.GNU-stack
                0x0000000000000000        0x0 binaries/memset.o
 .note.GNU-stack
                0x0000000000000000        0x0 binaries/printf.o
 .note.GNU-stack
                0x0000000000000000        0x0 binaries/putchar.o
 .note.GNU-stack
                0x0000000000000000        0x0 binaries/qsort.o
 .note.GNU-stack
                0x0000000000000000        0x0 binaries/rand.o
 .note.GNU-stack
                0x0000000000000000        0x0 binaries/sprintf.o
 .note.GNU-stack
                0x0000000000000000        0x0 binaries/sscanf.o
 .note.GNU-stack
                0x0000000000000000        0x0 binaries/strchr.o
 .note.GNU-stack
                0x0000000000000000        0x0 binaries/strcmp.o
 .note.GNU-stack
                0x0000000000000000        0x0 binaries/strcpy.o
 .note.GNU-stack
                0x0000000000000000        0x0 binaries/strlen.o
 .note.GNU-stack
                0x0000000000000000        0x0 binaries/strncat.o
 .note.GNU-stack
                0x0000000000000000        0x0 binaries/strncmp.o
 .note.GNU-stack
                0x0000000000000000        0x0 binaries/strncpy.o
 .note.GNU-stack
                0x0000000000000000        0x0 binaries/strnlen.o
 .note.GNU-stack
                0x0000000000000000        0x0 binaries/strrchr.o
 .note.GNU-stack
                0x0000000000000000        0x0 binaries/strstr.o
 .note.GNU-stack
                0x0000000000000000        0x0 binaries/ttycontrol.o
 .note.GNU-stack
                0x0000000000000000        0x0 binaries/ttygetc.o
 .note.GNU-stack
                0x0000000000000000        0x0 binaries/ttyhandle_in.o
 .note.GNU-stack
                0x0000000000000000        0x0 binaries/ttyhandle_out.o
 .note.GNU-stack
                0x0000000000000000        0x0 binaries/ttyhandler.o
 .note.GNU-stack
                0x0000000000000000        0x0 binaries/ttyinit.o
 .note.GNU-stack
                0x0000000000000000        0x0 binaries/ttykickout.o
 .note.GNU-stack
                0x0000000000000000        0x0 binaries/ttyputc.o
 .note.GNU-stack
                0x0000000000000000        0x0 binaries/ttyread.o
 .note.GNU-stack
                0x0000000000000000        0x0 binaries/ttywrite.o
 .note.GNU-stack
                0x0000000000000000        0x0 binaries/mount.o
 .note.GNU-stack
                0x0000000000000000        0x0 binaries/naminit.o
 .note.GNU-stack
                0x0000000000000000        0x0 binaries/nammap.o
 .note.GNU-stack
                0x0000000000000000        0x0 binaries/namopen.o
 .note.GNU-stack
                0x0000000000000000        0x0 binaries/colon2mac.o
 .note.GNU-stack
                0x0000000000000000        0x0 binaries/ethcontrol.o
 .note.GNU-stack
                0x0000000000000000        0x0 binaries/ethhandler.o
 .note.GNU-stack
                0x0000000000000000        0x0 binaries/ethinit.o
 .note.GNU-stack
                0x0000000000000000        0x0 binaries/ethmcast.o
 .note.GNU-stack
                0x0000000000000000        0x0 binaries/ethread.o
 .note.GNU-stack
                0x0000000000000000        0x0 binaries/ethwrite.o
 .note.GNU-stack
                0x0000000000000000        0x0 binaries/rdsbufalloc.o
 .note.GNU-stack
                0x0000000000000000        0x0 binaries/rdsclose.o
 .note.GNU-stack
                0x0000000000000000        0x0 binaries/rdscomm.o
 .note.GNU-stack
                0x0000000000000000        0x0 binaries/rdscontrol.o
 .note.GNU-stack
                0x0000000000000000        0x0 binaries/rdsinit.o
 .note.GNU-stack
                0x0000000000000000        0x0 binaries/rdsopen.o
 .note.GNU-stack
                0x0000000000000000        0x0 binaries/rdsprocess.o
 .note.GNU-stack
                0x0000000000000000        0x0 binaries/rdsread.o
 .note.GNU-stack
                0x0000000000000000        0x0 binaries/rdswrite.o
 .note.GNU-stack
                0x0000000000000000        0x0 binaries/ramclose.o
 .note.GNU-stack
                0x0000000000000000        0x0 binaries/raminit.o
 .note.GNU-stack
                0x0000000000000000        0x0 binaries/ramopen.o
 .note.GNU-stack
                0x0000000000000000        0x0 binaries/ramread.o
 .note.GNU-stack
                0x0000000000000000        0x0 binaries/ramwrite.o
 .note.GNU-stack
                0x0000000000000000        0x0 binaries/lfdballoc.o
 .note.GNU-stack
                0x0000000000000000        0x0 binaries/lfdbfree.o
 .note.GNU-stack
                0x0000000000000000        0x0 binaries/lfflush.o
 .note.GNU-stack
                0x0000000000000000        0x0 binaries/lfgetmode.o
 .note.GNU-stack
                0x0000000000000000        0x0 binaries/lfiballoc.o
 .note.GNU-stack
                0x0000000000000000        0x0 binaries/lfibclear.o
 .note.GNU-stack
                0x0000000000000000        0x0 binaries/lfibget.o
 .note.GNU-stack
                0x0000000000000000        0x0 binaries/lfibput.o
 .note.GNU-stack
                0x0000000000000000        0x0 binaries/lflclose.o
 .note.GNU-stack
                0x0000000000000000        0x0 binaries/lflcontrol.o
 .note.GNU-stack
                0x0000000000000000        0x0 binaries/lflgetc.o
 .note.GNU-stack
                0x0000000000000000        0x0 binaries/lflinit.o
 .note.GNU-stack
                0x0000000000000000        0x0 binaries/lflputc.o
 .note.GNU-stack
                0x0000000000000000        0x0 binaries/lflread.o
 .note.GNU-stack
                0x0000000000000000        0x0 binaries/lflseek.o
 .note.GNU-stack
                0x0000000000000000        0x0 binaries/lflwrite.o
 .note.GNU-stack
                0x0000000000000000        0x0 binaries/lfsckfmt.o
 .note.GNU-stack
                0x0000000000000000        0x0 binaries/lfscreate.o
 .note.GNU-stack
                0x0000000000000000        0x0 binaries/lfsetup.o
 .note.GNU-stack
                0x0000000000000000        0x0 binaries/lfsinit.o
 .note.GNU-stack
                0x0000000000000000        0x0 binaries/lfsopen.o
 .note.GNU-stack
                0x0000000000000000        0x0 binaries/lftruncate.o
 .note.GNU-stack
                0x0000000000000000        0x0 binaries/rflclose.o
 .note.GNU-stack
                0x0000000000000000        0x0 binaries/rflgetc.o
 .note.GNU-stack
                0x0000000000000000        0x0 binaries/rflinit.o
 .note.GNU-stack
                0x0000000000000000        0x0 binaries/rflputc.o
 .note.GNU-stack
                0x0000000000000000        0x0 binaries/rflread.o
 .note.GNU-stack
                0x0000000000000000        0x0 binaries/rflseek.o
 .note.GNU-stack
                0x0000000000000000        0x0 binaries/rflwrite.o
 .note.GNU-stack
                0x0000000000000000        0x0 binaries/rfscomm.o
 .note.GNU-stack
                0x0000000000000000        0x0 binaries/rfscontrol.o
 .note.GNU-stack
                0x0000000000000000        0x0 binaries/rfsgetmode.o
 .note.GNU-stack
                0x0000000000000000        0x0 binaries/rfsinit.o
 .note.GNU-stack
                0x0000000000000000        0x0 binaries/rfsndmsg.o
 .note.GNU-stack
                0x0000000000000000        0x0 binaries/rfsopen.o
 .note.GNU-stack
                0x0000000000000000        0x0 binaries/arp.o
 .note.GNU-stack
                0x0000000000000000        0x0 binaries/dhcp.o
 .note.GNU-stack
                0x0000000000000000        0x0 binaries/dot2ip.o
 .note.GNU-stack
                0x0000000000000000        0x0 binaries/hexdump.o
 .note.GNU-stack
                0x0000000000000000        0x0 binaries/icmp.o
 .note.GNU-stack
                0x0000000000000000        0x0 binaries/ip.o
 .note.GNU-stack
                0x0000000000000000        0x0 binaries/net.o
 .note.GNU-stack
                0x0000000000000000        0x0 binaries/netstart.o
 .note.GNU-stack
                0x0000000000000000        0x0 binaries/pdump.o
 .note.GNU-stack
                0x0000000000000000        0x0 binaries/tftp.o
 .note.GNU-stack
                0x0000000000000000        0x0 binaries/udp.o
 .note.GNU-stack
                0x0000000000000000        0x0 binaries/addargs.o
 .note.GNU-stack
                0x0000000000000000        0x0 binaries/lexan.o
 .note.GNU-stack
                0x0000000000000000        0x0 binaries/shell.o
 .note.GNU-stack
                0x0000000000000000        0x0 binaries/xsh_argecho.o
 .note.GNU-stack
                0x0000000000000000        0x0 binaries/xsh_arp.o
 .note.GNU-stack
                0x0000000000000000        0x0 binaries/xsh_cat.o
 .note.GNU-stack
                0x0000000000000000        0x0 binaries/xsh_clear.o
 .note.GNU-stack
                0x0000000000000000        0x0 binaries/xsh_date.o
 .note.GNU-stack
                0x0000000000000000        0x0 binaries/xsh_devdump.o
 .note.GNU-stack
                0x0000000000000000        0x0 binaries/xsh_echo.o
 .note.GNU-stack
                0x0000000000000000        0x0 binaries/xsh_exit.o
 .note.GNU-stack
                0x0000000000000000        0x0 binaries/xsh_help.o
 .note.GNU-stack
                0x0000000000000000        0x0 binaries/xsh_ipaddr.o
 .note.GNU-stack
                0x0000000000000000        0x0 binaries/xsh_kill.o
 .note.GNU-stack
                0x0000000000000000        0x0 binaries/xsh_memdump.o
 .note.GNU-stack
                0x0000000000000000        0x0 binaries/xsh_memstat.o
 .note.GNU-stack
                0x0000000000000000        0x0 binaries/xsh_ping.o
 .note.GNU-stack
                0x0000000000000000        0x0 binaries/xsh_ps.o
 .note.GNU-stack
                0x0000000000000000        0x0 binaries/xsh_sleep.o
 .note.GNU-stack
                0x0000000000000000        0x0 binaries/xsh_udpdump.o
 .note.GNU-stack
                0x0000000000000000        0x0 binaries/xsh_udpecho.o
 .note.GNU-stack
                0x0000000000000000        0x0 binaries/xsh_udpeserver.o
 .note.GNU-stack
                0x0000000000000000        0x0 binaries/xsh_uptime.o
 .note.GNU-stack
                0x0000000000000000        0x0 binaries/host2netlc.o
