
Allocating common symbols
Common symbol       size              file

netbufpool          0x4               binaries/net.o
readylist           0x2               binaries/ready.o
rfltab              0x5a0             binaries/rflinit.o
sleepq              0x2               binaries/clkinit.o
nnames              0x4               binaries/naminit.o
udptab              0x168             binaries/udp.o
minheap             0x4               binaries/meminit.o
marks               0x50              binaries/mark.o
currpid             0x4               binaries/initialize.o
Lf_data             0x20c             binaries/lfsinit.o
porttab             0x2d0             binaries/ptinit.o
girmask             0x2               binaries/evec.o
ttytab              0x10c             binaries/ttyinit.o
victimglobal        0x4               binaries/myhacker.o
proctab             0x1900            binaries/initialize.o
prcount             0x4               binaries/initialize.o
victimsRetAddress   0x4               binaries/myhacker.o
lfltab              0xf00             binaries/lflinit.o
rdstab              0x8c              binaries/rdsinit.o
ethertab            0x138             binaries/ethinit.o
NetData             0xa8              binaries/net.o
nmarks              0x4               binaries/mark.o
Defer               0x8               binaries/resched.o
semtab              0x4b0             binaries/initialize.o
maxheap             0x4               binaries/meminit.o
preempt             0x4               binaries/clkinit.o
buftab              0xf0              binaries/bufinit.o
Rf_data             0x18              binaries/rfsinit.o
mkmutex             0x4               binaries/mark.o
clktimemsec         0x4               binaries/clkinit.o
clktime             0x4               binaries/clkinit.o
arpcache            0x140             binaries/arp.o
icmptab             0x230             binaries/icmp.o
nbpools             0x4               binaries/bufinit.o
queuetab            0x980             binaries/queue.o
ptnextid            0x4               binaries/ptinit.o
Ram                 0x19000           binaries/raminit.o
ipoqueue            0x2c              binaries/ip.o
memlist             0x8               binaries/initialize.o
nametab             0x19a0            binaries/naminit.o
ptfree              0x4               binaries/ptinit.o

Memory Configuration

Name             Origin             Length             Attributes
*default*        0x0000000000000000 0xffffffffffffffff

Linker script and memory map

                0x0000000000100000                physbase = 0x100000
                0x0000000000100000                . = physbase
                0x0000000000100000                . = ALIGN (0x1000)

.text           0x0000000000100000    0x16000
                0x0000000000100000                text = ABSOLUTE (.)
 *(.text .text.*)
 .text          0x0000000000100000      0x1ac binaries/start.o
                0x0000000000100028                start
                0x00000000001000fa                inb
                0x0000000000100102                inw
                0x000000000010010b                inl
                0x0000000000100113                outb
                0x000000000010011d                outw
                0x0000000000100128                outl
                0x0000000000100132                _rtcin
                0x000000000010013d                ___udivsi3
                0x0000000000100148                ___divsi3
                0x0000000000100154                sbzero
                0x0000000000100164                bcopy
                0x0000000000100178                insw
                0x000000000010018e                outsw
                0x00000000001001a4                lidt
 .text          0x00000000001001ac       0x35 binaries/app1.o
                0x00000000001001ac                app1
 .text          0x00000000001001e1       0x8f binaries/app2.o
                0x00000000001001e1                app2
 .text          0x0000000000100270       0x67 binaries/app3.o
                0x0000000000100270                app3
 .text          0x00000000001002d7      0x2b9 binaries/ascdate.o
                0x00000000001002d7                ascdate
 .text          0x0000000000100590       0x14 binaries/bufinit.o
                0x0000000000100590                bufinit
 .text          0x00000000001005a4       0x62 binaries/chprio.o
                0x00000000001005a4                chprio
 .text          0x0000000000100606       0x90 binaries/clkhandler.o
                0x0000000000100606                clkhandler
 .text          0x0000000000100696       0x67 binaries/clkinit.o
                0x0000000000100696                clkinit
 .text          0x00000000001006fd       0x56 binaries/close.o
                0x00000000001006fd                close
 .text          0x0000000000100753        0x0 binaries/conf.o
 .text          0x0000000000100753       0x5c binaries/control.o
                0x0000000000100753                control
 .text          0x00000000001007af      0x115 binaries/cpubound.o
                0x00000000001007af                cpubound
 .text          0x00000000001008c4      0x233 binaries/create.o
                0x00000000001008c4                create
 .text          0x0000000000100af7      0x20e binaries/early_imr.o
                0x0000000000100af7                intel_cln_early_sb_read_reg
                0x0000000000100b4e                intel_cln_early_sb_write_reg
                0x0000000000100c08                remove_irm_protections
 .text          0x0000000000100d05      0x2e2 binaries/evec.o
                0x0000000000100d05                setirmask
                0x0000000000100d3d                set_evec
                0x0000000000100d98                initevec
                0x0000000000100e6a                trap
 .text          0x0000000000100fe7       0x30 binaries/factorial.o
                0x0000000000100fe7                factorial
 .text          0x0000000000101017       0x7f binaries/freebuf.o
                0x0000000000101017                freebuf
 .text          0x0000000000101096      0x108 binaries/freemem.o
                0x0000000000101096                freemem
 .text          0x000000000010119e       0x6e binaries/getbuf.o
                0x000000000010119e                getbuf
 .text          0x000000000010120c       0x56 binaries/getc.o
                0x000000000010120c                getc
 .text          0x0000000000101262       0x69 binaries/getdev.o
                0x0000000000101262                getdev
 .text          0x00000000001012cb       0x82 binaries/getitem.o
                0x00000000001012cb                getitem
                0x00000000001012fa                getfirst
                0x0000000000101321                getlast
 .text          0x000000000010134d       0xc2 binaries/getmem.o
                0x000000000010134d                getmem
 .text          0x000000000010140f        0xa binaries/getpid.o
                0x000000000010140f                getpid
 .text          0x0000000000101419       0x10 binaries/getpname.o
                0x0000000000101419                getpname
 .text          0x0000000000101429       0x13 binaries/getppid.o
                0x0000000000101429                getppid
 .text          0x000000000010143c       0x54 binaries/getprio.o
                0x000000000010143c                getprio
 .text          0x0000000000101490       0xac binaries/getstk.o
                0x0000000000101490                getstk
 .text          0x000000000010153c       0x32 binaries/gettime.o
                0x000000000010153c                gettime
 .text          0x000000000010156e      0x186 binaries/getutime.o
                0x000000000010156e                getutime
 .text          0x00000000001016f4       0x10 binaries/host2netlb.o
                0x00000000001016f4                host2netlb
 .text          0x0000000000101704       0x56 binaries/init.o
                0x0000000000101704                init
 .text          0x000000000010175a      0x299 binaries/initialize.o
                0x000000000010175a                nulluser
                0x00000000001019a9                stop
                0x00000000001019cd                delay
 .text          0x00000000001019f3       0xf2 binaries/insert.o
                0x00000000001019f3                insert
 .text          0x0000000000101ae5       0xe8 binaries/insertd.o
                0x0000000000101ae5                insertd
 .text          0x0000000000101bcd       0xb2 binaries/iobound.o
                0x0000000000101bcd                iobound
 .text          0x0000000000101c7f        0xa binaries/ioerr.o
                0x0000000000101c7f                ioerr
 .text          0x0000000000101c89        0xa binaries/ionull.o
                0x0000000000101c89                ionull
 .text          0x0000000000101c93      0x161 binaries/kill.o
                0x0000000000101c93                kill
 .text          0x0000000000101df4       0xa9 binaries/kprintf.o
                0x0000000000101df4                kputc
                0x0000000000101e26                console_init
                0x0000000000101e59                kgetc
                0x0000000000101e7f                kprintf
 .text          0x0000000000101e9d      0x3af binaries/lab2q3.o
                0x0000000000101e9d                workerProcessTypeA
                0x0000000000101ea2                workerProcessTypeB
                0x0000000000101ebf                monitorProcess
                0x0000000000101f32                lab2q3t1
                0x0000000000101f91                lab2q3t2
                0x000000000010207a                lab2q3t3
                0x0000000000102163                lab2q3t4
 .text          0x000000000010224c      0x2bb binaries/lab2q4.o
                0x000000000010224c                lab2q4t1
                0x0000000000102335                lab2q4t2
                0x000000000010241e                lab2q4t3
 .text          0x0000000000102507      0x31a binaries/main.o
                0x0000000000102507                main
 .text          0x0000000000102821       0x99 binaries/mark.o
                0x0000000000102821                markinit
                0x0000000000102842                mark
 .text          0x00000000001028ba      0x1ff binaries/meminit.o
                0x00000000001028ba                meminit
                0x0000000000102a49                setsegs
 .text          0x0000000000102ab9      0x122 binaries/mkbufpool.o
                0x0000000000102ab9                mkbufpool
 .text          0x0000000000102bdb       0x9c binaries/myappA.o
                0x0000000000102bdb                myappA
 .text          0x0000000000102c77       0x23 binaries/myfuncA.o
                0x0000000000102c77                myfuncA
 .text          0x0000000000102c9a       0x83 binaries/myhacker.o
                0x0000000000102c9a                myhackermalware
                0x0000000000102cc6                getretaddrbydepth
                0x0000000000102cf4                myhacker
 .text          0x0000000000102d1d       0x9b binaries/myvictim.o
                0x0000000000102d1d                makevictimsleep
                0x0000000000102d48                invokevictimsleep
                0x0000000000102d73                myvictim
 .text          0x0000000000102db8       0x5f binaries/mywelcomemsg.o
                0x0000000000102db8                mywelcomemsg
 .text          0x0000000000102e17       0x63 binaries/newqueue.o
                0x0000000000102e17                newqueue
 .text          0x0000000000102e7a       0x5c binaries/open.o
                0x0000000000102e7a                open
 .text          0x0000000000102ed6       0x20 binaries/panic.o
                0x0000000000102ed6                panic
 .text          0x0000000000102ef6      0x282 binaries/pci.o
                0x0000000000102ef6                pci_init
                0x0000000000102f00                find_pci_device
                0x0000000000102fbf                pci_read_config_byte
                0x0000000000102ffd                pci_read_config_word
                0x000000000010303d                pci_read_config_dword
                0x000000000010307b                pci_write_config_byte
                0x00000000001030b7                pci_write_config_word
                0x00000000001030f4                pci_write_config_dword
                0x0000000000103130                pci_get_dev_mmio_base_addr
 .text          0x0000000000103178       0x50 binaries/platinit.o
                0x0000000000103178                platinit
 .text          0x00000000001031c8       0xa7 binaries/printsegaddr.o
                0x00000000001031c8                printsegaddr
 .text          0x000000000010326f      0x174 binaries/process_state.o
                0x000000000010326f                process_state
 .text          0x00000000001033e3       0xa9 binaries/ptclear.o
                0x00000000001033e3                _ptclear
 .text          0x000000000010348c       0x85 binaries/ptcount.o
                0x000000000010348c                ptcount
 .text          0x0000000000103511       0xfe binaries/ptcreate.o
                0x0000000000103511                ptcreate
 .text          0x000000000010360f       0x63 binaries/ptdelete.o
                0x000000000010360f                ptdelete
 .text          0x0000000000103672       0x91 binaries/ptinit.o
                0x0000000000103672                ptinit
 .text          0x0000000000103703       0xf5 binaries/ptrecv.o
                0x0000000000103703                ptrecv
 .text          0x00000000001037f8       0x66 binaries/ptreset.o
                0x00000000001037f8                ptreset
 .text          0x000000000010385e      0x115 binaries/ptsend.o
                0x000000000010385e                ptsend
 .text          0x0000000000103973       0x64 binaries/putc.o
                0x0000000000103973                putc
 .text          0x00000000001039d7       0xb3 binaries/quark_irq.o
                0x00000000001039d7                quark_irq_routing
 .text          0x0000000000103a8a      0x19a binaries/quark_pdat.o
                0x0000000000103a8a                get_quark_pdat_entry_data_by_id
                0x0000000000103b54                get_quark_pdat_entry_data_by_desc
 .text          0x0000000000103c24       0xae binaries/queue.o
                0x0000000000103c24                enqueue
                0x0000000000103c87                dequeue
 .text          0x0000000000103cd2       0x5c binaries/read.o
                0x0000000000103cd2                read
 .text          0x0000000000103d2e       0x90 binaries/ready.o
                0x0000000000103d2e                ready
 .text          0x0000000000103dbe       0x5a binaries/receive.o
                0x0000000000103dbe                receive
 .text          0x0000000000103e18       0x42 binaries/recvclr.o
                0x0000000000103e18                recvclr
 .text          0x0000000000103e5a       0xad binaries/recvtime.o
                0x0000000000103e5a                recvtime
 .text          0x0000000000103f07      0x1d5 binaries/resched.o
                0x0000000000103f07                resched
                0x000000000010406a                resched_cntl
 .text          0x00000000001040dc       0x7e binaries/resume.o
                0x00000000001040dc                resume
 .text          0x000000000010415a       0x59 binaries/seek.o
                0x000000000010415a                seek
 .text          0x00000000001041b3       0x51 binaries/semcount.o
                0x00000000001041b3                semcount
 .text          0x0000000000104204       0x93 binaries/semcreate.o
                0x0000000000104204                semcreate
 .text          0x0000000000104297       0xd1 binaries/semdelete.o
                0x0000000000104297                semdelete
 .text          0x0000000000104368       0xa8 binaries/semreset.o
                0x0000000000104368                semreset
 .text          0x0000000000104410       0xb3 binaries/send.o
                0x0000000000104410                send
 .text          0x00000000001044c3       0x95 binaries/signal.o
                0x00000000001044c3                signal
 .text          0x0000000000104558       0xc2 binaries/signaln.o
                0x0000000000104558                signaln
 .text          0x000000000010461a       0xbd binaries/sleep.o
                0x000000000010461a                sleepms
                0x00000000001046a1                sleep
 .text          0x00000000001046d7       0x94 binaries/stackdepth.o
                0x00000000001046d7                stackdepth
 .text          0x000000000010476b      0x17c binaries/stacktrace.o
                0x000000000010476b                stacktrace
 .text          0x00000000001048e7       0xac binaries/suspend.o
                0x00000000001048e7                suspend
 .text          0x0000000000104993       0x27 binaries/teststackdepth.o
                0x0000000000104993                teststackdepth
 .text          0x00000000001049ba       0x91 binaries/unsleep.o
                0x00000000001049ba                unsleep
 .text          0x0000000000104a4b       0x19 binaries/userret.o
                0x0000000000104a4b                userret
 .text          0x0000000000104a64       0xac binaries/wait.o
                0x0000000000104a64                wait
 .text          0x0000000000104b10       0x71 binaries/wakeup.o
                0x0000000000104b10                wakeup
 .text          0x0000000000104b81       0x5c binaries/write.o
                0x0000000000104b81                write
 .text          0x0000000000104bdd       0x1a binaries/xdone.o
                0x0000000000104bdd                xdone
 .text          0x0000000000104bf7       0x26 binaries/yield.o
                0x0000000000104bf7                yield
 .text          0x0000000000104c1d       0x11 binaries/abs.o
                0x0000000000104c1d                abs
 .text          0x0000000000104c2e       0x84 binaries/atoi.o
                0x0000000000104c2e                atoi
 .text          0x0000000000104cb2       0x84 binaries/atol.o
                0x0000000000104cb2                atol
 .text          0x0000000000104d36       0x1a binaries/bzero.o
                0x0000000000104d36                bzero
 .text          0x0000000000104d50        0x0 binaries/ctype_.o
 .text          0x0000000000104d50      0x6bf binaries/doprnt.o
                0x0000000000104ea3                _doprnt
 .text          0x000000000010540f      0x5f2 binaries/doscan.o
                0x000000000010540f                _doscan
 .text          0x0000000000105a01      0x64e binaries/fdoprnt.o
                0x0000000000105a86                _fdoprnt
 .text          0x000000000010604f       0x1c binaries/fgetc.o
                0x000000000010604f                fgetc
 .text          0x000000000010606b       0x61 binaries/fgets.o
                0x000000000010606b                fgets
 .text          0x00000000001060cc       0x21 binaries/fprintf.o
                0x00000000001060cc                fprintf
 .text          0x00000000001060ed       0x27 binaries/fputc.o
                0x00000000001060ed                fputc
 .text          0x0000000000106114       0x3a binaries/fputs.o
                0x0000000000106114                fputs
 .text          0x000000000010614e       0x6a binaries/fscanf.o
                0x000000000010618c                fscanf
 .text          0x00000000001061b8       0x1d binaries/getchar.o
                0x00000000001061b8                getchar
 .text          0x00000000001061d5       0x11 binaries/labs.o
                0x00000000001061d5                labs
 .text          0x00000000001061e6       0x36 binaries/memchr.o
                0x00000000001061e6                memchr
 .text          0x000000000010621c       0x4a binaries/memcmp.o
                0x000000000010621c                memcmp
 .text          0x0000000000106266       0x26 binaries/memcpy.o
                0x0000000000106266                memcpy
 .text          0x000000000010628c       0x1f binaries/memset.o
                0x000000000010628c                memset
 .text          0x00000000001062ab       0x2e binaries/printf.o
                0x00000000001062ab                printf
 .text          0x00000000001062d9       0x20 binaries/putchar.o
                0x00000000001062d9                putchar
 .text          0x00000000001062f9      0x1cc binaries/qsort.o
                0x000000000010649d                qsort
 .text          0x00000000001064c5       0x4c binaries/rand.o
                0x00000000001064c5                srand
                0x00000000001064d2                rand
 .text          0x0000000000106511       0x48 binaries/sprintf.o
                0x000000000010652a                sprintf
 .text          0x0000000000106559       0x5a binaries/sscanf.o
                0x0000000000106589                sscanf
 .text          0x00000000001065b3       0x2f binaries/strchr.o
                0x00000000001065b3                strchr
 .text          0x00000000001065e2       0x45 binaries/strcmp.o
                0x00000000001065e2                strcmp
 .text          0x0000000000106627       0x1c binaries/strcpy.o
                0x0000000000106627                strcpy
 .text          0x0000000000106643       0x20 binaries/strlen.o
                0x0000000000106643                strlen
 .text          0x0000000000106663       0x3d binaries/strncat.o
                0x0000000000106663                strncat
 .text          0x00000000001066a0       0x3b binaries/strncmp.o
                0x00000000001066a0                strncmp
 .text          0x00000000001066db       0x59 binaries/strncpy.o
                0x00000000001066db                strncpy
 .text          0x0000000000106734       0x38 binaries/strnlen.o
                0x0000000000106734                strnlen
 .text          0x000000000010676c       0x32 binaries/strrchr.o
                0x000000000010676c                strrchr
 .text          0x000000000010679e       0x68 binaries/strstr.o
                0x000000000010679e                strstr
 .text          0x0000000000106806      0x112 binaries/ttycontrol.o
                0x0000000000106806                ttycontrol
 .text          0x0000000000106918       0xb0 binaries/ttygetc.o
                0x0000000000106918                ttygetc
 .text          0x00000000001069c8      0x4a3 binaries/ttyhandle_in.o
                0x0000000000106a8c                ttyhandle_in
 .text          0x0000000000106e6b      0x178 binaries/ttyhandle_out.o
                0x0000000000106e6b                ttyhandle_out
 .text          0x0000000000106fe3       0x85 binaries/ttyhandler.o
                0x0000000000106fe3                ttyhandler
 .text          0x0000000000107068      0x15d binaries/ttyinit.o
                0x0000000000107068                ttyinit
 .text          0x00000000001071c5        0xf binaries/ttykickout.o
                0x00000000001071c5                ttykickout
 .text          0x00000000001071d4       0xb2 binaries/ttyputc.o
                0x00000000001071d4                ttyputc
 .text          0x0000000000107286       0xff binaries/ttyread.o
                0x0000000000107286                ttyread
 .text          0x0000000000107385       0x4d binaries/ttywrite.o
                0x0000000000107385                ttywrite
 .text          0x00000000001073d2      0x129 binaries/mount.o
                0x00000000001073d2                namlen
                0x000000000010740e                mount
 .text          0x00000000001074fb      0x1c4 binaries/naminit.o
                0x00000000001074fb                naminit
 .text          0x00000000001076bf      0x1fe binaries/nammap.o
                0x00000000001076bf                namrepl
                0x00000000001077e2                namcpy
                0x0000000000107830                nammap
 .text          0x00000000001078bd       0x44 binaries/namopen.o
                0x00000000001078bd                namopen
 .text          0x0000000000107901       0xd4 binaries/colon2mac.o
                0x0000000000107901                colon2mac
 .text          0x00000000001079d5       0x7d binaries/ethcontrol.o
                0x00000000001079d5                ethcontrol
 .text          0x0000000000107a52      0x17e binaries/ethhandler.o
                0x0000000000107a52                ethhandler
 .text          0x0000000000107bd0      0x548 binaries/ethinit.o
                0x0000000000107bd0                eth_phy_read
                0x0000000000107c10                eth_phy_write
                0x0000000000107c51                eth_phy_reset
                0x0000000000107d2b                ethinit
 .text          0x0000000000108118      0x107 binaries/ethmcast.o
                0x0000000000108118                ethmcast_add
                0x0000000000108164                ethmcast_remove
 .text          0x000000000010821f      0x172 binaries/ethread.o
                0x000000000010821f                ethread
 .text          0x0000000000108391       0xc1 binaries/ethwrite.o
                0x0000000000108391                ethwrite
 .text          0x0000000000108452       0x68 binaries/rdsbufalloc.o
                0x0000000000108452                rdsbufalloc
 .text          0x00000000001084ba       0xd6 binaries/rdsclose.o
                0x00000000001084ba                rdsclose
 .text          0x0000000000108590      0x1df binaries/rdscomm.o
                0x0000000000108590                rdscomm
 .text          0x000000000010876f      0x1c4 binaries/rdscontrol.o
                0x000000000010876f                rdscontrol
 .text          0x0000000000108933      0x1f7 binaries/rdsinit.o
                0x0000000000108933                rdsinit
 .text          0x0000000000108b2a      0x199 binaries/rdsopen.o
                0x0000000000108b2a                rdsopen
 .text          0x0000000000108cc3      0x2c5 binaries/rdsprocess.o
                0x0000000000108cc3                rdsprocess
 .text          0x0000000000108f88      0x1d8 binaries/rdsread.o
                0x0000000000108f88                rdsread
 .text          0x0000000000109160      0x1ae binaries/rdswrite.o
                0x0000000000109160                rdswrite
 .text          0x000000000010930e        0xa binaries/ramclose.o
                0x000000000010930e                ramclose
 .text          0x0000000000109318       0x35 binaries/raminit.o
                0x0000000000109318                raminit
 .text          0x000000000010934d        0xa binaries/ramopen.o
                0x000000000010934d                ramopen
 .text          0x0000000000109357       0x26 binaries/ramread.o
                0x0000000000109357                ramread
 .text          0x000000000010937d       0x26 binaries/ramwrite.o
                0x000000000010937d                ramwrite
 .text          0x00000000001093a3       0x87 binaries/lfdballoc.o
                0x00000000001093a3                lfdballoc
 .text          0x000000000010942a       0x49 binaries/lfdbfree.o
                0x000000000010942a                lfdbfree
 .text          0x0000000000109473       0xa1 binaries/lfflush.o
                0x0000000000109473                lfflush
 .text          0x0000000000109514       0x82 binaries/lfgetmode.o
                0x0000000000109514                lfgetmode
 .text          0x0000000000109596       0x60 binaries/lfiballoc.o
                0x0000000000109596                lfiballoc
 .text          0x00000000001095f6       0x27 binaries/lfibclear.o
                0x00000000001095f6                lfibclear
 .text          0x000000000010961d       0x6c binaries/lfibget.o
                0x000000000010961d                lfibget
 .text          0x0000000000109689       0x88 binaries/lfibput.o
                0x0000000000109689                lfibput
 .text          0x0000000000109711       0xa4 binaries/lflclose.o
                0x0000000000109711                lflclose
 .text          0x00000000001097b5       0xc2 binaries/lflcontrol.o
                0x00000000001097b5                lflcontrol
 .text          0x0000000000109877       0xfd binaries/lflgetc.o
                0x0000000000109877                lflgetc
 .text          0x0000000000109974       0xe7 binaries/lflinit.o
                0x0000000000109974                lflinit
 .text          0x0000000000109a5b      0x12f binaries/lflputc.o
                0x0000000000109a5b                lflputc
 .text          0x0000000000109b8a       0x6b binaries/lflread.o
                0x0000000000109b8a                lflread
 .text          0x0000000000109bf5       0xbd binaries/lflseek.o
                0x0000000000109bf5                lflseek
 .text          0x0000000000109cb2       0x52 binaries/lflwrite.o
                0x0000000000109cb2                lflwrite
 .text          0x0000000000109d04      0x114 binaries/lfsckfmt.o
                0x0000000000109d04                lfsckfmt
 .text          0x0000000000109e18      0x1e6 binaries/lfscreate.o
                0x0000000000109e18                lfscreate
 .text          0x0000000000109ffe      0x1b1 binaries/lfsetup.o
                0x0000000000109ffe                lfsetup
 .text          0x000000000010a1af       0x45 binaries/lfsinit.o
                0x000000000010a1af                lfsinit
 .text          0x000000000010a1f4      0x302 binaries/lfsopen.o
                0x000000000010a1f4                lfsopen
 .text          0x000000000010a4f6      0x112 binaries/lftruncate.o
                0x000000000010a4f6                lftruncate
 .text          0x000000000010a608       0x69 binaries/rflclose.o
                0x000000000010a608                rflclose
 .text          0x000000000010a671       0x29 binaries/rflgetc.o
                0x000000000010a671                rflgetc
 .text          0x000000000010a69a       0x6c binaries/rflinit.o
                0x000000000010a69a                rflinit
 .text          0x000000000010a706       0x29 binaries/rflputc.o
                0x000000000010a706                rflputc
 .text          0x000000000010a72f      0x2b6 binaries/rflread.o
                0x000000000010a72f                rflread
 .text          0x000000000010a9e5       0x68 binaries/rflseek.o
                0x000000000010a9e5                rflseek
 .text          0x000000000010aa4d      0x2fa binaries/rflwrite.o
                0x000000000010aa4d                rflwrite
 .text          0x000000000010ad47      0x17d binaries/rfscomm.o
                0x000000000010ad47                rfscomm
 .text          0x000000000010aec4      0x22b binaries/rfscontrol.o
                0x000000000010aec4                rfscontrol
 .text          0x000000000010b0ef       0x82 binaries/rfsgetmode.o
                0x000000000010b0ef                rfsgetmode
 .text          0x000000000010b171       0x7e binaries/rfsinit.o
                0x000000000010b171                rfsinit
 .text          0x000000000010b1ef       0xad binaries/rfsndmsg.o
                0x000000000010b1ef                rfsndmsg
 .text          0x000000000010b29c      0x243 binaries/rfsopen.o
                0x000000000010b29c                rfsopen
 .text          0x000000000010b4df      0x626 binaries/arp.o
                0x000000000010b4df                arp_init
                0x000000000010b4fb                arp_alloc
                0x000000000010b5a2                arp_ntoh
                0x000000000010b60f                arp_hton
                0x000000000010b67c                arp_resolve
                0x000000000010b8cd                arp_in
 .text          0x000000000010bb05      0x5ed binaries/dhcp.o
                0x000000000010bb05                dhcp_get_opt_val
                0x000000000010bb59                dhcp_bld_bootp_msg
                0x000000000010bc2b                dhcp_bld_disc
                0x000000000010bc7d                dhcp_bld_req
                0x000000000010bd18                getlocalip
 .text          0x000000000010c0f2       0xda binaries/dot2ip.o
                0x000000000010c0f2                dot2ip
 .text          0x000000000010c1cc      0x38c binaries/hexdump.o
                0x000000000010c1cc                hexdump
                0x000000000010c326                hexadump
 .text          0x000000000010c558      0x6f6 binaries/icmp.o
                0x000000000010c558                icmp_init
                0x000000000010c574                icmp_register
                0x000000000010c632                icmp_recv
                0x000000000010c7d5                icmp_mkpkt
                0x000000000010c8a2                icmp_in
                0x000000000010ca3c                icmp_send
                0x000000000010caab                icmp_release
                0x000000000010cbc6                icmp_cksum
                0x000000000010cc20                icmp_hton
                0x000000000010cc37                icmp_ntoh
 .text          0x000000000010cc4e      0x5e2 binaries/ip.o
                0x000000000010cc4e                ip_local
                0x000000000010cc8e                ipcksum
                0x000000000010cce4                ip_ntoh
                0x000000000010cd51                ip_in
                0x000000000010ce76                ip_hton
                0x000000000010cee3                ip_out
                0x000000000010cf99                ip_send
                0x000000000010d0a4                ipout
                0x000000000010d197                ip_enqueue
 .text          0x000000000010d230      0x1b2 binaries/net.o
                0x000000000010d230                net_init
                0x000000000010d327                eth_hton
                0x000000000010d334                eth_ntoh
                0x000000000010d341                netin
 .text          0x000000000010d3e2       0xb9 binaries/netstart.o
                0x000000000010d3e2                netstart
 .text          0x000000000010d49b      0xa30 binaries/pdump.o
                0x000000000010d49b                pdump
                0x000000000010da80                pdumph
 .text          0x000000000010decb      0x5b8 binaries/tftp.o
                0x000000000010decb                tftp_send1
                0x000000000010dfdf                tftpget_mb
                0x000000000010e460                tftpget
 .text          0x000000000010e483      0xa17 binaries/udp.o
                0x000000000010e483                udp_init
                0x000000000010e4c4                udp_in
                0x000000000010e5ed                udp_register
                0x000000000010e6fe                udp_recv
                0x000000000010e897                udp_recvaddr
                0x000000000010ea44                udp_send
                0x000000000010ebf2                udp_sendto
                0x000000000010ed5b                udp_release
                0x000000000010ee6c                udp_ntoh
                0x000000000010ee83                udp_hton
 .text          0x000000000010ee9a      0x10e binaries/addargs.o
                0x000000000010ee9a                addargs
 .text          0x000000000010efa8      0x1db binaries/lexan.o
                0x000000000010efa8                lexan
 .text          0x000000000010f183      0x657 binaries/shell.o
                0x000000000010f183                shell
 .text          0x000000000010f7da       0x59 binaries/xsh_argecho.o
                0x000000000010f7da                xsh_argecho
 .text          0x000000000010f833      0x1fb binaries/xsh_arp.o
                0x000000000010f833                xsh_arp
 .text          0x000000000010fa2e      0x1db binaries/xsh_cat.o
                0x000000000010fa2e                xsh_cat
 .text          0x000000000010fc09       0x4f binaries/xsh_clear.o
                0x000000000010fc09                xsh_clear
 .text          0x000000000010fc58      0x278 binaries/xsh_date.o
                0x000000000010fc58                xsh_date
 .text          0x000000000010fed0       0x80 binaries/xsh_devdump.o
                0x000000000010fed0                xsh_devdump
 .text          0x000000000010ff50       0x63 binaries/xsh_echo.o
                0x000000000010ff50                xsh_echo
 .text          0x000000000010ffb3        0xa binaries/xsh_exit.o
                0x000000000010ffb3                xsh_exit
 .text          0x000000000010ffbd      0x323 binaries/xsh_help.o
                0x000000000010ffbd                xsh_help
 .text          0x00000000001102e0      0x367 binaries/xsh_ipaddr.o
                0x00000000001102e0                xsh_ipaddr
 .text          0x0000000000110647      0x1aa binaries/xsh_kill.o
                0x0000000000110647                xsh_kill
 .text          0x00000000001107f1      0x3bd binaries/xsh_memdump.o
                0x00000000001108b7                xsh_memdump
 .text          0x0000000000110bae      0x1cc binaries/xsh_memstat.o
                0x0000000000110bae                xsh_memstat
 .text          0x0000000000110d7a      0x27f binaries/xsh_ping.o
                0x0000000000110d7a                xsh_ping
 .text          0x0000000000110ff9      0x1a9 binaries/xsh_ps.o
                0x0000000000110ff9                xsh_ps
 .text          0x00000000001111a2      0x1a3 binaries/xsh_sleep.o
                0x00000000001111a2                xsh_sleep
 .text          0x0000000000111345      0x1c3 binaries/xsh_udpdump.o
                0x0000000000111345                xsh_udpdump
 .text          0x0000000000111508      0x3ad binaries/xsh_udpecho.o
                0x0000000000111508                xsh_udpecho
 .text          0x00000000001118b5      0x1fc binaries/xsh_udpeserver.o
                0x00000000001118b5                xsh_udpeserver
 .text          0x0000000000111ab1      0x1b0 binaries/xsh_uptime.o
                0x0000000000111ab1                xsh_uptime
 .text          0x0000000000111c61        0xe binaries/clkdisp.o
                0x0000000000111c61                clkdisp
 .text          0x0000000000111c6f       0x19 binaries/ctxsw.o
                0x0000000000111c6f                ctxsw
 .text          0x0000000000111c88        0xa binaries/host2netla.o
                0x0000000000111c88                host2netla
 *fill*         0x0000000000111c92        0xe 
 .text          0x0000000000111ca0       0x25 binaries/host2netlc.o
                0x0000000000111ca0                host2netlc
 .text.unlikely
                0x0000000000111cc5        0x0 binaries/host2netlc.o
 .text          0x0000000000111cc5      0x376 binaries/intr.o
                0x0000000000111cc5                disable
                0x0000000000111cce                restore
                0x0000000000111cdc                enable
                0x0000000000111cde                pause
                0x0000000000111ce5                idle
                0x0000000000111cf0                halt
                0x0000000000111cf6                spurious_irq7
                0x0000000000111cfb                spurious_irq15
                0x0000000000111d0a                _Xint0
                0x0000000000111d15                _Xint1
                0x0000000000111d20                _Xint2
                0x0000000000111d2b                _Xint3
                0x0000000000111d36                _Xint4
                0x0000000000111d41                _Xint5
                0x0000000000111d4c                _Xint6
                0x0000000000111d57                _Xint7
                0x0000000000111d62                _Xint8
                0x0000000000111d6d                _Xint9
                0x0000000000111d78                _Xint10
                0x0000000000111d83                _Xint11
                0x0000000000111d91                _Xint12
                0x0000000000111d9f                _Xint13
                0x0000000000111dad                _Xint14
                0x0000000000111dbb                _Xint15
                0x0000000000111dc9                _Xint16
                0x0000000000111dd7                _Xint17
                0x0000000000111de5                _Xint18
                0x0000000000111df3                _Xint19
                0x0000000000111e01                _Xint20
                0x0000000000111e0f                _Xint21
                0x0000000000111e1d                _Xint22
                0x0000000000111e2b                _Xint23
                0x0000000000111e39                _Xint24
                0x0000000000111e47                _Xint25
                0x0000000000111e55                _Xint26
                0x0000000000111e63                _Xint27
                0x0000000000111e71                _Xint28
                0x0000000000111e7f                _Xint29
                0x0000000000111e8d                _Xint30
                0x0000000000111e9b                _Xint31
                0x0000000000111ea9                _Xint32
                0x0000000000111eb7                _Xint33
                0x0000000000111ec5                _Xint34
                0x0000000000111ed3                _Xint35
                0x0000000000111ee1                _Xint36
                0x0000000000111eef                _Xint37
                0x0000000000111efd                _Xint38
                0x0000000000111f0b                _Xint39
                0x0000000000111f19                _Xint40
                0x0000000000111f27                _Xint41
                0x0000000000111f35                _Xint42
                0x0000000000111f43                _Xint43
                0x0000000000111f51                _Xint44
                0x0000000000111f5f                _Xint45
                0x0000000000111f6d                _Xint46
                0x0000000000111f7b                defevec
 .text          0x000000000011203b        0xf binaries/ttydispatch.o
                0x000000000011203b                ttydispatch
 .text          0x000000000011204a       0x13 binaries/ethdispatch.o
                0x000000000011204a                ethdispatch
 *(.rodata .rodata.*)
 .rodata.str1.1
                0x000000000011205d       0x17 binaries/app1.o
 .rodata.str1.1
                0x0000000000112074        0x5 binaries/app2.o
                                         0x1c (size before relaxing)
 *fill*         0x0000000000112079        0x3 
 .rodata.str1.4
                0x000000000011207c       0x2d binaries/app2.o
 *fill*         0x00000000001120a9        0x3 
 .rodata.str1.4
                0x00000000001120ac       0x4a binaries/app3.o
 .rodata.str1.1
                0x00000000001120f6       0x29 binaries/app3.o
 .rodata.str1.1
                0x000000000011211f       0x54 binaries/ascdate.o
 *fill*         0x0000000000112173        0x1 
 .rodata.str1.4
                0x0000000000112174       0x22 binaries/ascdate.o
 *fill*         0x0000000000112196        0x2 
 .rodata        0x0000000000112198        0x4 binaries/clkhandler.o
                0x0000000000112198                MAX_UINT32
 .rodata.str1.1
                0x000000000011219c       0x5f binaries/conf.o
 *fill*         0x00000000001121fb        0x1 
 .rodata.str1.4
                0x00000000001121fc      0x134 binaries/cpubound.o
 .rodata.str1.4
                0x0000000000112330       0x4f binaries/early_imr.o
 *fill*         0x000000000011237f        0x1 
 .rodata        0x0000000000112380       0x33 binaries/early_imr.o
 .rodata.str1.1
                0x00000000001123b3      0x20c binaries/evec.o
 *fill*         0x00000000001125bf        0x1 
 .rodata.str1.4
                0x00000000001125c0       0x23 binaries/evec.o
 .rodata.str1.1
                0x00000000001125e3        0xb binaries/getutime.o
 *fill*         0x00000000001125ee        0x2 
 .rodata.str1.4
                0x00000000001125f0       0x54 binaries/getutime.o
 .rodata.str1.1
                0x0000000000112644       0x6b binaries/initialize.o
                                         0x6f (size before relaxing)
 *fill*         0x00000000001126af        0x1 
 .rodata.str1.4
                0x00000000001126b0       0xd4 binaries/initialize.o
 .rodata        0x0000000000112784        0x4 binaries/initialize.o
                0x0000000000112784                MAX_INT32
 .rodata.str1.4
                0x0000000000112788       0x45 binaries/insert.o
 .rodata.str1.4
                0x00000000001127cd       0x80 binaries/iobound.o
 *fill*         0x00000000001127cd        0x3 
 .rodata        0x00000000001127d0       0x20 binaries/kill.o
 .rodata.str1.1
                0x00000000001127f0       0x7a binaries/lab2q3.o
 *fill*         0x000000000011286a        0x2 
 .rodata.str1.4
                0x000000000011286c      0x23b binaries/lab2q3.o
 .rodata.str1.1
                0x0000000000112aa7       0x7a binaries/lab2q4.o
 *fill*         0x0000000000112aa7        0x1 
 .rodata.str1.4
                0x0000000000112aa8      0x10b binaries/lab2q4.o
                                        0x19f (size before relaxing)
 .rodata.str1.1
                0x0000000000112bb3       0xa2 binaries/main.o
 *fill*         0x0000000000112c55        0x3 
 .rodata.str1.4
                0x0000000000112c58       0x23 binaries/main.o
 *fill*         0x0000000000112c7b        0x1 
 .rodata.str1.4
                0x0000000000112c7c       0x23 binaries/meminit.o
 .rodata.str1.1
                0x0000000000112c9f       0x1b binaries/meminit.o
 *fill*         0x0000000000112cba        0x2 
 .rodata.str1.4
                0x0000000000112cbc      0x103 binaries/myappA.o
 *fill*         0x0000000000112dbf        0x1 
 .rodata.str1.4
                0x0000000000112dc0       0x57 binaries/myfuncA.o
 *fill*         0x0000000000112e17        0x1 
 .rodata.str1.4
                0x0000000000112e18       0x4c binaries/myhacker.o
 .rodata.str1.4
                0x0000000000112e64      0x178 binaries/myvictim.o
 .rodata.str1.4
                0x0000000000112fdc      0x19b binaries/mywelcomemsg.o
 .rodata.str1.1
                0x0000000000113177       0x16 binaries/mywelcomemsg.o
 .rodata.str1.1
                0x000000000011318d        0xf binaries/panic.o
 .rodata.str1.4
                0x000000000011319c       0xe1 binaries/printsegaddr.o
 .rodata.str1.1
                0x000000000011327d       0x84 binaries/process_state.o
                                         0xbe (size before relaxing)
 *fill*         0x0000000000113301        0x3 
 .rodata.str1.4
                0x0000000000113304       0x8f binaries/process_state.o
 *fill*         0x0000000000113393        0xd 
 .rodata        0x00000000001133a0      0x1b0 binaries/process_state.o
 .rodata.str1.1
                0x0000000000113550       0x1c binaries/ptinit.o
 .rodata.str1.4
                0x000000000011356c       0x25 binaries/ptsend.o
 .rodata.str1.1
                0x0000000000113591       0x22 binaries/quark_pdat.o
 *fill*         0x00000000001135b3        0x1 
 .rodata.str1.4
                0x00000000001135b4       0x58 binaries/stackdepth.o
 .rodata.str1.1
                0x000000000011360c       0x1b binaries/stackdepth.o
 *fill*         0x0000000000113627        0x1 
 .rodata.str1.4
                0x0000000000113628       0x63 binaries/stacktrace.o
 .rodata.str1.1
                0x000000000011368b       0x52 binaries/stacktrace.o
 .rodata.str1.1
                0x00000000001136dd       0x1c binaries/teststackdepth.o
 *fill*         0x00000000001136f9        0x3 
 .rodata.str1.4
                0x00000000001136fc       0x27 binaries/xdone.o
 *fill*         0x0000000000113723       0x1d 
 .rodata        0x0000000000113740       0x81 binaries/ctype_.o
                0x0000000000113740                _ctype_
 .rodata.str1.1
                0x00000000001137c1       0x29 binaries/doprnt.o
 *fill*         0x00000000001137ea        0x2 
 .rodata        0x00000000001137ec       0xc4 binaries/doprnt.o
 .rodata        0x00000000001138b0       0x98 binaries/doscan.o
 .rodata.str1.1
                0x0000000000113948       0x29 binaries/fdoprnt.o
 .rodata        0x0000000000113948       0x84 binaries/fdoprnt.o
 .rodata        0x00000000001139cc       0x20 binaries/ttycontrol.o
 .rodata.str1.4
                0x00000000001139ec       0x4c binaries/naminit.o
 .rodata.str1.1
                0x0000000000113a38       0x32 binaries/naminit.o
                                         0x35 (size before relaxing)
 .rodata.str1.1
                0x0000000000113a6a       0x15 binaries/ethinit.o
 *fill*         0x0000000000113a7f        0x1 
 .rodata.str1.4
                0x0000000000113a80       0x2e binaries/ethinit.o
 *fill*         0x0000000000113aae        0x2 
 .rodata.str1.4
                0x0000000000113ab0       0x2c binaries/rdsbufalloc.o
 .rodata.str1.4
                0x0000000000113adc       0x76 binaries/rdscomm.o
 *fill*         0x0000000000113b52        0x2 
 .rodata.str1.4
                0x0000000000113b54       0x48 binaries/rdscontrol.o
 .rodata.str1.4
                0x0000000000113b9c       0x7e binaries/rdsinit.o
 .rodata.str1.1
                0x0000000000113c1a       0x18 binaries/rdsinit.o
 *fill*         0x0000000000113c32        0x2 
 .rodata.str1.4
                0x0000000000113c34       0x22 binaries/rdsopen.o
 *fill*         0x0000000000113c56        0x2 
 .rodata.str1.4
                0x0000000000113c58       0x4d binaries/rdsprocess.o
 .rodata.str1.1
                0x0000000000113ca5        0x9 binaries/raminit.o
 .rodata.str1.1
                0x0000000000113cae       0x13 binaries/lfdballoc.o
 *fill*         0x0000000000113cc1        0x3 
 .rodata.str1.4
                0x0000000000113cc4       0x23 binaries/lfdballoc.o
 .rodata.str1.1
                0x0000000000113ce7       0x14 binaries/lfiballoc.o
 *fill*         0x0000000000113cfb        0x1 
 .rodata.str1.4
                0x0000000000113cfc       0x23 binaries/lflcontrol.o
 .rodata.str1.1
                0x0000000000113d1f       0x64 binaries/lfsckfmt.o
 *fill*         0x0000000000113d83        0x1 
 .rodata.str1.4
                0x0000000000113d84       0x51 binaries/lfsckfmt.o
 *fill*         0x0000000000113dd5        0x3 
 .rodata.str1.4
                0x0000000000113dd8       0x21 binaries/rflread.o
 .rodata.str1.4
                0x0000000000113df9       0x21 binaries/rflwrite.o
 *fill*         0x0000000000113df9        0x3 
 .rodata.str1.4
                0x0000000000113dfc       0x75 binaries/rfscomm.o
 *fill*         0x0000000000113e71        0x3 
 .rodata.str1.4
                0x0000000000113e74       0x23 binaries/rfscontrol.o
 *fill*         0x0000000000113e97        0x1 
 .rodata        0x0000000000113e98       0x18 binaries/rfscontrol.o
 .rodata.str1.1
                0x0000000000113eb0       0x10 binaries/rfsinit.o
 .rodata.str1.4
                0x0000000000113eb0       0x57 binaries/rfsinit.o
 *fill*         0x0000000000113f07        0x1 
 .rodata.str1.4
                0x0000000000113f08       0x2a binaries/rfsndmsg.o
 .rodata.str1.4
                0x0000000000113f32       0x22 binaries/rfsopen.o
 .rodata.str1.1
                0x0000000000113f32       0x19 binaries/arp.o
 *fill*         0x0000000000113f4b        0x1 
 .rodata.str1.4
                0x0000000000113f4c       0x21 binaries/arp.o
 *fill*         0x0000000000113f6d        0x3 
 .rodata.str1.4
                0x0000000000113f70       0xa6 binaries/dhcp.o
 .rodata.str1.1
                0x0000000000114016       0x4a binaries/dhcp.o
 .rodata.str1.1
                0x0000000000114060       0x5a binaries/hexdump.o
                                         0x61 (size before relaxing)
 *fill*         0x00000000001140ba        0x2 
 .rodata.str1.4
                0x00000000001140bc       0x67 binaries/hexdump.o
 *fill*         0x0000000000114123        0x1 
 .rodata.str1.4
                0x0000000000114124       0x29 binaries/icmp.o
 .rodata.str1.1
                0x000000000011414d       0x4e binaries/ip.o
 *fill*         0x000000000011419b        0x1 
 .rodata.str1.4
                0x000000000011419c       0x20 binaries/ip.o
 .rodata.str1.4
                0x00000000001141bc       0x28 binaries/net.o
 .rodata.str1.1
                0x00000000001141e4       0x27 binaries/net.o
 *fill*         0x000000000011420b        0x1 
 .rodata.str1.4
                0x000000000011420c       0xcf binaries/netstart.o
 .rodata.str1.1
                0x00000000001142db      0x141 binaries/pdump.o
                                        0x14b (size before relaxing)
 .rodata.str1.4
                0x000000000011441c      0x126 binaries/pdump.o
 *fill*         0x0000000000114542        0x2 
 .rodata.str1.4
                0x0000000000114544      0x148 binaries/tftp.o
 .rodata.str1.1
                0x000000000011468c        0x6 binaries/tftp.o
                                          0xa (size before relaxing)
 .rodata.str1.1
                0x0000000000114692       0xdd binaries/shell.o
                                         0xff (size before relaxing)
 *fill*         0x000000000011476f        0x1 
 .rodata.str1.4
                0x0000000000114770      0x1e8 binaries/shell.o
 *fill*         0x0000000000114958        0x8 
 .rodata        0x0000000000114960       0xfc binaries/shell.o
                0x0000000000114960                cmdtab
 .rodata.str1.1
                0x0000000000114a5c       0x26 binaries/xsh_argecho.o
                                         0x28 (size before relaxing)
 .rodata.str1.1
                0x0000000000114a82       0x70 binaries/xsh_arp.o
                                         0x72 (size before relaxing)
 *fill*         0x0000000000114af2        0x2 
 .rodata.str1.4
                0x0000000000114af4       0xb4 binaries/xsh_arp.o
 .rodata.str1.1
                0x0000000000114ba8       0x2d binaries/xsh_cat.o
                                         0x4f (size before relaxing)
 *fill*         0x0000000000114bd5        0x3 
 .rodata.str1.4
                0x0000000000114bd8       0x52 binaries/xsh_cat.o
                                         0x79 (size before relaxing)
 .rodata.str1.1
                0x0000000000114c2a       0x15 binaries/xsh_clear.o
 .rodata.str1.1
                0x0000000000114c3f       0x46 binaries/xsh_date.o
                                         0x5f (size before relaxing)
 *fill*         0x0000000000114c85        0x3 
 .rodata.str1.4
                0x0000000000114c88      0x163 binaries/xsh_date.o
 .rodata.str1.1
                0x0000000000114deb       0x5d binaries/xsh_devdump.o
 .rodata.str1.1
                0x0000000000114e48        0x4 binaries/xsh_echo.o
                                          0x9 (size before relaxing)
 .rodata.str1.1
                0x0000000000114e4c       0x65 binaries/xsh_help.o
                                         0xa3 (size before relaxing)
 *fill*         0x0000000000114eb1        0x3 
 .rodata.str1.4
                0x0000000000114eb4       0x7c binaries/xsh_help.o
                                         0xc6 (size before relaxing)
 .rodata.str1.1
                0x0000000000114f30       0x9c binaries/xsh_ipaddr.o
                                         0xf8 (size before relaxing)
 .rodata.str1.4
                0x0000000000114fcc       0x4d binaries/xsh_ipaddr.o
                                         0x99 (size before relaxing)
 .rodata.str1.1
                0x0000000000115019       0x78 binaries/xsh_kill.o
                                         0x97 (size before relaxing)
 *fill*         0x0000000000115091        0x3 
 .rodata.str1.4
                0x0000000000115094       0x4a binaries/xsh_kill.o
                                         0x96 (size before relaxing)
 .rodata.str1.1
                0x00000000001150de       0x84 binaries/xsh_memdump.o
                                         0xa8 (size before relaxing)
 *fill*         0x0000000000115162        0x2 
 .rodata.str1.4
                0x0000000000115164      0x15a binaries/xsh_memdump.o
                                        0x1aa (size before relaxing)
 .rodata.str1.1
                0x00000000001152be       0x40 binaries/xsh_memstat.o
                                         0x79 (size before relaxing)
 *fill*         0x00000000001152fe        0x2 
 .rodata.str1.4
                0x0000000000115300      0x187 binaries/xsh_memstat.o
                                        0x1af (size before relaxing)
 .rodata.str1.1
                0x0000000000115487       0x90 binaries/xsh_ping.o
                                         0xaf (size before relaxing)
 *fill*         0x0000000000115517        0x1 
 .rodata.str1.4
                0x0000000000115518       0x77 binaries/xsh_ping.o
                                         0xc6 (size before relaxing)
 .rodata.str1.1
                0x000000000011558f        0x9 binaries/xsh_ps.o
                                         0xde (size before relaxing)
 .rodata.str1.4
                0x0000000000115598       0x88 binaries/xsh_ps.o
                                         0xd8 (size before relaxing)
 .rodata        0x0000000000115620       0x20 binaries/xsh_ps.o
 .rodata.str1.1
                0x0000000000115640       0x31 binaries/xsh_sleep.o
                                         0x72 (size before relaxing)
 *fill*         0x0000000000115671        0x3 
 .rodata.str1.4
                0x0000000000115674       0x2a binaries/xsh_sleep.o
                                         0x7a (size before relaxing)
 .rodata.str1.1
                0x000000000011569e       0x6b binaries/xsh_udpdump.o
                                         0xd2 (size before relaxing)
 *fill*         0x0000000000115709        0x3 
 .rodata.str1.4
                0x000000000011570c       0x94 binaries/xsh_udpdump.o
                                         0xe4 (size before relaxing)
 .rodata.str1.1
                0x00000000001157a0       0xdb binaries/xsh_udpecho.o
                                         0xfa (size before relaxing)
 *fill*         0x000000000011587b        0x1 
 .rodata.str1.4
                0x000000000011587c       0xc7 binaries/xsh_udpecho.o
                                        0x116 (size before relaxing)
 .rodata.str1.1
                0x0000000000115943       0x66 binaries/xsh_udpeserver.o
                                         0x8f (size before relaxing)
 *fill*         0x00000000001159a9        0x3 
 .rodata.str1.4
                0x00000000001159ac       0x29 binaries/xsh_udpeserver.o
                                         0x9f (size before relaxing)
 .rodata.str1.1
                0x00000000001159d5       0x49 binaries/xsh_uptime.o
                                         0x8c (size before relaxing)
 *fill*         0x0000000000115a1e        0x2 
 .rodata.str1.4
                0x0000000000115a20       0x28 binaries/xsh_uptime.o
                                         0x76 (size before relaxing)
                0x0000000000115a48                etext = ABSOLUTE (.)
                0x0000000000116000                . = ALIGN (0x1000)
 *fill*         0x0000000000115a48      0x5b8 

.eh_frame       0x0000000000116000     0x3440
 .eh_frame      0x0000000000116000       0x3c binaries/app1.o
 .eh_frame      0x000000000011603c       0x28 binaries/app2.o
                                         0x40 (size before relaxing)
 .eh_frame      0x0000000000116064       0x24 binaries/app3.o
                                         0x3c (size before relaxing)
 .eh_frame      0x0000000000116088       0x30 binaries/ascdate.o
                                         0x48 (size before relaxing)
 .eh_frame      0x00000000001160b8       0x20 binaries/bufinit.o
                                         0x38 (size before relaxing)
 .eh_frame      0x00000000001160d8       0x2c binaries/chprio.o
                                         0x44 (size before relaxing)
 .eh_frame      0x0000000000116104       0x20 binaries/clkhandler.o
                                         0x38 (size before relaxing)
 .eh_frame      0x0000000000116124       0x20 binaries/clkinit.o
                                         0x38 (size before relaxing)
 .eh_frame      0x0000000000116144       0x28 binaries/close.o
                                         0x40 (size before relaxing)
 .eh_frame      0x000000000011616c       0x28 binaries/control.o
                                         0x40 (size before relaxing)
 .eh_frame      0x0000000000116194       0x30 binaries/cpubound.o
                                         0x48 (size before relaxing)
 .eh_frame      0x00000000001161c4       0x30 binaries/create.o
                                         0x48 (size before relaxing)
 .eh_frame      0x00000000001161f4       0x94 binaries/early_imr.o
                                         0xac (size before relaxing)
 .eh_frame      0x0000000000116288       0x94 binaries/evec.o
                                         0xac (size before relaxing)
 .eh_frame      0x000000000011631c       0x24 binaries/factorial.o
                                         0x3c (size before relaxing)
 .eh_frame      0x0000000000116340       0x2c binaries/freebuf.o
                                         0x44 (size before relaxing)
 .eh_frame      0x000000000011636c       0x2c binaries/freemem.o
                                         0x44 (size before relaxing)
 .eh_frame      0x0000000000116398       0x2c binaries/getbuf.o
                                         0x44 (size before relaxing)
 .eh_frame      0x00000000001163c4       0x28 binaries/getc.o
                                         0x40 (size before relaxing)
 .eh_frame      0x00000000001163ec       0x2c binaries/getdev.o
                                         0x44 (size before relaxing)
 .eh_frame      0x0000000000116418       0x64 binaries/getitem.o
                                         0x7c (size before relaxing)
 .eh_frame      0x000000000011647c       0x28 binaries/getmem.o
                                         0x40 (size before relaxing)
 .eh_frame      0x00000000001164a4       0x20 binaries/getpid.o
                                         0x38 (size before relaxing)
 .eh_frame      0x00000000001164c4       0x20 binaries/getpname.o
                                         0x38 (size before relaxing)
 .eh_frame      0x00000000001164e4       0x20 binaries/getppid.o
                                         0x38 (size before relaxing)
 .eh_frame      0x0000000000116504       0x24 binaries/getprio.o
                                         0x3c (size before relaxing)
 .eh_frame      0x0000000000116528       0x2c binaries/getstk.o
                                         0x44 (size before relaxing)
 .eh_frame      0x0000000000116554       0x20 binaries/gettime.o
                                         0x38 (size before relaxing)
 .eh_frame      0x0000000000116574       0x24 binaries/getutime.o
                                         0x3c (size before relaxing)
 .eh_frame      0x0000000000116598       0x20 binaries/host2netlb.o
                                         0x38 (size before relaxing)
 .eh_frame      0x00000000001165b8       0x28 binaries/init.o
                                         0x40 (size before relaxing)
 .eh_frame      0x00000000001165e0       0x68 binaries/initialize.o
                                         0x80 (size before relaxing)
 .eh_frame      0x0000000000116648       0x28 binaries/insert.o
                                         0x40 (size before relaxing)
 .eh_frame      0x0000000000116670       0x2c binaries/insertd.o
                                         0x44 (size before relaxing)
 .eh_frame      0x000000000011669c       0x2c binaries/iobound.o
                                         0x44 (size before relaxing)
 .eh_frame      0x00000000001166c8       0x20 binaries/ioerr.o
                                         0x38 (size before relaxing)
 .eh_frame      0x00000000001166e8       0x20 binaries/ionull.o
                                         0x38 (size before relaxing)
 .eh_frame      0x0000000000116708       0x30 binaries/kill.o
                                         0x48 (size before relaxing)
 .eh_frame      0x0000000000116738       0x80 binaries/kprintf.o
                                         0x98 (size before relaxing)
 .eh_frame      0x00000000001167b8      0x108 binaries/lab2q3.o
                                        0x120 (size before relaxing)
 .eh_frame      0x00000000001168c0       0x84 binaries/lab2q4.o
                                         0x9c (size before relaxing)
 .eh_frame      0x0000000000116944       0x30 binaries/main.o
                                         0x48 (size before relaxing)
 .eh_frame      0x0000000000116974       0x44 binaries/mark.o
                                         0x5c (size before relaxing)
 .eh_frame      0x00000000001169b8       0x50 binaries/meminit.o
                                         0x68 (size before relaxing)
 .eh_frame      0x0000000000116a08       0x30 binaries/mkbufpool.o
                                         0x48 (size before relaxing)
 .eh_frame      0x0000000000116a38       0x2c binaries/myappA.o
                                         0x44 (size before relaxing)
 .eh_frame      0x0000000000116a64       0x20 binaries/myfuncA.o
                                         0x38 (size before relaxing)
 .eh_frame      0x0000000000116a84       0x64 binaries/myhacker.o
                                         0x7c (size before relaxing)
 .eh_frame      0x0000000000116ae8       0x60 binaries/myvictim.o
                                         0x78 (size before relaxing)
 .eh_frame      0x0000000000116b48       0x20 binaries/mywelcomemsg.o
                                         0x38 (size before relaxing)
 .eh_frame      0x0000000000116b68       0x20 binaries/newqueue.o
                                         0x38 (size before relaxing)
 .eh_frame      0x0000000000116b88       0x28 binaries/open.o
                                         0x40 (size before relaxing)
 .eh_frame      0x0000000000116bb0       0x1c binaries/panic.o
                                         0x34 (size before relaxing)
 .eh_frame      0x0000000000116bcc      0x12c binaries/pci.o
                                        0x144 (size before relaxing)
 .eh_frame      0x0000000000116cf8       0x20 binaries/platinit.o
                                         0x38 (size before relaxing)
 .eh_frame      0x0000000000116d18       0x20 binaries/printsegaddr.o
                                         0x38 (size before relaxing)
 .eh_frame      0x0000000000116d38       0x30 binaries/process_state.o
                                         0x48 (size before relaxing)
 .eh_frame      0x0000000000116d68       0x2c binaries/ptclear.o
                                         0x44 (size before relaxing)
 .eh_frame      0x0000000000116d94       0x2c binaries/ptcount.o
                                         0x44 (size before relaxing)
 .eh_frame      0x0000000000116dc0       0x2c binaries/ptcreate.o
                                         0x44 (size before relaxing)
 .eh_frame      0x0000000000116dec       0x28 binaries/ptdelete.o
                                         0x40 (size before relaxing)
 .eh_frame      0x0000000000116e14       0x28 binaries/ptinit.o
                                         0x40 (size before relaxing)
 .eh_frame      0x0000000000116e3c       0x2c binaries/ptrecv.o
                                         0x44 (size before relaxing)
 .eh_frame      0x0000000000116e68       0x28 binaries/ptreset.o
                                         0x40 (size before relaxing)
 .eh_frame      0x0000000000116e90       0x30 binaries/ptsend.o
                                         0x48 (size before relaxing)
 .eh_frame      0x0000000000116ec0       0x2c binaries/putc.o
                                         0x44 (size before relaxing)
 .eh_frame      0x0000000000116eec       0x24 binaries/quark_irq.o
                                         0x3c (size before relaxing)
 .eh_frame      0x0000000000116f10       0x54 binaries/quark_pdat.o
                                         0x6c (size before relaxing)
 .eh_frame      0x0000000000116f64       0x40 binaries/queue.o
                                         0x58 (size before relaxing)
 .eh_frame      0x0000000000116fa4       0x28 binaries/read.o
                                         0x40 (size before relaxing)
 .eh_frame      0x0000000000116fcc       0x20 binaries/ready.o
                                         0x38 (size before relaxing)
 .eh_frame      0x0000000000116fec       0x2c binaries/receive.o
                                         0x44 (size before relaxing)
 .eh_frame      0x0000000000117018       0x24 binaries/recvclr.o
                                         0x3c (size before relaxing)
 .eh_frame      0x000000000011703c       0x2c binaries/recvtime.o
                                         0x44 (size before relaxing)
 .eh_frame      0x0000000000117068       0x4c binaries/resched.o
                                         0x64 (size before relaxing)
 .eh_frame      0x00000000001170b4       0x2c binaries/resume.o
                                         0x44 (size before relaxing)
 .eh_frame      0x00000000001170e0       0x28 binaries/seek.o
                                         0x40 (size before relaxing)
 .eh_frame      0x0000000000117108       0x24 binaries/semcount.o
                                         0x3c (size before relaxing)
 .eh_frame      0x000000000011712c       0x2c binaries/semcreate.o
                                         0x44 (size before relaxing)
 .eh_frame      0x0000000000117158       0x2c binaries/semdelete.o
                                         0x44 (size before relaxing)
 .eh_frame      0x0000000000117184       0x2c binaries/semreset.o
                                         0x44 (size before relaxing)
 .eh_frame      0x00000000001171b0       0x28 binaries/send.o
                                         0x40 (size before relaxing)
 .eh_frame      0x00000000001171d8       0x28 binaries/signal.o
                                         0x40 (size before relaxing)
 .eh_frame      0x0000000000117200       0x2c binaries/signaln.o
                                         0x44 (size before relaxing)
 .eh_frame      0x000000000011722c       0x48 binaries/sleep.o
                                         0x60 (size before relaxing)
 .eh_frame      0x0000000000117274       0x2c binaries/stackdepth.o
                                         0x44 (size before relaxing)
 .eh_frame      0x00000000001172a0       0x30 binaries/stacktrace.o
                                         0x48 (size before relaxing)
 .eh_frame      0x00000000001172d0       0x28 binaries/suspend.o
                                         0x40 (size before relaxing)
 .eh_frame      0x00000000001172f8       0x20 binaries/teststackdepth.o
                                         0x38 (size before relaxing)
 .eh_frame      0x0000000000117318       0x28 binaries/unsleep.o
                                         0x40 (size before relaxing)
 .eh_frame      0x0000000000117340       0x20 binaries/userret.o
                                         0x38 (size before relaxing)
 .eh_frame      0x0000000000117360       0x28 binaries/wait.o
                                         0x40 (size before relaxing)
 .eh_frame      0x0000000000117388       0x20 binaries/wakeup.o
                                         0x38 (size before relaxing)
 .eh_frame      0x00000000001173a8       0x28 binaries/write.o
                                         0x40 (size before relaxing)
 .eh_frame      0x00000000001173d0       0x20 binaries/xdone.o
                                         0x38 (size before relaxing)
 .eh_frame      0x00000000001173f0       0x24 binaries/yield.o
                                         0x3c (size before relaxing)
 .eh_frame      0x0000000000117414       0x20 binaries/abs.o
                                         0x38 (size before relaxing)
 .eh_frame      0x0000000000117434       0x28 binaries/atoi.o
                                         0x40 (size before relaxing)
 .eh_frame      0x000000000011745c       0x28 binaries/atol.o
                                         0x40 (size before relaxing)
 .eh_frame      0x0000000000117484       0x20 binaries/bzero.o
                                         0x38 (size before relaxing)
 .eh_frame      0x00000000001174a4       0xac binaries/doprnt.o
                                         0xc4 (size before relaxing)
 .eh_frame      0x0000000000117550       0x30 binaries/doscan.o
                                         0x48 (size before relaxing)
 .eh_frame      0x0000000000117580       0x5c binaries/fdoprnt.o
                                         0x74 (size before relaxing)
 .eh_frame      0x00000000001175dc       0x20 binaries/fgetc.o
                                         0x38 (size before relaxing)
 .eh_frame      0x00000000001175fc       0x2c binaries/fgets.o
                                         0x44 (size before relaxing)
 .eh_frame      0x0000000000117628       0x20 binaries/fprintf.o
                                         0x38 (size before relaxing)
 .eh_frame      0x0000000000117648       0x20 binaries/fputc.o
                                         0x38 (size before relaxing)
 .eh_frame      0x0000000000117668       0x28 binaries/fputs.o
                                         0x40 (size before relaxing)
 .eh_frame      0x0000000000117690       0x64 binaries/fscanf.o
                                         0x7c (size before relaxing)
 .eh_frame      0x00000000001176f4       0x20 binaries/getchar.o
                                         0x38 (size before relaxing)
 .eh_frame      0x0000000000117714       0x20 binaries/labs.o
                                         0x38 (size before relaxing)
 .eh_frame      0x0000000000117734       0x20 binaries/memchr.o
                                         0x38 (size before relaxing)
 .eh_frame      0x0000000000117754       0x28 binaries/memcmp.o
                                         0x40 (size before relaxing)
 .eh_frame      0x000000000011777c       0x28 binaries/memcpy.o
                                         0x40 (size before relaxing)
 .eh_frame      0x00000000001177a4       0x24 binaries/memset.o
                                         0x3c (size before relaxing)
 .eh_frame      0x00000000001177c8       0x20 binaries/printf.o
                                         0x38 (size before relaxing)
 .eh_frame      0x00000000001177e8       0x20 binaries/putchar.o
                                         0x38 (size before relaxing)
 .eh_frame      0x0000000000117808       0xa4 binaries/qsort.o
                                         0xbc (size before relaxing)
 .eh_frame      0x00000000001178ac       0x40 binaries/rand.o
                                         0x58 (size before relaxing)
 .eh_frame      0x00000000001178ec       0x48 binaries/sprintf.o
                                         0x60 (size before relaxing)
 .eh_frame      0x0000000000117934       0x60 binaries/sscanf.o
                                         0x78 (size before relaxing)
 .eh_frame      0x0000000000117994       0x24 binaries/strchr.o
                                         0x3c (size before relaxing)
 .eh_frame      0x00000000001179b8       0x24 binaries/strcmp.o
                                         0x3c (size before relaxing)
 .eh_frame      0x00000000001179dc       0x20 binaries/strcpy.o
                                         0x38 (size before relaxing)
 .eh_frame      0x00000000001179fc       0x20 binaries/strlen.o
                                         0x38 (size before relaxing)
 .eh_frame      0x0000000000117a1c       0x2c binaries/strncat.o
                                         0x44 (size before relaxing)
 .eh_frame      0x0000000000117a48       0x24 binaries/strncmp.o
                                         0x3c (size before relaxing)
 .eh_frame      0x0000000000117a6c       0x2c binaries/strncpy.o
                                         0x44 (size before relaxing)
 .eh_frame      0x0000000000117a98       0x24 binaries/strnlen.o
                                         0x3c (size before relaxing)
 .eh_frame      0x0000000000117abc       0x24 binaries/strrchr.o
                                         0x3c (size before relaxing)
 .eh_frame      0x0000000000117ae0       0x2c binaries/strstr.o
                                         0x44 (size before relaxing)
 .eh_frame      0x0000000000117b0c       0x30 binaries/ttycontrol.o
                                         0x48 (size before relaxing)
 .eh_frame      0x0000000000117b3c       0x2c binaries/ttygetc.o
                                         0x44 (size before relaxing)
 .eh_frame      0x0000000000117b68       0x84 binaries/ttyhandle_in.o
                                         0x9c (size before relaxing)
 .eh_frame      0x0000000000117bec       0x30 binaries/ttyhandle_out.o
                                         0x48 (size before relaxing)
 .eh_frame      0x0000000000117c1c       0x28 binaries/ttyhandler.o
                                         0x40 (size before relaxing)
 .eh_frame      0x0000000000117c44       0x30 binaries/ttyinit.o
                                         0x48 (size before relaxing)
 .eh_frame      0x0000000000117c74       0x20 binaries/ttykickout.o
                                         0x38 (size before relaxing)
 .eh_frame      0x0000000000117c94       0x2c binaries/ttyputc.o
                                         0x44 (size before relaxing)
 .eh_frame      0x0000000000117cc0       0x2c binaries/ttyread.o
                                         0x44 (size before relaxing)
 .eh_frame      0x0000000000117cec       0x2c binaries/ttywrite.o
                                         0x44 (size before relaxing)
 .eh_frame      0x0000000000117d18       0x4c binaries/mount.o
                                         0x64 (size before relaxing)
 .eh_frame      0x0000000000117d64       0x30 binaries/naminit.o
                                         0x48 (size before relaxing)
 .eh_frame      0x0000000000117d94       0x84 binaries/nammap.o
                                         0x9c (size before relaxing)
 .eh_frame      0x0000000000117e18       0x20 binaries/namopen.o
                                         0x38 (size before relaxing)
 .eh_frame      0x0000000000117e38       0x2c binaries/colon2mac.o
                                         0x44 (size before relaxing)
 .eh_frame      0x0000000000117e64       0x20 binaries/ethcontrol.o
                                         0x38 (size before relaxing)
 .eh_frame      0x0000000000117e84       0x30 binaries/ethhandler.o
                                         0x48 (size before relaxing)
 .eh_frame      0x0000000000117eb4       0x98 binaries/ethinit.o
                                         0xb0 (size before relaxing)
 .eh_frame      0x0000000000117f4c       0x54 binaries/ethmcast.o
                                         0x6c (size before relaxing)
 .eh_frame      0x0000000000117fa0       0x30 binaries/ethread.o
                                         0x48 (size before relaxing)
 .eh_frame      0x0000000000117fd0       0x2c binaries/ethwrite.o
                                         0x44 (size before relaxing)
 .eh_frame      0x0000000000117ffc       0x24 binaries/rdsbufalloc.o
                                         0x3c (size before relaxing)
 .eh_frame      0x0000000000118020       0x2c binaries/rdsclose.o
                                         0x44 (size before relaxing)
 .eh_frame      0x000000000011804c       0x30 binaries/rdscomm.o
                                         0x48 (size before relaxing)
 .eh_frame      0x000000000011807c       0x30 binaries/rdscontrol.o
                                         0x48 (size before relaxing)
 .eh_frame      0x00000000001180ac       0x30 binaries/rdsinit.o
                                         0x48 (size before relaxing)
 .eh_frame      0x00000000001180dc       0x30 binaries/rdsopen.o
                                         0x48 (size before relaxing)
 .eh_frame      0x000000000011810c       0x20 binaries/rdsprocess.o
                                         0x38 (size before relaxing)
 .eh_frame      0x000000000011812c       0x30 binaries/rdsread.o
                                         0x48 (size before relaxing)
 .eh_frame      0x000000000011815c       0x30 binaries/rdswrite.o
                                         0x48 (size before relaxing)
 .eh_frame      0x000000000011818c       0x20 binaries/ramclose.o
                                         0x38 (size before relaxing)
 .eh_frame      0x00000000001181ac       0x20 binaries/raminit.o
                                         0x38 (size before relaxing)
 .eh_frame      0x00000000001181cc       0x20 binaries/ramopen.o
                                         0x38 (size before relaxing)
 .eh_frame      0x00000000001181ec       0x20 binaries/ramread.o
                                         0x38 (size before relaxing)
 .eh_frame      0x000000000011820c       0x20 binaries/ramwrite.o
                                         0x38 (size before relaxing)
 .eh_frame      0x000000000011822c       0x28 binaries/lfdballoc.o
                                         0x40 (size before relaxing)
 .eh_frame      0x0000000000118254       0x24 binaries/lfdbfree.o
                                         0x3c (size before relaxing)
 .eh_frame      0x0000000000118278       0x24 binaries/lfflush.o
                                         0x3c (size before relaxing)
 .eh_frame      0x000000000011829c       0x20 binaries/lfgetmode.o
                                         0x38 (size before relaxing)
 .eh_frame      0x00000000001182bc       0x24 binaries/lfiballoc.o
                                         0x3c (size before relaxing)
 .eh_frame      0x00000000001182e0       0x20 binaries/lfibclear.o
                                         0x38 (size before relaxing)
 .eh_frame      0x0000000000118300       0x2c binaries/lfibget.o
                                         0x44 (size before relaxing)
 .eh_frame      0x000000000011832c       0x2c binaries/lfibput.o
                                         0x44 (size before relaxing)
 .eh_frame      0x0000000000118358       0x28 binaries/lflclose.o
                                         0x40 (size before relaxing)
 .eh_frame      0x0000000000118380       0x2c binaries/lflcontrol.o
                                         0x44 (size before relaxing)
 .eh_frame      0x00000000001183ac       0x2c binaries/lflgetc.o
                                         0x44 (size before relaxing)
 .eh_frame      0x00000000001183d8       0x2c binaries/lflinit.o
                                         0x44 (size before relaxing)
 .eh_frame      0x0000000000118404       0x30 binaries/lflputc.o
                                         0x48 (size before relaxing)
 .eh_frame      0x0000000000118434       0x2c binaries/lflread.o
                                         0x44 (size before relaxing)
 .eh_frame      0x0000000000118460       0x2c binaries/lflseek.o
                                         0x44 (size before relaxing)
 .eh_frame      0x000000000011848c       0x2c binaries/lflwrite.o
                                         0x44 (size before relaxing)
 .eh_frame      0x00000000001184b8       0x30 binaries/lfsckfmt.o
                                         0x48 (size before relaxing)
 .eh_frame      0x00000000001184e8       0x30 binaries/lfscreate.o
                                         0x48 (size before relaxing)
 .eh_frame      0x0000000000118518       0x30 binaries/lfsetup.o
                                         0x48 (size before relaxing)
 .eh_frame      0x0000000000118548       0x20 binaries/lfsinit.o
                                         0x38 (size before relaxing)
 .eh_frame      0x0000000000118568       0x30 binaries/lfsopen.o
                                         0x48 (size before relaxing)
 .eh_frame      0x0000000000118598       0x30 binaries/lftruncate.o
                                         0x48 (size before relaxing)
 .eh_frame      0x00000000001185c8       0x20 binaries/rflclose.o
                                         0x38 (size before relaxing)
 .eh_frame      0x00000000001185e8       0x20 binaries/rflgetc.o
                                         0x38 (size before relaxing)
 .eh_frame      0x0000000000118608       0x24 binaries/rflinit.o
                                         0x3c (size before relaxing)
 .eh_frame      0x000000000011862c       0x20 binaries/rflputc.o
                                         0x38 (size before relaxing)
 .eh_frame      0x000000000011864c       0x30 binaries/rflread.o
                                         0x48 (size before relaxing)
 .eh_frame      0x000000000011867c       0x20 binaries/rflseek.o
                                         0x38 (size before relaxing)
 .eh_frame      0x000000000011869c       0x30 binaries/rflwrite.o
                                         0x48 (size before relaxing)
 .eh_frame      0x00000000001186cc       0x30 binaries/rfscomm.o
                                         0x48 (size before relaxing)
 .eh_frame      0x00000000001186fc       0x2c binaries/rfscontrol.o
                                         0x44 (size before relaxing)
 .eh_frame      0x0000000000118728       0x20 binaries/rfsgetmode.o
                                         0x38 (size before relaxing)
 .eh_frame      0x0000000000118748       0x20 binaries/rfsinit.o
                                         0x38 (size before relaxing)
 .eh_frame      0x0000000000118768       0x20 binaries/rfsndmsg.o
                                         0x38 (size before relaxing)
 .eh_frame      0x0000000000118788       0x2c binaries/rfsopen.o
                                         0x44 (size before relaxing)
 .eh_frame      0x00000000001187b4       0xec binaries/arp.o
                                        0x104 (size before relaxing)
 .eh_frame      0x00000000001188a0       0xd0 binaries/dhcp.o
                                         0xe8 (size before relaxing)
 .eh_frame      0x0000000000118970       0x2c binaries/dot2ip.o
                                         0x44 (size before relaxing)
 .eh_frame      0x000000000011899c       0x60 binaries/hexdump.o
                                         0x78 (size before relaxing)
 .eh_frame      0x00000000001189fc      0x198 binaries/icmp.o
                                        0x1b0 (size before relaxing)
 .eh_frame      0x0000000000118b94      0x148 binaries/ip.o
                                        0x160 (size before relaxing)
 .eh_frame      0x0000000000118cdc       0x7c binaries/net.o
                                         0x94 (size before relaxing)
 .eh_frame      0x0000000000118d58       0x24 binaries/netstart.o
                                         0x3c (size before relaxing)
 .eh_frame      0x0000000000118d7c       0x50 binaries/pdump.o
                                         0x68 (size before relaxing)
 .eh_frame      0x0000000000118dcc       0x80 binaries/tftp.o
                                         0x98 (size before relaxing)
 .eh_frame      0x0000000000118e4c      0x1b0 binaries/udp.o
                                        0x1c8 (size before relaxing)
 .eh_frame      0x0000000000118ffc       0x30 binaries/addargs.o
                                         0x48 (size before relaxing)
 .eh_frame      0x000000000011902c       0x30 binaries/lexan.o
                                         0x48 (size before relaxing)
 .eh_frame      0x000000000011905c       0x30 binaries/shell.o
                                         0x48 (size before relaxing)
 .eh_frame      0x000000000011908c       0x2c binaries/xsh_argecho.o
                                         0x44 (size before relaxing)
 .eh_frame      0x00000000001190b8       0x30 binaries/xsh_arp.o
                                         0x48 (size before relaxing)
 .eh_frame      0x00000000001190e8       0x30 binaries/xsh_cat.o
                                         0x48 (size before relaxing)
 .eh_frame      0x0000000000119118       0x20 binaries/xsh_clear.o
                                         0x38 (size before relaxing)
 .eh_frame      0x0000000000119138       0x24 binaries/xsh_date.o
                                         0x3c (size before relaxing)
 .eh_frame      0x000000000011915c       0x28 binaries/xsh_devdump.o
                                         0x40 (size before relaxing)
 .eh_frame      0x0000000000119184       0x2c binaries/xsh_echo.o
                                         0x44 (size before relaxing)
 .eh_frame      0x00000000001191b0       0x20 binaries/xsh_exit.o
                                         0x38 (size before relaxing)
 .eh_frame      0x00000000001191d0       0x30 binaries/xsh_help.o
                                         0x48 (size before relaxing)
 .eh_frame      0x0000000000119200       0x2c binaries/xsh_ipaddr.o
                                         0x44 (size before relaxing)
 .eh_frame      0x000000000011922c       0x2c binaries/xsh_kill.o
                                         0x44 (size before relaxing)
 .eh_frame      0x0000000000119258       0x58 binaries/xsh_memdump.o
                                         0x70 (size before relaxing)
 .eh_frame      0x00000000001192b0       0x30 binaries/xsh_memstat.o
                                         0x48 (size before relaxing)
 .eh_frame      0x00000000001192e0       0x30 binaries/xsh_ping.o
                                         0x48 (size before relaxing)
 .eh_frame      0x0000000000119310       0x30 binaries/xsh_ps.o
                                         0x48 (size before relaxing)
 .eh_frame      0x0000000000119340       0x30 binaries/xsh_sleep.o
                                         0x48 (size before relaxing)
 .eh_frame      0x0000000000119370       0x2c binaries/xsh_udpdump.o
                                         0x44 (size before relaxing)
 .eh_frame      0x000000000011939c       0x30 binaries/xsh_udpecho.o
                                         0x48 (size before relaxing)
 .eh_frame      0x00000000001193cc       0x30 binaries/xsh_udpeserver.o
                                         0x48 (size before relaxing)
 .eh_frame      0x00000000001193fc       0x30 binaries/xsh_uptime.o
                                         0x48 (size before relaxing)
 .eh_frame      0x000000000011942c       0x14 binaries/host2netlc.o
                                         0x2c (size before relaxing)

.iplt           0x0000000000119440        0x0
 .iplt          0x0000000000119440        0x0 binaries/start.o

.rel.dyn        0x0000000000119440        0x0
 .rel.iplt      0x0000000000119440        0x0 binaries/start.o
 .rel.text      0x0000000000119440        0x0 binaries/start.o
 .rel.data      0x0000000000119440        0x0 binaries/start.o
 .rel.rodata    0x0000000000119440        0x0 binaries/start.o

.data           0x0000000000119440     0x1bc0
                0x0000000000119440                data = ABSOLUTE (.)
 *(.data .data.*)
 .data          0x0000000000119440      0x85a binaries/start.o
                0x0000000000119440                gdt
                0x0000000000119490                idt
                0x0000000000119c96                cpudelay
 .data          0x0000000000119c9a        0x0 binaries/app1.o
 .data          0x0000000000119c9a        0x0 binaries/app2.o
 .data          0x0000000000119c9a        0x0 binaries/app3.o
 *fill*         0x0000000000119c9a        0x6 
 .data          0x0000000000119ca0       0x88 binaries/ascdate.o
                0x0000000000119ca0                Date
 .data          0x0000000000119d28        0x0 binaries/bufinit.o
 .data          0x0000000000119d28        0x0 binaries/chprio.o
 .data          0x0000000000119d28        0x4 binaries/clkhandler.o
 .data          0x0000000000119d2c        0x0 binaries/clkinit.o
 .data          0x0000000000119d2c        0x0 binaries/close.o
 *fill*         0x0000000000119d2c       0x14 
 .data          0x0000000000119d40      0x30c binaries/conf.o
                0x0000000000119d40                devtab
 .data          0x000000000011a04c        0x0 binaries/control.o
 .data          0x000000000011a04c        0x0 binaries/cpubound.o
 .data          0x000000000011a04c        0x4 binaries/create.o
 .data          0x000000000011a050        0x0 binaries/early_imr.o
 *fill*         0x000000000011a050       0x10 
 .data          0x000000000011a060       0x40 binaries/evec.o
                0x000000000011a060                inames
 .data          0x000000000011a0a0        0x0 binaries/factorial.o
 .data          0x000000000011a0a0        0x0 binaries/freebuf.o
 .data          0x000000000011a0a0        0x0 binaries/freemem.o
 .data          0x000000000011a0a0        0x0 binaries/getbuf.o
 .data          0x000000000011a0a0        0x0 binaries/getc.o
 .data          0x000000000011a0a0        0x0 binaries/getdev.o
 .data          0x000000000011a0a0        0x0 binaries/getitem.o
 .data          0x000000000011a0a0        0x0 binaries/getmem.o
 .data          0x000000000011a0a0        0x0 binaries/getpid.o
 .data          0x000000000011a0a0        0x0 binaries/getpname.o
 .data          0x000000000011a0a0        0x0 binaries/getppid.o
 .data          0x000000000011a0a0        0x0 binaries/getprio.o
 .data          0x000000000011a0a0        0x0 binaries/getstk.o
 .data          0x000000000011a0a0        0x0 binaries/gettime.o
 .data          0x000000000011a0a0        0x0 binaries/getutime.o
 .data          0x000000000011a0a0        0x0 binaries/host2netlb.o
 .data          0x000000000011a0a0        0x0 binaries/init.o
 .data          0x000000000011a0a0        0x0 binaries/initialize.o
 .data          0x000000000011a0a0        0x0 binaries/insert.o
 .data          0x000000000011a0a0        0x0 binaries/insertd.o
 .data          0x000000000011a0a0        0x0 binaries/iobound.o
 .data          0x000000000011a0a0        0x0 binaries/ioerr.o
 .data          0x000000000011a0a0        0x0 binaries/ionull.o
 .data          0x000000000011a0a0        0x0 binaries/kill.o
 .data          0x000000000011a0a0        0x0 binaries/kprintf.o
 .data          0x000000000011a0a0        0x0 binaries/lab2q3.o
 .data          0x000000000011a0a0        0x0 binaries/lab2q4.o
 .data          0x000000000011a0a0        0x4 binaries/main.o
                0x000000000011a0a0                lab2flag
 .data          0x000000000011a0a4        0x0 binaries/mark.o
 *fill*         0x000000000011a0a4       0x1c 
 .data          0x000000000011a0c0       0x48 binaries/meminit.o
                0x000000000011a0c0                gdt_copy
                0x000000000011a100                bootinfo
                0x000000000011a104                bootsign
 .data          0x000000000011a108        0x0 binaries/mkbufpool.o
 .data          0x000000000011a108        0x0 binaries/myappA.o
 .data          0x000000000011a108        0x0 binaries/myfuncA.o
 .data          0x000000000011a108        0x0 binaries/myhacker.o
 .data          0x000000000011a108        0x0 binaries/myvictim.o
 .data          0x000000000011a108        0x0 binaries/mywelcomemsg.o
 .data          0x000000000011a108        0x2 binaries/newqueue.o
 .data          0x000000000011a10a        0x0 binaries/open.o
 .data          0x000000000011a10a        0x0 binaries/panic.o
 .data          0x000000000011a10a        0x0 binaries/pci.o
 .data          0x000000000011a10a        0x0 binaries/platinit.o
 .data          0x000000000011a10a        0x0 binaries/printsegaddr.o
 .data          0x000000000011a10a        0x0 binaries/process_state.o
 .data          0x000000000011a10a        0x0 binaries/ptclear.o
 .data          0x000000000011a10a        0x0 binaries/ptcount.o
 .data          0x000000000011a10a        0x0 binaries/ptcreate.o
 .data          0x000000000011a10a        0x0 binaries/ptdelete.o
 .data          0x000000000011a10a        0x0 binaries/ptinit.o
 .data          0x000000000011a10a        0x0 binaries/ptrecv.o
 .data          0x000000000011a10a        0x0 binaries/ptreset.o
 .data          0x000000000011a10a        0x0 binaries/ptsend.o
 .data          0x000000000011a10a        0x0 binaries/putc.o
 .data          0x000000000011a10a        0x0 binaries/quark_irq.o
 .data          0x000000000011a10a        0x0 binaries/quark_pdat.o
 .data          0x000000000011a10a        0x0 binaries/queue.o
 .data          0x000000000011a10a        0x0 binaries/read.o
 .data          0x000000000011a10a        0x0 binaries/ready.o
 .data          0x000000000011a10a        0x0 binaries/receive.o
 .data          0x000000000011a10a        0x0 binaries/recvclr.o
 .data          0x000000000011a10a        0x0 binaries/recvtime.o
 .data          0x000000000011a10a        0x0 binaries/resched.o
 .data          0x000000000011a10a        0x0 binaries/resume.o
 .data          0x000000000011a10a        0x0 binaries/seek.o
 .data          0x000000000011a10a        0x0 binaries/semcount.o
 .data          0x000000000011a10a        0x0 binaries/semcreate.o
 .data          0x000000000011a10a        0x0 binaries/semdelete.o
 .data          0x000000000011a10a        0x0 binaries/semreset.o
 .data          0x000000000011a10a        0x0 binaries/send.o
 .data          0x000000000011a10a        0x0 binaries/signal.o
 .data          0x000000000011a10a        0x0 binaries/signaln.o
 .data          0x000000000011a10a        0x0 binaries/sleep.o
 .data          0x000000000011a10a        0x0 binaries/stackdepth.o
 .data          0x000000000011a10a        0x0 binaries/stacktrace.o
 .data          0x000000000011a10a        0x0 binaries/suspend.o
 .data          0x000000000011a10a        0x0 binaries/teststackdepth.o
 .data          0x000000000011a10a        0x0 binaries/unsleep.o
 .data          0x000000000011a10a        0x0 binaries/userret.o
 .data          0x000000000011a10a        0x0 binaries/wait.o
 .data          0x000000000011a10a        0x0 binaries/wakeup.o
 .data          0x000000000011a10a        0x0 binaries/write.o
 .data          0x000000000011a10a        0x0 binaries/xdone.o
 .data          0x000000000011a10a        0x0 binaries/yield.o
 .data          0x000000000011a10a        0x0 binaries/abs.o
 .data          0x000000000011a10a        0x0 binaries/atoi.o
 .data          0x000000000011a10a        0x0 binaries/atol.o
 .data          0x000000000011a10a        0x0 binaries/bzero.o
 .data          0x000000000011a10a        0x0 binaries/ctype_.o
 .data          0x000000000011a10a        0x0 binaries/doprnt.o
 *fill*         0x000000000011a10a       0x16 
 .data          0x000000000011a120       0x80 binaries/doscan.o
                0x000000000011a120                _sctab
 .data          0x000000000011a1a0        0x0 binaries/fdoprnt.o
 .data          0x000000000011a1a0        0x0 binaries/fgetc.o
 .data          0x000000000011a1a0        0x0 binaries/fgets.o
 .data          0x000000000011a1a0        0x0 binaries/fprintf.o
 .data          0x000000000011a1a0        0x0 binaries/fputc.o
 .data          0x000000000011a1a0        0x0 binaries/fputs.o
 .data          0x000000000011a1a0        0x0 binaries/fscanf.o
 .data          0x000000000011a1a0        0x0 binaries/getchar.o
 .data          0x000000000011a1a0        0x0 binaries/labs.o
 .data          0x000000000011a1a0        0x0 binaries/memchr.o
 .data          0x000000000011a1a0        0x0 binaries/memcmp.o
 .data          0x000000000011a1a0        0x0 binaries/memcpy.o
 .data          0x000000000011a1a0        0x0 binaries/memset.o
 .data          0x000000000011a1a0        0x0 binaries/printf.o
 .data          0x000000000011a1a0        0x0 binaries/putchar.o
 .data          0x000000000011a1a0        0x0 binaries/qsort.o
 .data          0x000000000011a1a0        0x4 binaries/rand.o
 .data          0x000000000011a1a4        0x0 binaries/sprintf.o
 .data          0x000000000011a1a4        0x0 binaries/sscanf.o
 .data          0x000000000011a1a4        0x0 binaries/strchr.o
 .data          0x000000000011a1a4        0x0 binaries/strcmp.o
 .data          0x000000000011a1a4        0x0 binaries/strcpy.o
 .data          0x000000000011a1a4        0x0 binaries/strlen.o
 .data          0x000000000011a1a4        0x0 binaries/strncat.o
 .data          0x000000000011a1a4        0x0 binaries/strncmp.o
 .data          0x000000000011a1a4        0x0 binaries/strncpy.o
 .data          0x000000000011a1a4        0x0 binaries/strnlen.o
 .data          0x000000000011a1a4        0x0 binaries/strrchr.o
 .data          0x000000000011a1a4        0x0 binaries/strstr.o
 .data          0x000000000011a1a4        0x0 binaries/ttycontrol.o
 .data          0x000000000011a1a4        0x0 binaries/ttygetc.o
 .data          0x000000000011a1a4        0x0 binaries/ttyhandle_in.o
 .data          0x000000000011a1a4        0x0 binaries/ttyhandle_out.o
 .data          0x000000000011a1a4        0x0 binaries/ttyhandler.o
 .data          0x000000000011a1a4        0x0 binaries/ttyinit.o
 .data          0x000000000011a1a4        0x0 binaries/ttykickout.o
 .data          0x000000000011a1a4        0x0 binaries/ttyputc.o
 .data          0x000000000011a1a4        0x0 binaries/ttyread.o
 .data          0x000000000011a1a4        0x0 binaries/ttywrite.o
 .data          0x000000000011a1a4        0x0 binaries/mount.o
 .data          0x000000000011a1a4        0x0 binaries/naminit.o
 .data          0x000000000011a1a4        0x0 binaries/nammap.o
 .data          0x000000000011a1a4        0x0 binaries/namopen.o
 .data          0x000000000011a1a4        0x0 binaries/colon2mac.o
 .data          0x000000000011a1a4        0x0 binaries/ethcontrol.o
 .data          0x000000000011a1a4        0x0 binaries/ethhandler.o
 .data          0x000000000011a1a4        0x0 binaries/ethinit.o
 .data          0x000000000011a1a4        0x0 binaries/ethmcast.o
 .data          0x000000000011a1a4        0x0 binaries/ethread.o
 .data          0x000000000011a1a4        0x0 binaries/ethwrite.o
 .data          0x000000000011a1a4        0x0 binaries/rdsbufalloc.o
 .data          0x000000000011a1a4        0x0 binaries/rdsclose.o
 .data          0x000000000011a1a4        0x0 binaries/rdscomm.o
 .data          0x000000000011a1a4        0x0 binaries/rdscontrol.o
 .data          0x000000000011a1a4        0x0 binaries/rdsinit.o
 .data          0x000000000011a1a4        0x0 binaries/rdsopen.o
 .data          0x000000000011a1a4        0x0 binaries/rdsprocess.o
 .data          0x000000000011a1a4        0x0 binaries/rdsread.o
 .data          0x000000000011a1a4        0x0 binaries/rdswrite.o
 .data          0x000000000011a1a4        0x0 binaries/ramclose.o
 .data          0x000000000011a1a4        0x0 binaries/raminit.o
 .data          0x000000000011a1a4        0x0 binaries/ramopen.o
 .data          0x000000000011a1a4        0x0 binaries/ramread.o
 .data          0x000000000011a1a4        0x0 binaries/ramwrite.o
 .data          0x000000000011a1a4        0x0 binaries/lfdballoc.o
 .data          0x000000000011a1a4        0x0 binaries/lfdbfree.o
 .data          0x000000000011a1a4        0x0 binaries/lfflush.o
 .data          0x000000000011a1a4        0x0 binaries/lfgetmode.o
 .data          0x000000000011a1a4        0x0 binaries/lfiballoc.o
 .data          0x000000000011a1a4        0x0 binaries/lfibclear.o
 .data          0x000000000011a1a4        0x0 binaries/lfibget.o
 .data          0x000000000011a1a4        0x0 binaries/lfibput.o
 .data          0x000000000011a1a4        0x0 binaries/lflclose.o
 .data          0x000000000011a1a4        0x0 binaries/lflcontrol.o
 .data          0x000000000011a1a4        0x0 binaries/lflgetc.o
 .data          0x000000000011a1a4        0x0 binaries/lflinit.o
 .data          0x000000000011a1a4        0x0 binaries/lflputc.o
 .data          0x000000000011a1a4        0x0 binaries/lflread.o
 .data          0x000000000011a1a4        0x0 binaries/lflseek.o
 .data          0x000000000011a1a4        0x0 binaries/lflwrite.o
 .data          0x000000000011a1a4        0x0 binaries/lfsckfmt.o
 .data          0x000000000011a1a4        0x0 binaries/lfscreate.o
 .data          0x000000000011a1a4        0x0 binaries/lfsetup.o
 .data          0x000000000011a1a4        0x0 binaries/lfsinit.o
 .data          0x000000000011a1a4        0x0 binaries/lfsopen.o
 .data          0x000000000011a1a4        0x0 binaries/lftruncate.o
 .data          0x000000000011a1a4        0x0 binaries/rflclose.o
 .data          0x000000000011a1a4        0x0 binaries/rflgetc.o
 .data          0x000000000011a1a4        0x0 binaries/rflinit.o
 .data          0x000000000011a1a4        0x0 binaries/rflputc.o
 .data          0x000000000011a1a4        0x0 binaries/rflread.o
 .data          0x000000000011a1a4        0x0 binaries/rflseek.o
 .data          0x000000000011a1a4        0x0 binaries/rflwrite.o
 .data          0x000000000011a1a4        0x0 binaries/rfscomm.o
 .data          0x000000000011a1a4        0x0 binaries/rfscontrol.o
 .data          0x000000000011a1a4        0x0 binaries/rfsgetmode.o
 .data          0x000000000011a1a4        0x0 binaries/rfsinit.o
 .data          0x000000000011a1a4        0x0 binaries/rfsndmsg.o
 .data          0x000000000011a1a4        0x0 binaries/rfsopen.o
 .data          0x000000000011a1a4        0x0 binaries/arp.o
 .data          0x000000000011a1a4        0x0 binaries/dhcp.o
 .data          0x000000000011a1a4        0x0 binaries/dot2ip.o
 .data          0x000000000011a1a4        0x0 binaries/hexdump.o
 .data          0x000000000011a1a4        0x4 binaries/icmp.o
 .data          0x000000000011a1a8        0x0 binaries/ip.o
 .data          0x000000000011a1a8        0x0 binaries/net.o
 .data          0x000000000011a1a8        0x0 binaries/netstart.o
 .data          0x000000000011a1a8        0x0 binaries/pdump.o
 .data          0x000000000011a1a8        0x0 binaries/tftp.o
 .data          0x000000000011a1a8        0x4 binaries/udp.o
 .data          0x000000000011a1ac        0x0 binaries/addargs.o
 .data          0x000000000011a1ac        0x0 binaries/lexan.o
 .data          0x000000000011a1ac        0x4 binaries/shell.o
                0x000000000011a1ac                ncmd
 .data          0x000000000011a1b0        0x0 binaries/xsh_argecho.o
 .data          0x000000000011a1b0        0x0 binaries/xsh_arp.o
 .data          0x000000000011a1b0        0x0 binaries/xsh_cat.o
 .data          0x000000000011a1b0        0x0 binaries/xsh_clear.o
 .data          0x000000000011a1b0        0x0 binaries/xsh_date.o
 .data          0x000000000011a1b0        0x0 binaries/xsh_devdump.o
 .data          0x000000000011a1b0        0x0 binaries/xsh_echo.o
 .data          0x000000000011a1b0        0x0 binaries/xsh_exit.o
 .data          0x000000000011a1b0        0x0 binaries/xsh_help.o
 .data          0x000000000011a1b0        0x0 binaries/xsh_ipaddr.o
 .data          0x000000000011a1b0        0x0 binaries/xsh_kill.o
 .data          0x000000000011a1b0        0x0 binaries/xsh_memdump.o
 .data          0x000000000011a1b0        0x0 binaries/xsh_memstat.o
 .data          0x000000000011a1b0        0x0 binaries/xsh_ping.o
 .data          0x000000000011a1b0        0x0 binaries/xsh_ps.o
 .data          0x000000000011a1b0        0x0 binaries/xsh_sleep.o
 .data          0x000000000011a1b0        0x0 binaries/xsh_udpdump.o
 .data          0x000000000011a1b0        0x0 binaries/xsh_udpecho.o
 .data          0x000000000011a1b0        0x0 binaries/xsh_udpeserver.o
 .data          0x000000000011a1b0        0x0 binaries/xsh_uptime.o
 .data          0x000000000011a1b0        0x0 binaries/clkdisp.o
 .data          0x000000000011a1b0        0x0 binaries/ctxsw.o
 .data          0x000000000011a1b0        0x0 binaries/host2netla.o
 .data          0x000000000011a1b0        0x0 binaries/host2netlc.o
 .data          0x000000000011a1b0        0x0 binaries/intr.o
 .data          0x000000000011a1b0        0x0 binaries/ttydispatch.o
 .data          0x000000000011a1b0        0x0 binaries/ethdispatch.o
                0x000000000011a1b0                edata = ABSOLUTE (.)
                0x000000000011b000                . = ALIGN (0x1000)
 *fill*         0x000000000011a1b0      0xe50 

.igot.plt       0x000000000011b000        0x0
 .igot.plt      0x000000000011b000        0x0 binaries/start.o

.bss            0x000000000011b000    0x20000
                0x000000000011b000                bss = ABSOLUTE (.)
 *(.bss .bss.*)
 .bss           0x000000000011b000        0x0 binaries/start.o
 .bss           0x000000000011b000        0x0 binaries/app1.o
 .bss           0x000000000011b000        0x0 binaries/app2.o
 .bss           0x000000000011b000        0x0 binaries/app3.o
 .bss           0x000000000011b000        0x0 binaries/ascdate.o
 .bss           0x000000000011b000        0x0 binaries/bufinit.o
 .bss           0x000000000011b000        0x0 binaries/chprio.o
 .bss           0x000000000011b000        0x0 binaries/clkhandler.o
 .bss           0x000000000011b000        0x4 binaries/clkinit.o
                0x000000000011b000                ctr1000
 .bss           0x000000000011b004        0x0 binaries/close.o
 .bss           0x000000000011b004        0x0 binaries/conf.o
 .bss           0x000000000011b004        0x0 binaries/control.o
 .bss           0x000000000011b004        0x0 binaries/cpubound.o
 .bss           0x000000000011b004        0x0 binaries/create.o
 .bss           0x000000000011b004        0x0 binaries/early_imr.o
 .bss           0x000000000011b004        0x0 binaries/evec.o
 .bss           0x000000000011b004        0x0 binaries/factorial.o
 .bss           0x000000000011b004        0x0 binaries/freebuf.o
 .bss           0x000000000011b004        0x0 binaries/freemem.o
 .bss           0x000000000011b004        0x0 binaries/getbuf.o
 .bss           0x000000000011b004        0x0 binaries/getc.o
 .bss           0x000000000011b004        0x0 binaries/getdev.o
 .bss           0x000000000011b004        0x0 binaries/getitem.o
 .bss           0x000000000011b004        0x0 binaries/getmem.o
 .bss           0x000000000011b004        0x0 binaries/getpid.o
 .bss           0x000000000011b004        0x0 binaries/getpname.o
 .bss           0x000000000011b004        0x0 binaries/getppid.o
 .bss           0x000000000011b004        0x0 binaries/getprio.o
 .bss           0x000000000011b004        0x0 binaries/getstk.o
 .bss           0x000000000011b004        0x0 binaries/gettime.o
 .bss           0x000000000011b004        0x0 binaries/getutime.o
 .bss           0x000000000011b004        0x0 binaries/host2netlb.o
 .bss           0x000000000011b004        0x0 binaries/init.o
 .bss           0x000000000011b004        0x0 binaries/initialize.o
 .bss           0x000000000011b004        0x0 binaries/insert.o
 .bss           0x000000000011b004        0x0 binaries/insertd.o
 .bss           0x000000000011b004        0x0 binaries/iobound.o
 .bss           0x000000000011b004        0x0 binaries/ioerr.o
 .bss           0x000000000011b004        0x0 binaries/ionull.o
 .bss           0x000000000011b004        0x0 binaries/kill.o
 .bss           0x000000000011b004        0x0 binaries/kprintf.o
 .bss           0x000000000011b004        0x0 binaries/lab2q3.o
 .bss           0x000000000011b004        0x0 binaries/lab2q4.o
 .bss           0x000000000011b004        0x0 binaries/main.o
 .bss           0x000000000011b004        0x0 binaries/mark.o
 .bss           0x000000000011b004        0x0 binaries/meminit.o
 .bss           0x000000000011b004        0x0 binaries/mkbufpool.o
 .bss           0x000000000011b004        0x0 binaries/myappA.o
 .bss           0x000000000011b004        0x0 binaries/myfuncA.o
 .bss           0x000000000011b004        0x0 binaries/myhacker.o
 .bss           0x000000000011b004        0x0 binaries/myvictim.o
 .bss           0x000000000011b004        0x0 binaries/mywelcomemsg.o
 .bss           0x000000000011b004        0x0 binaries/newqueue.o
 .bss           0x000000000011b004        0x0 binaries/open.o
 .bss           0x000000000011b004        0x0 binaries/panic.o
 .bss           0x000000000011b004        0x0 binaries/pci.o
 .bss           0x000000000011b004        0x0 binaries/platinit.o
 .bss           0x000000000011b004        0x0 binaries/printsegaddr.o
 .bss           0x000000000011b004        0x0 binaries/process_state.o
 .bss           0x000000000011b004        0x0 binaries/ptclear.o
 .bss           0x000000000011b004        0x0 binaries/ptcount.o
 .bss           0x000000000011b004        0x0 binaries/ptcreate.o
 .bss           0x000000000011b004        0x0 binaries/ptdelete.o
 .bss           0x000000000011b004        0x0 binaries/ptinit.o
 .bss           0x000000000011b004        0x0 binaries/ptrecv.o
 .bss           0x000000000011b004        0x0 binaries/ptreset.o
 .bss           0x000000000011b004        0x0 binaries/ptsend.o
 .bss           0x000000000011b004        0x0 binaries/putc.o
 .bss           0x000000000011b004        0x0 binaries/quark_irq.o
 .bss           0x000000000011b004        0x0 binaries/quark_pdat.o
 .bss           0x000000000011b004        0x0 binaries/queue.o
 .bss           0x000000000011b004        0x0 binaries/read.o
 .bss           0x000000000011b004        0x0 binaries/ready.o
 .bss           0x000000000011b004        0x0 binaries/receive.o
 .bss           0x000000000011b004        0x0 binaries/recvclr.o
 .bss           0x000000000011b004        0x0 binaries/recvtime.o
 .bss           0x000000000011b004        0x0 binaries/resched.o
 .bss           0x000000000011b004        0x0 binaries/resume.o
 .bss           0x000000000011b004        0x0 binaries/seek.o
 .bss           0x000000000011b004        0x0 binaries/semcount.o
 .bss           0x000000000011b004        0x4 binaries/semcreate.o
 .bss           0x000000000011b008        0x0 binaries/semdelete.o
 .bss           0x000000000011b008        0x0 binaries/semreset.o
 .bss           0x000000000011b008        0x0 binaries/send.o
 .bss           0x000000000011b008        0x0 binaries/signal.o
 .bss           0x000000000011b008        0x0 binaries/signaln.o
 .bss           0x000000000011b008        0x0 binaries/sleep.o
 .bss           0x000000000011b008        0x0 binaries/stackdepth.o
 .bss           0x000000000011b008        0x8 binaries/stacktrace.o
 .bss           0x000000000011b010        0x0 binaries/suspend.o
 .bss           0x000000000011b010        0x0 binaries/teststackdepth.o
 .bss           0x000000000011b010        0x0 binaries/unsleep.o
 .bss           0x000000000011b010        0x0 binaries/userret.o
 .bss           0x000000000011b010        0x0 binaries/wait.o
 .bss           0x000000000011b010        0x0 binaries/wakeup.o
 .bss           0x000000000011b010        0x0 binaries/write.o
 .bss           0x000000000011b010        0x0 binaries/xdone.o
 .bss           0x000000000011b010        0x0 binaries/yield.o
 .bss           0x000000000011b010        0x0 binaries/abs.o
 .bss           0x000000000011b010        0x0 binaries/atoi.o
 .bss           0x000000000011b010        0x0 binaries/atol.o
 .bss           0x000000000011b010        0x0 binaries/bzero.o
 .bss           0x000000000011b010        0x0 binaries/ctype_.o
 .bss           0x000000000011b010        0x0 binaries/doprnt.o
 .bss           0x000000000011b010        0x0 binaries/doscan.o
 .bss           0x000000000011b010        0x0 binaries/fdoprnt.o
 .bss           0x000000000011b010        0x0 binaries/fgetc.o
 .bss           0x000000000011b010        0x0 binaries/fgets.o
 .bss           0x000000000011b010        0x0 binaries/fprintf.o
 .bss           0x000000000011b010        0x0 binaries/fputc.o
 .bss           0x000000000011b010        0x0 binaries/fputs.o
 .bss           0x000000000011b010        0x0 binaries/fscanf.o
 .bss           0x000000000011b010        0x0 binaries/getchar.o
 .bss           0x000000000011b010        0x0 binaries/labs.o
 .bss           0x000000000011b010        0x0 binaries/memchr.o
 .bss           0x000000000011b010        0x0 binaries/memcmp.o
 .bss           0x000000000011b010        0x0 binaries/memcpy.o
 .bss           0x000000000011b010        0x0 binaries/memset.o
 .bss           0x000000000011b010        0x0 binaries/printf.o
 .bss           0x000000000011b010        0x0 binaries/putchar.o
 .bss           0x000000000011b010        0x8 binaries/qsort.o
 .bss           0x000000000011b018        0x0 binaries/rand.o
 .bss           0x000000000011b018        0x0 binaries/sprintf.o
 .bss           0x000000000011b018        0x0 binaries/sscanf.o
 .bss           0x000000000011b018        0x0 binaries/strchr.o
 .bss           0x000000000011b018        0x0 binaries/strcmp.o
 .bss           0x000000000011b018        0x0 binaries/strcpy.o
 .bss           0x000000000011b018        0x0 binaries/strlen.o
 .bss           0x000000000011b018        0x0 binaries/strncat.o
 .bss           0x000000000011b018        0x0 binaries/strncmp.o
 .bss           0x000000000011b018        0x0 binaries/strncpy.o
 .bss           0x000000000011b018        0x0 binaries/strnlen.o
 .bss           0x000000000011b018        0x0 binaries/strrchr.o
 .bss           0x000000000011b018        0x0 binaries/strstr.o
 .bss           0x000000000011b018        0x0 binaries/ttycontrol.o
 .bss           0x000000000011b018        0x0 binaries/ttygetc.o
 .bss           0x000000000011b018        0x0 binaries/ttyhandle_in.o
 .bss           0x000000000011b018        0x0 binaries/ttyhandle_out.o
 .bss           0x000000000011b018        0x0 binaries/ttyhandler.o
 .bss           0x000000000011b018        0x0 binaries/ttyinit.o
 .bss           0x000000000011b018        0x0 binaries/ttykickout.o
 .bss           0x000000000011b018        0x0 binaries/ttyputc.o
 .bss           0x000000000011b018        0x0 binaries/ttyread.o
 .bss           0x000000000011b018        0x0 binaries/ttywrite.o
 .bss           0x000000000011b018        0x0 binaries/mount.o
 .bss           0x000000000011b018        0x0 binaries/naminit.o
 .bss           0x000000000011b018        0x0 binaries/nammap.o
 .bss           0x000000000011b018        0x0 binaries/namopen.o
 .bss           0x000000000011b018        0x0 binaries/colon2mac.o
 .bss           0x000000000011b018        0x0 binaries/ethcontrol.o
 .bss           0x000000000011b018        0x0 binaries/ethhandler.o
 .bss           0x000000000011b018        0x0 binaries/ethinit.o
 .bss           0x000000000011b018        0x0 binaries/ethmcast.o
 .bss           0x000000000011b018        0x0 binaries/ethread.o
 .bss           0x000000000011b018        0x0 binaries/ethwrite.o
 .bss           0x000000000011b018        0x0 binaries/rdsbufalloc.o
 .bss           0x000000000011b018        0x0 binaries/rdsclose.o
 .bss           0x000000000011b018        0x0 binaries/rdscomm.o
 .bss           0x000000000011b018        0x0 binaries/rdscontrol.o
 .bss           0x000000000011b018        0x0 binaries/rdsinit.o
 .bss           0x000000000011b018        0x0 binaries/rdsopen.o
 .bss           0x000000000011b018        0x0 binaries/rdsprocess.o
 .bss           0x000000000011b018        0x0 binaries/rdsread.o
 .bss           0x000000000011b018        0x0 binaries/rdswrite.o
 .bss           0x000000000011b018        0x0 binaries/ramclose.o
 .bss           0x000000000011b018        0x0 binaries/raminit.o
 .bss           0x000000000011b018        0x0 binaries/ramopen.o
 .bss           0x000000000011b018        0x0 binaries/ramread.o
 .bss           0x000000000011b018        0x0 binaries/ramwrite.o
 .bss           0x000000000011b018        0x0 binaries/lfdballoc.o
 .bss           0x000000000011b018        0x0 binaries/lfdbfree.o
 .bss           0x000000000011b018        0x0 binaries/lfflush.o
 .bss           0x000000000011b018        0x0 binaries/lfgetmode.o
 .bss           0x000000000011b018        0x0 binaries/lfiballoc.o
 .bss           0x000000000011b018        0x0 binaries/lfibclear.o
 .bss           0x000000000011b018        0x0 binaries/lfibget.o
 .bss           0x000000000011b018        0x0 binaries/lfibput.o
 .bss           0x000000000011b018        0x0 binaries/lflclose.o
 .bss           0x000000000011b018        0x0 binaries/lflcontrol.o
 .bss           0x000000000011b018        0x0 binaries/lflgetc.o
 .bss           0x000000000011b018        0x0 binaries/lflinit.o
 .bss           0x000000000011b018        0x0 binaries/lflputc.o
 .bss           0x000000000011b018        0x0 binaries/lflread.o
 .bss           0x000000000011b018        0x0 binaries/lflseek.o
 .bss           0x000000000011b018        0x0 binaries/lflwrite.o
 .bss           0x000000000011b018        0x0 binaries/lfsckfmt.o
 .bss           0x000000000011b018        0x0 binaries/lfscreate.o
 .bss           0x000000000011b018        0x0 binaries/lfsetup.o
 .bss           0x000000000011b018        0x0 binaries/lfsinit.o
 .bss           0x000000000011b018        0x0 binaries/lfsopen.o
 .bss           0x000000000011b018        0x0 binaries/lftruncate.o
 .bss           0x000000000011b018        0x0 binaries/rflclose.o
 .bss           0x000000000011b018        0x0 binaries/rflgetc.o
 .bss           0x000000000011b018        0x0 binaries/rflinit.o
 .bss           0x000000000011b018        0x0 binaries/rflputc.o
 .bss           0x000000000011b018        0x0 binaries/rflread.o
 .bss           0x000000000011b018        0x0 binaries/rflseek.o
 .bss           0x000000000011b018        0x0 binaries/rflwrite.o
 .bss           0x000000000011b018        0x0 binaries/rfscomm.o
 .bss           0x000000000011b018        0x0 binaries/rfscontrol.o
 .bss           0x000000000011b018        0x0 binaries/rfsgetmode.o
 .bss           0x000000000011b018        0x0 binaries/rfsinit.o
 .bss           0x000000000011b018        0x0 binaries/rfsndmsg.o
 .bss           0x000000000011b018        0x0 binaries/rfsopen.o
 .bss           0x000000000011b018        0x0 binaries/arp.o
 .bss           0x000000000011b018        0x0 binaries/dhcp.o
 .bss           0x000000000011b018        0x0 binaries/dot2ip.o
 .bss           0x000000000011b018        0x0 binaries/hexdump.o
 .bss           0x000000000011b018        0x0 binaries/icmp.o
 .bss           0x000000000011b018        0x0 binaries/ip.o
 .bss           0x000000000011b018        0x0 binaries/net.o
 .bss           0x000000000011b018        0x0 binaries/netstart.o
 .bss           0x000000000011b018        0x0 binaries/pdump.o
 .bss           0x000000000011b018        0x0 binaries/tftp.o
 .bss           0x000000000011b018        0x0 binaries/udp.o
 .bss           0x000000000011b018        0x0 binaries/addargs.o
 .bss           0x000000000011b018        0x0 binaries/lexan.o
 .bss           0x000000000011b018        0x0 binaries/shell.o
 .bss           0x000000000011b018        0x0 binaries/xsh_argecho.o
 .bss           0x000000000011b018        0x0 binaries/xsh_arp.o
 .bss           0x000000000011b018        0x0 binaries/xsh_cat.o
 .bss           0x000000000011b018        0x0 binaries/xsh_clear.o
 .bss           0x000000000011b018        0x0 binaries/xsh_date.o
 .bss           0x000000000011b018        0x0 binaries/xsh_devdump.o
 .bss           0x000000000011b018        0x0 binaries/xsh_echo.o
 .bss           0x000000000011b018        0x0 binaries/xsh_exit.o
 .bss           0x000000000011b018        0x0 binaries/xsh_help.o
 .bss           0x000000000011b018        0x0 binaries/xsh_ipaddr.o
 .bss           0x000000000011b018        0x0 binaries/xsh_kill.o
 .bss           0x000000000011b018        0x0 binaries/xsh_memdump.o
 .bss           0x000000000011b018        0x0 binaries/xsh_memstat.o
 .bss           0x000000000011b018        0x4 binaries/xsh_ping.o
 .bss           0x000000000011b01c        0x0 binaries/xsh_ps.o
 .bss           0x000000000011b01c        0x0 binaries/xsh_sleep.o
 .bss           0x000000000011b01c        0x0 binaries/xsh_udpdump.o
 .bss           0x000000000011b01c        0x0 binaries/xsh_udpecho.o
 .bss           0x000000000011b01c        0x0 binaries/xsh_udpeserver.o
 .bss           0x000000000011b01c        0x0 binaries/xsh_uptime.o
 .bss           0x000000000011b01c        0x0 binaries/clkdisp.o
 .bss           0x000000000011b01c        0x0 binaries/ctxsw.o
 .bss           0x000000000011b01c        0x0 binaries/host2netla.o
 .bss           0x000000000011b01c        0x0 binaries/host2netlc.o
 .bss           0x000000000011b01c        0x0 binaries/intr.o
 .bss           0x000000000011b01c        0x0 binaries/ttydispatch.o
 .bss           0x000000000011b01c        0x0 binaries/ethdispatch.o
 *(COMMON)
 *fill*         0x000000000011b01c        0x4 
 COMMON         0x000000000011b020       0xf4 binaries/bufinit.o
                0x000000000011b020                buftab
                0x000000000011b110                nbpools
 COMMON         0x000000000011b114       0x10 binaries/clkinit.o
                0x000000000011b114                sleepq
                0x000000000011b118                preempt
                0x000000000011b11c                clktimemsec
                0x000000000011b120                clktime
 COMMON         0x000000000011b124        0x2 binaries/evec.o
                0x000000000011b124                girmask
 *fill*         0x000000000011b126       0x1a 
 COMMON         0x000000000011b140     0x1df8 binaries/initialize.o
                0x000000000011b140                currpid
                0x000000000011b160                proctab
                0x000000000011ca60                prcount
                0x000000000011ca80                semtab
                0x000000000011cf30                memlist
 *fill*         0x000000000011cf38        0x8 
 COMMON         0x000000000011cf40       0x58 binaries/mark.o
                0x000000000011cf40                marks
                0x000000000011cf90                nmarks
                0x000000000011cf94                mkmutex
 COMMON         0x000000000011cf98        0x8 binaries/meminit.o
                0x000000000011cf98                minheap
                0x000000000011cf9c                maxheap
 COMMON         0x000000000011cfa0        0x8 binaries/myhacker.o
                0x000000000011cfa0                victimglobal
                0x000000000011cfa4                victimsRetAddress
 *fill*         0x000000000011cfa8       0x18 
 COMMON         0x000000000011cfc0      0x2d8 binaries/ptinit.o
                0x000000000011cfc0                porttab
                0x000000000011d290                ptnextid
                0x000000000011d294                ptfree
 *fill*         0x000000000011d298        0x8 
 COMMON         0x000000000011d2a0      0x980 binaries/queue.o
                0x000000000011d2a0                queuetab
 COMMON         0x000000000011dc20        0x2 binaries/ready.o
                0x000000000011dc20                readylist
 *fill*         0x000000000011dc22        0x2 
 COMMON         0x000000000011dc24        0x8 binaries/resched.o
                0x000000000011dc24                Defer
 *fill*         0x000000000011dc2c       0x14 
 COMMON         0x000000000011dc40      0x10c binaries/ttyinit.o
                0x000000000011dc40                ttytab
 *fill*         0x000000000011dd4c       0x14 
 COMMON         0x000000000011dd60     0x19c0 binaries/naminit.o
                0x000000000011dd60                nnames
                0x000000000011dd80                nametab
 COMMON         0x000000000011f720      0x138 binaries/ethinit.o
                0x000000000011f720                ethertab
 *fill*         0x000000000011f858        0x8 
 COMMON         0x000000000011f860       0x8c binaries/rdsinit.o
                0x000000000011f860                rdstab
 *fill*         0x000000000011f8ec       0x14 
 COMMON         0x000000000011f900    0x19000 binaries/raminit.o
                0x000000000011f900                Ram
 COMMON         0x0000000000138900      0xf00 binaries/lflinit.o
                0x0000000000138900                lfltab
 COMMON         0x0000000000139800      0x20c binaries/lfsinit.o
                0x0000000000139800                Lf_data
 *fill*         0x0000000000139a0c       0x14 
 COMMON         0x0000000000139a20      0x5a0 binaries/rflinit.o
                0x0000000000139a20                rfltab
 COMMON         0x0000000000139fc0       0x18 binaries/rfsinit.o
                0x0000000000139fc0                Rf_data
 *fill*         0x0000000000139fd8        0x8 
 COMMON         0x0000000000139fe0      0x140 binaries/arp.o
                0x0000000000139fe0                arpcache
 COMMON         0x000000000013a120      0x230 binaries/icmp.o
                0x000000000013a120                icmptab
 *fill*         0x000000000013a350       0x10 
 COMMON         0x000000000013a360       0x2c binaries/ip.o
                0x000000000013a360                ipoqueue
 *fill*         0x000000000013a38c       0x14 
 COMMON         0x000000000013a3a0       0xc8 binaries/net.o
                0x000000000013a3a0                netbufpool
                0x000000000013a3c0                NetData
 *fill*         0x000000000013a468       0x18 
 COMMON         0x000000000013a480      0x168 binaries/udp.o
                0x000000000013a480                udptab
                0x000000000013a5e8                ebss = ABSOLUTE (.)
                0x000000000013b000                . = ALIGN (0x1000)
 *fill*         0x000000000013a5e8      0xa18 
 */()
                0x000000000013b000                end = ABSOLUTE (.)
                0x000000000013b000                _end = ABSOLUTE (.)
                0x000000000013b000                . = ALIGN (0x1000)
LOAD binaries/start.o
LOAD binaries/app1.o
LOAD binaries/app2.o
LOAD binaries/app3.o
LOAD binaries/ascdate.o
LOAD binaries/bufinit.o
LOAD binaries/chprio.o
LOAD binaries/clkhandler.o
LOAD binaries/clkinit.o
LOAD binaries/close.o
LOAD binaries/conf.o
LOAD binaries/control.o
LOAD binaries/cpubound.o
LOAD binaries/create.o
LOAD binaries/early_imr.o
LOAD binaries/evec.o
LOAD binaries/factorial.o
LOAD binaries/freebuf.o
LOAD binaries/freemem.o
LOAD binaries/getbuf.o
LOAD binaries/getc.o
LOAD binaries/getdev.o
LOAD binaries/getitem.o
LOAD binaries/getmem.o
LOAD binaries/getpid.o
LOAD binaries/getpname.o
LOAD binaries/getppid.o
LOAD binaries/getprio.o
LOAD binaries/getstk.o
LOAD binaries/gettime.o
LOAD binaries/getutime.o
LOAD binaries/host2netlb.o
LOAD binaries/init.o
LOAD binaries/initialize.o
LOAD binaries/insert.o
LOAD binaries/insertd.o
LOAD binaries/iobound.o
LOAD binaries/ioerr.o
LOAD binaries/ionull.o
LOAD binaries/kill.o
LOAD binaries/kprintf.o
LOAD binaries/lab2q3.o
LOAD binaries/lab2q4.o
LOAD binaries/main.o
LOAD binaries/mark.o
LOAD binaries/meminit.o
LOAD binaries/mkbufpool.o
LOAD binaries/myappA.o
LOAD binaries/myfuncA.o
LOAD binaries/myhacker.o
LOAD binaries/myvictim.o
LOAD binaries/mywelcomemsg.o
LOAD binaries/newqueue.o
LOAD binaries/open.o
LOAD binaries/panic.o
LOAD binaries/pci.o
LOAD binaries/platinit.o
LOAD binaries/printsegaddr.o
LOAD binaries/process_state.o
LOAD binaries/ptclear.o
LOAD binaries/ptcount.o
LOAD binaries/ptcreate.o
LOAD binaries/ptdelete.o
LOAD binaries/ptinit.o
LOAD binaries/ptrecv.o
LOAD binaries/ptreset.o
LOAD binaries/ptsend.o
LOAD binaries/putc.o
LOAD binaries/quark_irq.o
LOAD binaries/quark_pdat.o
LOAD binaries/queue.o
LOAD binaries/read.o
LOAD binaries/ready.o
LOAD binaries/receive.o
LOAD binaries/recvclr.o
LOAD binaries/recvtime.o
LOAD binaries/resched.o
LOAD binaries/resume.o
LOAD binaries/seek.o
LOAD binaries/semcount.o
LOAD binaries/semcreate.o
LOAD binaries/semdelete.o
LOAD binaries/semreset.o
LOAD binaries/send.o
LOAD binaries/signal.o
LOAD binaries/signaln.o
LOAD binaries/sleep.o
LOAD binaries/stackdepth.o
LOAD binaries/stacktrace.o
LOAD binaries/suspend.o
LOAD binaries/teststackdepth.o
LOAD binaries/unsleep.o
LOAD binaries/userret.o
LOAD binaries/wait.o
LOAD binaries/wakeup.o
LOAD binaries/write.o
LOAD binaries/xdone.o
LOAD binaries/yield.o
LOAD binaries/abs.o
LOAD binaries/atoi.o
LOAD binaries/atol.o
LOAD binaries/bzero.o
LOAD binaries/ctype_.o
LOAD binaries/doprnt.o
LOAD binaries/doscan.o
LOAD binaries/fdoprnt.o
LOAD binaries/fgetc.o
LOAD binaries/fgets.o
LOAD binaries/fprintf.o
LOAD binaries/fputc.o
LOAD binaries/fputs.o
LOAD binaries/fscanf.o
LOAD binaries/getchar.o
LOAD binaries/labs.o
LOAD binaries/memchr.o
LOAD binaries/memcmp.o
LOAD binaries/memcpy.o
LOAD binaries/memset.o
LOAD binaries/printf.o
LOAD binaries/putchar.o
LOAD binaries/qsort.o
LOAD binaries/rand.o
LOAD binaries/sprintf.o
LOAD binaries/sscanf.o
LOAD binaries/strchr.o
LOAD binaries/strcmp.o
LOAD binaries/strcpy.o
LOAD binaries/strlen.o
LOAD binaries/strncat.o
LOAD binaries/strncmp.o
LOAD binaries/strncpy.o
LOAD binaries/strnlen.o
LOAD binaries/strrchr.o
LOAD binaries/strstr.o
LOAD binaries/ttycontrol.o
LOAD binaries/ttygetc.o
LOAD binaries/ttyhandle_in.o
LOAD binaries/ttyhandle_out.o
LOAD binaries/ttyhandler.o
LOAD binaries/ttyinit.o
LOAD binaries/ttykickout.o
LOAD binaries/ttyputc.o
LOAD binaries/ttyread.o
LOAD binaries/ttywrite.o
LOAD binaries/mount.o
LOAD binaries/naminit.o
LOAD binaries/nammap.o
LOAD binaries/namopen.o
LOAD binaries/colon2mac.o
LOAD binaries/ethcontrol.o
LOAD binaries/ethhandler.o
LOAD binaries/ethinit.o
LOAD binaries/ethmcast.o
LOAD binaries/ethread.o
LOAD binaries/ethwrite.o
LOAD binaries/rdsbufalloc.o
LOAD binaries/rdsclose.o
LOAD binaries/rdscomm.o
LOAD binaries/rdscontrol.o
LOAD binaries/rdsinit.o
LOAD binaries/rdsopen.o
LOAD binaries/rdsprocess.o
LOAD binaries/rdsread.o
LOAD binaries/rdswrite.o
LOAD binaries/ramclose.o
LOAD binaries/raminit.o
LOAD binaries/ramopen.o
LOAD binaries/ramread.o
LOAD binaries/ramwrite.o
LOAD binaries/lfdballoc.o
LOAD binaries/lfdbfree.o
LOAD binaries/lfflush.o
LOAD binaries/lfgetmode.o
LOAD binaries/lfiballoc.o
LOAD binaries/lfibclear.o
LOAD binaries/lfibget.o
LOAD binaries/lfibput.o
LOAD binaries/lflclose.o
LOAD binaries/lflcontrol.o
LOAD binaries/lflgetc.o
LOAD binaries/lflinit.o
LOAD binaries/lflputc.o
LOAD binaries/lflread.o
LOAD binaries/lflseek.o
LOAD binaries/lflwrite.o
LOAD binaries/lfsckfmt.o
LOAD binaries/lfscreate.o
LOAD binaries/lfsetup.o
LOAD binaries/lfsinit.o
LOAD binaries/lfsopen.o
LOAD binaries/lftruncate.o
LOAD binaries/rflclose.o
LOAD binaries/rflgetc.o
LOAD binaries/rflinit.o
LOAD binaries/rflputc.o
LOAD binaries/rflread.o
LOAD binaries/rflseek.o
LOAD binaries/rflwrite.o
LOAD binaries/rfscomm.o
LOAD binaries/rfscontrol.o
LOAD binaries/rfsgetmode.o
LOAD binaries/rfsinit.o
LOAD binaries/rfsndmsg.o
LOAD binaries/rfsopen.o
LOAD binaries/arp.o
LOAD binaries/dhcp.o
LOAD binaries/dot2ip.o
LOAD binaries/hexdump.o
LOAD binaries/icmp.o
LOAD binaries/ip.o
LOAD binaries/net.o
LOAD binaries/netstart.o
LOAD binaries/pdump.o
LOAD binaries/tftp.o
LOAD binaries/udp.o
LOAD binaries/addargs.o
LOAD binaries/lexan.o
LOAD binaries/shell.o
LOAD binaries/xsh_argecho.o
LOAD binaries/xsh_arp.o
LOAD binaries/xsh_cat.o
LOAD binaries/xsh_clear.o
LOAD binaries/xsh_date.o
LOAD binaries/xsh_devdump.o
LOAD binaries/xsh_echo.o
LOAD binaries/xsh_exit.o
LOAD binaries/xsh_help.o
LOAD binaries/xsh_ipaddr.o
LOAD binaries/xsh_kill.o
LOAD binaries/xsh_memdump.o
LOAD binaries/xsh_memstat.o
LOAD binaries/xsh_ping.o
LOAD binaries/xsh_ps.o
LOAD binaries/xsh_sleep.o
LOAD binaries/xsh_udpdump.o
LOAD binaries/xsh_udpecho.o
LOAD binaries/xsh_udpeserver.o
LOAD binaries/xsh_uptime.o
LOAD binaries/clkdisp.o
LOAD binaries/ctxsw.o
LOAD binaries/host2netla.o
LOAD binaries/host2netlc.o
LOAD binaries/intr.o
LOAD binaries/ttydispatch.o
LOAD binaries/ethdispatch.o
OUTPUT(../compile/xinu elf32-i386)

.comment        0x0000000000000000       0x2a
 .comment       0x0000000000000000       0x2a binaries/app1.o
                                         0x2b (size before relaxing)
 .comment       0x000000000000002a       0x2b binaries/app2.o
 .comment       0x000000000000002a       0x2b binaries/app3.o
 .comment       0x000000000000002a       0x2b binaries/ascdate.o
 .comment       0x000000000000002a       0x2b binaries/bufinit.o
 .comment       0x000000000000002a       0x2b binaries/chprio.o
 .comment       0x000000000000002a       0x2b binaries/clkhandler.o
 .comment       0x000000000000002a       0x2b binaries/clkinit.o
 .comment       0x000000000000002a       0x2b binaries/close.o
 .comment       0x000000000000002a       0x2b binaries/conf.o
 .comment       0x000000000000002a       0x2b binaries/control.o
 .comment       0x000000000000002a       0x2b binaries/cpubound.o
 .comment       0x000000000000002a       0x2b binaries/create.o
 .comment       0x000000000000002a       0x2b binaries/early_imr.o
 .comment       0x000000000000002a       0x2b binaries/evec.o
 .comment       0x000000000000002a       0x2b binaries/factorial.o
 .comment       0x000000000000002a       0x2b binaries/freebuf.o
 .comment       0x000000000000002a       0x2b binaries/freemem.o
 .comment       0x000000000000002a       0x2b binaries/getbuf.o
 .comment       0x000000000000002a       0x2b binaries/getc.o
 .comment       0x000000000000002a       0x2b binaries/getdev.o
 .comment       0x000000000000002a       0x2b binaries/getitem.o
 .comment       0x000000000000002a       0x2b binaries/getmem.o
 .comment       0x000000000000002a       0x2b binaries/getpid.o
 .comment       0x000000000000002a       0x2b binaries/getpname.o
 .comment       0x000000000000002a       0x2b binaries/getppid.o
 .comment       0x000000000000002a       0x2b binaries/getprio.o
 .comment       0x000000000000002a       0x2b binaries/getstk.o
 .comment       0x000000000000002a       0x2b binaries/gettime.o
 .comment       0x000000000000002a       0x2b binaries/getutime.o
 .comment       0x000000000000002a       0x2b binaries/host2netlb.o
 .comment       0x000000000000002a       0x2b binaries/init.o
 .comment       0x000000000000002a       0x2b binaries/initialize.o
 .comment       0x000000000000002a       0x2b binaries/insert.o
 .comment       0x000000000000002a       0x2b binaries/insertd.o
 .comment       0x000000000000002a       0x2b binaries/iobound.o
 .comment       0x000000000000002a       0x2b binaries/ioerr.o
 .comment       0x000000000000002a       0x2b binaries/ionull.o
 .comment       0x000000000000002a       0x2b binaries/kill.o
 .comment       0x000000000000002a       0x2b binaries/kprintf.o
 .comment       0x000000000000002a       0x2b binaries/lab2q3.o
 .comment       0x000000000000002a       0x2b binaries/lab2q4.o
 .comment       0x000000000000002a       0x2b binaries/main.o
 .comment       0x000000000000002a       0x2b binaries/mark.o
 .comment       0x000000000000002a       0x2b binaries/meminit.o
 .comment       0x000000000000002a       0x2b binaries/mkbufpool.o
 .comment       0x000000000000002a       0x2b binaries/myappA.o
 .comment       0x000000000000002a       0x2b binaries/myfuncA.o
 .comment       0x000000000000002a       0x2b binaries/myhacker.o
 .comment       0x000000000000002a       0x2b binaries/myvictim.o
 .comment       0x000000000000002a       0x2b binaries/mywelcomemsg.o
 .comment       0x000000000000002a       0x2b binaries/newqueue.o
 .comment       0x000000000000002a       0x2b binaries/open.o
 .comment       0x000000000000002a       0x2b binaries/panic.o
 .comment       0x000000000000002a       0x2b binaries/pci.o
 .comment       0x000000000000002a       0x2b binaries/platinit.o
 .comment       0x000000000000002a       0x2b binaries/printsegaddr.o
 .comment       0x000000000000002a       0x2b binaries/process_state.o
 .comment       0x000000000000002a       0x2b binaries/ptclear.o
 .comment       0x000000000000002a       0x2b binaries/ptcount.o
 .comment       0x000000000000002a       0x2b binaries/ptcreate.o
 .comment       0x000000000000002a       0x2b binaries/ptdelete.o
 .comment       0x000000000000002a       0x2b binaries/ptinit.o
 .comment       0x000000000000002a       0x2b binaries/ptrecv.o
 .comment       0x000000000000002a       0x2b binaries/ptreset.o
 .comment       0x000000000000002a       0x2b binaries/ptsend.o
 .comment       0x000000000000002a       0x2b binaries/putc.o
 .comment       0x000000000000002a       0x2b binaries/quark_irq.o
 .comment       0x000000000000002a       0x2b binaries/quark_pdat.o
 .comment       0x000000000000002a       0x2b binaries/queue.o
 .comment       0x000000000000002a       0x2b binaries/read.o
 .comment       0x000000000000002a       0x2b binaries/ready.o
 .comment       0x000000000000002a       0x2b binaries/receive.o
 .comment       0x000000000000002a       0x2b binaries/recvclr.o
 .comment       0x000000000000002a       0x2b binaries/recvtime.o
 .comment       0x000000000000002a       0x2b binaries/resched.o
 .comment       0x000000000000002a       0x2b binaries/resume.o
 .comment       0x000000000000002a       0x2b binaries/seek.o
 .comment       0x000000000000002a       0x2b binaries/semcount.o
 .comment       0x000000000000002a       0x2b binaries/semcreate.o
 .comment       0x000000000000002a       0x2b binaries/semdelete.o
 .comment       0x000000000000002a       0x2b binaries/semreset.o
 .comment       0x000000000000002a       0x2b binaries/send.o
 .comment       0x000000000000002a       0x2b binaries/signal.o
 .comment       0x000000000000002a       0x2b binaries/signaln.o
 .comment       0x000000000000002a       0x2b binaries/sleep.o
 .comment       0x000000000000002a       0x2b binaries/stackdepth.o
 .comment       0x000000000000002a       0x2b binaries/stacktrace.o
 .comment       0x000000000000002a       0x2b binaries/suspend.o
 .comment       0x000000000000002a       0x2b binaries/teststackdepth.o
 .comment       0x000000000000002a       0x2b binaries/unsleep.o
 .comment       0x000000000000002a       0x2b binaries/userret.o
 .comment       0x000000000000002a       0x2b binaries/wait.o
 .comment       0x000000000000002a       0x2b binaries/wakeup.o
 .comment       0x000000000000002a       0x2b binaries/write.o
 .comment       0x000000000000002a       0x2b binaries/xdone.o
 .comment       0x000000000000002a       0x2b binaries/yield.o
 .comment       0x000000000000002a       0x2b binaries/abs.o
 .comment       0x000000000000002a       0x2b binaries/atoi.o
 .comment       0x000000000000002a       0x2b binaries/atol.o
 .comment       0x000000000000002a       0x2b binaries/bzero.o
 .comment       0x000000000000002a       0x2b binaries/ctype_.o
 .comment       0x000000000000002a       0x2b binaries/doprnt.o
 .comment       0x000000000000002a       0x2b binaries/doscan.o
 .comment       0x000000000000002a       0x2b binaries/fdoprnt.o
 .comment       0x000000000000002a       0x2b binaries/fgetc.o
 .comment       0x000000000000002a       0x2b binaries/fgets.o
 .comment       0x000000000000002a       0x2b binaries/fprintf.o
 .comment       0x000000000000002a       0x2b binaries/fputc.o
 .comment       0x000000000000002a       0x2b binaries/fputs.o
 .comment       0x000000000000002a       0x2b binaries/fscanf.o
 .comment       0x000000000000002a       0x2b binaries/getchar.o
 .comment       0x000000000000002a       0x2b binaries/labs.o
 .comment       0x000000000000002a       0x2b binaries/memchr.o
 .comment       0x000000000000002a       0x2b binaries/memcmp.o
 .comment       0x000000000000002a       0x2b binaries/memcpy.o
 .comment       0x000000000000002a       0x2b binaries/memset.o
 .comment       0x000000000000002a       0x2b binaries/printf.o
 .comment       0x000000000000002a       0x2b binaries/putchar.o
 .comment       0x000000000000002a       0x2b binaries/qsort.o
 .comment       0x000000000000002a       0x2b binaries/rand.o
 .comment       0x000000000000002a       0x2b binaries/sprintf.o
 .comment       0x000000000000002a       0x2b binaries/sscanf.o
 .comment       0x000000000000002a       0x2b binaries/strchr.o
 .comment       0x000000000000002a       0x2b binaries/strcmp.o
 .comment       0x000000000000002a       0x2b binaries/strcpy.o
 .comment       0x000000000000002a       0x2b binaries/strlen.o
 .comment       0x000000000000002a       0x2b binaries/strncat.o
 .comment       0x000000000000002a       0x2b binaries/strncmp.o
 .comment       0x000000000000002a       0x2b binaries/strncpy.o
 .comment       0x000000000000002a       0x2b binaries/strnlen.o
 .comment       0x000000000000002a       0x2b binaries/strrchr.o
 .comment       0x000000000000002a       0x2b binaries/strstr.o
 .comment       0x000000000000002a       0x2b binaries/ttycontrol.o
 .comment       0x000000000000002a       0x2b binaries/ttygetc.o
 .comment       0x000000000000002a       0x2b binaries/ttyhandle_in.o
 .comment       0x000000000000002a       0x2b binaries/ttyhandle_out.o
 .comment       0x000000000000002a       0x2b binaries/ttyhandler.o
 .comment       0x000000000000002a       0x2b binaries/ttyinit.o
 .comment       0x000000000000002a       0x2b binaries/ttykickout.o
 .comment       0x000000000000002a       0x2b binaries/ttyputc.o
 .comment       0x000000000000002a       0x2b binaries/ttyread.o
 .comment       0x000000000000002a       0x2b binaries/ttywrite.o
 .comment       0x000000000000002a       0x2b binaries/mount.o
 .comment       0x000000000000002a       0x2b binaries/naminit.o
 .comment       0x000000000000002a       0x2b binaries/nammap.o
 .comment       0x000000000000002a       0x2b binaries/namopen.o
 .comment       0x000000000000002a       0x2b binaries/colon2mac.o
 .comment       0x000000000000002a       0x2b binaries/ethcontrol.o
 .comment       0x000000000000002a       0x2b binaries/ethhandler.o
 .comment       0x000000000000002a       0x2b binaries/ethinit.o
 .comment       0x000000000000002a       0x2b binaries/ethmcast.o
 .comment       0x000000000000002a       0x2b binaries/ethread.o
 .comment       0x000000000000002a       0x2b binaries/ethwrite.o
 .comment       0x000000000000002a       0x2b binaries/rdsbufalloc.o
 .comment       0x000000000000002a       0x2b binaries/rdsclose.o
 .comment       0x000000000000002a       0x2b binaries/rdscomm.o
 .comment       0x000000000000002a       0x2b binaries/rdscontrol.o
 .comment       0x000000000000002a       0x2b binaries/rdsinit.o
 .comment       0x000000000000002a       0x2b binaries/rdsopen.o
 .comment       0x000000000000002a       0x2b binaries/rdsprocess.o
 .comment       0x000000000000002a       0x2b binaries/rdsread.o
 .comment       0x000000000000002a       0x2b binaries/rdswrite.o
 .comment       0x000000000000002a       0x2b binaries/ramclose.o
 .comment       0x000000000000002a       0x2b binaries/raminit.o
 .comment       0x000000000000002a       0x2b binaries/ramopen.o
 .comment       0x000000000000002a       0x2b binaries/ramread.o
 .comment       0x000000000000002a       0x2b binaries/ramwrite.o
 .comment       0x000000000000002a       0x2b binaries/lfdballoc.o
 .comment       0x000000000000002a       0x2b binaries/lfdbfree.o
 .comment       0x000000000000002a       0x2b binaries/lfflush.o
 .comment       0x000000000000002a       0x2b binaries/lfgetmode.o
 .comment       0x000000000000002a       0x2b binaries/lfiballoc.o
 .comment       0x000000000000002a       0x2b binaries/lfibclear.o
 .comment       0x000000000000002a       0x2b binaries/lfibget.o
 .comment       0x000000000000002a       0x2b binaries/lfibput.o
 .comment       0x000000000000002a       0x2b binaries/lflclose.o
 .comment       0x000000000000002a       0x2b binaries/lflcontrol.o
 .comment       0x000000000000002a       0x2b binaries/lflgetc.o
 .comment       0x000000000000002a       0x2b binaries/lflinit.o
 .comment       0x000000000000002a       0x2b binaries/lflputc.o
 .comment       0x000000000000002a       0x2b binaries/lflread.o
 .comment       0x000000000000002a       0x2b binaries/lflseek.o
 .comment       0x000000000000002a       0x2b binaries/lflwrite.o
 .comment       0x000000000000002a       0x2b binaries/lfsckfmt.o
 .comment       0x000000000000002a       0x2b binaries/lfscreate.o
 .comment       0x000000000000002a       0x2b binaries/lfsetup.o
 .comment       0x000000000000002a       0x2b binaries/lfsinit.o
 .comment       0x000000000000002a       0x2b binaries/lfsopen.o
 .comment       0x000000000000002a       0x2b binaries/lftruncate.o
 .comment       0x000000000000002a       0x2b binaries/rflclose.o
 .comment       0x000000000000002a       0x2b binaries/rflgetc.o
 .comment       0x000000000000002a       0x2b binaries/rflinit.o
 .comment       0x000000000000002a       0x2b binaries/rflputc.o
 .comment       0x000000000000002a       0x2b binaries/rflread.o
 .comment       0x000000000000002a       0x2b binaries/rflseek.o
 .comment       0x000000000000002a       0x2b binaries/rflwrite.o
 .comment       0x000000000000002a       0x2b binaries/rfscomm.o
 .comment       0x000000000000002a       0x2b binaries/rfscontrol.o
 .comment       0x000000000000002a       0x2b binaries/rfsgetmode.o
 .comment       0x000000000000002a       0x2b binaries/rfsinit.o
 .comment       0x000000000000002a       0x2b binaries/rfsndmsg.o
 .comment       0x000000000000002a       0x2b binaries/rfsopen.o
 .comment       0x000000000000002a       0x2b binaries/arp.o
 .comment       0x000000000000002a       0x2b binaries/dhcp.o
 .comment       0x000000000000002a       0x2b binaries/dot2ip.o
 .comment       0x000000000000002a       0x2b binaries/hexdump.o
 .comment       0x000000000000002a       0x2b binaries/icmp.o
 .comment       0x000000000000002a       0x2b binaries/ip.o
 .comment       0x000000000000002a       0x2b binaries/net.o
 .comment       0x000000000000002a       0x2b binaries/netstart.o
 .comment       0x000000000000002a       0x2b binaries/pdump.o
 .comment       0x000000000000002a       0x2b binaries/tftp.o
 .comment       0x000000000000002a       0x2b binaries/udp.o
 .comment       0x000000000000002a       0x2b binaries/addargs.o
 .comment       0x000000000000002a       0x2b binaries/lexan.o
 .comment       0x000000000000002a       0x2b binaries/shell.o
 .comment       0x000000000000002a       0x2b binaries/xsh_argecho.o
 .comment       0x000000000000002a       0x2b binaries/xsh_arp.o
 .comment       0x000000000000002a       0x2b binaries/xsh_cat.o
 .comment       0x000000000000002a       0x2b binaries/xsh_clear.o
 .comment       0x000000000000002a       0x2b binaries/xsh_date.o
 .comment       0x000000000000002a       0x2b binaries/xsh_devdump.o
 .comment       0x000000000000002a       0x2b binaries/xsh_echo.o
 .comment       0x000000000000002a       0x2b binaries/xsh_exit.o
 .comment       0x000000000000002a       0x2b binaries/xsh_help.o
 .comment       0x000000000000002a       0x2b binaries/xsh_ipaddr.o
 .comment       0x000000000000002a       0x2b binaries/xsh_kill.o
 .comment       0x000000000000002a       0x2b binaries/xsh_memdump.o
 .comment       0x000000000000002a       0x2b binaries/xsh_memstat.o
 .comment       0x000000000000002a       0x2b binaries/xsh_ping.o
 .comment       0x000000000000002a       0x2b binaries/xsh_ps.o
 .comment       0x000000000000002a       0x2b binaries/xsh_sleep.o
 .comment       0x000000000000002a       0x2b binaries/xsh_udpdump.o
 .comment       0x000000000000002a       0x2b binaries/xsh_udpecho.o
 .comment       0x000000000000002a       0x2b binaries/xsh_udpeserver.o
 .comment       0x000000000000002a       0x2b binaries/xsh_uptime.o
 .comment       0x000000000000002a       0x2b binaries/host2netlc.o

.note.GNU-stack
                0x0000000000000000        0x0
 .note.GNU-stack
                0x0000000000000000        0x0 binaries/app1.o
 .note.GNU-stack
                0x0000000000000000        0x0 binaries/app2.o
 .note.GNU-stack
                0x0000000000000000        0x0 binaries/app3.o
 .note.GNU-stack
                0x0000000000000000        0x0 binaries/ascdate.o
 .note.GNU-stack
                0x0000000000000000        0x0 binaries/bufinit.o
 .note.GNU-stack
                0x0000000000000000        0x0 binaries/chprio.o
 .note.GNU-stack
                0x0000000000000000        0x0 binaries/clkhandler.o
 .note.GNU-stack
                0x0000000000000000        0x0 binaries/clkinit.o
 .note.GNU-stack
                0x0000000000000000        0x0 binaries/close.o
 .note.GNU-stack
                0x0000000000000000        0x0 binaries/conf.o
 .note.GNU-stack
                0x0000000000000000        0x0 binaries/control.o
 .note.GNU-stack
                0x0000000000000000        0x0 binaries/cpubound.o
 .note.GNU-stack
                0x0000000000000000        0x0 binaries/create.o
 .note.GNU-stack
                0x0000000000000000        0x0 binaries/early_imr.o
 .note.GNU-stack
                0x0000000000000000        0x0 binaries/evec.o
 .note.GNU-stack
                0x0000000000000000        0x0 binaries/factorial.o
 .note.GNU-stack
                0x0000000000000000        0x0 binaries/freebuf.o
 .note.GNU-stack
                0x0000000000000000        0x0 binaries/freemem.o
 .note.GNU-stack
                0x0000000000000000        0x0 binaries/getbuf.o
 .note.GNU-stack
                0x0000000000000000        0x0 binaries/getc.o
 .note.GNU-stack
                0x0000000000000000        0x0 binaries/getdev.o
 .note.GNU-stack
                0x0000000000000000        0x0 binaries/getitem.o
 .note.GNU-stack
                0x0000000000000000        0x0 binaries/getmem.o
 .note.GNU-stack
                0x0000000000000000        0x0 binaries/getpid.o
 .note.GNU-stack
                0x0000000000000000        0x0 binaries/getpname.o
 .note.GNU-stack
                0x0000000000000000        0x0 binaries/getppid.o
 .note.GNU-stack
                0x0000000000000000        0x0 binaries/getprio.o
 .note.GNU-stack
                0x0000000000000000        0x0 binaries/getstk.o
 .note.GNU-stack
                0x0000000000000000        0x0 binaries/gettime.o
 .note.GNU-stack
                0x0000000000000000        0x0 binaries/getutime.o
 .note.GNU-stack
                0x0000000000000000        0x0 binaries/host2netlb.o
 .note.GNU-stack
                0x0000000000000000        0x0 binaries/init.o
 .note.GNU-stack
                0x0000000000000000        0x0 binaries/initialize.o
 .note.GNU-stack
                0x0000000000000000        0x0 binaries/insert.o
 .note.GNU-stack
                0x0000000000000000        0x0 binaries/insertd.o
 .note.GNU-stack
                0x0000000000000000        0x0 binaries/iobound.o
 .note.GNU-stack
                0x0000000000000000        0x0 binaries/ioerr.o
 .note.GNU-stack
                0x0000000000000000        0x0 binaries/ionull.o
 .note.GNU-stack
                0x0000000000000000        0x0 binaries/kill.o
 .note.GNU-stack
                0x0000000000000000        0x0 binaries/kprintf.o
 .note.GNU-stack
                0x0000000000000000        0x0 binaries/lab2q3.o
 .note.GNU-stack
                0x0000000000000000        0x0 binaries/lab2q4.o
 .note.GNU-stack
                0x0000000000000000        0x0 binaries/main.o
 .note.GNU-stack
                0x0000000000000000        0x0 binaries/mark.o
 .note.GNU-stack
                0x0000000000000000        0x0 binaries/meminit.o
 .note.GNU-stack
                0x0000000000000000        0x0 binaries/mkbufpool.o
 .note.GNU-stack
                0x0000000000000000        0x0 binaries/myappA.o
 .note.GNU-stack
                0x0000000000000000        0x0 binaries/myfuncA.o
 .note.GNU-stack
                0x0000000000000000        0x0 binaries/myhacker.o
 .note.GNU-stack
                0x0000000000000000        0x0 binaries/myvictim.o
 .note.GNU-stack
                0x0000000000000000        0x0 binaries/mywelcomemsg.o
 .note.GNU-stack
                0x0000000000000000        0x0 binaries/newqueue.o
 .note.GNU-stack
                0x0000000000000000        0x0 binaries/open.o
 .note.GNU-stack
                0x0000000000000000        0x0 binaries/panic.o
 .note.GNU-stack
                0x0000000000000000        0x0 binaries/pci.o
 .note.GNU-stack
                0x0000000000000000        0x0 binaries/platinit.o
 .note.GNU-stack
                0x0000000000000000        0x0 binaries/printsegaddr.o
 .note.GNU-stack
                0x0000000000000000        0x0 binaries/process_state.o
 .note.GNU-stack
                0x0000000000000000        0x0 binaries/ptclear.o
 .note.GNU-stack
                0x0000000000000000        0x0 binaries/ptcount.o
 .note.GNU-stack
                0x0000000000000000        0x0 binaries/ptcreate.o
 .note.GNU-stack
                0x0000000000000000        0x0 binaries/ptdelete.o
 .note.GNU-stack
                0x0000000000000000        0x0 binaries/ptinit.o
 .note.GNU-stack
                0x0000000000000000        0x0 binaries/ptrecv.o
 .note.GNU-stack
                0x0000000000000000        0x0 binaries/ptreset.o
 .note.GNU-stack
                0x0000000000000000        0x0 binaries/ptsend.o
 .note.GNU-stack
                0x0000000000000000        0x0 binaries/putc.o
 .note.GNU-stack
                0x0000000000000000        0x0 binaries/quark_irq.o
 .note.GNU-stack
                0x0000000000000000        0x0 binaries/quark_pdat.o
 .note.GNU-stack
                0x0000000000000000        0x0 binaries/queue.o
 .note.GNU-stack
                0x0000000000000000        0x0 binaries/read.o
 .note.GNU-stack
                0x0000000000000000        0x0 binaries/ready.o
 .note.GNU-stack
                0x0000000000000000        0x0 binaries/receive.o
 .note.GNU-stack
                0x0000000000000000        0x0 binaries/recvclr.o
 .note.GNU-stack
                0x0000000000000000        0x0 binaries/recvtime.o
 .note.GNU-stack
                0x0000000000000000        0x0 binaries/resched.o
 .note.GNU-stack
                0x0000000000000000        0x0 binaries/resume.o
 .note.GNU-stack
                0x0000000000000000        0x0 binaries/seek.o
 .note.GNU-stack
                0x0000000000000000        0x0 binaries/semcount.o
 .note.GNU-stack
                0x0000000000000000        0x0 binaries/semcreate.o
 .note.GNU-stack
                0x0000000000000000        0x0 binaries/semdelete.o
 .note.GNU-stack
                0x0000000000000000        0x0 binaries/semreset.o
 .note.GNU-stack
                0x0000000000000000        0x0 binaries/send.o
 .note.GNU-stack
                0x0000000000000000        0x0 binaries/signal.o
 .note.GNU-stack
                0x0000000000000000        0x0 binaries/signaln.o
 .note.GNU-stack
                0x0000000000000000        0x0 binaries/sleep.o
 .note.GNU-stack
                0x0000000000000000        0x0 binaries/stackdepth.o
 .note.GNU-stack
                0x0000000000000000        0x0 binaries/stacktrace.o
 .note.GNU-stack
                0x0000000000000000        0x0 binaries/suspend.o
 .note.GNU-stack
                0x0000000000000000        0x0 binaries/teststackdepth.o
 .note.GNU-stack
                0x0000000000000000        0x0 binaries/unsleep.o
 .note.GNU-stack
                0x0000000000000000        0x0 binaries/userret.o
 .note.GNU-stack
                0x0000000000000000        0x0 binaries/wait.o
 .note.GNU-stack
                0x0000000000000000        0x0 binaries/wakeup.o
 .note.GNU-stack
                0x0000000000000000        0x0 binaries/write.o
 .note.GNU-stack
                0x0000000000000000        0x0 binaries/xdone.o
 .note.GNU-stack
                0x0000000000000000        0x0 binaries/yield.o
 .note.GNU-stack
                0x0000000000000000        0x0 binaries/abs.o
 .note.GNU-stack
                0x0000000000000000        0x0 binaries/atoi.o
 .note.GNU-stack
                0x0000000000000000        0x0 binaries/atol.o
 .note.GNU-stack
                0x0000000000000000        0x0 binaries/bzero.o
 .note.GNU-stack
                0x0000000000000000        0x0 binaries/ctype_.o
 .note.GNU-stack
                0x0000000000000000        0x0 binaries/doprnt.o
 .note.GNU-stack
                0x0000000000000000        0x0 binaries/doscan.o
 .note.GNU-stack
                0x0000000000000000        0x0 binaries/fdoprnt.o
 .note.GNU-stack
                0x0000000000000000        0x0 binaries/fgetc.o
 .note.GNU-stack
                0x0000000000000000        0x0 binaries/fgets.o
 .note.GNU-stack
                0x0000000000000000        0x0 binaries/fprintf.o
 .note.GNU-stack
                0x0000000000000000        0x0 binaries/fputc.o
 .note.GNU-stack
                0x0000000000000000        0x0 binaries/fputs.o
 .note.GNU-stack
                0x0000000000000000        0x0 binaries/fscanf.o
 .note.GNU-stack
                0x0000000000000000        0x0 binaries/getchar.o
 .note.GNU-stack
                0x0000000000000000        0x0 binaries/labs.o
 .note.GNU-stack
                0x0000000000000000        0x0 binaries/memchr.o
 .note.GNU-stack
                0x0000000000000000        0x0 binaries/memcmp.o
 .note.GNU-stack
                0x0000000000000000        0x0 binaries/memcpy.o
 .note.GNU-stack
                0x0000000000000000        0x0 binaries/memset.o
 .note.GNU-stack
                0x0000000000000000        0x0 binaries/printf.o
 .note.GNU-stack
                0x0000000000000000        0x0 binaries/putchar.o
 .note.GNU-stack
                0x0000000000000000        0x0 binaries/qsort.o
 .note.GNU-stack
                0x0000000000000000        0x0 binaries/rand.o
 .note.GNU-stack
                0x0000000000000000        0x0 binaries/sprintf.o
 .note.GNU-stack
                0x0000000000000000        0x0 binaries/sscanf.o
 .note.GNU-stack
                0x0000000000000000        0x0 binaries/strchr.o
 .note.GNU-stack
                0x0000000000000000        0x0 binaries/strcmp.o
 .note.GNU-stack
                0x0000000000000000        0x0 binaries/strcpy.o
 .note.GNU-stack
                0x0000000000000000        0x0 binaries/strlen.o
 .note.GNU-stack
                0x0000000000000000        0x0 binaries/strncat.o
 .note.GNU-stack
                0x0000000000000000        0x0 binaries/strncmp.o
 .note.GNU-stack
                0x0000000000000000        0x0 binaries/strncpy.o
 .note.GNU-stack
                0x0000000000000000        0x0 binaries/strnlen.o
 .note.GNU-stack
                0x0000000000000000        0x0 binaries/strrchr.o
 .note.GNU-stack
                0x0000000000000000        0x0 binaries/strstr.o
 .note.GNU-stack
                0x0000000000000000        0x0 binaries/ttycontrol.o
 .note.GNU-stack
                0x0000000000000000        0x0 binaries/ttygetc.o
 .note.GNU-stack
                0x0000000000000000        0x0 binaries/ttyhandle_in.o
 .note.GNU-stack
                0x0000000000000000        0x0 binaries/ttyhandle_out.o
 .note.GNU-stack
                0x0000000000000000        0x0 binaries/ttyhandler.o
 .note.GNU-stack
                0x0000000000000000        0x0 binaries/ttyinit.o
 .note.GNU-stack
                0x0000000000000000        0x0 binaries/ttykickout.o
 .note.GNU-stack
                0x0000000000000000        0x0 binaries/ttyputc.o
 .note.GNU-stack
                0x0000000000000000        0x0 binaries/ttyread.o
 .note.GNU-stack
                0x0000000000000000        0x0 binaries/ttywrite.o
 .note.GNU-stack
                0x0000000000000000        0x0 binaries/mount.o
 .note.GNU-stack
                0x0000000000000000        0x0 binaries/naminit.o
 .note.GNU-stack
                0x0000000000000000        0x0 binaries/nammap.o
 .note.GNU-stack
                0x0000000000000000        0x0 binaries/namopen.o
 .note.GNU-stack
                0x0000000000000000        0x0 binaries/colon2mac.o
 .note.GNU-stack
                0x0000000000000000        0x0 binaries/ethcontrol.o
 .note.GNU-stack
                0x0000000000000000        0x0 binaries/ethhandler.o
 .note.GNU-stack
                0x0000000000000000        0x0 binaries/ethinit.o
 .note.GNU-stack
                0x0000000000000000        0x0 binaries/ethmcast.o
 .note.GNU-stack
                0x0000000000000000        0x0 binaries/ethread.o
 .note.GNU-stack
                0x0000000000000000        0x0 binaries/ethwrite.o
 .note.GNU-stack
                0x0000000000000000        0x0 binaries/rdsbufalloc.o
 .note.GNU-stack
                0x0000000000000000        0x0 binaries/rdsclose.o
 .note.GNU-stack
                0x0000000000000000        0x0 binaries/rdscomm.o
 .note.GNU-stack
                0x0000000000000000        0x0 binaries/rdscontrol.o
 .note.GNU-stack
                0x0000000000000000        0x0 binaries/rdsinit.o
 .note.GNU-stack
                0x0000000000000000        0x0 binaries/rdsopen.o
 .note.GNU-stack
                0x0000000000000000        0x0 binaries/rdsprocess.o
 .note.GNU-stack
                0x0000000000000000        0x0 binaries/rdsread.o
 .note.GNU-stack
                0x0000000000000000        0x0 binaries/rdswrite.o
 .note.GNU-stack
                0x0000000000000000        0x0 binaries/ramclose.o
 .note.GNU-stack
                0x0000000000000000        0x0 binaries/raminit.o
 .note.GNU-stack
                0x0000000000000000        0x0 binaries/ramopen.o
 .note.GNU-stack
                0x0000000000000000        0x0 binaries/ramread.o
 .note.GNU-stack
                0x0000000000000000        0x0 binaries/ramwrite.o
 .note.GNU-stack
                0x0000000000000000        0x0 binaries/lfdballoc.o
 .note.GNU-stack
                0x0000000000000000        0x0 binaries/lfdbfree.o
 .note.GNU-stack
                0x0000000000000000        0x0 binaries/lfflush.o
 .note.GNU-stack
                0x0000000000000000        0x0 binaries/lfgetmode.o
 .note.GNU-stack
                0x0000000000000000        0x0 binaries/lfiballoc.o
 .note.GNU-stack
                0x0000000000000000        0x0 binaries/lfibclear.o
 .note.GNU-stack
                0x0000000000000000        0x0 binaries/lfibget.o
 .note.GNU-stack
                0x0000000000000000        0x0 binaries/lfibput.o
 .note.GNU-stack
                0x0000000000000000        0x0 binaries/lflclose.o
 .note.GNU-stack
                0x0000000000000000        0x0 binaries/lflcontrol.o
 .note.GNU-stack
                0x0000000000000000        0x0 binaries/lflgetc.o
 .note.GNU-stack
                0x0000000000000000        0x0 binaries/lflinit.o
 .note.GNU-stack
                0x0000000000000000        0x0 binaries/lflputc.o
 .note.GNU-stack
                0x0000000000000000        0x0 binaries/lflread.o
 .note.GNU-stack
                0x0000000000000000        0x0 binaries/lflseek.o
 .note.GNU-stack
                0x0000000000000000        0x0 binaries/lflwrite.o
 .note.GNU-stack
                0x0000000000000000        0x0 binaries/lfsckfmt.o
 .note.GNU-stack
                0x0000000000000000        0x0 binaries/lfscreate.o
 .note.GNU-stack
                0x0000000000000000        0x0 binaries/lfsetup.o
 .note.GNU-stack
                0x0000000000000000        0x0 binaries/lfsinit.o
 .note.GNU-stack
                0x0000000000000000        0x0 binaries/lfsopen.o
 .note.GNU-stack
                0x0000000000000000        0x0 binaries/lftruncate.o
 .note.GNU-stack
                0x0000000000000000        0x0 binaries/rflclose.o
 .note.GNU-stack
                0x0000000000000000        0x0 binaries/rflgetc.o
 .note.GNU-stack
                0x0000000000000000        0x0 binaries/rflinit.o
 .note.GNU-stack
                0x0000000000000000        0x0 binaries/rflputc.o
 .note.GNU-stack
                0x0000000000000000        0x0 binaries/rflread.o
 .note.GNU-stack
                0x0000000000000000        0x0 binaries/rflseek.o
 .note.GNU-stack
                0x0000000000000000        0x0 binaries/rflwrite.o
 .note.GNU-stack
                0x0000000000000000        0x0 binaries/rfscomm.o
 .note.GNU-stack
                0x0000000000000000        0x0 binaries/rfscontrol.o
 .note.GNU-stack
                0x0000000000000000        0x0 binaries/rfsgetmode.o
 .note.GNU-stack
                0x0000000000000000        0x0 binaries/rfsinit.o
 .note.GNU-stack
                0x0000000000000000        0x0 binaries/rfsndmsg.o
 .note.GNU-stack
                0x0000000000000000        0x0 binaries/rfsopen.o
 .note.GNU-stack
                0x0000000000000000        0x0 binaries/arp.o
 .note.GNU-stack
                0x0000000000000000        0x0 binaries/dhcp.o
 .note.GNU-stack
                0x0000000000000000        0x0 binaries/dot2ip.o
 .note.GNU-stack
                0x0000000000000000        0x0 binaries/hexdump.o
 .note.GNU-stack
                0x0000000000000000        0x0 binaries/icmp.o
 .note.GNU-stack
                0x0000000000000000        0x0 binaries/ip.o
 .note.GNU-stack
                0x0000000000000000        0x0 binaries/net.o
 .note.GNU-stack
                0x0000000000000000        0x0 binaries/netstart.o
 .note.GNU-stack
                0x0000000000000000        0x0 binaries/pdump.o
 .note.GNU-stack
                0x0000000000000000        0x0 binaries/tftp.o
 .note.GNU-stack
                0x0000000000000000        0x0 binaries/udp.o
 .note.GNU-stack
                0x0000000000000000        0x0 binaries/addargs.o
 .note.GNU-stack
                0x0000000000000000        0x0 binaries/lexan.o
 .note.GNU-stack
                0x0000000000000000        0x0 binaries/shell.o
 .note.GNU-stack
                0x0000000000000000        0x0 binaries/xsh_argecho.o
 .note.GNU-stack
                0x0000000000000000        0x0 binaries/xsh_arp.o
 .note.GNU-stack
                0x0000000000000000        0x0 binaries/xsh_cat.o
 .note.GNU-stack
                0x0000000000000000        0x0 binaries/xsh_clear.o
 .note.GNU-stack
                0x0000000000000000        0x0 binaries/xsh_date.o
 .note.GNU-stack
                0x0000000000000000        0x0 binaries/xsh_devdump.o
 .note.GNU-stack
                0x0000000000000000        0x0 binaries/xsh_echo.o
 .note.GNU-stack
                0x0000000000000000        0x0 binaries/xsh_exit.o
 .note.GNU-stack
                0x0000000000000000        0x0 binaries/xsh_help.o
 .note.GNU-stack
                0x0000000000000000        0x0 binaries/xsh_ipaddr.o
 .note.GNU-stack
                0x0000000000000000        0x0 binaries/xsh_kill.o
 .note.GNU-stack
                0x0000000000000000        0x0 binaries/xsh_memdump.o
 .note.GNU-stack
                0x0000000000000000        0x0 binaries/xsh_memstat.o
 .note.GNU-stack
                0x0000000000000000        0x0 binaries/xsh_ping.o
 .note.GNU-stack
                0x0000000000000000        0x0 binaries/xsh_ps.o
 .note.GNU-stack
                0x0000000000000000        0x0 binaries/xsh_sleep.o
 .note.GNU-stack
                0x0000000000000000        0x0 binaries/xsh_udpdump.o
 .note.GNU-stack
                0x0000000000000000        0x0 binaries/xsh_udpecho.o
 .note.GNU-stack
                0x0000000000000000        0x0 binaries/xsh_udpeserver.o
 .note.GNU-stack
                0x0000000000000000        0x0 binaries/xsh_uptime.o
 .note.GNU-stack
                0x0000000000000000        0x0 binaries/host2netlc.o
