
Allocating common symbols
Common symbol       size              file

netbufpool          0x4               binaries/net.o
readylist           0x2               binaries/ready.o
rfltab              0x5a0             binaries/rflinit.o
sleepq              0x2               binaries/clkinit.o
nnames              0x4               binaries/naminit.o
udptab              0x168             binaries/udp.o
minheap             0x4               binaries/meminit.o
marks               0x50              binaries/mark.o
currpid             0x4               binaries/initialize.o
Lf_data             0x20c             binaries/lfsinit.o
porttab             0x2d0             binaries/ptinit.o
girmask             0x2               binaries/evec.o
ttytab              0x10c             binaries/ttyinit.o
victimglobal        0x4               binaries/main.o
proctab             0x15e0            binaries/initialize.o
prcount             0x4               binaries/initialize.o
lfltab              0xf00             binaries/lflinit.o
rdstab              0x8c              binaries/rdsinit.o
ethertab            0x138             binaries/ethinit.o
NetData             0xa8              binaries/net.o
nmarks              0x4               binaries/mark.o
Defer               0x8               binaries/resched.o
semtab              0x4b0             binaries/initialize.o
maxheap             0x4               binaries/meminit.o
preempt             0x4               binaries/clkinit.o
buftab              0xf0              binaries/bufinit.o
Rf_data             0x18              binaries/rfsinit.o
mkmutex             0x4               binaries/mark.o
clktime             0x4               binaries/clkinit.o
arpcache            0x140             binaries/arp.o
icmptab             0x230             binaries/icmp.o
nbpools             0x4               binaries/bufinit.o
queuetab            0x980             binaries/queue.o
ptnextid            0x4               binaries/ptinit.o
Ram                 0x19000           binaries/raminit.o
ipoqueue            0x2c              binaries/ip.o
memlist             0x8               binaries/initialize.o
nametab             0x19a0            binaries/naminit.o
ptfree              0x4               binaries/ptinit.o

Memory Configuration

Name             Origin             Length             Attributes
*default*        0x0000000000000000 0xffffffffffffffff

Linker script and memory map

                0x0000000000100000                physbase = 0x100000
                0x0000000000100000                . = physbase
                0x0000000000100000                . = ALIGN (0x1000)

.text           0x0000000000100000    0x15000
                0x0000000000100000                text = ABSOLUTE (.)
 *(.text .text.*)
 .text          0x0000000000100000      0x1ac binaries/start.o
                0x0000000000100028                start
                0x00000000001000fa                inb
                0x0000000000100102                inw
                0x000000000010010b                inl
                0x0000000000100113                outb
                0x000000000010011d                outw
                0x0000000000100128                outl
                0x0000000000100132                _rtcin
                0x000000000010013d                ___udivsi3
                0x0000000000100148                ___divsi3
                0x0000000000100154                sbzero
                0x0000000000100164                bcopy
                0x0000000000100178                insw
                0x000000000010018e                outsw
                0x00000000001001a4                lidt
 .text          0x00000000001001ac       0x35 binaries/app1.o
                0x00000000001001ac                app1
 .text          0x00000000001001e1       0x8f binaries/app2.o
                0x00000000001001e1                app2
 .text          0x0000000000100270       0x67 binaries/app3.o
                0x0000000000100270                app3
 .text          0x00000000001002d7      0x2b9 binaries/ascdate.o
                0x00000000001002d7                ascdate
 .text          0x0000000000100590       0x14 binaries/bufinit.o
                0x0000000000100590                bufinit
 .text          0x00000000001005a4       0x74 binaries/chprio.o
                0x00000000001005a4                chprio
 .text          0x0000000000100618       0x74 binaries/clkhandler.o
                0x0000000000100618                clkhandler
 .text          0x000000000010068c       0x5d binaries/clkinit.o
                0x000000000010068c                clkinit
 .text          0x00000000001006e9       0x56 binaries/close.o
                0x00000000001006e9                close
 .text          0x000000000010073f        0x0 binaries/conf.o
 .text          0x000000000010073f       0x5c binaries/control.o
                0x000000000010073f                control
 .text          0x000000000010079b      0x26b binaries/create.o
                0x000000000010079b                create
 .text          0x0000000000100a06      0x20e binaries/early_imr.o
                0x0000000000100a06                intel_cln_early_sb_read_reg
                0x0000000000100a5d                intel_cln_early_sb_write_reg
                0x0000000000100b17                remove_irm_protections
 .text          0x0000000000100c14      0x2f4 binaries/evec.o
                0x0000000000100c14                setirmask
                0x0000000000100c4c                set_evec
                0x0000000000100ca7                initevec
                0x0000000000100d79                trap
 .text          0x0000000000100f08       0x30 binaries/factorial.o
                0x0000000000100f08                factorial
 .text          0x0000000000100f38       0x7f binaries/freebuf.o
                0x0000000000100f38                freebuf
 .text          0x0000000000100fb7      0x108 binaries/freemem.o
                0x0000000000100fb7                freemem
 .text          0x00000000001010bf       0x6e binaries/getbuf.o
                0x00000000001010bf                getbuf
 .text          0x000000000010112d       0x56 binaries/getc.o
                0x000000000010112d                getc
 .text          0x0000000000101183       0x69 binaries/getdev.o
                0x0000000000101183                getdev
 .text          0x00000000001011ec       0x82 binaries/getitem.o
                0x00000000001011ec                getitem
                0x000000000010121b                getfirst
                0x0000000000101242                getlast
 .text          0x000000000010126e       0xc2 binaries/getmem.o
                0x000000000010126e                getmem
 .text          0x0000000000101330        0xa binaries/getpid.o
                0x0000000000101330                getpid
 .text          0x000000000010133a       0x19 binaries/getpname.o
                0x000000000010133a                getpname
 .text          0x0000000000101353       0x1c binaries/getppid.o
                0x0000000000101353                getppid
 .text          0x000000000010136f       0x66 binaries/getprio.o
                0x000000000010136f                getprio
 .text          0x00000000001013d5       0xac binaries/getstk.o
                0x00000000001013d5                getstk
 .text          0x0000000000101481       0x32 binaries/gettime.o
                0x0000000000101481                gettime
 .text          0x00000000001014b3      0x198 binaries/getutime.o
                0x00000000001014b3                getutime
 .text          0x000000000010164b       0x10 binaries/host2netlb.o
                0x000000000010164b                host2netlb
 .text          0x000000000010165b       0x56 binaries/init.o
                0x000000000010165b                init
 .text          0x00000000001016b1      0x26c binaries/initialize.o
                0x00000000001016b1                nulluser
                0x00000000001018d3                stop
                0x00000000001018f7                delay
 .text          0x000000000010191d       0xa1 binaries/insert.o
                0x000000000010191d                insert
 .text          0x00000000001019be       0xf4 binaries/insertd.o
                0x00000000001019be                insertd
 .text          0x0000000000101ab2        0xa binaries/ioerr.o
                0x0000000000101ab2                ioerr
 .text          0x0000000000101abc        0xa binaries/ionull.o
                0x0000000000101abc                ionull
 .text          0x0000000000101ac6      0x19d binaries/kill.o
                0x0000000000101ac6                kill
 .text          0x0000000000101c63       0xa9 binaries/kprintf.o
                0x0000000000101c63                kputc
                0x0000000000101c95                console_init
                0x0000000000101cc8                kgetc
                0x0000000000101cee                kprintf
 .text          0x0000000000101d0c      0x1c5 binaries/main.o
                0x0000000000101d0c                main
 .text          0x0000000000101ed1       0x99 binaries/mark.o
                0x0000000000101ed1                markinit
                0x0000000000101ef2                mark
 .text          0x0000000000101f6a      0x1ff binaries/meminit.o
                0x0000000000101f6a                meminit
                0x00000000001020f9                setsegs
 .text          0x0000000000102169      0x122 binaries/mkbufpool.o
                0x0000000000102169                mkbufpool
 .text          0x000000000010228b       0x99 binaries/myappA.o
                0x000000000010228b                myappA
 .text          0x0000000000102324       0x1d binaries/myfuncA.o
                0x0000000000102324                myfuncA
 .text          0x0000000000102341       0x93 binaries/myhacker.o
                0x0000000000102341                myhackermalware
                0x000000000010235d                myhacker
 .text          0x00000000001023d4       0x8a binaries/myvictim.o
                0x00000000001023d4                makevictimsleep
                0x00000000001023ff                invokevictimsleep
                0x0000000000102432                myvictim
 .text          0x000000000010245e       0x5f binaries/mywelcomemsg.o
                0x000000000010245e                mywelcomemsg
 .text          0x00000000001024bd       0x63 binaries/newqueue.o
                0x00000000001024bd                newqueue
 .text          0x0000000000102520       0x5c binaries/open.o
                0x0000000000102520                open
 .text          0x000000000010257c       0x20 binaries/panic.o
                0x000000000010257c                panic
 .text          0x000000000010259c      0x282 binaries/pci.o
                0x000000000010259c                pci_init
                0x00000000001025a6                find_pci_device
                0x0000000000102665                pci_read_config_byte
                0x00000000001026a3                pci_read_config_word
                0x00000000001026e3                pci_read_config_dword
                0x0000000000102721                pci_write_config_byte
                0x000000000010275d                pci_write_config_word
                0x000000000010279a                pci_write_config_dword
                0x00000000001027d6                pci_get_dev_mmio_base_addr
 .text          0x000000000010281e       0x50 binaries/platinit.o
                0x000000000010281e                platinit
 .text          0x000000000010286e      0x125 binaries/printsegaddr.o
                0x000000000010286e                printsegaddr
 .text          0x0000000000102993       0xa9 binaries/ptclear.o
                0x0000000000102993                _ptclear
 .text          0x0000000000102a3c       0x85 binaries/ptcount.o
                0x0000000000102a3c                ptcount
 .text          0x0000000000102ac1       0xfe binaries/ptcreate.o
                0x0000000000102ac1                ptcreate
 .text          0x0000000000102bbf       0x63 binaries/ptdelete.o
                0x0000000000102bbf                ptdelete
 .text          0x0000000000102c22       0x91 binaries/ptinit.o
                0x0000000000102c22                ptinit
 .text          0x0000000000102cb3       0xf5 binaries/ptrecv.o
                0x0000000000102cb3                ptrecv
 .text          0x0000000000102da8       0x66 binaries/ptreset.o
                0x0000000000102da8                ptreset
 .text          0x0000000000102e0e      0x115 binaries/ptsend.o
                0x0000000000102e0e                ptsend
 .text          0x0000000000102f23       0x64 binaries/putc.o
                0x0000000000102f23                putc
 .text          0x0000000000102f87       0xb3 binaries/quark_irq.o
                0x0000000000102f87                quark_irq_routing
 .text          0x000000000010303a      0x19a binaries/quark_pdat.o
                0x000000000010303a                get_quark_pdat_entry_data_by_id
                0x0000000000103104                get_quark_pdat_entry_data_by_desc
 .text          0x00000000001031d4       0xb9 binaries/queue.o
                0x00000000001031d4                enqueue
                0x0000000000103242                dequeue
 .text          0x000000000010328d       0x5c binaries/read.o
                0x000000000010328d                read
 .text          0x00000000001032e9       0x6c binaries/ready.o
                0x00000000001032e9                ready
 .text          0x0000000000103355       0x6e binaries/receive.o
                0x0000000000103355                receive
 .text          0x00000000001033c3       0x57 binaries/recvclr.o
                0x00000000001033c3                recvclr
 .text          0x000000000010341a       0xc8 binaries/recvtime.o
                0x000000000010341a                recvtime
 .text          0x00000000001034e2      0x150 binaries/resched.o
                0x00000000001034e2                resched
                0x00000000001035c0                resched_cntl
 .text          0x0000000000103632       0x90 binaries/resume.o
                0x0000000000103632                resume
 .text          0x00000000001036c2       0x59 binaries/seek.o
                0x00000000001036c2                seek
 .text          0x000000000010371b       0x51 binaries/semcount.o
                0x000000000010371b                semcount
 .text          0x000000000010376c       0x93 binaries/semcreate.o
                0x000000000010376c                semcreate
 .text          0x00000000001037ff       0xd1 binaries/semdelete.o
                0x00000000001037ff                semdelete
 .text          0x00000000001038d0       0xa8 binaries/semreset.o
                0x00000000001038d0                semreset
 .text          0x0000000000103978       0xd1 binaries/send.o
                0x0000000000103978                send
 .text          0x0000000000103a49       0x95 binaries/signal.o
                0x0000000000103a49                signal
 .text          0x0000000000103ade       0xc2 binaries/signaln.o
                0x0000000000103ade                signaln
 .text          0x0000000000103ba0       0xc9 binaries/sleep.o
                0x0000000000103ba0                sleepms
                0x0000000000103c33                sleep
 .text          0x0000000000103c69       0xc4 binaries/stackdepth.o
                0x0000000000103c69                stackdepth
 .text          0x0000000000103d2d      0x1ad binaries/stacktrace.o
                0x0000000000103d2d                stacktrace
 .text          0x0000000000103eda       0xd3 binaries/suspend.o
                0x0000000000103eda                suspend
 .text          0x0000000000103fad       0x9a binaries/unsleep.o
                0x0000000000103fad                unsleep
 .text          0x0000000000104047       0x19 binaries/userret.o
                0x0000000000104047                userret
 .text          0x0000000000104060       0xb9 binaries/wait.o
                0x0000000000104060                wait
 .text          0x0000000000104119       0x71 binaries/wakeup.o
                0x0000000000104119                wakeup
 .text          0x000000000010418a       0x5c binaries/write.o
                0x000000000010418a                write
 .text          0x00000000001041e6       0x1a binaries/xdone.o
                0x00000000001041e6                xdone
 .text          0x0000000000104200       0x26 binaries/yield.o
                0x0000000000104200                yield
 .text          0x0000000000104226       0x11 binaries/abs.o
                0x0000000000104226                abs
 .text          0x0000000000104237       0x84 binaries/atoi.o
                0x0000000000104237                atoi
 .text          0x00000000001042bb       0x84 binaries/atol.o
                0x00000000001042bb                atol
 .text          0x000000000010433f       0x1a binaries/bzero.o
                0x000000000010433f                bzero
 .text          0x0000000000104359        0x0 binaries/ctype_.o
 .text          0x0000000000104359      0x6bf binaries/doprnt.o
                0x00000000001044ac                _doprnt
 .text          0x0000000000104a18      0x5f2 binaries/doscan.o
                0x0000000000104a18                _doscan
 .text          0x000000000010500a      0x64e binaries/fdoprnt.o
                0x000000000010508f                _fdoprnt
 .text          0x0000000000105658       0x1c binaries/fgetc.o
                0x0000000000105658                fgetc
 .text          0x0000000000105674       0x61 binaries/fgets.o
                0x0000000000105674                fgets
 .text          0x00000000001056d5       0x21 binaries/fprintf.o
                0x00000000001056d5                fprintf
 .text          0x00000000001056f6       0x27 binaries/fputc.o
                0x00000000001056f6                fputc
 .text          0x000000000010571d       0x3a binaries/fputs.o
                0x000000000010571d                fputs
 .text          0x0000000000105757       0x6a binaries/fscanf.o
                0x0000000000105795                fscanf
 .text          0x00000000001057c1       0x26 binaries/getchar.o
                0x00000000001057c1                getchar
 .text          0x00000000001057e7       0x11 binaries/labs.o
                0x00000000001057e7                labs
 .text          0x00000000001057f8       0x36 binaries/memchr.o
                0x00000000001057f8                memchr
 .text          0x000000000010582e       0x4a binaries/memcmp.o
                0x000000000010582e                memcmp
 .text          0x0000000000105878       0x26 binaries/memcpy.o
                0x0000000000105878                memcpy
 .text          0x000000000010589e       0x1f binaries/memset.o
                0x000000000010589e                memset
 .text          0x00000000001058bd       0x37 binaries/printf.o
                0x00000000001058bd                printf
 .text          0x00000000001058f4       0x29 binaries/putchar.o
                0x00000000001058f4                putchar
 .text          0x000000000010591d      0x1cc binaries/qsort.o
                0x0000000000105ac1                qsort
 .text          0x0000000000105ae9       0x4c binaries/rand.o
                0x0000000000105ae9                srand
                0x0000000000105af6                rand
 .text          0x0000000000105b35       0x48 binaries/sprintf.o
                0x0000000000105b4e                sprintf
 .text          0x0000000000105b7d       0x5a binaries/sscanf.o
                0x0000000000105bad                sscanf
 .text          0x0000000000105bd7       0x2f binaries/strchr.o
                0x0000000000105bd7                strchr
 .text          0x0000000000105c06       0x45 binaries/strcmp.o
                0x0000000000105c06                strcmp
 .text          0x0000000000105c4b       0x1c binaries/strcpy.o
                0x0000000000105c4b                strcpy
 .text          0x0000000000105c67       0x20 binaries/strlen.o
                0x0000000000105c67                strlen
 .text          0x0000000000105c87       0x3d binaries/strncat.o
                0x0000000000105c87                strncat
 .text          0x0000000000105cc4       0x3b binaries/strncmp.o
                0x0000000000105cc4                strncmp
 .text          0x0000000000105cff       0x59 binaries/strncpy.o
                0x0000000000105cff                strncpy
 .text          0x0000000000105d58       0x38 binaries/strnlen.o
                0x0000000000105d58                strnlen
 .text          0x0000000000105d90       0x32 binaries/strrchr.o
                0x0000000000105d90                strrchr
 .text          0x0000000000105dc2       0x68 binaries/strstr.o
                0x0000000000105dc2                strstr
 .text          0x0000000000105e2a      0x112 binaries/ttycontrol.o
                0x0000000000105e2a                ttycontrol
 .text          0x0000000000105f3c       0xb0 binaries/ttygetc.o
                0x0000000000105f3c                ttygetc
 .text          0x0000000000105fec      0x4a3 binaries/ttyhandle_in.o
                0x00000000001060b0                ttyhandle_in
 .text          0x000000000010648f      0x178 binaries/ttyhandle_out.o
                0x000000000010648f                ttyhandle_out
 .text          0x0000000000106607       0x85 binaries/ttyhandler.o
                0x0000000000106607                ttyhandler
 .text          0x000000000010668c      0x15d binaries/ttyinit.o
                0x000000000010668c                ttyinit
 .text          0x00000000001067e9        0xf binaries/ttykickout.o
                0x00000000001067e9                ttykickout
 .text          0x00000000001067f8       0xb2 binaries/ttyputc.o
                0x00000000001067f8                ttyputc
 .text          0x00000000001068aa       0xff binaries/ttyread.o
                0x00000000001068aa                ttyread
 .text          0x00000000001069a9       0x4d binaries/ttywrite.o
                0x00000000001069a9                ttywrite
 .text          0x00000000001069f6      0x129 binaries/mount.o
                0x00000000001069f6                namlen
                0x0000000000106a32                mount
 .text          0x0000000000106b1f      0x1c4 binaries/naminit.o
                0x0000000000106b1f                naminit
 .text          0x0000000000106ce3      0x1fe binaries/nammap.o
                0x0000000000106ce3                namrepl
                0x0000000000106e06                namcpy
                0x0000000000106e54                nammap
 .text          0x0000000000106ee1       0x44 binaries/namopen.o
                0x0000000000106ee1                namopen
 .text          0x0000000000106f25       0xd4 binaries/colon2mac.o
                0x0000000000106f25                colon2mac
 .text          0x0000000000106ff9       0x7d binaries/ethcontrol.o
                0x0000000000106ff9                ethcontrol
 .text          0x0000000000107076      0x17e binaries/ethhandler.o
                0x0000000000107076                ethhandler
 .text          0x00000000001071f4      0x548 binaries/ethinit.o
                0x00000000001071f4                eth_phy_read
                0x0000000000107234                eth_phy_write
                0x0000000000107275                eth_phy_reset
                0x000000000010734f                ethinit
 .text          0x000000000010773c      0x107 binaries/ethmcast.o
                0x000000000010773c                ethmcast_add
                0x0000000000107788                ethmcast_remove
 .text          0x0000000000107843      0x172 binaries/ethread.o
                0x0000000000107843                ethread
 .text          0x00000000001079b5       0xc1 binaries/ethwrite.o
                0x00000000001079b5                ethwrite
 .text          0x0000000000107a76       0x68 binaries/rdsbufalloc.o
                0x0000000000107a76                rdsbufalloc
 .text          0x0000000000107ade       0xd6 binaries/rdsclose.o
                0x0000000000107ade                rdsclose
 .text          0x0000000000107bb4      0x1df binaries/rdscomm.o
                0x0000000000107bb4                rdscomm
 .text          0x0000000000107d93      0x1c4 binaries/rdscontrol.o
                0x0000000000107d93                rdscontrol
 .text          0x0000000000107f57      0x1f7 binaries/rdsinit.o
                0x0000000000107f57                rdsinit
 .text          0x000000000010814e      0x199 binaries/rdsopen.o
                0x000000000010814e                rdsopen
 .text          0x00000000001082e7      0x2c5 binaries/rdsprocess.o
                0x00000000001082e7                rdsprocess
 .text          0x00000000001085ac      0x1d8 binaries/rdsread.o
                0x00000000001085ac                rdsread
 .text          0x0000000000108784      0x1ae binaries/rdswrite.o
                0x0000000000108784                rdswrite
 .text          0x0000000000108932        0xa binaries/ramclose.o
                0x0000000000108932                ramclose
 .text          0x000000000010893c       0x35 binaries/raminit.o
                0x000000000010893c                raminit
 .text          0x0000000000108971        0xa binaries/ramopen.o
                0x0000000000108971                ramopen
 .text          0x000000000010897b       0x26 binaries/ramread.o
                0x000000000010897b                ramread
 .text          0x00000000001089a1       0x26 binaries/ramwrite.o
                0x00000000001089a1                ramwrite
 .text          0x00000000001089c7       0x87 binaries/lfdballoc.o
                0x00000000001089c7                lfdballoc
 .text          0x0000000000108a4e       0x49 binaries/lfdbfree.o
                0x0000000000108a4e                lfdbfree
 .text          0x0000000000108a97       0xa1 binaries/lfflush.o
                0x0000000000108a97                lfflush
 .text          0x0000000000108b38       0x82 binaries/lfgetmode.o
                0x0000000000108b38                lfgetmode
 .text          0x0000000000108bba       0x60 binaries/lfiballoc.o
                0x0000000000108bba                lfiballoc
 .text          0x0000000000108c1a       0x27 binaries/lfibclear.o
                0x0000000000108c1a                lfibclear
 .text          0x0000000000108c41       0x6c binaries/lfibget.o
                0x0000000000108c41                lfibget
 .text          0x0000000000108cad       0x88 binaries/lfibput.o
                0x0000000000108cad                lfibput
 .text          0x0000000000108d35       0xa4 binaries/lflclose.o
                0x0000000000108d35                lflclose
 .text          0x0000000000108dd9       0xc2 binaries/lflcontrol.o
                0x0000000000108dd9                lflcontrol
 .text          0x0000000000108e9b       0xfd binaries/lflgetc.o
                0x0000000000108e9b                lflgetc
 .text          0x0000000000108f98       0xe7 binaries/lflinit.o
                0x0000000000108f98                lflinit
 .text          0x000000000010907f      0x12f binaries/lflputc.o
                0x000000000010907f                lflputc
 .text          0x00000000001091ae       0x6b binaries/lflread.o
                0x00000000001091ae                lflread
 .text          0x0000000000109219       0xbd binaries/lflseek.o
                0x0000000000109219                lflseek
 .text          0x00000000001092d6       0x52 binaries/lflwrite.o
                0x00000000001092d6                lflwrite
 .text          0x0000000000109328      0x114 binaries/lfsckfmt.o
                0x0000000000109328                lfsckfmt
 .text          0x000000000010943c      0x1e6 binaries/lfscreate.o
                0x000000000010943c                lfscreate
 .text          0x0000000000109622      0x1b1 binaries/lfsetup.o
                0x0000000000109622                lfsetup
 .text          0x00000000001097d3       0x45 binaries/lfsinit.o
                0x00000000001097d3                lfsinit
 .text          0x0000000000109818      0x302 binaries/lfsopen.o
                0x0000000000109818                lfsopen
 .text          0x0000000000109b1a      0x112 binaries/lftruncate.o
                0x0000000000109b1a                lftruncate
 .text          0x0000000000109c2c       0x69 binaries/rflclose.o
                0x0000000000109c2c                rflclose
 .text          0x0000000000109c95       0x29 binaries/rflgetc.o
                0x0000000000109c95                rflgetc
 .text          0x0000000000109cbe       0x6c binaries/rflinit.o
                0x0000000000109cbe                rflinit
 .text          0x0000000000109d2a       0x29 binaries/rflputc.o
                0x0000000000109d2a                rflputc
 .text          0x0000000000109d53      0x2b6 binaries/rflread.o
                0x0000000000109d53                rflread
 .text          0x000000000010a009       0x68 binaries/rflseek.o
                0x000000000010a009                rflseek
 .text          0x000000000010a071      0x2fa binaries/rflwrite.o
                0x000000000010a071                rflwrite
 .text          0x000000000010a36b      0x17d binaries/rfscomm.o
                0x000000000010a36b                rfscomm
 .text          0x000000000010a4e8      0x22b binaries/rfscontrol.o
                0x000000000010a4e8                rfscontrol
 .text          0x000000000010a713       0x82 binaries/rfsgetmode.o
                0x000000000010a713                rfsgetmode
 .text          0x000000000010a795       0x7e binaries/rfsinit.o
                0x000000000010a795                rfsinit
 .text          0x000000000010a813       0xad binaries/rfsndmsg.o
                0x000000000010a813                rfsndmsg
 .text          0x000000000010a8c0      0x243 binaries/rfsopen.o
                0x000000000010a8c0                rfsopen
 .text          0x000000000010ab03      0x626 binaries/arp.o
                0x000000000010ab03                arp_init
                0x000000000010ab1f                arp_alloc
                0x000000000010abc6                arp_ntoh
                0x000000000010ac33                arp_hton
                0x000000000010aca0                arp_resolve
                0x000000000010aef1                arp_in
 .text          0x000000000010b129      0x5ed binaries/dhcp.o
                0x000000000010b129                dhcp_get_opt_val
                0x000000000010b17d                dhcp_bld_bootp_msg
                0x000000000010b24f                dhcp_bld_disc
                0x000000000010b2a1                dhcp_bld_req
                0x000000000010b33c                getlocalip
 .text          0x000000000010b716       0xda binaries/dot2ip.o
                0x000000000010b716                dot2ip
 .text          0x000000000010b7f0      0x38c binaries/hexdump.o
                0x000000000010b7f0                hexdump
                0x000000000010b94a                hexadump
 .text          0x000000000010bb7c      0x6f6 binaries/icmp.o
                0x000000000010bb7c                icmp_init
                0x000000000010bb98                icmp_register
                0x000000000010bc56                icmp_recv
                0x000000000010bdf9                icmp_mkpkt
                0x000000000010bec6                icmp_in
                0x000000000010c060                icmp_send
                0x000000000010c0cf                icmp_release
                0x000000000010c1ea                icmp_cksum
                0x000000000010c244                icmp_hton
                0x000000000010c25b                icmp_ntoh
 .text          0x000000000010c272      0x5e2 binaries/ip.o
                0x000000000010c272                ip_local
                0x000000000010c2b2                ipcksum
                0x000000000010c308                ip_ntoh
                0x000000000010c375                ip_in
                0x000000000010c49a                ip_hton
                0x000000000010c507                ip_out
                0x000000000010c5bd                ip_send
                0x000000000010c6c8                ipout
                0x000000000010c7bb                ip_enqueue
 .text          0x000000000010c854      0x1b2 binaries/net.o
                0x000000000010c854                net_init
                0x000000000010c94b                eth_hton
                0x000000000010c958                eth_ntoh
                0x000000000010c965                netin
 .text          0x000000000010ca06       0xb9 binaries/netstart.o
                0x000000000010ca06                netstart
 .text          0x000000000010cabf      0xa30 binaries/pdump.o
                0x000000000010cabf                pdump
                0x000000000010d0a4                pdumph
 .text          0x000000000010d4ef      0x5b8 binaries/tftp.o
                0x000000000010d4ef                tftp_send1
                0x000000000010d603                tftpget_mb
                0x000000000010da84                tftpget
 .text          0x000000000010daa7      0xa17 binaries/udp.o
                0x000000000010daa7                udp_init
                0x000000000010dae8                udp_in
                0x000000000010dc11                udp_register
                0x000000000010dd22                udp_recv
                0x000000000010debb                udp_recvaddr
                0x000000000010e068                udp_send
                0x000000000010e216                udp_sendto
                0x000000000010e37f                udp_release
                0x000000000010e490                udp_ntoh
                0x000000000010e4a7                udp_hton
 .text          0x000000000010e4be      0x11f binaries/addargs.o
                0x000000000010e4be                addargs
 .text          0x000000000010e5dd      0x1db binaries/lexan.o
                0x000000000010e5dd                lexan
 .text          0x000000000010e7b8      0x660 binaries/shell.o
                0x000000000010e7b8                shell
 .text          0x000000000010ee18       0x59 binaries/xsh_argecho.o
                0x000000000010ee18                xsh_argecho
 .text          0x000000000010ee71      0x1fb binaries/xsh_arp.o
                0x000000000010ee71                xsh_arp
 .text          0x000000000010f06c      0x214 binaries/xsh_cat.o
                0x000000000010f06c                xsh_cat
 .text          0x000000000010f280       0x58 binaries/xsh_clear.o
                0x000000000010f280                xsh_clear
 .text          0x000000000010f2d8      0x2a8 binaries/xsh_date.o
                0x000000000010f2d8                xsh_date
 .text          0x000000000010f580       0x89 binaries/xsh_devdump.o
                0x000000000010f580                xsh_devdump
 .text          0x000000000010f609       0x63 binaries/xsh_echo.o
                0x000000000010f609                xsh_echo
 .text          0x000000000010f66c        0xa binaries/xsh_exit.o
                0x000000000010f66c                xsh_exit
 .text          0x000000000010f676      0x335 binaries/xsh_help.o
                0x000000000010f676                xsh_help
 .text          0x000000000010f9ab      0x38b binaries/xsh_ipaddr.o
                0x000000000010f9ab                xsh_ipaddr
 .text          0x000000000010fd36      0x1de binaries/xsh_kill.o
                0x000000000010fd36                xsh_kill
 .text          0x000000000010ff14      0x3f3 binaries/xsh_memdump.o
                0x000000000010ffda                xsh_memdump
 .text          0x0000000000110307      0x1de binaries/xsh_memstat.o
                0x0000000000110307                xsh_memstat
 .text          0x00000000001104e5      0x2c7 binaries/xsh_ping.o
                0x00000000001104e5                xsh_ping
 .text          0x00000000001107ac      0x1ae binaries/xsh_ps.o
                0x00000000001107ac                xsh_ps
 .text          0x000000000011095a      0x1d3 binaries/xsh_sleep.o
                0x000000000011095a                xsh_sleep
 .text          0x0000000000110b2d      0x1d5 binaries/xsh_udpdump.o
                0x0000000000110b2d                xsh_udpdump
 .text          0x0000000000110d02      0x40a binaries/xsh_udpecho.o
                0x0000000000110d02                xsh_udpecho
 .text          0x000000000011110c      0x232 binaries/xsh_udpeserver.o
                0x000000000011110c                xsh_udpeserver
 .text          0x000000000011133e      0x1c2 binaries/xsh_uptime.o
                0x000000000011133e                xsh_uptime
 .text          0x0000000000111500        0xe binaries/clkdisp.o
                0x0000000000111500                clkdisp
 .text          0x000000000011150e       0x19 binaries/ctxsw.o
                0x000000000011150e                ctxsw
 .text          0x0000000000111527        0xa binaries/host2netla.o
                0x0000000000111527                host2netla
 *fill*         0x0000000000111531        0xf 
 .text          0x0000000000111540       0x25 binaries/host2netlc.o
                0x0000000000111540                host2netlc
 .text.unlikely
                0x0000000000111565        0x0 binaries/host2netlc.o
 .text          0x0000000000111565      0x376 binaries/intr.o
                0x0000000000111565                disable
                0x000000000011156e                restore
                0x000000000011157c                enable
                0x000000000011157e                pause
                0x0000000000111585                idle
                0x0000000000111590                halt
                0x0000000000111596                spurious_irq7
                0x000000000011159b                spurious_irq15
                0x00000000001115aa                _Xint0
                0x00000000001115b5                _Xint1
                0x00000000001115c0                _Xint2
                0x00000000001115cb                _Xint3
                0x00000000001115d6                _Xint4
                0x00000000001115e1                _Xint5
                0x00000000001115ec                _Xint6
                0x00000000001115f7                _Xint7
                0x0000000000111602                _Xint8
                0x000000000011160d                _Xint9
                0x0000000000111618                _Xint10
                0x0000000000111623                _Xint11
                0x0000000000111631                _Xint12
                0x000000000011163f                _Xint13
                0x000000000011164d                _Xint14
                0x000000000011165b                _Xint15
                0x0000000000111669                _Xint16
                0x0000000000111677                _Xint17
                0x0000000000111685                _Xint18
                0x0000000000111693                _Xint19
                0x00000000001116a1                _Xint20
                0x00000000001116af                _Xint21
                0x00000000001116bd                _Xint22
                0x00000000001116cb                _Xint23
                0x00000000001116d9                _Xint24
                0x00000000001116e7                _Xint25
                0x00000000001116f5                _Xint26
                0x0000000000111703                _Xint27
                0x0000000000111711                _Xint28
                0x000000000011171f                _Xint29
                0x000000000011172d                _Xint30
                0x000000000011173b                _Xint31
                0x0000000000111749                _Xint32
                0x0000000000111757                _Xint33
                0x0000000000111765                _Xint34
                0x0000000000111773                _Xint35
                0x0000000000111781                _Xint36
                0x000000000011178f                _Xint37
                0x000000000011179d                _Xint38
                0x00000000001117ab                _Xint39
                0x00000000001117b9                _Xint40
                0x00000000001117c7                _Xint41
                0x00000000001117d5                _Xint42
                0x00000000001117e3                _Xint43
                0x00000000001117f1                _Xint44
                0x00000000001117ff                _Xint45
                0x000000000011180d                _Xint46
                0x000000000011181b                defevec
 .text          0x00000000001118db        0xf binaries/ttydispatch.o
                0x00000000001118db                ttydispatch
 .text          0x00000000001118ea       0x13 binaries/ethdispatch.o
                0x00000000001118ea                ethdispatch
 *(.rodata .rodata.*)
 .rodata.str1.1
                0x00000000001118fd       0x17 binaries/app1.o
 .rodata.str1.1
                0x0000000000111914        0x5 binaries/app2.o
                                         0x1c (size before relaxing)
 *fill*         0x0000000000111919        0x3 
 .rodata.str1.4
                0x000000000011191c       0x2d binaries/app2.o
 *fill*         0x0000000000111949        0x3 
 .rodata.str1.4
                0x000000000011194c       0x4a binaries/app3.o
 .rodata.str1.1
                0x0000000000111996       0x29 binaries/app3.o
 .rodata.str1.1
                0x00000000001119bf       0x54 binaries/ascdate.o
 *fill*         0x0000000000111a13        0x1 
 .rodata.str1.4
                0x0000000000111a14       0x22 binaries/ascdate.o
 .rodata.str1.1
                0x0000000000111a36       0x5f binaries/conf.o
 *fill*         0x0000000000111a95        0x3 
 .rodata.str1.4
                0x0000000000111a98       0x4f binaries/early_imr.o
 *fill*         0x0000000000111ae7        0x1 
 .rodata        0x0000000000111ae8       0x33 binaries/early_imr.o
 .rodata.str1.1
                0x0000000000111b1b      0x20c binaries/evec.o
 *fill*         0x0000000000111d27        0x1 
 .rodata.str1.4
                0x0000000000111d28       0x23 binaries/evec.o
 .rodata.str1.1
                0x0000000000111d4b        0xb binaries/getutime.o
 *fill*         0x0000000000111d56        0x2 
 .rodata.str1.4
                0x0000000000111d58       0x54 binaries/getutime.o
 .rodata.str1.1
                0x0000000000111dac       0x6b binaries/initialize.o
                                         0x6f (size before relaxing)
 *fill*         0x0000000000111e17        0x1 
 .rodata.str1.4
                0x0000000000111e18       0xd4 binaries/initialize.o
 .rodata        0x0000000000111eec       0x20 binaries/kill.o
 .rodata.str1.4
                0x0000000000111f0c      0x12d binaries/main.o
 .rodata.str1.1
                0x0000000000112039       0x4d binaries/main.o
                                         0x4f (size before relaxing)
 *fill*         0x0000000000112086        0x2 
 .rodata.str1.4
                0x0000000000112088       0x23 binaries/meminit.o
 .rodata.str1.1
                0x00000000001120ab       0x1b binaries/meminit.o
 *fill*         0x00000000001120c6        0x2 
 .rodata.str1.4
                0x00000000001120c8       0xca binaries/myappA.o
 *fill*         0x0000000000112192        0x2 
 .rodata.str1.4
                0x0000000000112194       0x39 binaries/myfuncA.o
 *fill*         0x00000000001121cd        0x3 
 .rodata.str1.4
                0x00000000001121d0       0xc0 binaries/myhacker.o
 .rodata.str1.1
                0x0000000000112290       0x53 binaries/myvictim.o
 *fill*         0x00000000001122e3        0x1 
 .rodata.str1.4
                0x00000000001122e4      0x19b binaries/mywelcomemsg.o
 .rodata.str1.1
                0x000000000011247f       0x16 binaries/mywelcomemsg.o
 .rodata.str1.1
                0x0000000000112495        0xf binaries/panic.o
 .rodata.str1.1
                0x00000000001124a4       0xac binaries/printsegaddr.o
                                         0xae (size before relaxing)
 .rodata.str1.4
                0x0000000000112550       0x69 binaries/printsegaddr.o
 .rodata.str1.1
                0x00000000001125b9       0x1c binaries/ptinit.o
 *fill*         0x00000000001125d5        0x3 
 .rodata.str1.4
                0x00000000001125d8       0x25 binaries/ptsend.o
 .rodata.str1.1
                0x00000000001125fd       0x22 binaries/quark_pdat.o
 *fill*         0x000000000011261f        0x1 
 .rodata.str1.4
                0x0000000000112620       0x7e binaries/stackdepth.o
 .rodata.str1.1
                0x000000000011269e       0x39 binaries/stackdepth.o
 *fill*         0x00000000001126d7        0x1 
 .rodata.str1.4
                0x00000000001126d8       0x63 binaries/stacktrace.o
 .rodata.str1.1
                0x000000000011273b       0x52 binaries/stacktrace.o
 *fill*         0x000000000011278d        0x3 
 .rodata.str1.4
                0x0000000000112790       0x27 binaries/xdone.o
 *fill*         0x00000000001127b7        0x9 
 .rodata        0x00000000001127c0       0x81 binaries/ctype_.o
                0x00000000001127c0                _ctype_
 .rodata.str1.1
                0x0000000000112841       0x29 binaries/doprnt.o
 *fill*         0x000000000011286a        0x2 
 .rodata        0x000000000011286c       0xc4 binaries/doprnt.o
 .rodata        0x0000000000112930       0x98 binaries/doscan.o
 .rodata.str1.1
                0x00000000001129c8       0x29 binaries/fdoprnt.o
 .rodata        0x00000000001129c8       0x84 binaries/fdoprnt.o
 .rodata        0x0000000000112a4c       0x20 binaries/ttycontrol.o
 .rodata.str1.4
                0x0000000000112a6c       0x4c binaries/naminit.o
 .rodata.str1.1
                0x0000000000112ab8       0x32 binaries/naminit.o
                                         0x35 (size before relaxing)
 .rodata.str1.1
                0x0000000000112aea       0x15 binaries/ethinit.o
 *fill*         0x0000000000112aff        0x1 
 .rodata.str1.4
                0x0000000000112b00       0x2e binaries/ethinit.o
 *fill*         0x0000000000112b2e        0x2 
 .rodata.str1.4
                0x0000000000112b30       0x2c binaries/rdsbufalloc.o
 .rodata.str1.4
                0x0000000000112b5c       0x76 binaries/rdscomm.o
 *fill*         0x0000000000112bd2        0x2 
 .rodata.str1.4
                0x0000000000112bd4       0x48 binaries/rdscontrol.o
 .rodata.str1.4
                0x0000000000112c1c       0x7e binaries/rdsinit.o
 .rodata.str1.1
                0x0000000000112c9a       0x18 binaries/rdsinit.o
 *fill*         0x0000000000112cb2        0x2 
 .rodata.str1.4
                0x0000000000112cb4       0x22 binaries/rdsopen.o
 *fill*         0x0000000000112cd6        0x2 
 .rodata.str1.4
                0x0000000000112cd8       0x4d binaries/rdsprocess.o
 .rodata.str1.1
                0x0000000000112d25        0x9 binaries/raminit.o
 .rodata.str1.1
                0x0000000000112d2e       0x13 binaries/lfdballoc.o
 *fill*         0x0000000000112d41        0x3 
 .rodata.str1.4
                0x0000000000112d44       0x23 binaries/lfdballoc.o
 .rodata.str1.1
                0x0000000000112d67       0x14 binaries/lfiballoc.o
 *fill*         0x0000000000112d7b        0x1 
 .rodata.str1.4
                0x0000000000112d7c       0x23 binaries/lflcontrol.o
 .rodata.str1.1
                0x0000000000112d9f       0x64 binaries/lfsckfmt.o
 *fill*         0x0000000000112e03        0x1 
 .rodata.str1.4
                0x0000000000112e04       0x51 binaries/lfsckfmt.o
 *fill*         0x0000000000112e55        0x3 
 .rodata.str1.4
                0x0000000000112e58       0x21 binaries/rflread.o
 .rodata.str1.4
                0x0000000000112e79       0x21 binaries/rflwrite.o
 *fill*         0x0000000000112e79        0x3 
 .rodata.str1.4
                0x0000000000112e7c       0x75 binaries/rfscomm.o
 *fill*         0x0000000000112ef1        0x3 
 .rodata.str1.4
                0x0000000000112ef4       0x23 binaries/rfscontrol.o
 *fill*         0x0000000000112f17        0x1 
 .rodata        0x0000000000112f18       0x18 binaries/rfscontrol.o
 .rodata.str1.1
                0x0000000000112f30       0x10 binaries/rfsinit.o
 .rodata.str1.4
                0x0000000000112f30       0x57 binaries/rfsinit.o
 *fill*         0x0000000000112f87        0x1 
 .rodata.str1.4
                0x0000000000112f88       0x2a binaries/rfsndmsg.o
 .rodata.str1.4
                0x0000000000112fb2       0x22 binaries/rfsopen.o
 .rodata.str1.1
                0x0000000000112fb2       0x19 binaries/arp.o
 *fill*         0x0000000000112fcb        0x1 
 .rodata.str1.4
                0x0000000000112fcc       0x21 binaries/arp.o
 *fill*         0x0000000000112fed        0x3 
 .rodata.str1.4
                0x0000000000112ff0       0xa6 binaries/dhcp.o
 .rodata.str1.1
                0x0000000000113096       0x4a binaries/dhcp.o
 .rodata.str1.1
                0x00000000001130e0       0x5a binaries/hexdump.o
                                         0x61 (size before relaxing)
 *fill*         0x000000000011313a        0x2 
 .rodata.str1.4
                0x000000000011313c       0x67 binaries/hexdump.o
 *fill*         0x00000000001131a3        0x1 
 .rodata.str1.4
                0x00000000001131a4       0x29 binaries/icmp.o
 .rodata.str1.1
                0x00000000001131cd       0x4e binaries/ip.o
 *fill*         0x000000000011321b        0x1 
 .rodata.str1.4
                0x000000000011321c       0x20 binaries/ip.o
 .rodata.str1.4
                0x000000000011323c       0x28 binaries/net.o
 .rodata.str1.1
                0x0000000000113264       0x27 binaries/net.o
 *fill*         0x000000000011328b        0x1 
 .rodata.str1.4
                0x000000000011328c       0xcf binaries/netstart.o
 .rodata.str1.1
                0x000000000011335b      0x141 binaries/pdump.o
                                        0x14b (size before relaxing)
 .rodata.str1.4
                0x000000000011349c      0x126 binaries/pdump.o
 *fill*         0x00000000001135c2        0x2 
 .rodata.str1.4
                0x00000000001135c4      0x148 binaries/tftp.o
 .rodata.str1.1
                0x000000000011370c        0x6 binaries/tftp.o
                                          0xa (size before relaxing)
 .rodata.str1.1
                0x0000000000113712       0xe3 binaries/shell.o
                                         0xff (size before relaxing)
 *fill*         0x00000000001137f5        0x3 
 .rodata.str1.4
                0x00000000001137f8      0x1e8 binaries/shell.o
 .rodata        0x00000000001139e0       0xfc binaries/shell.o
                0x00000000001139e0                cmdtab
 .rodata.str1.1
                0x0000000000113adc       0x26 binaries/xsh_argecho.o
                                         0x28 (size before relaxing)
 .rodata.str1.1
                0x0000000000113b02       0x70 binaries/xsh_arp.o
                                         0x72 (size before relaxing)
 *fill*         0x0000000000113b72        0x2 
 .rodata.str1.4
                0x0000000000113b74       0xb4 binaries/xsh_arp.o
 .rodata.str1.1
                0x0000000000113c28       0x2d binaries/xsh_cat.o
                                         0x4f (size before relaxing)
 *fill*         0x0000000000113c55        0x3 
 .rodata.str1.4
                0x0000000000113c58       0x52 binaries/xsh_cat.o
                                         0x79 (size before relaxing)
 .rodata.str1.1
                0x0000000000113caa       0x15 binaries/xsh_clear.o
 .rodata.str1.1
                0x0000000000113cbf       0x46 binaries/xsh_date.o
                                         0x5f (size before relaxing)
 *fill*         0x0000000000113d05        0x3 
 .rodata.str1.4
                0x0000000000113d08      0x163 binaries/xsh_date.o
 .rodata.str1.1
                0x0000000000113e6b       0x5d binaries/xsh_devdump.o
 .rodata.str1.1
                0x0000000000113ec8        0x4 binaries/xsh_echo.o
                                          0x9 (size before relaxing)
 .rodata.str1.1
                0x0000000000113ecc       0x65 binaries/xsh_help.o
                                         0xa3 (size before relaxing)
 *fill*         0x0000000000113f31        0x3 
 .rodata.str1.4
                0x0000000000113f34       0x7c binaries/xsh_help.o
                                         0xc6 (size before relaxing)
 .rodata.str1.1
                0x0000000000113fb0       0x9c binaries/xsh_ipaddr.o
                                         0xf8 (size before relaxing)
 .rodata.str1.4
                0x000000000011404c       0x4d binaries/xsh_ipaddr.o
                                         0x99 (size before relaxing)
 .rodata.str1.1
                0x0000000000114099       0x78 binaries/xsh_kill.o
                                         0x97 (size before relaxing)
 *fill*         0x0000000000114111        0x3 
 .rodata.str1.4
                0x0000000000114114       0x4a binaries/xsh_kill.o
                                         0x96 (size before relaxing)
 .rodata.str1.1
                0x000000000011415e       0x84 binaries/xsh_memdump.o
                                         0xa8 (size before relaxing)
 *fill*         0x00000000001141e2        0x2 
 .rodata.str1.4
                0x00000000001141e4      0x15a binaries/xsh_memdump.o
                                        0x1aa (size before relaxing)
 .rodata.str1.1
                0x000000000011433e       0x40 binaries/xsh_memstat.o
                                         0x79 (size before relaxing)
 *fill*         0x000000000011437e        0x2 
 .rodata.str1.4
                0x0000000000114380      0x187 binaries/xsh_memstat.o
                                        0x1af (size before relaxing)
 .rodata.str1.1
                0x0000000000114507       0x90 binaries/xsh_ping.o
                                         0xaf (size before relaxing)
 *fill*         0x0000000000114597        0x1 
 .rodata.str1.4
                0x0000000000114598       0x77 binaries/xsh_ping.o
                                         0xc6 (size before relaxing)
 .rodata.str1.1
                0x000000000011460f       0x74 binaries/xsh_ps.o
                                         0xd5 (size before relaxing)
 *fill*         0x0000000000114683        0x1 
 .rodata.str1.4
                0x0000000000114684       0x80 binaries/xsh_ps.o
                                         0xd0 (size before relaxing)
 *fill*         0x0000000000114704       0x1c 
 .rodata        0x0000000000114720       0x20 binaries/xsh_ps.o
 .rodata.str1.1
                0x0000000000114740       0x31 binaries/xsh_sleep.o
                                         0x72 (size before relaxing)
 *fill*         0x0000000000114771        0x3 
 .rodata.str1.4
                0x0000000000114774       0x2a binaries/xsh_sleep.o
                                         0x7a (size before relaxing)
 .rodata.str1.1
                0x000000000011479e       0x6b binaries/xsh_udpdump.o
                                         0xd2 (size before relaxing)
 *fill*         0x0000000000114809        0x3 
 .rodata.str1.4
                0x000000000011480c       0x94 binaries/xsh_udpdump.o
                                         0xe4 (size before relaxing)
 .rodata.str1.1
                0x00000000001148a0       0xdb binaries/xsh_udpecho.o
                                         0xfa (size before relaxing)
 *fill*         0x000000000011497b        0x1 
 .rodata.str1.4
                0x000000000011497c       0xc7 binaries/xsh_udpecho.o
                                        0x116 (size before relaxing)
 .rodata.str1.1
                0x0000000000114a43       0x66 binaries/xsh_udpeserver.o
                                         0x8f (size before relaxing)
 *fill*         0x0000000000114aa9        0x3 
 .rodata.str1.4
                0x0000000000114aac       0x29 binaries/xsh_udpeserver.o
                                         0x9f (size before relaxing)
 .rodata.str1.1
                0x0000000000114ad5       0x49 binaries/xsh_uptime.o
                                         0x8c (size before relaxing)
 *fill*         0x0000000000114b1e        0x2 
 .rodata.str1.4
                0x0000000000114b20       0x28 binaries/xsh_uptime.o
                                         0x76 (size before relaxing)
                0x0000000000114b48                etext = ABSOLUTE (.)
                0x0000000000115000                . = ALIGN (0x1000)
 *fill*         0x0000000000114b48      0x4b8 

.eh_frame       0x0000000000115000     0x31ec
 .eh_frame      0x0000000000115000       0x3c binaries/app1.o
 .eh_frame      0x000000000011503c       0x28 binaries/app2.o
                                         0x40 (size before relaxing)
 .eh_frame      0x0000000000115064       0x24 binaries/app3.o
                                         0x3c (size before relaxing)
 .eh_frame      0x0000000000115088       0x30 binaries/ascdate.o
                                         0x48 (size before relaxing)
 .eh_frame      0x00000000001150b8       0x20 binaries/bufinit.o
                                         0x38 (size before relaxing)
 .eh_frame      0x00000000001150d8       0x2c binaries/chprio.o
                                         0x44 (size before relaxing)
 .eh_frame      0x0000000000115104       0x20 binaries/clkhandler.o
                                         0x38 (size before relaxing)
 .eh_frame      0x0000000000115124       0x20 binaries/clkinit.o
                                         0x38 (size before relaxing)
 .eh_frame      0x0000000000115144       0x28 binaries/close.o
                                         0x40 (size before relaxing)
 .eh_frame      0x000000000011516c       0x28 binaries/control.o
                                         0x40 (size before relaxing)
 .eh_frame      0x0000000000115194       0x30 binaries/create.o
                                         0x48 (size before relaxing)
 .eh_frame      0x00000000001151c4       0x94 binaries/early_imr.o
                                         0xac (size before relaxing)
 .eh_frame      0x0000000000115258       0x94 binaries/evec.o
                                         0xac (size before relaxing)
 .eh_frame      0x00000000001152ec       0x24 binaries/factorial.o
                                         0x3c (size before relaxing)
 .eh_frame      0x0000000000115310       0x2c binaries/freebuf.o
                                         0x44 (size before relaxing)
 .eh_frame      0x000000000011533c       0x2c binaries/freemem.o
                                         0x44 (size before relaxing)
 .eh_frame      0x0000000000115368       0x2c binaries/getbuf.o
                                         0x44 (size before relaxing)
 .eh_frame      0x0000000000115394       0x28 binaries/getc.o
                                         0x40 (size before relaxing)
 .eh_frame      0x00000000001153bc       0x2c binaries/getdev.o
                                         0x44 (size before relaxing)
 .eh_frame      0x00000000001153e8       0x64 binaries/getitem.o
                                         0x7c (size before relaxing)
 .eh_frame      0x000000000011544c       0x28 binaries/getmem.o
                                         0x40 (size before relaxing)
 .eh_frame      0x0000000000115474       0x20 binaries/getpid.o
                                         0x38 (size before relaxing)
 .eh_frame      0x0000000000115494       0x20 binaries/getpname.o
                                         0x38 (size before relaxing)
 .eh_frame      0x00000000001154b4       0x20 binaries/getppid.o
                                         0x38 (size before relaxing)
 .eh_frame      0x00000000001154d4       0x24 binaries/getprio.o
                                         0x3c (size before relaxing)
 .eh_frame      0x00000000001154f8       0x2c binaries/getstk.o
                                         0x44 (size before relaxing)
 .eh_frame      0x0000000000115524       0x20 binaries/gettime.o
                                         0x38 (size before relaxing)
 .eh_frame      0x0000000000115544       0x24 binaries/getutime.o
                                         0x3c (size before relaxing)
 .eh_frame      0x0000000000115568       0x20 binaries/host2netlb.o
                                         0x38 (size before relaxing)
 .eh_frame      0x0000000000115588       0x28 binaries/init.o
                                         0x40 (size before relaxing)
 .eh_frame      0x00000000001155b0       0x68 binaries/initialize.o
                                         0x80 (size before relaxing)
 .eh_frame      0x0000000000115618       0x28 binaries/insert.o
                                         0x40 (size before relaxing)
 .eh_frame      0x0000000000115640       0x2c binaries/insertd.o
                                         0x44 (size before relaxing)
 .eh_frame      0x000000000011566c       0x20 binaries/ioerr.o
                                         0x38 (size before relaxing)
 .eh_frame      0x000000000011568c       0x20 binaries/ionull.o
                                         0x38 (size before relaxing)
 .eh_frame      0x00000000001156ac       0x30 binaries/kill.o
                                         0x48 (size before relaxing)
 .eh_frame      0x00000000001156dc       0x80 binaries/kprintf.o
                                         0x98 (size before relaxing)
 .eh_frame      0x000000000011575c       0x38 binaries/main.o
                                         0x50 (size before relaxing)
 .eh_frame      0x0000000000115794       0x44 binaries/mark.o
                                         0x5c (size before relaxing)
 .eh_frame      0x00000000001157d8       0x50 binaries/meminit.o
                                         0x68 (size before relaxing)
 .eh_frame      0x0000000000115828       0x30 binaries/mkbufpool.o
                                         0x48 (size before relaxing)
 .eh_frame      0x0000000000115858       0x2c binaries/myappA.o
                                         0x44 (size before relaxing)
 .eh_frame      0x0000000000115884       0x20 binaries/myfuncA.o
                                         0x38 (size before relaxing)
 .eh_frame      0x00000000001158a4       0x40 binaries/myhacker.o
                                         0x58 (size before relaxing)
 .eh_frame      0x00000000001158e4       0x60 binaries/myvictim.o
                                         0x78 (size before relaxing)
 .eh_frame      0x0000000000115944       0x20 binaries/mywelcomemsg.o
                                         0x38 (size before relaxing)
 .eh_frame      0x0000000000115964       0x20 binaries/newqueue.o
                                         0x38 (size before relaxing)
 .eh_frame      0x0000000000115984       0x28 binaries/open.o
                                         0x40 (size before relaxing)
 .eh_frame      0x00000000001159ac       0x1c binaries/panic.o
                                         0x34 (size before relaxing)
 .eh_frame      0x00000000001159c8      0x12c binaries/pci.o
                                        0x144 (size before relaxing)
 .eh_frame      0x0000000000115af4       0x20 binaries/platinit.o
                                         0x38 (size before relaxing)
 .eh_frame      0x0000000000115b14       0x20 binaries/printsegaddr.o
                                         0x38 (size before relaxing)
 .eh_frame      0x0000000000115b34       0x2c binaries/ptclear.o
                                         0x44 (size before relaxing)
 .eh_frame      0x0000000000115b60       0x2c binaries/ptcount.o
                                         0x44 (size before relaxing)
 .eh_frame      0x0000000000115b8c       0x2c binaries/ptcreate.o
                                         0x44 (size before relaxing)
 .eh_frame      0x0000000000115bb8       0x28 binaries/ptdelete.o
                                         0x40 (size before relaxing)
 .eh_frame      0x0000000000115be0       0x28 binaries/ptinit.o
                                         0x40 (size before relaxing)
 .eh_frame      0x0000000000115c08       0x2c binaries/ptrecv.o
                                         0x44 (size before relaxing)
 .eh_frame      0x0000000000115c34       0x28 binaries/ptreset.o
                                         0x40 (size before relaxing)
 .eh_frame      0x0000000000115c5c       0x30 binaries/ptsend.o
                                         0x48 (size before relaxing)
 .eh_frame      0x0000000000115c8c       0x2c binaries/putc.o
                                         0x44 (size before relaxing)
 .eh_frame      0x0000000000115cb8       0x24 binaries/quark_irq.o
                                         0x3c (size before relaxing)
 .eh_frame      0x0000000000115cdc       0x54 binaries/quark_pdat.o
                                         0x6c (size before relaxing)
 .eh_frame      0x0000000000115d30       0x44 binaries/queue.o
                                         0x5c (size before relaxing)
 .eh_frame      0x0000000000115d74       0x28 binaries/read.o
                                         0x40 (size before relaxing)
 .eh_frame      0x0000000000115d9c       0x20 binaries/ready.o
                                         0x38 (size before relaxing)
 .eh_frame      0x0000000000115dbc       0x2c binaries/receive.o
                                         0x44 (size before relaxing)
 .eh_frame      0x0000000000115de8       0x24 binaries/recvclr.o
                                         0x3c (size before relaxing)
 .eh_frame      0x0000000000115e0c       0x2c binaries/recvtime.o
                                         0x44 (size before relaxing)
 .eh_frame      0x0000000000115e38       0x48 binaries/resched.o
                                         0x60 (size before relaxing)
 .eh_frame      0x0000000000115e80       0x2c binaries/resume.o
                                         0x44 (size before relaxing)
 .eh_frame      0x0000000000115eac       0x28 binaries/seek.o
                                         0x40 (size before relaxing)
 .eh_frame      0x0000000000115ed4       0x24 binaries/semcount.o
                                         0x3c (size before relaxing)
 .eh_frame      0x0000000000115ef8       0x2c binaries/semcreate.o
                                         0x44 (size before relaxing)
 .eh_frame      0x0000000000115f24       0x2c binaries/semdelete.o
                                         0x44 (size before relaxing)
 .eh_frame      0x0000000000115f50       0x2c binaries/semreset.o
                                         0x44 (size before relaxing)
 .eh_frame      0x0000000000115f7c       0x28 binaries/send.o
                                         0x40 (size before relaxing)
 .eh_frame      0x0000000000115fa4       0x28 binaries/signal.o
                                         0x40 (size before relaxing)
 .eh_frame      0x0000000000115fcc       0x2c binaries/signaln.o
                                         0x44 (size before relaxing)
 .eh_frame      0x0000000000115ff8       0x48 binaries/sleep.o
                                         0x60 (size before relaxing)
 .eh_frame      0x0000000000116040       0x2c binaries/stackdepth.o
                                         0x44 (size before relaxing)
 .eh_frame      0x000000000011606c       0x30 binaries/stacktrace.o
                                         0x48 (size before relaxing)
 .eh_frame      0x000000000011609c       0x28 binaries/suspend.o
                                         0x40 (size before relaxing)
 .eh_frame      0x00000000001160c4       0x28 binaries/unsleep.o
                                         0x40 (size before relaxing)
 .eh_frame      0x00000000001160ec       0x20 binaries/userret.o
                                         0x38 (size before relaxing)
 .eh_frame      0x000000000011610c       0x28 binaries/wait.o
                                         0x40 (size before relaxing)
 .eh_frame      0x0000000000116134       0x20 binaries/wakeup.o
                                         0x38 (size before relaxing)
 .eh_frame      0x0000000000116154       0x28 binaries/write.o
                                         0x40 (size before relaxing)
 .eh_frame      0x000000000011617c       0x20 binaries/xdone.o
                                         0x38 (size before relaxing)
 .eh_frame      0x000000000011619c       0x24 binaries/yield.o
                                         0x3c (size before relaxing)
 .eh_frame      0x00000000001161c0       0x20 binaries/abs.o
                                         0x38 (size before relaxing)
 .eh_frame      0x00000000001161e0       0x28 binaries/atoi.o
                                         0x40 (size before relaxing)
 .eh_frame      0x0000000000116208       0x28 binaries/atol.o
                                         0x40 (size before relaxing)
 .eh_frame      0x0000000000116230       0x20 binaries/bzero.o
                                         0x38 (size before relaxing)
 .eh_frame      0x0000000000116250       0xac binaries/doprnt.o
                                         0xc4 (size before relaxing)
 .eh_frame      0x00000000001162fc       0x30 binaries/doscan.o
                                         0x48 (size before relaxing)
 .eh_frame      0x000000000011632c       0x5c binaries/fdoprnt.o
                                         0x74 (size before relaxing)
 .eh_frame      0x0000000000116388       0x20 binaries/fgetc.o
                                         0x38 (size before relaxing)
 .eh_frame      0x00000000001163a8       0x2c binaries/fgets.o
                                         0x44 (size before relaxing)
 .eh_frame      0x00000000001163d4       0x20 binaries/fprintf.o
                                         0x38 (size before relaxing)
 .eh_frame      0x00000000001163f4       0x20 binaries/fputc.o
                                         0x38 (size before relaxing)
 .eh_frame      0x0000000000116414       0x28 binaries/fputs.o
                                         0x40 (size before relaxing)
 .eh_frame      0x000000000011643c       0x64 binaries/fscanf.o
                                         0x7c (size before relaxing)
 .eh_frame      0x00000000001164a0       0x20 binaries/getchar.o
                                         0x38 (size before relaxing)
 .eh_frame      0x00000000001164c0       0x20 binaries/labs.o
                                         0x38 (size before relaxing)
 .eh_frame      0x00000000001164e0       0x20 binaries/memchr.o
                                         0x38 (size before relaxing)
 .eh_frame      0x0000000000116500       0x28 binaries/memcmp.o
                                         0x40 (size before relaxing)
 .eh_frame      0x0000000000116528       0x28 binaries/memcpy.o
                                         0x40 (size before relaxing)
 .eh_frame      0x0000000000116550       0x24 binaries/memset.o
                                         0x3c (size before relaxing)
 .eh_frame      0x0000000000116574       0x20 binaries/printf.o
                                         0x38 (size before relaxing)
 .eh_frame      0x0000000000116594       0x20 binaries/putchar.o
                                         0x38 (size before relaxing)
 .eh_frame      0x00000000001165b4       0xa4 binaries/qsort.o
                                         0xbc (size before relaxing)
 .eh_frame      0x0000000000116658       0x40 binaries/rand.o
                                         0x58 (size before relaxing)
 .eh_frame      0x0000000000116698       0x48 binaries/sprintf.o
                                         0x60 (size before relaxing)
 .eh_frame      0x00000000001166e0       0x60 binaries/sscanf.o
                                         0x78 (size before relaxing)
 .eh_frame      0x0000000000116740       0x24 binaries/strchr.o
                                         0x3c (size before relaxing)
 .eh_frame      0x0000000000116764       0x24 binaries/strcmp.o
                                         0x3c (size before relaxing)
 .eh_frame      0x0000000000116788       0x20 binaries/strcpy.o
                                         0x38 (size before relaxing)
 .eh_frame      0x00000000001167a8       0x20 binaries/strlen.o
                                         0x38 (size before relaxing)
 .eh_frame      0x00000000001167c8       0x2c binaries/strncat.o
                                         0x44 (size before relaxing)
 .eh_frame      0x00000000001167f4       0x24 binaries/strncmp.o
                                         0x3c (size before relaxing)
 .eh_frame      0x0000000000116818       0x2c binaries/strncpy.o
                                         0x44 (size before relaxing)
 .eh_frame      0x0000000000116844       0x24 binaries/strnlen.o
                                         0x3c (size before relaxing)
 .eh_frame      0x0000000000116868       0x24 binaries/strrchr.o
                                         0x3c (size before relaxing)
 .eh_frame      0x000000000011688c       0x2c binaries/strstr.o
                                         0x44 (size before relaxing)
 .eh_frame      0x00000000001168b8       0x30 binaries/ttycontrol.o
                                         0x48 (size before relaxing)
 .eh_frame      0x00000000001168e8       0x2c binaries/ttygetc.o
                                         0x44 (size before relaxing)
 .eh_frame      0x0000000000116914       0x84 binaries/ttyhandle_in.o
                                         0x9c (size before relaxing)
 .eh_frame      0x0000000000116998       0x30 binaries/ttyhandle_out.o
                                         0x48 (size before relaxing)
 .eh_frame      0x00000000001169c8       0x28 binaries/ttyhandler.o
                                         0x40 (size before relaxing)
 .eh_frame      0x00000000001169f0       0x30 binaries/ttyinit.o
                                         0x48 (size before relaxing)
 .eh_frame      0x0000000000116a20       0x20 binaries/ttykickout.o
                                         0x38 (size before relaxing)
 .eh_frame      0x0000000000116a40       0x2c binaries/ttyputc.o
                                         0x44 (size before relaxing)
 .eh_frame      0x0000000000116a6c       0x2c binaries/ttyread.o
                                         0x44 (size before relaxing)
 .eh_frame      0x0000000000116a98       0x2c binaries/ttywrite.o
                                         0x44 (size before relaxing)
 .eh_frame      0x0000000000116ac4       0x4c binaries/mount.o
                                         0x64 (size before relaxing)
 .eh_frame      0x0000000000116b10       0x30 binaries/naminit.o
                                         0x48 (size before relaxing)
 .eh_frame      0x0000000000116b40       0x84 binaries/nammap.o
                                         0x9c (size before relaxing)
 .eh_frame      0x0000000000116bc4       0x20 binaries/namopen.o
                                         0x38 (size before relaxing)
 .eh_frame      0x0000000000116be4       0x2c binaries/colon2mac.o
                                         0x44 (size before relaxing)
 .eh_frame      0x0000000000116c10       0x20 binaries/ethcontrol.o
                                         0x38 (size before relaxing)
 .eh_frame      0x0000000000116c30       0x30 binaries/ethhandler.o
                                         0x48 (size before relaxing)
 .eh_frame      0x0000000000116c60       0x98 binaries/ethinit.o
                                         0xb0 (size before relaxing)
 .eh_frame      0x0000000000116cf8       0x54 binaries/ethmcast.o
                                         0x6c (size before relaxing)
 .eh_frame      0x0000000000116d4c       0x30 binaries/ethread.o
                                         0x48 (size before relaxing)
 .eh_frame      0x0000000000116d7c       0x2c binaries/ethwrite.o
                                         0x44 (size before relaxing)
 .eh_frame      0x0000000000116da8       0x24 binaries/rdsbufalloc.o
                                         0x3c (size before relaxing)
 .eh_frame      0x0000000000116dcc       0x2c binaries/rdsclose.o
                                         0x44 (size before relaxing)
 .eh_frame      0x0000000000116df8       0x30 binaries/rdscomm.o
                                         0x48 (size before relaxing)
 .eh_frame      0x0000000000116e28       0x30 binaries/rdscontrol.o
                                         0x48 (size before relaxing)
 .eh_frame      0x0000000000116e58       0x30 binaries/rdsinit.o
                                         0x48 (size before relaxing)
 .eh_frame      0x0000000000116e88       0x30 binaries/rdsopen.o
                                         0x48 (size before relaxing)
 .eh_frame      0x0000000000116eb8       0x20 binaries/rdsprocess.o
                                         0x38 (size before relaxing)
 .eh_frame      0x0000000000116ed8       0x30 binaries/rdsread.o
                                         0x48 (size before relaxing)
 .eh_frame      0x0000000000116f08       0x30 binaries/rdswrite.o
                                         0x48 (size before relaxing)
 .eh_frame      0x0000000000116f38       0x20 binaries/ramclose.o
                                         0x38 (size before relaxing)
 .eh_frame      0x0000000000116f58       0x20 binaries/raminit.o
                                         0x38 (size before relaxing)
 .eh_frame      0x0000000000116f78       0x20 binaries/ramopen.o
                                         0x38 (size before relaxing)
 .eh_frame      0x0000000000116f98       0x20 binaries/ramread.o
                                         0x38 (size before relaxing)
 .eh_frame      0x0000000000116fb8       0x20 binaries/ramwrite.o
                                         0x38 (size before relaxing)
 .eh_frame      0x0000000000116fd8       0x28 binaries/lfdballoc.o
                                         0x40 (size before relaxing)
 .eh_frame      0x0000000000117000       0x24 binaries/lfdbfree.o
                                         0x3c (size before relaxing)
 .eh_frame      0x0000000000117024       0x24 binaries/lfflush.o
                                         0x3c (size before relaxing)
 .eh_frame      0x0000000000117048       0x20 binaries/lfgetmode.o
                                         0x38 (size before relaxing)
 .eh_frame      0x0000000000117068       0x24 binaries/lfiballoc.o
                                         0x3c (size before relaxing)
 .eh_frame      0x000000000011708c       0x20 binaries/lfibclear.o
                                         0x38 (size before relaxing)
 .eh_frame      0x00000000001170ac       0x2c binaries/lfibget.o
                                         0x44 (size before relaxing)
 .eh_frame      0x00000000001170d8       0x2c binaries/lfibput.o
                                         0x44 (size before relaxing)
 .eh_frame      0x0000000000117104       0x28 binaries/lflclose.o
                                         0x40 (size before relaxing)
 .eh_frame      0x000000000011712c       0x2c binaries/lflcontrol.o
                                         0x44 (size before relaxing)
 .eh_frame      0x0000000000117158       0x2c binaries/lflgetc.o
                                         0x44 (size before relaxing)
 .eh_frame      0x0000000000117184       0x2c binaries/lflinit.o
                                         0x44 (size before relaxing)
 .eh_frame      0x00000000001171b0       0x30 binaries/lflputc.o
                                         0x48 (size before relaxing)
 .eh_frame      0x00000000001171e0       0x2c binaries/lflread.o
                                         0x44 (size before relaxing)
 .eh_frame      0x000000000011720c       0x2c binaries/lflseek.o
                                         0x44 (size before relaxing)
 .eh_frame      0x0000000000117238       0x2c binaries/lflwrite.o
                                         0x44 (size before relaxing)
 .eh_frame      0x0000000000117264       0x30 binaries/lfsckfmt.o
                                         0x48 (size before relaxing)
 .eh_frame      0x0000000000117294       0x30 binaries/lfscreate.o
                                         0x48 (size before relaxing)
 .eh_frame      0x00000000001172c4       0x30 binaries/lfsetup.o
                                         0x48 (size before relaxing)
 .eh_frame      0x00000000001172f4       0x20 binaries/lfsinit.o
                                         0x38 (size before relaxing)
 .eh_frame      0x0000000000117314       0x30 binaries/lfsopen.o
                                         0x48 (size before relaxing)
 .eh_frame      0x0000000000117344       0x30 binaries/lftruncate.o
                                         0x48 (size before relaxing)
 .eh_frame      0x0000000000117374       0x20 binaries/rflclose.o
                                         0x38 (size before relaxing)
 .eh_frame      0x0000000000117394       0x20 binaries/rflgetc.o
                                         0x38 (size before relaxing)
 .eh_frame      0x00000000001173b4       0x24 binaries/rflinit.o
                                         0x3c (size before relaxing)
 .eh_frame      0x00000000001173d8       0x20 binaries/rflputc.o
                                         0x38 (size before relaxing)
 .eh_frame      0x00000000001173f8       0x30 binaries/rflread.o
                                         0x48 (size before relaxing)
 .eh_frame      0x0000000000117428       0x20 binaries/rflseek.o
                                         0x38 (size before relaxing)
 .eh_frame      0x0000000000117448       0x30 binaries/rflwrite.o
                                         0x48 (size before relaxing)
 .eh_frame      0x0000000000117478       0x30 binaries/rfscomm.o
                                         0x48 (size before relaxing)
 .eh_frame      0x00000000001174a8       0x2c binaries/rfscontrol.o
                                         0x44 (size before relaxing)
 .eh_frame      0x00000000001174d4       0x20 binaries/rfsgetmode.o
                                         0x38 (size before relaxing)
 .eh_frame      0x00000000001174f4       0x20 binaries/rfsinit.o
                                         0x38 (size before relaxing)
 .eh_frame      0x0000000000117514       0x20 binaries/rfsndmsg.o
                                         0x38 (size before relaxing)
 .eh_frame      0x0000000000117534       0x2c binaries/rfsopen.o
                                         0x44 (size before relaxing)
 .eh_frame      0x0000000000117560       0xec binaries/arp.o
                                        0x104 (size before relaxing)
 .eh_frame      0x000000000011764c       0xd0 binaries/dhcp.o
                                         0xe8 (size before relaxing)
 .eh_frame      0x000000000011771c       0x2c binaries/dot2ip.o
                                         0x44 (size before relaxing)
 .eh_frame      0x0000000000117748       0x60 binaries/hexdump.o
                                         0x78 (size before relaxing)
 .eh_frame      0x00000000001177a8      0x198 binaries/icmp.o
                                        0x1b0 (size before relaxing)
 .eh_frame      0x0000000000117940      0x148 binaries/ip.o
                                        0x160 (size before relaxing)
 .eh_frame      0x0000000000117a88       0x7c binaries/net.o
                                         0x94 (size before relaxing)
 .eh_frame      0x0000000000117b04       0x24 binaries/netstart.o
                                         0x3c (size before relaxing)
 .eh_frame      0x0000000000117b28       0x50 binaries/pdump.o
                                         0x68 (size before relaxing)
 .eh_frame      0x0000000000117b78       0x80 binaries/tftp.o
                                         0x98 (size before relaxing)
 .eh_frame      0x0000000000117bf8      0x1b0 binaries/udp.o
                                        0x1c8 (size before relaxing)
 .eh_frame      0x0000000000117da8       0x30 binaries/addargs.o
                                         0x48 (size before relaxing)
 .eh_frame      0x0000000000117dd8       0x30 binaries/lexan.o
                                         0x48 (size before relaxing)
 .eh_frame      0x0000000000117e08       0x30 binaries/shell.o
                                         0x48 (size before relaxing)
 .eh_frame      0x0000000000117e38       0x2c binaries/xsh_argecho.o
                                         0x44 (size before relaxing)
 .eh_frame      0x0000000000117e64       0x30 binaries/xsh_arp.o
                                         0x48 (size before relaxing)
 .eh_frame      0x0000000000117e94       0x30 binaries/xsh_cat.o
                                         0x48 (size before relaxing)
 .eh_frame      0x0000000000117ec4       0x20 binaries/xsh_clear.o
                                         0x38 (size before relaxing)
 .eh_frame      0x0000000000117ee4       0x24 binaries/xsh_date.o
                                         0x3c (size before relaxing)
 .eh_frame      0x0000000000117f08       0x28 binaries/xsh_devdump.o
                                         0x40 (size before relaxing)
 .eh_frame      0x0000000000117f30       0x2c binaries/xsh_echo.o
                                         0x44 (size before relaxing)
 .eh_frame      0x0000000000117f5c       0x20 binaries/xsh_exit.o
                                         0x38 (size before relaxing)
 .eh_frame      0x0000000000117f7c       0x30 binaries/xsh_help.o
                                         0x48 (size before relaxing)
 .eh_frame      0x0000000000117fac       0x2c binaries/xsh_ipaddr.o
                                         0x44 (size before relaxing)
 .eh_frame      0x0000000000117fd8       0x2c binaries/xsh_kill.o
                                         0x44 (size before relaxing)
 .eh_frame      0x0000000000118004       0x58 binaries/xsh_memdump.o
                                         0x70 (size before relaxing)
 .eh_frame      0x000000000011805c       0x30 binaries/xsh_memstat.o
                                         0x48 (size before relaxing)
 .eh_frame      0x000000000011808c       0x30 binaries/xsh_ping.o
                                         0x48 (size before relaxing)
 .eh_frame      0x00000000001180bc       0x30 binaries/xsh_ps.o
                                         0x48 (size before relaxing)
 .eh_frame      0x00000000001180ec       0x30 binaries/xsh_sleep.o
                                         0x48 (size before relaxing)
 .eh_frame      0x000000000011811c       0x2c binaries/xsh_udpdump.o
                                         0x44 (size before relaxing)
 .eh_frame      0x0000000000118148       0x30 binaries/xsh_udpecho.o
                                         0x48 (size before relaxing)
 .eh_frame      0x0000000000118178       0x30 binaries/xsh_udpeserver.o
                                         0x48 (size before relaxing)
 .eh_frame      0x00000000001181a8       0x30 binaries/xsh_uptime.o
                                         0x48 (size before relaxing)
 .eh_frame      0x00000000001181d8       0x14 binaries/host2netlc.o
                                         0x2c (size before relaxing)

.iplt           0x00000000001181f0        0x0
 .iplt          0x00000000001181f0        0x0 binaries/start.o

.rel.dyn        0x00000000001181ec        0x0
 .rel.iplt      0x00000000001181ec        0x0 binaries/start.o
 .rel.text      0x00000000001181ec        0x0 binaries/start.o
 .rel.data      0x00000000001181ec        0x0 binaries/start.o
 .rel.rodata    0x00000000001181ec        0x0 binaries/start.o

.data           0x0000000000118200      0xe00
                0x0000000000118200                data = ABSOLUTE (.)
 *(.data .data.*)
 .data          0x0000000000118200      0x85a binaries/start.o
                0x0000000000118200                gdt
                0x0000000000118250                idt
                0x0000000000118a56                cpudelay
 .data          0x0000000000118a5a        0x0 binaries/app1.o
 .data          0x0000000000118a5a        0x0 binaries/app2.o
 .data          0x0000000000118a5a        0x0 binaries/app3.o
 *fill*         0x0000000000118a5a        0x6 
 .data          0x0000000000118a60       0x88 binaries/ascdate.o
                0x0000000000118a60                Date
 .data          0x0000000000118ae8        0x0 binaries/bufinit.o
 .data          0x0000000000118ae8        0x0 binaries/chprio.o
 .data          0x0000000000118ae8        0x4 binaries/clkhandler.o
 .data          0x0000000000118aec        0x0 binaries/clkinit.o
 .data          0x0000000000118aec        0x0 binaries/close.o
 *fill*         0x0000000000118aec       0x14 
 .data          0x0000000000118b00      0x30c binaries/conf.o
                0x0000000000118b00                devtab
 .data          0x0000000000118e0c        0x0 binaries/control.o
 .data          0x0000000000118e0c        0x4 binaries/create.o
 .data          0x0000000000118e10        0x0 binaries/early_imr.o
 *fill*         0x0000000000118e10       0x10 
 .data          0x0000000000118e20       0x40 binaries/evec.o
                0x0000000000118e20                inames
 .data          0x0000000000118e60        0x0 binaries/factorial.o
 .data          0x0000000000118e60        0x0 binaries/freebuf.o
 .data          0x0000000000118e60        0x0 binaries/freemem.o
 .data          0x0000000000118e60        0x0 binaries/getbuf.o
 .data          0x0000000000118e60        0x0 binaries/getc.o
 .data          0x0000000000118e60        0x0 binaries/getdev.o
 .data          0x0000000000118e60        0x0 binaries/getitem.o
 .data          0x0000000000118e60        0x0 binaries/getmem.o
 .data          0x0000000000118e60        0x0 binaries/getpid.o
 .data          0x0000000000118e60        0x0 binaries/getpname.o
 .data          0x0000000000118e60        0x0 binaries/getppid.o
 .data          0x0000000000118e60        0x0 binaries/getprio.o
 .data          0x0000000000118e60        0x0 binaries/getstk.o
 .data          0x0000000000118e60        0x0 binaries/gettime.o
 .data          0x0000000000118e60        0x0 binaries/getutime.o
 .data          0x0000000000118e60        0x0 binaries/host2netlb.o
 .data          0x0000000000118e60        0x0 binaries/init.o
 .data          0x0000000000118e60        0x0 binaries/initialize.o
 .data          0x0000000000118e60        0x0 binaries/insert.o
 .data          0x0000000000118e60        0x0 binaries/insertd.o
 .data          0x0000000000118e60        0x0 binaries/ioerr.o
 .data          0x0000000000118e60        0x0 binaries/ionull.o
 .data          0x0000000000118e60        0x0 binaries/kill.o
 .data          0x0000000000118e60        0x0 binaries/kprintf.o
 .data          0x0000000000118e60        0x0 binaries/main.o
 .data          0x0000000000118e60        0x0 binaries/mark.o
 .data          0x0000000000118e60       0x48 binaries/meminit.o
                0x0000000000118e60                gdt_copy
                0x0000000000118ea0                bootinfo
                0x0000000000118ea4                bootsign
 .data          0x0000000000118ea8        0x0 binaries/mkbufpool.o
 .data          0x0000000000118ea8        0x0 binaries/myappA.o
 .data          0x0000000000118ea8        0x0 binaries/myfuncA.o
 .data          0x0000000000118ea8        0x0 binaries/myhacker.o
 .data          0x0000000000118ea8        0x0 binaries/myvictim.o
 .data          0x0000000000118ea8        0x0 binaries/mywelcomemsg.o
 .data          0x0000000000118ea8        0x2 binaries/newqueue.o
 .data          0x0000000000118eaa        0x0 binaries/open.o
 .data          0x0000000000118eaa        0x0 binaries/panic.o
 .data          0x0000000000118eaa        0x0 binaries/pci.o
 .data          0x0000000000118eaa        0x0 binaries/platinit.o
 .data          0x0000000000118eaa        0x0 binaries/printsegaddr.o
 .data          0x0000000000118eaa        0x0 binaries/ptclear.o
 .data          0x0000000000118eaa        0x0 binaries/ptcount.o
 .data          0x0000000000118eaa        0x0 binaries/ptcreate.o
 .data          0x0000000000118eaa        0x0 binaries/ptdelete.o
 .data          0x0000000000118eaa        0x0 binaries/ptinit.o
 .data          0x0000000000118eaa        0x0 binaries/ptrecv.o
 .data          0x0000000000118eaa        0x0 binaries/ptreset.o
 .data          0x0000000000118eaa        0x0 binaries/ptsend.o
 .data          0x0000000000118eaa        0x0 binaries/putc.o
 .data          0x0000000000118eaa        0x0 binaries/quark_irq.o
 .data          0x0000000000118eaa        0x0 binaries/quark_pdat.o
 .data          0x0000000000118eaa        0x0 binaries/queue.o
 .data          0x0000000000118eaa        0x0 binaries/read.o
 .data          0x0000000000118eaa        0x0 binaries/ready.o
 .data          0x0000000000118eaa        0x0 binaries/receive.o
 .data          0x0000000000118eaa        0x0 binaries/recvclr.o
 .data          0x0000000000118eaa        0x0 binaries/recvtime.o
 .data          0x0000000000118eaa        0x0 binaries/resched.o
 .data          0x0000000000118eaa        0x0 binaries/resume.o
 .data          0x0000000000118eaa        0x0 binaries/seek.o
 .data          0x0000000000118eaa        0x0 binaries/semcount.o
 .data          0x0000000000118eaa        0x0 binaries/semcreate.o
 .data          0x0000000000118eaa        0x0 binaries/semdelete.o
 .data          0x0000000000118eaa        0x0 binaries/semreset.o
 .data          0x0000000000118eaa        0x0 binaries/send.o
 .data          0x0000000000118eaa        0x0 binaries/signal.o
 .data          0x0000000000118eaa        0x0 binaries/signaln.o
 .data          0x0000000000118eaa        0x0 binaries/sleep.o
 .data          0x0000000000118eaa        0x0 binaries/stackdepth.o
 .data          0x0000000000118eaa        0x0 binaries/stacktrace.o
 .data          0x0000000000118eaa        0x0 binaries/suspend.o
 .data          0x0000000000118eaa        0x0 binaries/unsleep.o
 .data          0x0000000000118eaa        0x0 binaries/userret.o
 .data          0x0000000000118eaa        0x0 binaries/wait.o
 .data          0x0000000000118eaa        0x0 binaries/wakeup.o
 .data          0x0000000000118eaa        0x0 binaries/write.o
 .data          0x0000000000118eaa        0x0 binaries/xdone.o
 .data          0x0000000000118eaa        0x0 binaries/yield.o
 .data          0x0000000000118eaa        0x0 binaries/abs.o
 .data          0x0000000000118eaa        0x0 binaries/atoi.o
 .data          0x0000000000118eaa        0x0 binaries/atol.o
 .data          0x0000000000118eaa        0x0 binaries/bzero.o
 .data          0x0000000000118eaa        0x0 binaries/ctype_.o
 .data          0x0000000000118eaa        0x0 binaries/doprnt.o
 *fill*         0x0000000000118eaa       0x16 
 .data          0x0000000000118ec0       0x80 binaries/doscan.o
                0x0000000000118ec0                _sctab
 .data          0x0000000000118f40        0x0 binaries/fdoprnt.o
 .data          0x0000000000118f40        0x0 binaries/fgetc.o
 .data          0x0000000000118f40        0x0 binaries/fgets.o
 .data          0x0000000000118f40        0x0 binaries/fprintf.o
 .data          0x0000000000118f40        0x0 binaries/fputc.o
 .data          0x0000000000118f40        0x0 binaries/fputs.o
 .data          0x0000000000118f40        0x0 binaries/fscanf.o
 .data          0x0000000000118f40        0x0 binaries/getchar.o
 .data          0x0000000000118f40        0x0 binaries/labs.o
 .data          0x0000000000118f40        0x0 binaries/memchr.o
 .data          0x0000000000118f40        0x0 binaries/memcmp.o
 .data          0x0000000000118f40        0x0 binaries/memcpy.o
 .data          0x0000000000118f40        0x0 binaries/memset.o
 .data          0x0000000000118f40        0x0 binaries/printf.o
 .data          0x0000000000118f40        0x0 binaries/putchar.o
 .data          0x0000000000118f40        0x0 binaries/qsort.o
 .data          0x0000000000118f40        0x4 binaries/rand.o
 .data          0x0000000000118f44        0x0 binaries/sprintf.o
 .data          0x0000000000118f44        0x0 binaries/sscanf.o
 .data          0x0000000000118f44        0x0 binaries/strchr.o
 .data          0x0000000000118f44        0x0 binaries/strcmp.o
 .data          0x0000000000118f44        0x0 binaries/strcpy.o
 .data          0x0000000000118f44        0x0 binaries/strlen.o
 .data          0x0000000000118f44        0x0 binaries/strncat.o
 .data          0x0000000000118f44        0x0 binaries/strncmp.o
 .data          0x0000000000118f44        0x0 binaries/strncpy.o
 .data          0x0000000000118f44        0x0 binaries/strnlen.o
 .data          0x0000000000118f44        0x0 binaries/strrchr.o
 .data          0x0000000000118f44        0x0 binaries/strstr.o
 .data          0x0000000000118f44        0x0 binaries/ttycontrol.o
 .data          0x0000000000118f44        0x0 binaries/ttygetc.o
 .data          0x0000000000118f44        0x0 binaries/ttyhandle_in.o
 .data          0x0000000000118f44        0x0 binaries/ttyhandle_out.o
 .data          0x0000000000118f44        0x0 binaries/ttyhandler.o
 .data          0x0000000000118f44        0x0 binaries/ttyinit.o
 .data          0x0000000000118f44        0x0 binaries/ttykickout.o
 .data          0x0000000000118f44        0x0 binaries/ttyputc.o
 .data          0x0000000000118f44        0x0 binaries/ttyread.o
 .data          0x0000000000118f44        0x0 binaries/ttywrite.o
 .data          0x0000000000118f44        0x0 binaries/mount.o
 .data          0x0000000000118f44        0x0 binaries/naminit.o
 .data          0x0000000000118f44        0x0 binaries/nammap.o
 .data          0x0000000000118f44        0x0 binaries/namopen.o
 .data          0x0000000000118f44        0x0 binaries/colon2mac.o
 .data          0x0000000000118f44        0x0 binaries/ethcontrol.o
 .data          0x0000000000118f44        0x0 binaries/ethhandler.o
 .data          0x0000000000118f44        0x0 binaries/ethinit.o
 .data          0x0000000000118f44        0x0 binaries/ethmcast.o
 .data          0x0000000000118f44        0x0 binaries/ethread.o
 .data          0x0000000000118f44        0x0 binaries/ethwrite.o
 .data          0x0000000000118f44        0x0 binaries/rdsbufalloc.o
 .data          0x0000000000118f44        0x0 binaries/rdsclose.o
 .data          0x0000000000118f44        0x0 binaries/rdscomm.o
 .data          0x0000000000118f44        0x0 binaries/rdscontrol.o
 .data          0x0000000000118f44        0x0 binaries/rdsinit.o
 .data          0x0000000000118f44        0x0 binaries/rdsopen.o
 .data          0x0000000000118f44        0x0 binaries/rdsprocess.o
 .data          0x0000000000118f44        0x0 binaries/rdsread.o
 .data          0x0000000000118f44        0x0 binaries/rdswrite.o
 .data          0x0000000000118f44        0x0 binaries/ramclose.o
 .data          0x0000000000118f44        0x0 binaries/raminit.o
 .data          0x0000000000118f44        0x0 binaries/ramopen.o
 .data          0x0000000000118f44        0x0 binaries/ramread.o
 .data          0x0000000000118f44        0x0 binaries/ramwrite.o
 .data          0x0000000000118f44        0x0 binaries/lfdballoc.o
 .data          0x0000000000118f44        0x0 binaries/lfdbfree.o
 .data          0x0000000000118f44        0x0 binaries/lfflush.o
 .data          0x0000000000118f44        0x0 binaries/lfgetmode.o
 .data          0x0000000000118f44        0x0 binaries/lfiballoc.o
 .data          0x0000000000118f44        0x0 binaries/lfibclear.o
 .data          0x0000000000118f44        0x0 binaries/lfibget.o
 .data          0x0000000000118f44        0x0 binaries/lfibput.o
 .data          0x0000000000118f44        0x0 binaries/lflclose.o
 .data          0x0000000000118f44        0x0 binaries/lflcontrol.o
 .data          0x0000000000118f44        0x0 binaries/lflgetc.o
 .data          0x0000000000118f44        0x0 binaries/lflinit.o
 .data          0x0000000000118f44        0x0 binaries/lflputc.o
 .data          0x0000000000118f44        0x0 binaries/lflread.o
 .data          0x0000000000118f44        0x0 binaries/lflseek.o
 .data          0x0000000000118f44        0x0 binaries/lflwrite.o
 .data          0x0000000000118f44        0x0 binaries/lfsckfmt.o
 .data          0x0000000000118f44        0x0 binaries/lfscreate.o
 .data          0x0000000000118f44        0x0 binaries/lfsetup.o
 .data          0x0000000000118f44        0x0 binaries/lfsinit.o
 .data          0x0000000000118f44        0x0 binaries/lfsopen.o
 .data          0x0000000000118f44        0x0 binaries/lftruncate.o
 .data          0x0000000000118f44        0x0 binaries/rflclose.o
 .data          0x0000000000118f44        0x0 binaries/rflgetc.o
 .data          0x0000000000118f44        0x0 binaries/rflinit.o
 .data          0x0000000000118f44        0x0 binaries/rflputc.o
 .data          0x0000000000118f44        0x0 binaries/rflread.o
 .data          0x0000000000118f44        0x0 binaries/rflseek.o
 .data          0x0000000000118f44        0x0 binaries/rflwrite.o
 .data          0x0000000000118f44        0x0 binaries/rfscomm.o
 .data          0x0000000000118f44        0x0 binaries/rfscontrol.o
 .data          0x0000000000118f44        0x0 binaries/rfsgetmode.o
 .data          0x0000000000118f44        0x0 binaries/rfsinit.o
 .data          0x0000000000118f44        0x0 binaries/rfsndmsg.o
 .data          0x0000000000118f44        0x0 binaries/rfsopen.o
 .data          0x0000000000118f44        0x0 binaries/arp.o
 .data          0x0000000000118f44        0x0 binaries/dhcp.o
 .data          0x0000000000118f44        0x0 binaries/dot2ip.o
 .data          0x0000000000118f44        0x0 binaries/hexdump.o
 .data          0x0000000000118f44        0x4 binaries/icmp.o
 .data          0x0000000000118f48        0x0 binaries/ip.o
 .data          0x0000000000118f48        0x0 binaries/net.o
 .data          0x0000000000118f48        0x0 binaries/netstart.o
 .data          0x0000000000118f48        0x0 binaries/pdump.o
 .data          0x0000000000118f48        0x0 binaries/tftp.o
 .data          0x0000000000118f48        0x4 binaries/udp.o
 .data          0x0000000000118f4c        0x0 binaries/addargs.o
 .data          0x0000000000118f4c        0x0 binaries/lexan.o
 .data          0x0000000000118f4c        0x4 binaries/shell.o
                0x0000000000118f4c                ncmd
 .data          0x0000000000118f50        0x0 binaries/xsh_argecho.o
 .data          0x0000000000118f50        0x0 binaries/xsh_arp.o
 .data          0x0000000000118f50        0x0 binaries/xsh_cat.o
 .data          0x0000000000118f50        0x0 binaries/xsh_clear.o
 .data          0x0000000000118f50        0x0 binaries/xsh_date.o
 .data          0x0000000000118f50        0x0 binaries/xsh_devdump.o
 .data          0x0000000000118f50        0x0 binaries/xsh_echo.o
 .data          0x0000000000118f50        0x0 binaries/xsh_exit.o
 .data          0x0000000000118f50        0x0 binaries/xsh_help.o
 .data          0x0000000000118f50        0x0 binaries/xsh_ipaddr.o
 .data          0x0000000000118f50        0x0 binaries/xsh_kill.o
 .data          0x0000000000118f50        0x0 binaries/xsh_memdump.o
 .data          0x0000000000118f50        0x0 binaries/xsh_memstat.o
 .data          0x0000000000118f50        0x0 binaries/xsh_ping.o
 .data          0x0000000000118f50        0x0 binaries/xsh_ps.o
 .data          0x0000000000118f50        0x0 binaries/xsh_sleep.o
 .data          0x0000000000118f50        0x0 binaries/xsh_udpdump.o
 .data          0x0000000000118f50        0x0 binaries/xsh_udpecho.o
 .data          0x0000000000118f50        0x0 binaries/xsh_udpeserver.o
 .data          0x0000000000118f50        0x0 binaries/xsh_uptime.o
 .data          0x0000000000118f50        0x0 binaries/clkdisp.o
 .data          0x0000000000118f50        0x0 binaries/ctxsw.o
 .data          0x0000000000118f50        0x0 binaries/host2netla.o
 .data          0x0000000000118f50        0x0 binaries/host2netlc.o
 .data          0x0000000000118f50        0x0 binaries/intr.o
 .data          0x0000000000118f50        0x0 binaries/ttydispatch.o
 .data          0x0000000000118f50        0x0 binaries/ethdispatch.o
                0x0000000000118f50                edata = ABSOLUTE (.)
                0x0000000000119000                . = ALIGN (0x1000)
 *fill*         0x0000000000118f50       0xb0 

.igot.plt       0x0000000000119000        0x0
 .igot.plt      0x0000000000119000        0x0 binaries/start.o

.bss            0x0000000000119000    0x20000
                0x0000000000119000                bss = ABSOLUTE (.)
 *(.bss .bss.*)
 .bss           0x0000000000119000        0x0 binaries/start.o
 .bss           0x0000000000119000        0x0 binaries/app1.o
 .bss           0x0000000000119000        0x0 binaries/app2.o
 .bss           0x0000000000119000        0x0 binaries/app3.o
 .bss           0x0000000000119000        0x0 binaries/ascdate.o
 .bss           0x0000000000119000        0x0 binaries/bufinit.o
 .bss           0x0000000000119000        0x0 binaries/chprio.o
 .bss           0x0000000000119000        0x0 binaries/clkhandler.o
 .bss           0x0000000000119000        0x4 binaries/clkinit.o
                0x0000000000119000                ctr1000
 .bss           0x0000000000119004        0x0 binaries/close.o
 .bss           0x0000000000119004        0x0 binaries/conf.o
 .bss           0x0000000000119004        0x0 binaries/control.o
 .bss           0x0000000000119004        0x0 binaries/create.o
 .bss           0x0000000000119004        0x0 binaries/early_imr.o
 .bss           0x0000000000119004        0x0 binaries/evec.o
 .bss           0x0000000000119004        0x0 binaries/factorial.o
 .bss           0x0000000000119004        0x0 binaries/freebuf.o
 .bss           0x0000000000119004        0x0 binaries/freemem.o
 .bss           0x0000000000119004        0x0 binaries/getbuf.o
 .bss           0x0000000000119004        0x0 binaries/getc.o
 .bss           0x0000000000119004        0x0 binaries/getdev.o
 .bss           0x0000000000119004        0x0 binaries/getitem.o
 .bss           0x0000000000119004        0x0 binaries/getmem.o
 .bss           0x0000000000119004        0x0 binaries/getpid.o
 .bss           0x0000000000119004        0x0 binaries/getpname.o
 .bss           0x0000000000119004        0x0 binaries/getppid.o
 .bss           0x0000000000119004        0x0 binaries/getprio.o
 .bss           0x0000000000119004        0x0 binaries/getstk.o
 .bss           0x0000000000119004        0x0 binaries/gettime.o
 .bss           0x0000000000119004        0x0 binaries/getutime.o
 .bss           0x0000000000119004        0x0 binaries/host2netlb.o
 .bss           0x0000000000119004        0x0 binaries/init.o
 .bss           0x0000000000119004        0x0 binaries/initialize.o
 .bss           0x0000000000119004        0x0 binaries/insert.o
 .bss           0x0000000000119004        0x0 binaries/insertd.o
 .bss           0x0000000000119004        0x0 binaries/ioerr.o
 .bss           0x0000000000119004        0x0 binaries/ionull.o
 .bss           0x0000000000119004        0x0 binaries/kill.o
 .bss           0x0000000000119004        0x0 binaries/kprintf.o
 .bss           0x0000000000119004        0x0 binaries/main.o
 .bss           0x0000000000119004        0x0 binaries/mark.o
 .bss           0x0000000000119004        0x0 binaries/meminit.o
 .bss           0x0000000000119004        0x0 binaries/mkbufpool.o
 .bss           0x0000000000119004        0x0 binaries/myappA.o
 .bss           0x0000000000119004        0x0 binaries/myfuncA.o
 .bss           0x0000000000119004        0x0 binaries/myhacker.o
 .bss           0x0000000000119004        0x0 binaries/myvictim.o
 .bss           0x0000000000119004        0x0 binaries/mywelcomemsg.o
 .bss           0x0000000000119004        0x0 binaries/newqueue.o
 .bss           0x0000000000119004        0x0 binaries/open.o
 .bss           0x0000000000119004        0x0 binaries/panic.o
 .bss           0x0000000000119004        0x0 binaries/pci.o
 .bss           0x0000000000119004        0x0 binaries/platinit.o
 .bss           0x0000000000119004        0x0 binaries/printsegaddr.o
 .bss           0x0000000000119004        0x0 binaries/ptclear.o
 .bss           0x0000000000119004        0x0 binaries/ptcount.o
 .bss           0x0000000000119004        0x0 binaries/ptcreate.o
 .bss           0x0000000000119004        0x0 binaries/ptdelete.o
 .bss           0x0000000000119004        0x0 binaries/ptinit.o
 .bss           0x0000000000119004        0x0 binaries/ptrecv.o
 .bss           0x0000000000119004        0x0 binaries/ptreset.o
 .bss           0x0000000000119004        0x0 binaries/ptsend.o
 .bss           0x0000000000119004        0x0 binaries/putc.o
 .bss           0x0000000000119004        0x0 binaries/quark_irq.o
 .bss           0x0000000000119004        0x0 binaries/quark_pdat.o
 .bss           0x0000000000119004        0x0 binaries/queue.o
 .bss           0x0000000000119004        0x0 binaries/read.o
 .bss           0x0000000000119004        0x0 binaries/ready.o
 .bss           0x0000000000119004        0x0 binaries/receive.o
 .bss           0x0000000000119004        0x0 binaries/recvclr.o
 .bss           0x0000000000119004        0x0 binaries/recvtime.o
 .bss           0x0000000000119004        0x0 binaries/resched.o
 .bss           0x0000000000119004        0x0 binaries/resume.o
 .bss           0x0000000000119004        0x0 binaries/seek.o
 .bss           0x0000000000119004        0x0 binaries/semcount.o
 .bss           0x0000000000119004        0x4 binaries/semcreate.o
 .bss           0x0000000000119008        0x0 binaries/semdelete.o
 .bss           0x0000000000119008        0x0 binaries/semreset.o
 .bss           0x0000000000119008        0x0 binaries/send.o
 .bss           0x0000000000119008        0x0 binaries/signal.o
 .bss           0x0000000000119008        0x0 binaries/signaln.o
 .bss           0x0000000000119008        0x0 binaries/sleep.o
 .bss           0x0000000000119008        0x0 binaries/stackdepth.o
 .bss           0x0000000000119008        0x8 binaries/stacktrace.o
 .bss           0x0000000000119010        0x0 binaries/suspend.o
 .bss           0x0000000000119010        0x0 binaries/unsleep.o
 .bss           0x0000000000119010        0x0 binaries/userret.o
 .bss           0x0000000000119010        0x0 binaries/wait.o
 .bss           0x0000000000119010        0x0 binaries/wakeup.o
 .bss           0x0000000000119010        0x0 binaries/write.o
 .bss           0x0000000000119010        0x0 binaries/xdone.o
 .bss           0x0000000000119010        0x0 binaries/yield.o
 .bss           0x0000000000119010        0x0 binaries/abs.o
 .bss           0x0000000000119010        0x0 binaries/atoi.o
 .bss           0x0000000000119010        0x0 binaries/atol.o
 .bss           0x0000000000119010        0x0 binaries/bzero.o
 .bss           0x0000000000119010        0x0 binaries/ctype_.o
 .bss           0x0000000000119010        0x0 binaries/doprnt.o
 .bss           0x0000000000119010        0x0 binaries/doscan.o
 .bss           0x0000000000119010        0x0 binaries/fdoprnt.o
 .bss           0x0000000000119010        0x0 binaries/fgetc.o
 .bss           0x0000000000119010        0x0 binaries/fgets.o
 .bss           0x0000000000119010        0x0 binaries/fprintf.o
 .bss           0x0000000000119010        0x0 binaries/fputc.o
 .bss           0x0000000000119010        0x0 binaries/fputs.o
 .bss           0x0000000000119010        0x0 binaries/fscanf.o
 .bss           0x0000000000119010        0x0 binaries/getchar.o
 .bss           0x0000000000119010        0x0 binaries/labs.o
 .bss           0x0000000000119010        0x0 binaries/memchr.o
 .bss           0x0000000000119010        0x0 binaries/memcmp.o
 .bss           0x0000000000119010        0x0 binaries/memcpy.o
 .bss           0x0000000000119010        0x0 binaries/memset.o
 .bss           0x0000000000119010        0x0 binaries/printf.o
 .bss           0x0000000000119010        0x0 binaries/putchar.o
 .bss           0x0000000000119010        0x8 binaries/qsort.o
 .bss           0x0000000000119018        0x0 binaries/rand.o
 .bss           0x0000000000119018        0x0 binaries/sprintf.o
 .bss           0x0000000000119018        0x0 binaries/sscanf.o
 .bss           0x0000000000119018        0x0 binaries/strchr.o
 .bss           0x0000000000119018        0x0 binaries/strcmp.o
 .bss           0x0000000000119018        0x0 binaries/strcpy.o
 .bss           0x0000000000119018        0x0 binaries/strlen.o
 .bss           0x0000000000119018        0x0 binaries/strncat.o
 .bss           0x0000000000119018        0x0 binaries/strncmp.o
 .bss           0x0000000000119018        0x0 binaries/strncpy.o
 .bss           0x0000000000119018        0x0 binaries/strnlen.o
 .bss           0x0000000000119018        0x0 binaries/strrchr.o
 .bss           0x0000000000119018        0x0 binaries/strstr.o
 .bss           0x0000000000119018        0x0 binaries/ttycontrol.o
 .bss           0x0000000000119018        0x0 binaries/ttygetc.o
 .bss           0x0000000000119018        0x0 binaries/ttyhandle_in.o
 .bss           0x0000000000119018        0x0 binaries/ttyhandle_out.o
 .bss           0x0000000000119018        0x0 binaries/ttyhandler.o
 .bss           0x0000000000119018        0x0 binaries/ttyinit.o
 .bss           0x0000000000119018        0x0 binaries/ttykickout.o
 .bss           0x0000000000119018        0x0 binaries/ttyputc.o
 .bss           0x0000000000119018        0x0 binaries/ttyread.o
 .bss           0x0000000000119018        0x0 binaries/ttywrite.o
 .bss           0x0000000000119018        0x0 binaries/mount.o
 .bss           0x0000000000119018        0x0 binaries/naminit.o
 .bss           0x0000000000119018        0x0 binaries/nammap.o
 .bss           0x0000000000119018        0x0 binaries/namopen.o
 .bss           0x0000000000119018        0x0 binaries/colon2mac.o
 .bss           0x0000000000119018        0x0 binaries/ethcontrol.o
 .bss           0x0000000000119018        0x0 binaries/ethhandler.o
 .bss           0x0000000000119018        0x0 binaries/ethinit.o
 .bss           0x0000000000119018        0x0 binaries/ethmcast.o
 .bss           0x0000000000119018        0x0 binaries/ethread.o
 .bss           0x0000000000119018        0x0 binaries/ethwrite.o
 .bss           0x0000000000119018        0x0 binaries/rdsbufalloc.o
 .bss           0x0000000000119018        0x0 binaries/rdsclose.o
 .bss           0x0000000000119018        0x0 binaries/rdscomm.o
 .bss           0x0000000000119018        0x0 binaries/rdscontrol.o
 .bss           0x0000000000119018        0x0 binaries/rdsinit.o
 .bss           0x0000000000119018        0x0 binaries/rdsopen.o
 .bss           0x0000000000119018        0x0 binaries/rdsprocess.o
 .bss           0x0000000000119018        0x0 binaries/rdsread.o
 .bss           0x0000000000119018        0x0 binaries/rdswrite.o
 .bss           0x0000000000119018        0x0 binaries/ramclose.o
 .bss           0x0000000000119018        0x0 binaries/raminit.o
 .bss           0x0000000000119018        0x0 binaries/ramopen.o
 .bss           0x0000000000119018        0x0 binaries/ramread.o
 .bss           0x0000000000119018        0x0 binaries/ramwrite.o
 .bss           0x0000000000119018        0x0 binaries/lfdballoc.o
 .bss           0x0000000000119018        0x0 binaries/lfdbfree.o
 .bss           0x0000000000119018        0x0 binaries/lfflush.o
 .bss           0x0000000000119018        0x0 binaries/lfgetmode.o
 .bss           0x0000000000119018        0x0 binaries/lfiballoc.o
 .bss           0x0000000000119018        0x0 binaries/lfibclear.o
 .bss           0x0000000000119018        0x0 binaries/lfibget.o
 .bss           0x0000000000119018        0x0 binaries/lfibput.o
 .bss           0x0000000000119018        0x0 binaries/lflclose.o
 .bss           0x0000000000119018        0x0 binaries/lflcontrol.o
 .bss           0x0000000000119018        0x0 binaries/lflgetc.o
 .bss           0x0000000000119018        0x0 binaries/lflinit.o
 .bss           0x0000000000119018        0x0 binaries/lflputc.o
 .bss           0x0000000000119018        0x0 binaries/lflread.o
 .bss           0x0000000000119018        0x0 binaries/lflseek.o
 .bss           0x0000000000119018        0x0 binaries/lflwrite.o
 .bss           0x0000000000119018        0x0 binaries/lfsckfmt.o
 .bss           0x0000000000119018        0x0 binaries/lfscreate.o
 .bss           0x0000000000119018        0x0 binaries/lfsetup.o
 .bss           0x0000000000119018        0x0 binaries/lfsinit.o
 .bss           0x0000000000119018        0x0 binaries/lfsopen.o
 .bss           0x0000000000119018        0x0 binaries/lftruncate.o
 .bss           0x0000000000119018        0x0 binaries/rflclose.o
 .bss           0x0000000000119018        0x0 binaries/rflgetc.o
 .bss           0x0000000000119018        0x0 binaries/rflinit.o
 .bss           0x0000000000119018        0x0 binaries/rflputc.o
 .bss           0x0000000000119018        0x0 binaries/rflread.o
 .bss           0x0000000000119018        0x0 binaries/rflseek.o
 .bss           0x0000000000119018        0x0 binaries/rflwrite.o
 .bss           0x0000000000119018        0x0 binaries/rfscomm.o
 .bss           0x0000000000119018        0x0 binaries/rfscontrol.o
 .bss           0x0000000000119018        0x0 binaries/rfsgetmode.o
 .bss           0x0000000000119018        0x0 binaries/rfsinit.o
 .bss           0x0000000000119018        0x0 binaries/rfsndmsg.o
 .bss           0x0000000000119018        0x0 binaries/rfsopen.o
 .bss           0x0000000000119018        0x0 binaries/arp.o
 .bss           0x0000000000119018        0x0 binaries/dhcp.o
 .bss           0x0000000000119018        0x0 binaries/dot2ip.o
 .bss           0x0000000000119018        0x0 binaries/hexdump.o
 .bss           0x0000000000119018        0x0 binaries/icmp.o
 .bss           0x0000000000119018        0x0 binaries/ip.o
 .bss           0x0000000000119018        0x0 binaries/net.o
 .bss           0x0000000000119018        0x0 binaries/netstart.o
 .bss           0x0000000000119018        0x0 binaries/pdump.o
 .bss           0x0000000000119018        0x0 binaries/tftp.o
 .bss           0x0000000000119018        0x0 binaries/udp.o
 .bss           0x0000000000119018        0x0 binaries/addargs.o
 .bss           0x0000000000119018        0x0 binaries/lexan.o
 .bss           0x0000000000119018        0x0 binaries/shell.o
 .bss           0x0000000000119018        0x0 binaries/xsh_argecho.o
 .bss           0x0000000000119018        0x0 binaries/xsh_arp.o
 .bss           0x0000000000119018        0x0 binaries/xsh_cat.o
 .bss           0x0000000000119018        0x0 binaries/xsh_clear.o
 .bss           0x0000000000119018        0x0 binaries/xsh_date.o
 .bss           0x0000000000119018        0x0 binaries/xsh_devdump.o
 .bss           0x0000000000119018        0x0 binaries/xsh_echo.o
 .bss           0x0000000000119018        0x0 binaries/xsh_exit.o
 .bss           0x0000000000119018        0x0 binaries/xsh_help.o
 .bss           0x0000000000119018        0x0 binaries/xsh_ipaddr.o
 .bss           0x0000000000119018        0x0 binaries/xsh_kill.o
 .bss           0x0000000000119018        0x0 binaries/xsh_memdump.o
 .bss           0x0000000000119018        0x0 binaries/xsh_memstat.o
 .bss           0x0000000000119018        0x4 binaries/xsh_ping.o
 .bss           0x000000000011901c        0x0 binaries/xsh_ps.o
 .bss           0x000000000011901c        0x0 binaries/xsh_sleep.o
 .bss           0x000000000011901c        0x0 binaries/xsh_udpdump.o
 .bss           0x000000000011901c        0x0 binaries/xsh_udpecho.o
 .bss           0x000000000011901c        0x0 binaries/xsh_udpeserver.o
 .bss           0x000000000011901c        0x0 binaries/xsh_uptime.o
 .bss           0x000000000011901c        0x0 binaries/clkdisp.o
 .bss           0x000000000011901c        0x0 binaries/ctxsw.o
 .bss           0x000000000011901c        0x0 binaries/host2netla.o
 .bss           0x000000000011901c        0x0 binaries/host2netlc.o
 .bss           0x000000000011901c        0x0 binaries/intr.o
 .bss           0x000000000011901c        0x0 binaries/ttydispatch.o
 .bss           0x000000000011901c        0x0 binaries/ethdispatch.o
 *(COMMON)
 *fill*         0x000000000011901c        0x4 
 COMMON         0x0000000000119020       0xf4 binaries/bufinit.o
                0x0000000000119020                buftab
                0x0000000000119110                nbpools
 COMMON         0x0000000000119114        0xc binaries/clkinit.o
                0x0000000000119114                sleepq
                0x0000000000119118                preempt
                0x000000000011911c                clktime
 COMMON         0x0000000000119120        0x2 binaries/evec.o
                0x0000000000119120                girmask
 *fill*         0x0000000000119122       0x1e 
 COMMON         0x0000000000119140     0x1ad8 binaries/initialize.o
                0x0000000000119140                currpid
                0x0000000000119160                proctab
                0x000000000011a740                prcount
                0x000000000011a760                semtab
                0x000000000011ac10                memlist
 COMMON         0x000000000011ac18        0x4 binaries/main.o
                0x000000000011ac18                victimglobal
 *fill*         0x000000000011ac1c        0x4 
 COMMON         0x000000000011ac20       0x58 binaries/mark.o
                0x000000000011ac20                marks
                0x000000000011ac70                nmarks
                0x000000000011ac74                mkmutex
 COMMON         0x000000000011ac78        0x8 binaries/meminit.o
                0x000000000011ac78                minheap
                0x000000000011ac7c                maxheap
 COMMON         0x000000000011ac80      0x2d8 binaries/ptinit.o
                0x000000000011ac80                porttab
                0x000000000011af50                ptnextid
                0x000000000011af54                ptfree
 *fill*         0x000000000011af58        0x8 
 COMMON         0x000000000011af60      0x980 binaries/queue.o
                0x000000000011af60                queuetab
 COMMON         0x000000000011b8e0        0x2 binaries/ready.o
                0x000000000011b8e0                readylist
 *fill*         0x000000000011b8e2        0x2 
 COMMON         0x000000000011b8e4        0x8 binaries/resched.o
                0x000000000011b8e4                Defer
 *fill*         0x000000000011b8ec       0x14 
 COMMON         0x000000000011b900      0x10c binaries/ttyinit.o
                0x000000000011b900                ttytab
 *fill*         0x000000000011ba0c       0x14 
 COMMON         0x000000000011ba20     0x19c0 binaries/naminit.o
                0x000000000011ba20                nnames
                0x000000000011ba40                nametab
 COMMON         0x000000000011d3e0      0x138 binaries/ethinit.o
                0x000000000011d3e0                ethertab
 *fill*         0x000000000011d518        0x8 
 COMMON         0x000000000011d520       0x8c binaries/rdsinit.o
                0x000000000011d520                rdstab
 *fill*         0x000000000011d5ac       0x14 
 COMMON         0x000000000011d5c0    0x19000 binaries/raminit.o
                0x000000000011d5c0                Ram
 COMMON         0x00000000001365c0      0xf00 binaries/lflinit.o
                0x00000000001365c0                lfltab
 COMMON         0x00000000001374c0      0x20c binaries/lfsinit.o
                0x00000000001374c0                Lf_data
 *fill*         0x00000000001376cc       0x14 
 COMMON         0x00000000001376e0      0x5a0 binaries/rflinit.o
                0x00000000001376e0                rfltab
 COMMON         0x0000000000137c80       0x18 binaries/rfsinit.o
                0x0000000000137c80                Rf_data
 *fill*         0x0000000000137c98        0x8 
 COMMON         0x0000000000137ca0      0x140 binaries/arp.o
                0x0000000000137ca0                arpcache
 COMMON         0x0000000000137de0      0x230 binaries/icmp.o
                0x0000000000137de0                icmptab
 *fill*         0x0000000000138010       0x10 
 COMMON         0x0000000000138020       0x2c binaries/ip.o
                0x0000000000138020                ipoqueue
 *fill*         0x000000000013804c       0x14 
 COMMON         0x0000000000138060       0xc8 binaries/net.o
                0x0000000000138060                netbufpool
                0x0000000000138080                NetData
 *fill*         0x0000000000138128       0x18 
 COMMON         0x0000000000138140      0x168 binaries/udp.o
                0x0000000000138140                udptab
                0x00000000001382a8                ebss = ABSOLUTE (.)
                0x0000000000139000                . = ALIGN (0x1000)
 *fill*         0x00000000001382a8      0xd58 
 */()
                0x0000000000139000                end = ABSOLUTE (.)
                0x0000000000139000                _end = ABSOLUTE (.)
                0x0000000000139000                . = ALIGN (0x1000)
LOAD binaries/start.o
LOAD binaries/app1.o
LOAD binaries/app2.o
LOAD binaries/app3.o
LOAD binaries/ascdate.o
LOAD binaries/bufinit.o
LOAD binaries/chprio.o
LOAD binaries/clkhandler.o
LOAD binaries/clkinit.o
LOAD binaries/close.o
LOAD binaries/conf.o
LOAD binaries/control.o
LOAD binaries/create.o
LOAD binaries/early_imr.o
LOAD binaries/evec.o
LOAD binaries/factorial.o
LOAD binaries/freebuf.o
LOAD binaries/freemem.o
LOAD binaries/getbuf.o
LOAD binaries/getc.o
LOAD binaries/getdev.o
LOAD binaries/getitem.o
LOAD binaries/getmem.o
LOAD binaries/getpid.o
LOAD binaries/getpname.o
LOAD binaries/getppid.o
LOAD binaries/getprio.o
LOAD binaries/getstk.o
LOAD binaries/gettime.o
LOAD binaries/getutime.o
LOAD binaries/host2netlb.o
LOAD binaries/init.o
LOAD binaries/initialize.o
LOAD binaries/insert.o
LOAD binaries/insertd.o
LOAD binaries/ioerr.o
LOAD binaries/ionull.o
LOAD binaries/kill.o
LOAD binaries/kprintf.o
LOAD binaries/main.o
LOAD binaries/mark.o
LOAD binaries/meminit.o
LOAD binaries/mkbufpool.o
LOAD binaries/myappA.o
LOAD binaries/myfuncA.o
LOAD binaries/myhacker.o
LOAD binaries/myvictim.o
LOAD binaries/mywelcomemsg.o
LOAD binaries/newqueue.o
LOAD binaries/open.o
LOAD binaries/panic.o
LOAD binaries/pci.o
LOAD binaries/platinit.o
LOAD binaries/printsegaddr.o
LOAD binaries/ptclear.o
LOAD binaries/ptcount.o
LOAD binaries/ptcreate.o
LOAD binaries/ptdelete.o
LOAD binaries/ptinit.o
LOAD binaries/ptrecv.o
LOAD binaries/ptreset.o
LOAD binaries/ptsend.o
LOAD binaries/putc.o
LOAD binaries/quark_irq.o
LOAD binaries/quark_pdat.o
LOAD binaries/queue.o
LOAD binaries/read.o
LOAD binaries/ready.o
LOAD binaries/receive.o
LOAD binaries/recvclr.o
LOAD binaries/recvtime.o
LOAD binaries/resched.o
LOAD binaries/resume.o
LOAD binaries/seek.o
LOAD binaries/semcount.o
LOAD binaries/semcreate.o
LOAD binaries/semdelete.o
LOAD binaries/semreset.o
LOAD binaries/send.o
LOAD binaries/signal.o
LOAD binaries/signaln.o
LOAD binaries/sleep.o
LOAD binaries/stackdepth.o
LOAD binaries/stacktrace.o
LOAD binaries/suspend.o
LOAD binaries/unsleep.o
LOAD binaries/userret.o
LOAD binaries/wait.o
LOAD binaries/wakeup.o
LOAD binaries/write.o
LOAD binaries/xdone.o
LOAD binaries/yield.o
LOAD binaries/abs.o
LOAD binaries/atoi.o
LOAD binaries/atol.o
LOAD binaries/bzero.o
LOAD binaries/ctype_.o
LOAD binaries/doprnt.o
LOAD binaries/doscan.o
LOAD binaries/fdoprnt.o
LOAD binaries/fgetc.o
LOAD binaries/fgets.o
LOAD binaries/fprintf.o
LOAD binaries/fputc.o
LOAD binaries/fputs.o
LOAD binaries/fscanf.o
LOAD binaries/getchar.o
LOAD binaries/labs.o
LOAD binaries/memchr.o
LOAD binaries/memcmp.o
LOAD binaries/memcpy.o
LOAD binaries/memset.o
LOAD binaries/printf.o
LOAD binaries/putchar.o
LOAD binaries/qsort.o
LOAD binaries/rand.o
LOAD binaries/sprintf.o
LOAD binaries/sscanf.o
LOAD binaries/strchr.o
LOAD binaries/strcmp.o
LOAD binaries/strcpy.o
LOAD binaries/strlen.o
LOAD binaries/strncat.o
LOAD binaries/strncmp.o
LOAD binaries/strncpy.o
LOAD binaries/strnlen.o
LOAD binaries/strrchr.o
LOAD binaries/strstr.o
LOAD binaries/ttycontrol.o
LOAD binaries/ttygetc.o
LOAD binaries/ttyhandle_in.o
LOAD binaries/ttyhandle_out.o
LOAD binaries/ttyhandler.o
LOAD binaries/ttyinit.o
LOAD binaries/ttykickout.o
LOAD binaries/ttyputc.o
LOAD binaries/ttyread.o
LOAD binaries/ttywrite.o
LOAD binaries/mount.o
LOAD binaries/naminit.o
LOAD binaries/nammap.o
LOAD binaries/namopen.o
LOAD binaries/colon2mac.o
LOAD binaries/ethcontrol.o
LOAD binaries/ethhandler.o
LOAD binaries/ethinit.o
LOAD binaries/ethmcast.o
LOAD binaries/ethread.o
LOAD binaries/ethwrite.o
LOAD binaries/rdsbufalloc.o
LOAD binaries/rdsclose.o
LOAD binaries/rdscomm.o
LOAD binaries/rdscontrol.o
LOAD binaries/rdsinit.o
LOAD binaries/rdsopen.o
LOAD binaries/rdsprocess.o
LOAD binaries/rdsread.o
LOAD binaries/rdswrite.o
LOAD binaries/ramclose.o
LOAD binaries/raminit.o
LOAD binaries/ramopen.o
LOAD binaries/ramread.o
LOAD binaries/ramwrite.o
LOAD binaries/lfdballoc.o
LOAD binaries/lfdbfree.o
LOAD binaries/lfflush.o
LOAD binaries/lfgetmode.o
LOAD binaries/lfiballoc.o
LOAD binaries/lfibclear.o
LOAD binaries/lfibget.o
LOAD binaries/lfibput.o
LOAD binaries/lflclose.o
LOAD binaries/lflcontrol.o
LOAD binaries/lflgetc.o
LOAD binaries/lflinit.o
LOAD binaries/lflputc.o
LOAD binaries/lflread.o
LOAD binaries/lflseek.o
LOAD binaries/lflwrite.o
LOAD binaries/lfsckfmt.o
LOAD binaries/lfscreate.o
LOAD binaries/lfsetup.o
LOAD binaries/lfsinit.o
LOAD binaries/lfsopen.o
LOAD binaries/lftruncate.o
LOAD binaries/rflclose.o
LOAD binaries/rflgetc.o
LOAD binaries/rflinit.o
LOAD binaries/rflputc.o
LOAD binaries/rflread.o
LOAD binaries/rflseek.o
LOAD binaries/rflwrite.o
LOAD binaries/rfscomm.o
LOAD binaries/rfscontrol.o
LOAD binaries/rfsgetmode.o
LOAD binaries/rfsinit.o
LOAD binaries/rfsndmsg.o
LOAD binaries/rfsopen.o
LOAD binaries/arp.o
LOAD binaries/dhcp.o
LOAD binaries/dot2ip.o
LOAD binaries/hexdump.o
LOAD binaries/icmp.o
LOAD binaries/ip.o
LOAD binaries/net.o
LOAD binaries/netstart.o
LOAD binaries/pdump.o
LOAD binaries/tftp.o
LOAD binaries/udp.o
LOAD binaries/addargs.o
LOAD binaries/lexan.o
LOAD binaries/shell.o
LOAD binaries/xsh_argecho.o
LOAD binaries/xsh_arp.o
LOAD binaries/xsh_cat.o
LOAD binaries/xsh_clear.o
LOAD binaries/xsh_date.o
LOAD binaries/xsh_devdump.o
LOAD binaries/xsh_echo.o
LOAD binaries/xsh_exit.o
LOAD binaries/xsh_help.o
LOAD binaries/xsh_ipaddr.o
LOAD binaries/xsh_kill.o
LOAD binaries/xsh_memdump.o
LOAD binaries/xsh_memstat.o
LOAD binaries/xsh_ping.o
LOAD binaries/xsh_ps.o
LOAD binaries/xsh_sleep.o
LOAD binaries/xsh_udpdump.o
LOAD binaries/xsh_udpecho.o
LOAD binaries/xsh_udpeserver.o
LOAD binaries/xsh_uptime.o
LOAD binaries/clkdisp.o
LOAD binaries/ctxsw.o
LOAD binaries/host2netla.o
LOAD binaries/host2netlc.o
LOAD binaries/intr.o
LOAD binaries/ttydispatch.o
LOAD binaries/ethdispatch.o
OUTPUT(../compile/xinu elf32-i386)

.comment        0x0000000000000000       0x2a
 .comment       0x0000000000000000       0x2a binaries/app1.o
                                         0x2b (size before relaxing)
 .comment       0x000000000000002a       0x2b binaries/app2.o
 .comment       0x000000000000002a       0x2b binaries/app3.o
 .comment       0x000000000000002a       0x2b binaries/ascdate.o
 .comment       0x000000000000002a       0x2b binaries/bufinit.o
 .comment       0x000000000000002a       0x2b binaries/chprio.o
 .comment       0x000000000000002a       0x2b binaries/clkhandler.o
 .comment       0x000000000000002a       0x2b binaries/clkinit.o
 .comment       0x000000000000002a       0x2b binaries/close.o
 .comment       0x000000000000002a       0x2b binaries/conf.o
 .comment       0x000000000000002a       0x2b binaries/control.o
 .comment       0x000000000000002a       0x2b binaries/create.o
 .comment       0x000000000000002a       0x2b binaries/early_imr.o
 .comment       0x000000000000002a       0x2b binaries/evec.o
 .comment       0x000000000000002a       0x2b binaries/factorial.o
 .comment       0x000000000000002a       0x2b binaries/freebuf.o
 .comment       0x000000000000002a       0x2b binaries/freemem.o
 .comment       0x000000000000002a       0x2b binaries/getbuf.o
 .comment       0x000000000000002a       0x2b binaries/getc.o
 .comment       0x000000000000002a       0x2b binaries/getdev.o
 .comment       0x000000000000002a       0x2b binaries/getitem.o
 .comment       0x000000000000002a       0x2b binaries/getmem.o
 .comment       0x000000000000002a       0x2b binaries/getpid.o
 .comment       0x000000000000002a       0x2b binaries/getpname.o
 .comment       0x000000000000002a       0x2b binaries/getppid.o
 .comment       0x000000000000002a       0x2b binaries/getprio.o
 .comment       0x000000000000002a       0x2b binaries/getstk.o
 .comment       0x000000000000002a       0x2b binaries/gettime.o
 .comment       0x000000000000002a       0x2b binaries/getutime.o
 .comment       0x000000000000002a       0x2b binaries/host2netlb.o
 .comment       0x000000000000002a       0x2b binaries/init.o
 .comment       0x000000000000002a       0x2b binaries/initialize.o
 .comment       0x000000000000002a       0x2b binaries/insert.o
 .comment       0x000000000000002a       0x2b binaries/insertd.o
 .comment       0x000000000000002a       0x2b binaries/ioerr.o
 .comment       0x000000000000002a       0x2b binaries/ionull.o
 .comment       0x000000000000002a       0x2b binaries/kill.o
 .comment       0x000000000000002a       0x2b binaries/kprintf.o
 .comment       0x000000000000002a       0x2b binaries/main.o
 .comment       0x000000000000002a       0x2b binaries/mark.o
 .comment       0x000000000000002a       0x2b binaries/meminit.o
 .comment       0x000000000000002a       0x2b binaries/mkbufpool.o
 .comment       0x000000000000002a       0x2b binaries/myappA.o
 .comment       0x000000000000002a       0x2b binaries/myfuncA.o
 .comment       0x000000000000002a       0x2b binaries/myhacker.o
 .comment       0x000000000000002a       0x2b binaries/myvictim.o
 .comment       0x000000000000002a       0x2b binaries/mywelcomemsg.o
 .comment       0x000000000000002a       0x2b binaries/newqueue.o
 .comment       0x000000000000002a       0x2b binaries/open.o
 .comment       0x000000000000002a       0x2b binaries/panic.o
 .comment       0x000000000000002a       0x2b binaries/pci.o
 .comment       0x000000000000002a       0x2b binaries/platinit.o
 .comment       0x000000000000002a       0x2b binaries/printsegaddr.o
 .comment       0x000000000000002a       0x2b binaries/ptclear.o
 .comment       0x000000000000002a       0x2b binaries/ptcount.o
 .comment       0x000000000000002a       0x2b binaries/ptcreate.o
 .comment       0x000000000000002a       0x2b binaries/ptdelete.o
 .comment       0x000000000000002a       0x2b binaries/ptinit.o
 .comment       0x000000000000002a       0x2b binaries/ptrecv.o
 .comment       0x000000000000002a       0x2b binaries/ptreset.o
 .comment       0x000000000000002a       0x2b binaries/ptsend.o
 .comment       0x000000000000002a       0x2b binaries/putc.o
 .comment       0x000000000000002a       0x2b binaries/quark_irq.o
 .comment       0x000000000000002a       0x2b binaries/quark_pdat.o
 .comment       0x000000000000002a       0x2b binaries/queue.o
 .comment       0x000000000000002a       0x2b binaries/read.o
 .comment       0x000000000000002a       0x2b binaries/ready.o
 .comment       0x000000000000002a       0x2b binaries/receive.o
 .comment       0x000000000000002a       0x2b binaries/recvclr.o
 .comment       0x000000000000002a       0x2b binaries/recvtime.o
 .comment       0x000000000000002a       0x2b binaries/resched.o
 .comment       0x000000000000002a       0x2b binaries/resume.o
 .comment       0x000000000000002a       0x2b binaries/seek.o
 .comment       0x000000000000002a       0x2b binaries/semcount.o
 .comment       0x000000000000002a       0x2b binaries/semcreate.o
 .comment       0x000000000000002a       0x2b binaries/semdelete.o
 .comment       0x000000000000002a       0x2b binaries/semreset.o
 .comment       0x000000000000002a       0x2b binaries/send.o
 .comment       0x000000000000002a       0x2b binaries/signal.o
 .comment       0x000000000000002a       0x2b binaries/signaln.o
 .comment       0x000000000000002a       0x2b binaries/sleep.o
 .comment       0x000000000000002a       0x2b binaries/stackdepth.o
 .comment       0x000000000000002a       0x2b binaries/stacktrace.o
 .comment       0x000000000000002a       0x2b binaries/suspend.o
 .comment       0x000000000000002a       0x2b binaries/unsleep.o
 .comment       0x000000000000002a       0x2b binaries/userret.o
 .comment       0x000000000000002a       0x2b binaries/wait.o
 .comment       0x000000000000002a       0x2b binaries/wakeup.o
 .comment       0x000000000000002a       0x2b binaries/write.o
 .comment       0x000000000000002a       0x2b binaries/xdone.o
 .comment       0x000000000000002a       0x2b binaries/yield.o
 .comment       0x000000000000002a       0x2b binaries/abs.o
 .comment       0x000000000000002a       0x2b binaries/atoi.o
 .comment       0x000000000000002a       0x2b binaries/atol.o
 .comment       0x000000000000002a       0x2b binaries/bzero.o
 .comment       0x000000000000002a       0x2b binaries/ctype_.o
 .comment       0x000000000000002a       0x2b binaries/doprnt.o
 .comment       0x000000000000002a       0x2b binaries/doscan.o
 .comment       0x000000000000002a       0x2b binaries/fdoprnt.o
 .comment       0x000000000000002a       0x2b binaries/fgetc.o
 .comment       0x000000000000002a       0x2b binaries/fgets.o
 .comment       0x000000000000002a       0x2b binaries/fprintf.o
 .comment       0x000000000000002a       0x2b binaries/fputc.o
 .comment       0x000000000000002a       0x2b binaries/fputs.o
 .comment       0x000000000000002a       0x2b binaries/fscanf.o
 .comment       0x000000000000002a       0x2b binaries/getchar.o
 .comment       0x000000000000002a       0x2b binaries/labs.o
 .comment       0x000000000000002a       0x2b binaries/memchr.o
 .comment       0x000000000000002a       0x2b binaries/memcmp.o
 .comment       0x000000000000002a       0x2b binaries/memcpy.o
 .comment       0x000000000000002a       0x2b binaries/memset.o
 .comment       0x000000000000002a       0x2b binaries/printf.o
 .comment       0x000000000000002a       0x2b binaries/putchar.o
 .comment       0x000000000000002a       0x2b binaries/qsort.o
 .comment       0x000000000000002a       0x2b binaries/rand.o
 .comment       0x000000000000002a       0x2b binaries/sprintf.o
 .comment       0x000000000000002a       0x2b binaries/sscanf.o
 .comment       0x000000000000002a       0x2b binaries/strchr.o
 .comment       0x000000000000002a       0x2b binaries/strcmp.o
 .comment       0x000000000000002a       0x2b binaries/strcpy.o
 .comment       0x000000000000002a       0x2b binaries/strlen.o
 .comment       0x000000000000002a       0x2b binaries/strncat.o
 .comment       0x000000000000002a       0x2b binaries/strncmp.o
 .comment       0x000000000000002a       0x2b binaries/strncpy.o
 .comment       0x000000000000002a       0x2b binaries/strnlen.o
 .comment       0x000000000000002a       0x2b binaries/strrchr.o
 .comment       0x000000000000002a       0x2b binaries/strstr.o
 .comment       0x000000000000002a       0x2b binaries/ttycontrol.o
 .comment       0x000000000000002a       0x2b binaries/ttygetc.o
 .comment       0x000000000000002a       0x2b binaries/ttyhandle_in.o
 .comment       0x000000000000002a       0x2b binaries/ttyhandle_out.o
 .comment       0x000000000000002a       0x2b binaries/ttyhandler.o
 .comment       0x000000000000002a       0x2b binaries/ttyinit.o
 .comment       0x000000000000002a       0x2b binaries/ttykickout.o
 .comment       0x000000000000002a       0x2b binaries/ttyputc.o
 .comment       0x000000000000002a       0x2b binaries/ttyread.o
 .comment       0x000000000000002a       0x2b binaries/ttywrite.o
 .comment       0x000000000000002a       0x2b binaries/mount.o
 .comment       0x000000000000002a       0x2b binaries/naminit.o
 .comment       0x000000000000002a       0x2b binaries/nammap.o
 .comment       0x000000000000002a       0x2b binaries/namopen.o
 .comment       0x000000000000002a       0x2b binaries/colon2mac.o
 .comment       0x000000000000002a       0x2b binaries/ethcontrol.o
 .comment       0x000000000000002a       0x2b binaries/ethhandler.o
 .comment       0x000000000000002a       0x2b binaries/ethinit.o
 .comment       0x000000000000002a       0x2b binaries/ethmcast.o
 .comment       0x000000000000002a       0x2b binaries/ethread.o
 .comment       0x000000000000002a       0x2b binaries/ethwrite.o
 .comment       0x000000000000002a       0x2b binaries/rdsbufalloc.o
 .comment       0x000000000000002a       0x2b binaries/rdsclose.o
 .comment       0x000000000000002a       0x2b binaries/rdscomm.o
 .comment       0x000000000000002a       0x2b binaries/rdscontrol.o
 .comment       0x000000000000002a       0x2b binaries/rdsinit.o
 .comment       0x000000000000002a       0x2b binaries/rdsopen.o
 .comment       0x000000000000002a       0x2b binaries/rdsprocess.o
 .comment       0x000000000000002a       0x2b binaries/rdsread.o
 .comment       0x000000000000002a       0x2b binaries/rdswrite.o
 .comment       0x000000000000002a       0x2b binaries/ramclose.o
 .comment       0x000000000000002a       0x2b binaries/raminit.o
 .comment       0x000000000000002a       0x2b binaries/ramopen.o
 .comment       0x000000000000002a       0x2b binaries/ramread.o
 .comment       0x000000000000002a       0x2b binaries/ramwrite.o
 .comment       0x000000000000002a       0x2b binaries/lfdballoc.o
 .comment       0x000000000000002a       0x2b binaries/lfdbfree.o
 .comment       0x000000000000002a       0x2b binaries/lfflush.o
 .comment       0x000000000000002a       0x2b binaries/lfgetmode.o
 .comment       0x000000000000002a       0x2b binaries/lfiballoc.o
 .comment       0x000000000000002a       0x2b binaries/lfibclear.o
 .comment       0x000000000000002a       0x2b binaries/lfibget.o
 .comment       0x000000000000002a       0x2b binaries/lfibput.o
 .comment       0x000000000000002a       0x2b binaries/lflclose.o
 .comment       0x000000000000002a       0x2b binaries/lflcontrol.o
 .comment       0x000000000000002a       0x2b binaries/lflgetc.o
 .comment       0x000000000000002a       0x2b binaries/lflinit.o
 .comment       0x000000000000002a       0x2b binaries/lflputc.o
 .comment       0x000000000000002a       0x2b binaries/lflread.o
 .comment       0x000000000000002a       0x2b binaries/lflseek.o
 .comment       0x000000000000002a       0x2b binaries/lflwrite.o
 .comment       0x000000000000002a       0x2b binaries/lfsckfmt.o
 .comment       0x000000000000002a       0x2b binaries/lfscreate.o
 .comment       0x000000000000002a       0x2b binaries/lfsetup.o
 .comment       0x000000000000002a       0x2b binaries/lfsinit.o
 .comment       0x000000000000002a       0x2b binaries/lfsopen.o
 .comment       0x000000000000002a       0x2b binaries/lftruncate.o
 .comment       0x000000000000002a       0x2b binaries/rflclose.o
 .comment       0x000000000000002a       0x2b binaries/rflgetc.o
 .comment       0x000000000000002a       0x2b binaries/rflinit.o
 .comment       0x000000000000002a       0x2b binaries/rflputc.o
 .comment       0x000000000000002a       0x2b binaries/rflread.o
 .comment       0x000000000000002a       0x2b binaries/rflseek.o
 .comment       0x000000000000002a       0x2b binaries/rflwrite.o
 .comment       0x000000000000002a       0x2b binaries/rfscomm.o
 .comment       0x000000000000002a       0x2b binaries/rfscontrol.o
 .comment       0x000000000000002a       0x2b binaries/rfsgetmode.o
 .comment       0x000000000000002a       0x2b binaries/rfsinit.o
 .comment       0x000000000000002a       0x2b binaries/rfsndmsg.o
 .comment       0x000000000000002a       0x2b binaries/rfsopen.o
 .comment       0x000000000000002a       0x2b binaries/arp.o
 .comment       0x000000000000002a       0x2b binaries/dhcp.o
 .comment       0x000000000000002a       0x2b binaries/dot2ip.o
 .comment       0x000000000000002a       0x2b binaries/hexdump.o
 .comment       0x000000000000002a       0x2b binaries/icmp.o
 .comment       0x000000000000002a       0x2b binaries/ip.o
 .comment       0x000000000000002a       0x2b binaries/net.o
 .comment       0x000000000000002a       0x2b binaries/netstart.o
 .comment       0x000000000000002a       0x2b binaries/pdump.o
 .comment       0x000000000000002a       0x2b binaries/tftp.o
 .comment       0x000000000000002a       0x2b binaries/udp.o
 .comment       0x000000000000002a       0x2b binaries/addargs.o
 .comment       0x000000000000002a       0x2b binaries/lexan.o
 .comment       0x000000000000002a       0x2b binaries/shell.o
 .comment       0x000000000000002a       0x2b binaries/xsh_argecho.o
 .comment       0x000000000000002a       0x2b binaries/xsh_arp.o
 .comment       0x000000000000002a       0x2b binaries/xsh_cat.o
 .comment       0x000000000000002a       0x2b binaries/xsh_clear.o
 .comment       0x000000000000002a       0x2b binaries/xsh_date.o
 .comment       0x000000000000002a       0x2b binaries/xsh_devdump.o
 .comment       0x000000000000002a       0x2b binaries/xsh_echo.o
 .comment       0x000000000000002a       0x2b binaries/xsh_exit.o
 .comment       0x000000000000002a       0x2b binaries/xsh_help.o
 .comment       0x000000000000002a       0x2b binaries/xsh_ipaddr.o
 .comment       0x000000000000002a       0x2b binaries/xsh_kill.o
 .comment       0x000000000000002a       0x2b binaries/xsh_memdump.o
 .comment       0x000000000000002a       0x2b binaries/xsh_memstat.o
 .comment       0x000000000000002a       0x2b binaries/xsh_ping.o
 .comment       0x000000000000002a       0x2b binaries/xsh_ps.o
 .comment       0x000000000000002a       0x2b binaries/xsh_sleep.o
 .comment       0x000000000000002a       0x2b binaries/xsh_udpdump.o
 .comment       0x000000000000002a       0x2b binaries/xsh_udpecho.o
 .comment       0x000000000000002a       0x2b binaries/xsh_udpeserver.o
 .comment       0x000000000000002a       0x2b binaries/xsh_uptime.o
 .comment       0x000000000000002a       0x2b binaries/host2netlc.o

.note.GNU-stack
                0x0000000000000000        0x0
 .note.GNU-stack
                0x0000000000000000        0x0 binaries/app1.o
 .note.GNU-stack
                0x0000000000000000        0x0 binaries/app2.o
 .note.GNU-stack
                0x0000000000000000        0x0 binaries/app3.o
 .note.GNU-stack
                0x0000000000000000        0x0 binaries/ascdate.o
 .note.GNU-stack
                0x0000000000000000        0x0 binaries/bufinit.o
 .note.GNU-stack
                0x0000000000000000        0x0 binaries/chprio.o
 .note.GNU-stack
                0x0000000000000000        0x0 binaries/clkhandler.o
 .note.GNU-stack
                0x0000000000000000        0x0 binaries/clkinit.o
 .note.GNU-stack
                0x0000000000000000        0x0 binaries/close.o
 .note.GNU-stack
                0x0000000000000000        0x0 binaries/conf.o
 .note.GNU-stack
                0x0000000000000000        0x0 binaries/control.o
 .note.GNU-stack
                0x0000000000000000        0x0 binaries/create.o
 .note.GNU-stack
                0x0000000000000000        0x0 binaries/early_imr.o
 .note.GNU-stack
                0x0000000000000000        0x0 binaries/evec.o
 .note.GNU-stack
                0x0000000000000000        0x0 binaries/factorial.o
 .note.GNU-stack
                0x0000000000000000        0x0 binaries/freebuf.o
 .note.GNU-stack
                0x0000000000000000        0x0 binaries/freemem.o
 .note.GNU-stack
                0x0000000000000000        0x0 binaries/getbuf.o
 .note.GNU-stack
                0x0000000000000000        0x0 binaries/getc.o
 .note.GNU-stack
                0x0000000000000000        0x0 binaries/getdev.o
 .note.GNU-stack
                0x0000000000000000        0x0 binaries/getitem.o
 .note.GNU-stack
                0x0000000000000000        0x0 binaries/getmem.o
 .note.GNU-stack
                0x0000000000000000        0x0 binaries/getpid.o
 .note.GNU-stack
                0x0000000000000000        0x0 binaries/getpname.o
 .note.GNU-stack
                0x0000000000000000        0x0 binaries/getppid.o
 .note.GNU-stack
                0x0000000000000000        0x0 binaries/getprio.o
 .note.GNU-stack
                0x0000000000000000        0x0 binaries/getstk.o
 .note.GNU-stack
                0x0000000000000000        0x0 binaries/gettime.o
 .note.GNU-stack
                0x0000000000000000        0x0 binaries/getutime.o
 .note.GNU-stack
                0x0000000000000000        0x0 binaries/host2netlb.o
 .note.GNU-stack
                0x0000000000000000        0x0 binaries/init.o
 .note.GNU-stack
                0x0000000000000000        0x0 binaries/initialize.o
 .note.GNU-stack
                0x0000000000000000        0x0 binaries/insert.o
 .note.GNU-stack
                0x0000000000000000        0x0 binaries/insertd.o
 .note.GNU-stack
                0x0000000000000000        0x0 binaries/ioerr.o
 .note.GNU-stack
                0x0000000000000000        0x0 binaries/ionull.o
 .note.GNU-stack
                0x0000000000000000        0x0 binaries/kill.o
 .note.GNU-stack
                0x0000000000000000        0x0 binaries/kprintf.o
 .note.GNU-stack
                0x0000000000000000        0x0 binaries/main.o
 .note.GNU-stack
                0x0000000000000000        0x0 binaries/mark.o
 .note.GNU-stack
                0x0000000000000000        0x0 binaries/meminit.o
 .note.GNU-stack
                0x0000000000000000        0x0 binaries/mkbufpool.o
 .note.GNU-stack
                0x0000000000000000        0x0 binaries/myappA.o
 .note.GNU-stack
                0x0000000000000000        0x0 binaries/myfuncA.o
 .note.GNU-stack
                0x0000000000000000        0x0 binaries/myhacker.o
 .note.GNU-stack
                0x0000000000000000        0x0 binaries/myvictim.o
 .note.GNU-stack
                0x0000000000000000        0x0 binaries/mywelcomemsg.o
 .note.GNU-stack
                0x0000000000000000        0x0 binaries/newqueue.o
 .note.GNU-stack
                0x0000000000000000        0x0 binaries/open.o
 .note.GNU-stack
                0x0000000000000000        0x0 binaries/panic.o
 .note.GNU-stack
                0x0000000000000000        0x0 binaries/pci.o
 .note.GNU-stack
                0x0000000000000000        0x0 binaries/platinit.o
 .note.GNU-stack
                0x0000000000000000        0x0 binaries/printsegaddr.o
 .note.GNU-stack
                0x0000000000000000        0x0 binaries/ptclear.o
 .note.GNU-stack
                0x0000000000000000        0x0 binaries/ptcount.o
 .note.GNU-stack
                0x0000000000000000        0x0 binaries/ptcreate.o
 .note.GNU-stack
                0x0000000000000000        0x0 binaries/ptdelete.o
 .note.GNU-stack
                0x0000000000000000        0x0 binaries/ptinit.o
 .note.GNU-stack
                0x0000000000000000        0x0 binaries/ptrecv.o
 .note.GNU-stack
                0x0000000000000000        0x0 binaries/ptreset.o
 .note.GNU-stack
                0x0000000000000000        0x0 binaries/ptsend.o
 .note.GNU-stack
                0x0000000000000000        0x0 binaries/putc.o
 .note.GNU-stack
                0x0000000000000000        0x0 binaries/quark_irq.o
 .note.GNU-stack
                0x0000000000000000        0x0 binaries/quark_pdat.o
 .note.GNU-stack
                0x0000000000000000        0x0 binaries/queue.o
 .note.GNU-stack
                0x0000000000000000        0x0 binaries/read.o
 .note.GNU-stack
                0x0000000000000000        0x0 binaries/ready.o
 .note.GNU-stack
                0x0000000000000000        0x0 binaries/receive.o
 .note.GNU-stack
                0x0000000000000000        0x0 binaries/recvclr.o
 .note.GNU-stack
                0x0000000000000000        0x0 binaries/recvtime.o
 .note.GNU-stack
                0x0000000000000000        0x0 binaries/resched.o
 .note.GNU-stack
                0x0000000000000000        0x0 binaries/resume.o
 .note.GNU-stack
                0x0000000000000000        0x0 binaries/seek.o
 .note.GNU-stack
                0x0000000000000000        0x0 binaries/semcount.o
 .note.GNU-stack
                0x0000000000000000        0x0 binaries/semcreate.o
 .note.GNU-stack
                0x0000000000000000        0x0 binaries/semdelete.o
 .note.GNU-stack
                0x0000000000000000        0x0 binaries/semreset.o
 .note.GNU-stack
                0x0000000000000000        0x0 binaries/send.o
 .note.GNU-stack
                0x0000000000000000        0x0 binaries/signal.o
 .note.GNU-stack
                0x0000000000000000        0x0 binaries/signaln.o
 .note.GNU-stack
                0x0000000000000000        0x0 binaries/sleep.o
 .note.GNU-stack
                0x0000000000000000        0x0 binaries/stackdepth.o
 .note.GNU-stack
                0x0000000000000000        0x0 binaries/stacktrace.o
 .note.GNU-stack
                0x0000000000000000        0x0 binaries/suspend.o
 .note.GNU-stack
                0x0000000000000000        0x0 binaries/unsleep.o
 .note.GNU-stack
                0x0000000000000000        0x0 binaries/userret.o
 .note.GNU-stack
                0x0000000000000000        0x0 binaries/wait.o
 .note.GNU-stack
                0x0000000000000000        0x0 binaries/wakeup.o
 .note.GNU-stack
                0x0000000000000000        0x0 binaries/write.o
 .note.GNU-stack
                0x0000000000000000        0x0 binaries/xdone.o
 .note.GNU-stack
                0x0000000000000000        0x0 binaries/yield.o
 .note.GNU-stack
                0x0000000000000000        0x0 binaries/abs.o
 .note.GNU-stack
                0x0000000000000000        0x0 binaries/atoi.o
 .note.GNU-stack
                0x0000000000000000        0x0 binaries/atol.o
 .note.GNU-stack
                0x0000000000000000        0x0 binaries/bzero.o
 .note.GNU-stack
                0x0000000000000000        0x0 binaries/ctype_.o
 .note.GNU-stack
                0x0000000000000000        0x0 binaries/doprnt.o
 .note.GNU-stack
                0x0000000000000000        0x0 binaries/doscan.o
 .note.GNU-stack
                0x0000000000000000        0x0 binaries/fdoprnt.o
 .note.GNU-stack
                0x0000000000000000        0x0 binaries/fgetc.o
 .note.GNU-stack
                0x0000000000000000        0x0 binaries/fgets.o
 .note.GNU-stack
                0x0000000000000000        0x0 binaries/fprintf.o
 .note.GNU-stack
                0x0000000000000000        0x0 binaries/fputc.o
 .note.GNU-stack
                0x0000000000000000        0x0 binaries/fputs.o
 .note.GNU-stack
                0x0000000000000000        0x0 binaries/fscanf.o
 .note.GNU-stack
                0x0000000000000000        0x0 binaries/getchar.o
 .note.GNU-stack
                0x0000000000000000        0x0 binaries/labs.o
 .note.GNU-stack
                0x0000000000000000        0x0 binaries/memchr.o
 .note.GNU-stack
                0x0000000000000000        0x0 binaries/memcmp.o
 .note.GNU-stack
                0x0000000000000000        0x0 binaries/memcpy.o
 .note.GNU-stack
                0x0000000000000000        0x0 binaries/memset.o
 .note.GNU-stack
                0x0000000000000000        0x0 binaries/printf.o
 .note.GNU-stack
                0x0000000000000000        0x0 binaries/putchar.o
 .note.GNU-stack
                0x0000000000000000        0x0 binaries/qsort.o
 .note.GNU-stack
                0x0000000000000000        0x0 binaries/rand.o
 .note.GNU-stack
                0x0000000000000000        0x0 binaries/sprintf.o
 .note.GNU-stack
                0x0000000000000000        0x0 binaries/sscanf.o
 .note.GNU-stack
                0x0000000000000000        0x0 binaries/strchr.o
 .note.GNU-stack
                0x0000000000000000        0x0 binaries/strcmp.o
 .note.GNU-stack
                0x0000000000000000        0x0 binaries/strcpy.o
 .note.GNU-stack
                0x0000000000000000        0x0 binaries/strlen.o
 .note.GNU-stack
                0x0000000000000000        0x0 binaries/strncat.o
 .note.GNU-stack
                0x0000000000000000        0x0 binaries/strncmp.o
 .note.GNU-stack
                0x0000000000000000        0x0 binaries/strncpy.o
 .note.GNU-stack
                0x0000000000000000        0x0 binaries/strnlen.o
 .note.GNU-stack
                0x0000000000000000        0x0 binaries/strrchr.o
 .note.GNU-stack
                0x0000000000000000        0x0 binaries/strstr.o
 .note.GNU-stack
                0x0000000000000000        0x0 binaries/ttycontrol.o
 .note.GNU-stack
                0x0000000000000000        0x0 binaries/ttygetc.o
 .note.GNU-stack
                0x0000000000000000        0x0 binaries/ttyhandle_in.o
 .note.GNU-stack
                0x0000000000000000        0x0 binaries/ttyhandle_out.o
 .note.GNU-stack
                0x0000000000000000        0x0 binaries/ttyhandler.o
 .note.GNU-stack
                0x0000000000000000        0x0 binaries/ttyinit.o
 .note.GNU-stack
                0x0000000000000000        0x0 binaries/ttykickout.o
 .note.GNU-stack
                0x0000000000000000        0x0 binaries/ttyputc.o
 .note.GNU-stack
                0x0000000000000000        0x0 binaries/ttyread.o
 .note.GNU-stack
                0x0000000000000000        0x0 binaries/ttywrite.o
 .note.GNU-stack
                0x0000000000000000        0x0 binaries/mount.o
 .note.GNU-stack
                0x0000000000000000        0x0 binaries/naminit.o
 .note.GNU-stack
                0x0000000000000000        0x0 binaries/nammap.o
 .note.GNU-stack
                0x0000000000000000        0x0 binaries/namopen.o
 .note.GNU-stack
                0x0000000000000000        0x0 binaries/colon2mac.o
 .note.GNU-stack
                0x0000000000000000        0x0 binaries/ethcontrol.o
 .note.GNU-stack
                0x0000000000000000        0x0 binaries/ethhandler.o
 .note.GNU-stack
                0x0000000000000000        0x0 binaries/ethinit.o
 .note.GNU-stack
                0x0000000000000000        0x0 binaries/ethmcast.o
 .note.GNU-stack
                0x0000000000000000        0x0 binaries/ethread.o
 .note.GNU-stack
                0x0000000000000000        0x0 binaries/ethwrite.o
 .note.GNU-stack
                0x0000000000000000        0x0 binaries/rdsbufalloc.o
 .note.GNU-stack
                0x0000000000000000        0x0 binaries/rdsclose.o
 .note.GNU-stack
                0x0000000000000000        0x0 binaries/rdscomm.o
 .note.GNU-stack
                0x0000000000000000        0x0 binaries/rdscontrol.o
 .note.GNU-stack
                0x0000000000000000        0x0 binaries/rdsinit.o
 .note.GNU-stack
                0x0000000000000000        0x0 binaries/rdsopen.o
 .note.GNU-stack
                0x0000000000000000        0x0 binaries/rdsprocess.o
 .note.GNU-stack
                0x0000000000000000        0x0 binaries/rdsread.o
 .note.GNU-stack
                0x0000000000000000        0x0 binaries/rdswrite.o
 .note.GNU-stack
                0x0000000000000000        0x0 binaries/ramclose.o
 .note.GNU-stack
                0x0000000000000000        0x0 binaries/raminit.o
 .note.GNU-stack
                0x0000000000000000        0x0 binaries/ramopen.o
 .note.GNU-stack
                0x0000000000000000        0x0 binaries/ramread.o
 .note.GNU-stack
                0x0000000000000000        0x0 binaries/ramwrite.o
 .note.GNU-stack
                0x0000000000000000        0x0 binaries/lfdballoc.o
 .note.GNU-stack
                0x0000000000000000        0x0 binaries/lfdbfree.o
 .note.GNU-stack
                0x0000000000000000        0x0 binaries/lfflush.o
 .note.GNU-stack
                0x0000000000000000        0x0 binaries/lfgetmode.o
 .note.GNU-stack
                0x0000000000000000        0x0 binaries/lfiballoc.o
 .note.GNU-stack
                0x0000000000000000        0x0 binaries/lfibclear.o
 .note.GNU-stack
                0x0000000000000000        0x0 binaries/lfibget.o
 .note.GNU-stack
                0x0000000000000000        0x0 binaries/lfibput.o
 .note.GNU-stack
                0x0000000000000000        0x0 binaries/lflclose.o
 .note.GNU-stack
                0x0000000000000000        0x0 binaries/lflcontrol.o
 .note.GNU-stack
                0x0000000000000000        0x0 binaries/lflgetc.o
 .note.GNU-stack
                0x0000000000000000        0x0 binaries/lflinit.o
 .note.GNU-stack
                0x0000000000000000        0x0 binaries/lflputc.o
 .note.GNU-stack
                0x0000000000000000        0x0 binaries/lflread.o
 .note.GNU-stack
                0x0000000000000000        0x0 binaries/lflseek.o
 .note.GNU-stack
                0x0000000000000000        0x0 binaries/lflwrite.o
 .note.GNU-stack
                0x0000000000000000        0x0 binaries/lfsckfmt.o
 .note.GNU-stack
                0x0000000000000000        0x0 binaries/lfscreate.o
 .note.GNU-stack
                0x0000000000000000        0x0 binaries/lfsetup.o
 .note.GNU-stack
                0x0000000000000000        0x0 binaries/lfsinit.o
 .note.GNU-stack
                0x0000000000000000        0x0 binaries/lfsopen.o
 .note.GNU-stack
                0x0000000000000000        0x0 binaries/lftruncate.o
 .note.GNU-stack
                0x0000000000000000        0x0 binaries/rflclose.o
 .note.GNU-stack
                0x0000000000000000        0x0 binaries/rflgetc.o
 .note.GNU-stack
                0x0000000000000000        0x0 binaries/rflinit.o
 .note.GNU-stack
                0x0000000000000000        0x0 binaries/rflputc.o
 .note.GNU-stack
                0x0000000000000000        0x0 binaries/rflread.o
 .note.GNU-stack
                0x0000000000000000        0x0 binaries/rflseek.o
 .note.GNU-stack
                0x0000000000000000        0x0 binaries/rflwrite.o
 .note.GNU-stack
                0x0000000000000000        0x0 binaries/rfscomm.o
 .note.GNU-stack
                0x0000000000000000        0x0 binaries/rfscontrol.o
 .note.GNU-stack
                0x0000000000000000        0x0 binaries/rfsgetmode.o
 .note.GNU-stack
                0x0000000000000000        0x0 binaries/rfsinit.o
 .note.GNU-stack
                0x0000000000000000        0x0 binaries/rfsndmsg.o
 .note.GNU-stack
                0x0000000000000000        0x0 binaries/rfsopen.o
 .note.GNU-stack
                0x0000000000000000        0x0 binaries/arp.o
 .note.GNU-stack
                0x0000000000000000        0x0 binaries/dhcp.o
 .note.GNU-stack
                0x0000000000000000        0x0 binaries/dot2ip.o
 .note.GNU-stack
                0x0000000000000000        0x0 binaries/hexdump.o
 .note.GNU-stack
                0x0000000000000000        0x0 binaries/icmp.o
 .note.GNU-stack
                0x0000000000000000        0x0 binaries/ip.o
 .note.GNU-stack
                0x0000000000000000        0x0 binaries/net.o
 .note.GNU-stack
                0x0000000000000000        0x0 binaries/netstart.o
 .note.GNU-stack
                0x0000000000000000        0x0 binaries/pdump.o
 .note.GNU-stack
                0x0000000000000000        0x0 binaries/tftp.o
 .note.GNU-stack
                0x0000000000000000        0x0 binaries/udp.o
 .note.GNU-stack
                0x0000000000000000        0x0 binaries/addargs.o
 .note.GNU-stack
                0x0000000000000000        0x0 binaries/lexan.o
 .note.GNU-stack
                0x0000000000000000        0x0 binaries/shell.o
 .note.GNU-stack
                0x0000000000000000        0x0 binaries/xsh_argecho.o
 .note.GNU-stack
                0x0000000000000000        0x0 binaries/xsh_arp.o
 .note.GNU-stack
                0x0000000000000000        0x0 binaries/xsh_cat.o
 .note.GNU-stack
                0x0000000000000000        0x0 binaries/xsh_clear.o
 .note.GNU-stack
                0x0000000000000000        0x0 binaries/xsh_date.o
 .note.GNU-stack
                0x0000000000000000        0x0 binaries/xsh_devdump.o
 .note.GNU-stack
                0x0000000000000000        0x0 binaries/xsh_echo.o
 .note.GNU-stack
                0x0000000000000000        0x0 binaries/xsh_exit.o
 .note.GNU-stack
                0x0000000000000000        0x0 binaries/xsh_help.o
 .note.GNU-stack
                0x0000000000000000        0x0 binaries/xsh_ipaddr.o
 .note.GNU-stack
                0x0000000000000000        0x0 binaries/xsh_kill.o
 .note.GNU-stack
                0x0000000000000000        0x0 binaries/xsh_memdump.o
 .note.GNU-stack
                0x0000000000000000        0x0 binaries/xsh_memstat.o
 .note.GNU-stack
                0x0000000000000000        0x0 binaries/xsh_ping.o
 .note.GNU-stack
                0x0000000000000000        0x0 binaries/xsh_ps.o
 .note.GNU-stack
                0x0000000000000000        0x0 binaries/xsh_sleep.o
 .note.GNU-stack
                0x0000000000000000        0x0 binaries/xsh_udpdump.o
 .note.GNU-stack
                0x0000000000000000        0x0 binaries/xsh_udpecho.o
 .note.GNU-stack
                0x0000000000000000        0x0 binaries/xsh_udpeserver.o
 .note.GNU-stack
                0x0000000000000000        0x0 binaries/xsh_uptime.o
 .note.GNU-stack
                0x0000000000000000        0x0 binaries/host2netlc.o
