
Allocating common symbols
Common symbol       size              file

netbufpool          0x4               binaries/net.o
readylist           0x2               binaries/ready.o
rfltab              0x5a0             binaries/rflinit.o
sleepq              0x2               binaries/clkinit.o
nnames              0x4               binaries/naminit.o
udptab              0x168             binaries/udp.o
minheap             0x4               binaries/meminit.o
marks               0x50              binaries/mark.o
currpid             0x4               binaries/initialize.o
Lf_data             0x20c             binaries/lfsinit.o
porttab             0x2d0             binaries/ptinit.o
girmask             0x2               binaries/evec.o
ttytab              0x10c             binaries/ttyinit.o
victimglobal        0x4               binaries/myhacker.o
proctab             0x1900            binaries/initialize.o
prcount             0x4               binaries/initialize.o
victimsRetAddress   0x4               binaries/myhacker.o
lfltab              0xf00             binaries/lflinit.o
rdstab              0x8c              binaries/rdsinit.o
ethertab            0x138             binaries/ethinit.o
NetData             0xa8              binaries/net.o
nmarks              0x4               binaries/mark.o
Defer               0x8               binaries/resched.o
semtab              0x4b0             binaries/initialize.o
maxheap             0x4               binaries/meminit.o
preempt             0x4               binaries/clkinit.o
buftab              0xf0              binaries/bufinit.o
Rf_data             0x18              binaries/rfsinit.o
mkmutex             0x4               binaries/mark.o
clktimemsec         0x4               binaries/clkinit.o
clktime             0x4               binaries/clkinit.o
arpcache            0x140             binaries/arp.o
icmptab             0x230             binaries/icmp.o
nbpools             0x4               binaries/bufinit.o
queuetab            0x980             binaries/queue.o
ptnextid            0x4               binaries/ptinit.o
Ram                 0x19000           binaries/raminit.o
ipoqueue            0x2c              binaries/ip.o
memlist             0x8               binaries/initialize.o
nametab             0x19a0            binaries/naminit.o
ptfree              0x4               binaries/ptinit.o

Memory Configuration

Name             Origin             Length             Attributes
*default*        0x0000000000000000 0xffffffffffffffff

Linker script and memory map

                0x0000000000100000                physbase = 0x100000
                0x0000000000100000                . = physbase
                0x0000000000100000                . = ALIGN (0x1000)

.text           0x0000000000100000    0x16000
                0x0000000000100000                text = ABSOLUTE (.)
 *(.text .text.*)
 .text          0x0000000000100000      0x1ac binaries/start.o
                0x0000000000100028                start
                0x00000000001000fa                inb
                0x0000000000100102                inw
                0x000000000010010b                inl
                0x0000000000100113                outb
                0x000000000010011d                outw
                0x0000000000100128                outl
                0x0000000000100132                _rtcin
                0x000000000010013d                ___udivsi3
                0x0000000000100148                ___divsi3
                0x0000000000100154                sbzero
                0x0000000000100164                bcopy
                0x0000000000100178                insw
                0x000000000010018e                outsw
                0x00000000001001a4                lidt
 .text          0x00000000001001ac       0x35 binaries/app1.o
                0x00000000001001ac                app1
 .text          0x00000000001001e1       0x8f binaries/app2.o
                0x00000000001001e1                app2
 .text          0x0000000000100270       0x67 binaries/app3.o
                0x0000000000100270                app3
 .text          0x00000000001002d7      0x2b9 binaries/ascdate.o
                0x00000000001002d7                ascdate
 .text          0x0000000000100590       0x14 binaries/bufinit.o
                0x0000000000100590                bufinit
 .text          0x00000000001005a4       0x62 binaries/chprio.o
                0x00000000001005a4                chprio
 .text          0x0000000000100606       0x90 binaries/clkhandler.o
                0x0000000000100606                clkhandler
 .text          0x0000000000100696       0x67 binaries/clkinit.o
                0x0000000000100696                clkinit
 .text          0x00000000001006fd       0x56 binaries/close.o
                0x00000000001006fd                close
 .text          0x0000000000100753        0x0 binaries/conf.o
 .text          0x0000000000100753       0x5c binaries/control.o
                0x0000000000100753                control
 .text          0x00000000001007af      0x115 binaries/cpubound.o
                0x00000000001007af                cpubound
 .text          0x00000000001008c4      0x233 binaries/create.o
                0x00000000001008c4                create
 .text          0x0000000000100af7      0x20e binaries/early_imr.o
                0x0000000000100af7                intel_cln_early_sb_read_reg
                0x0000000000100b4e                intel_cln_early_sb_write_reg
                0x0000000000100c08                remove_irm_protections
 .text          0x0000000000100d05      0x2e2 binaries/evec.o
                0x0000000000100d05                setirmask
                0x0000000000100d3d                set_evec
                0x0000000000100d98                initevec
                0x0000000000100e6a                trap
 .text          0x0000000000100fe7       0x30 binaries/factorial.o
                0x0000000000100fe7                factorial
 .text          0x0000000000101017       0x7f binaries/freebuf.o
                0x0000000000101017                freebuf
 .text          0x0000000000101096      0x108 binaries/freemem.o
                0x0000000000101096                freemem
 .text          0x000000000010119e       0x6e binaries/getbuf.o
                0x000000000010119e                getbuf
 .text          0x000000000010120c       0x56 binaries/getc.o
                0x000000000010120c                getc
 .text          0x0000000000101262       0x69 binaries/getdev.o
                0x0000000000101262                getdev
 .text          0x00000000001012cb       0x82 binaries/getitem.o
                0x00000000001012cb                getitem
                0x00000000001012fa                getfirst
                0x0000000000101321                getlast
 .text          0x000000000010134d       0xc2 binaries/getmem.o
                0x000000000010134d                getmem
 .text          0x000000000010140f        0xa binaries/getpid.o
                0x000000000010140f                getpid
 .text          0x0000000000101419       0x10 binaries/getpname.o
                0x0000000000101419                getpname
 .text          0x0000000000101429       0x13 binaries/getppid.o
                0x0000000000101429                getppid
 .text          0x000000000010143c       0x54 binaries/getprio.o
                0x000000000010143c                getprio
 .text          0x0000000000101490       0xac binaries/getstk.o
                0x0000000000101490                getstk
 .text          0x000000000010153c       0x32 binaries/gettime.o
                0x000000000010153c                gettime
 .text          0x000000000010156e      0x186 binaries/getutime.o
                0x000000000010156e                getutime
 .text          0x00000000001016f4       0x10 binaries/host2netlb.o
                0x00000000001016f4                host2netlb
 .text          0x0000000000101704       0x56 binaries/init.o
                0x0000000000101704                init
 .text          0x000000000010175a      0x289 binaries/initialize.o
                0x000000000010175a                nulluser
                0x0000000000101999                stop
                0x00000000001019bd                delay
 .text          0x00000000001019e3       0xf2 binaries/insert.o
                0x00000000001019e3                insert
 .text          0x0000000000101ad5       0xe8 binaries/insertd.o
                0x0000000000101ad5                insertd
 .text          0x0000000000101bbd        0xa binaries/ioerr.o
                0x0000000000101bbd                ioerr
 .text          0x0000000000101bc7        0xa binaries/ionull.o
                0x0000000000101bc7                ionull
 .text          0x0000000000101bd1      0x161 binaries/kill.o
                0x0000000000101bd1                kill
 .text          0x0000000000101d32       0xa9 binaries/kprintf.o
                0x0000000000101d32                kputc
                0x0000000000101d64                console_init
                0x0000000000101d97                kgetc
                0x0000000000101dbd                kprintf
 .text          0x0000000000101ddb      0x3b6 binaries/lab2q3.o
                0x0000000000101ddb                workerProcessTypeA
                0x0000000000101de0                workerProcessTypeB
                0x0000000000101dfd                monitorProcess
                0x0000000000101e77                lab2q3t1
                0x0000000000101ed6                lab2q3t2
                0x0000000000101fbf                lab2q3t3
                0x00000000001020a8                lab2q3t4
 .text          0x0000000000102191      0x2bb binaries/lab2q4.o
                0x0000000000102191                lab2q4t1
                0x000000000010227a                lab2q4t2
                0x0000000000102363                lab2q4t3
 .text          0x000000000010244c      0x14f binaries/main.o
                0x000000000010244c                main
 .text          0x000000000010259b       0x99 binaries/mark.o
                0x000000000010259b                markinit
                0x00000000001025bc                mark
 .text          0x0000000000102634      0x1ff binaries/meminit.o
                0x0000000000102634                meminit
                0x00000000001027c3                setsegs
 .text          0x0000000000102833      0x122 binaries/mkbufpool.o
                0x0000000000102833                mkbufpool
 .text          0x0000000000102955       0x9c binaries/myappA.o
                0x0000000000102955                myappA
 .text          0x00000000001029f1       0x23 binaries/myfuncA.o
                0x00000000001029f1                myfuncA
 .text          0x0000000000102a14       0x83 binaries/myhacker.o
                0x0000000000102a14                myhackermalware
                0x0000000000102a40                getretaddrbydepth
                0x0000000000102a6e                myhacker
 .text          0x0000000000102a97       0x9b binaries/myvictim.o
                0x0000000000102a97                makevictimsleep
                0x0000000000102ac2                invokevictimsleep
                0x0000000000102aed                myvictim
 .text          0x0000000000102b32       0x5f binaries/mywelcomemsg.o
                0x0000000000102b32                mywelcomemsg
 .text          0x0000000000102b91       0x63 binaries/newqueue.o
                0x0000000000102b91                newqueue
 .text          0x0000000000102bf4       0x5c binaries/open.o
                0x0000000000102bf4                open
 .text          0x0000000000102c50       0x20 binaries/panic.o
                0x0000000000102c50                panic
 .text          0x0000000000102c70      0x282 binaries/pci.o
                0x0000000000102c70                pci_init
                0x0000000000102c7a                find_pci_device
                0x0000000000102d39                pci_read_config_byte
                0x0000000000102d77                pci_read_config_word
                0x0000000000102db7                pci_read_config_dword
                0x0000000000102df5                pci_write_config_byte
                0x0000000000102e31                pci_write_config_word
                0x0000000000102e6e                pci_write_config_dword
                0x0000000000102eaa                pci_get_dev_mmio_base_addr
 .text          0x0000000000102ef2       0x50 binaries/platinit.o
                0x0000000000102ef2                platinit
 .text          0x0000000000102f42       0xa7 binaries/printsegaddr.o
                0x0000000000102f42                printsegaddr
 .text          0x0000000000102fe9       0xa9 binaries/ptclear.o
                0x0000000000102fe9                _ptclear
 .text          0x0000000000103092       0x85 binaries/ptcount.o
                0x0000000000103092                ptcount
 .text          0x0000000000103117       0xfe binaries/ptcreate.o
                0x0000000000103117                ptcreate
 .text          0x0000000000103215       0x63 binaries/ptdelete.o
                0x0000000000103215                ptdelete
 .text          0x0000000000103278       0x91 binaries/ptinit.o
                0x0000000000103278                ptinit
 .text          0x0000000000103309       0xf5 binaries/ptrecv.o
                0x0000000000103309                ptrecv
 .text          0x00000000001033fe       0x66 binaries/ptreset.o
                0x00000000001033fe                ptreset
 .text          0x0000000000103464      0x115 binaries/ptsend.o
                0x0000000000103464                ptsend
 .text          0x0000000000103579       0x64 binaries/putc.o
                0x0000000000103579                putc
 .text          0x00000000001035dd       0xb3 binaries/quark_irq.o
                0x00000000001035dd                quark_irq_routing
 .text          0x0000000000103690      0x19a binaries/quark_pdat.o
                0x0000000000103690                get_quark_pdat_entry_data_by_id
                0x000000000010375a                get_quark_pdat_entry_data_by_desc
 .text          0x000000000010382a       0xae binaries/queue.o
                0x000000000010382a                enqueue
                0x000000000010388d                dequeue
 .text          0x00000000001038d8       0x5c binaries/read.o
                0x00000000001038d8                read
 .text          0x0000000000103934       0x90 binaries/ready.o
                0x0000000000103934                ready
 .text          0x00000000001039c4       0x5a binaries/receive.o
                0x00000000001039c4                receive
 .text          0x0000000000103a1e       0x42 binaries/recvclr.o
                0x0000000000103a1e                recvclr
 .text          0x0000000000103a60       0xad binaries/recvtime.o
                0x0000000000103a60                recvtime
 .text          0x0000000000103b0d      0x1c0 binaries/resched.o
                0x0000000000103b0d                resched
                0x0000000000103c5b                resched_cntl
 .text          0x0000000000103ccd       0x7e binaries/resume.o
                0x0000000000103ccd                resume
 .text          0x0000000000103d4b       0x59 binaries/seek.o
                0x0000000000103d4b                seek
 .text          0x0000000000103da4       0x51 binaries/semcount.o
                0x0000000000103da4                semcount
 .text          0x0000000000103df5       0x93 binaries/semcreate.o
                0x0000000000103df5                semcreate
 .text          0x0000000000103e88       0xd1 binaries/semdelete.o
                0x0000000000103e88                semdelete
 .text          0x0000000000103f59       0xa8 binaries/semreset.o
                0x0000000000103f59                semreset
 .text          0x0000000000104001       0xb3 binaries/send.o
                0x0000000000104001                send
 .text          0x00000000001040b4       0x95 binaries/signal.o
                0x00000000001040b4                signal
 .text          0x0000000000104149       0xc2 binaries/signaln.o
                0x0000000000104149                signaln
 .text          0x000000000010420b       0xbd binaries/sleep.o
                0x000000000010420b                sleepms
                0x0000000000104292                sleep
 .text          0x00000000001042c8       0x94 binaries/stackdepth.o
                0x00000000001042c8                stackdepth
 .text          0x000000000010435c      0x17c binaries/stacktrace.o
                0x000000000010435c                stacktrace
 .text          0x00000000001044d8       0xac binaries/suspend.o
                0x00000000001044d8                suspend
 .text          0x0000000000104584       0x27 binaries/teststackdepth.o
                0x0000000000104584                teststackdepth
 .text          0x00000000001045ab       0x91 binaries/unsleep.o
                0x00000000001045ab                unsleep
 .text          0x000000000010463c       0x19 binaries/userret.o
                0x000000000010463c                userret
 .text          0x0000000000104655       0xac binaries/wait.o
                0x0000000000104655                wait
 .text          0x0000000000104701       0x71 binaries/wakeup.o
                0x0000000000104701                wakeup
 .text          0x0000000000104772       0x5c binaries/write.o
                0x0000000000104772                write
 .text          0x00000000001047ce       0x1a binaries/xdone.o
                0x00000000001047ce                xdone
 .text          0x00000000001047e8       0x26 binaries/yield.o
                0x00000000001047e8                yield
 .text          0x000000000010480e       0x11 binaries/abs.o
                0x000000000010480e                abs
 .text          0x000000000010481f       0x84 binaries/atoi.o
                0x000000000010481f                atoi
 .text          0x00000000001048a3       0x84 binaries/atol.o
                0x00000000001048a3                atol
 .text          0x0000000000104927       0x1a binaries/bzero.o
                0x0000000000104927                bzero
 .text          0x0000000000104941        0x0 binaries/ctype_.o
 .text          0x0000000000104941      0x6bf binaries/doprnt.o
                0x0000000000104a94                _doprnt
 .text          0x0000000000105000      0x5f2 binaries/doscan.o
                0x0000000000105000                _doscan
 .text          0x00000000001055f2      0x64e binaries/fdoprnt.o
                0x0000000000105677                _fdoprnt
 .text          0x0000000000105c40       0x1c binaries/fgetc.o
                0x0000000000105c40                fgetc
 .text          0x0000000000105c5c       0x61 binaries/fgets.o
                0x0000000000105c5c                fgets
 .text          0x0000000000105cbd       0x21 binaries/fprintf.o
                0x0000000000105cbd                fprintf
 .text          0x0000000000105cde       0x27 binaries/fputc.o
                0x0000000000105cde                fputc
 .text          0x0000000000105d05       0x3a binaries/fputs.o
                0x0000000000105d05                fputs
 .text          0x0000000000105d3f       0x6a binaries/fscanf.o
                0x0000000000105d7d                fscanf
 .text          0x0000000000105da9       0x1d binaries/getchar.o
                0x0000000000105da9                getchar
 .text          0x0000000000105dc6       0x11 binaries/labs.o
                0x0000000000105dc6                labs
 .text          0x0000000000105dd7       0x36 binaries/memchr.o
                0x0000000000105dd7                memchr
 .text          0x0000000000105e0d       0x4a binaries/memcmp.o
                0x0000000000105e0d                memcmp
 .text          0x0000000000105e57       0x26 binaries/memcpy.o
                0x0000000000105e57                memcpy
 .text          0x0000000000105e7d       0x1f binaries/memset.o
                0x0000000000105e7d                memset
 .text          0x0000000000105e9c       0x2e binaries/printf.o
                0x0000000000105e9c                printf
 .text          0x0000000000105eca       0x20 binaries/putchar.o
                0x0000000000105eca                putchar
 .text          0x0000000000105eea      0x1cc binaries/qsort.o
                0x000000000010608e                qsort
 .text          0x00000000001060b6       0x4c binaries/rand.o
                0x00000000001060b6                srand
                0x00000000001060c3                rand
 .text          0x0000000000106102       0x48 binaries/sprintf.o
                0x000000000010611b                sprintf
 .text          0x000000000010614a       0x5a binaries/sscanf.o
                0x000000000010617a                sscanf
 .text          0x00000000001061a4       0x2f binaries/strchr.o
                0x00000000001061a4                strchr
 .text          0x00000000001061d3       0x45 binaries/strcmp.o
                0x00000000001061d3                strcmp
 .text          0x0000000000106218       0x1c binaries/strcpy.o
                0x0000000000106218                strcpy
 .text          0x0000000000106234       0x20 binaries/strlen.o
                0x0000000000106234                strlen
 .text          0x0000000000106254       0x3d binaries/strncat.o
                0x0000000000106254                strncat
 .text          0x0000000000106291       0x3b binaries/strncmp.o
                0x0000000000106291                strncmp
 .text          0x00000000001062cc       0x59 binaries/strncpy.o
                0x00000000001062cc                strncpy
 .text          0x0000000000106325       0x38 binaries/strnlen.o
                0x0000000000106325                strnlen
 .text          0x000000000010635d       0x32 binaries/strrchr.o
                0x000000000010635d                strrchr
 .text          0x000000000010638f       0x68 binaries/strstr.o
                0x000000000010638f                strstr
 .text          0x00000000001063f7      0x112 binaries/ttycontrol.o
                0x00000000001063f7                ttycontrol
 .text          0x0000000000106509       0xb0 binaries/ttygetc.o
                0x0000000000106509                ttygetc
 .text          0x00000000001065b9      0x4a3 binaries/ttyhandle_in.o
                0x000000000010667d                ttyhandle_in
 .text          0x0000000000106a5c      0x178 binaries/ttyhandle_out.o
                0x0000000000106a5c                ttyhandle_out
 .text          0x0000000000106bd4       0x85 binaries/ttyhandler.o
                0x0000000000106bd4                ttyhandler
 .text          0x0000000000106c59      0x15d binaries/ttyinit.o
                0x0000000000106c59                ttyinit
 .text          0x0000000000106db6        0xf binaries/ttykickout.o
                0x0000000000106db6                ttykickout
 .text          0x0000000000106dc5       0xb2 binaries/ttyputc.o
                0x0000000000106dc5                ttyputc
 .text          0x0000000000106e77       0xff binaries/ttyread.o
                0x0000000000106e77                ttyread
 .text          0x0000000000106f76       0x4d binaries/ttywrite.o
                0x0000000000106f76                ttywrite
 .text          0x0000000000106fc3      0x129 binaries/mount.o
                0x0000000000106fc3                namlen
                0x0000000000106fff                mount
 .text          0x00000000001070ec      0x1c4 binaries/naminit.o
                0x00000000001070ec                naminit
 .text          0x00000000001072b0      0x1fe binaries/nammap.o
                0x00000000001072b0                namrepl
                0x00000000001073d3                namcpy
                0x0000000000107421                nammap
 .text          0x00000000001074ae       0x44 binaries/namopen.o
                0x00000000001074ae                namopen
 .text          0x00000000001074f2       0xd4 binaries/colon2mac.o
                0x00000000001074f2                colon2mac
 .text          0x00000000001075c6       0x7d binaries/ethcontrol.o
                0x00000000001075c6                ethcontrol
 .text          0x0000000000107643      0x17e binaries/ethhandler.o
                0x0000000000107643                ethhandler
 .text          0x00000000001077c1      0x548 binaries/ethinit.o
                0x00000000001077c1                eth_phy_read
                0x0000000000107801                eth_phy_write
                0x0000000000107842                eth_phy_reset
                0x000000000010791c                ethinit
 .text          0x0000000000107d09      0x107 binaries/ethmcast.o
                0x0000000000107d09                ethmcast_add
                0x0000000000107d55                ethmcast_remove
 .text          0x0000000000107e10      0x172 binaries/ethread.o
                0x0000000000107e10                ethread
 .text          0x0000000000107f82       0xc1 binaries/ethwrite.o
                0x0000000000107f82                ethwrite
 .text          0x0000000000108043       0x68 binaries/rdsbufalloc.o
                0x0000000000108043                rdsbufalloc
 .text          0x00000000001080ab       0xd6 binaries/rdsclose.o
                0x00000000001080ab                rdsclose
 .text          0x0000000000108181      0x1df binaries/rdscomm.o
                0x0000000000108181                rdscomm
 .text          0x0000000000108360      0x1c4 binaries/rdscontrol.o
                0x0000000000108360                rdscontrol
 .text          0x0000000000108524      0x1f7 binaries/rdsinit.o
                0x0000000000108524                rdsinit
 .text          0x000000000010871b      0x199 binaries/rdsopen.o
                0x000000000010871b                rdsopen
 .text          0x00000000001088b4      0x2c5 binaries/rdsprocess.o
                0x00000000001088b4                rdsprocess
 .text          0x0000000000108b79      0x1d8 binaries/rdsread.o
                0x0000000000108b79                rdsread
 .text          0x0000000000108d51      0x1ae binaries/rdswrite.o
                0x0000000000108d51                rdswrite
 .text          0x0000000000108eff        0xa binaries/ramclose.o
                0x0000000000108eff                ramclose
 .text          0x0000000000108f09       0x35 binaries/raminit.o
                0x0000000000108f09                raminit
 .text          0x0000000000108f3e        0xa binaries/ramopen.o
                0x0000000000108f3e                ramopen
 .text          0x0000000000108f48       0x26 binaries/ramread.o
                0x0000000000108f48                ramread
 .text          0x0000000000108f6e       0x26 binaries/ramwrite.o
                0x0000000000108f6e                ramwrite
 .text          0x0000000000108f94       0x87 binaries/lfdballoc.o
                0x0000000000108f94                lfdballoc
 .text          0x000000000010901b       0x49 binaries/lfdbfree.o
                0x000000000010901b                lfdbfree
 .text          0x0000000000109064       0xa1 binaries/lfflush.o
                0x0000000000109064                lfflush
 .text          0x0000000000109105       0x82 binaries/lfgetmode.o
                0x0000000000109105                lfgetmode
 .text          0x0000000000109187       0x60 binaries/lfiballoc.o
                0x0000000000109187                lfiballoc
 .text          0x00000000001091e7       0x27 binaries/lfibclear.o
                0x00000000001091e7                lfibclear
 .text          0x000000000010920e       0x6c binaries/lfibget.o
                0x000000000010920e                lfibget
 .text          0x000000000010927a       0x88 binaries/lfibput.o
                0x000000000010927a                lfibput
 .text          0x0000000000109302       0xa4 binaries/lflclose.o
                0x0000000000109302                lflclose
 .text          0x00000000001093a6       0xc2 binaries/lflcontrol.o
                0x00000000001093a6                lflcontrol
 .text          0x0000000000109468       0xfd binaries/lflgetc.o
                0x0000000000109468                lflgetc
 .text          0x0000000000109565       0xe7 binaries/lflinit.o
                0x0000000000109565                lflinit
 .text          0x000000000010964c      0x12f binaries/lflputc.o
                0x000000000010964c                lflputc
 .text          0x000000000010977b       0x6b binaries/lflread.o
                0x000000000010977b                lflread
 .text          0x00000000001097e6       0xbd binaries/lflseek.o
                0x00000000001097e6                lflseek
 .text          0x00000000001098a3       0x52 binaries/lflwrite.o
                0x00000000001098a3                lflwrite
 .text          0x00000000001098f5      0x114 binaries/lfsckfmt.o
                0x00000000001098f5                lfsckfmt
 .text          0x0000000000109a09      0x1e6 binaries/lfscreate.o
                0x0000000000109a09                lfscreate
 .text          0x0000000000109bef      0x1b1 binaries/lfsetup.o
                0x0000000000109bef                lfsetup
 .text          0x0000000000109da0       0x45 binaries/lfsinit.o
                0x0000000000109da0                lfsinit
 .text          0x0000000000109de5      0x302 binaries/lfsopen.o
                0x0000000000109de5                lfsopen
 .text          0x000000000010a0e7      0x112 binaries/lftruncate.o
                0x000000000010a0e7                lftruncate
 .text          0x000000000010a1f9       0x69 binaries/rflclose.o
                0x000000000010a1f9                rflclose
 .text          0x000000000010a262       0x29 binaries/rflgetc.o
                0x000000000010a262                rflgetc
 .text          0x000000000010a28b       0x6c binaries/rflinit.o
                0x000000000010a28b                rflinit
 .text          0x000000000010a2f7       0x29 binaries/rflputc.o
                0x000000000010a2f7                rflputc
 .text          0x000000000010a320      0x2b6 binaries/rflread.o
                0x000000000010a320                rflread
 .text          0x000000000010a5d6       0x68 binaries/rflseek.o
                0x000000000010a5d6                rflseek
 .text          0x000000000010a63e      0x2fa binaries/rflwrite.o
                0x000000000010a63e                rflwrite
 .text          0x000000000010a938      0x17d binaries/rfscomm.o
                0x000000000010a938                rfscomm
 .text          0x000000000010aab5      0x22b binaries/rfscontrol.o
                0x000000000010aab5                rfscontrol
 .text          0x000000000010ace0       0x82 binaries/rfsgetmode.o
                0x000000000010ace0                rfsgetmode
 .text          0x000000000010ad62       0x7e binaries/rfsinit.o
                0x000000000010ad62                rfsinit
 .text          0x000000000010ade0       0xad binaries/rfsndmsg.o
                0x000000000010ade0                rfsndmsg
 .text          0x000000000010ae8d      0x243 binaries/rfsopen.o
                0x000000000010ae8d                rfsopen
 .text          0x000000000010b0d0      0x626 binaries/arp.o
                0x000000000010b0d0                arp_init
                0x000000000010b0ec                arp_alloc
                0x000000000010b193                arp_ntoh
                0x000000000010b200                arp_hton
                0x000000000010b26d                arp_resolve
                0x000000000010b4be                arp_in
 .text          0x000000000010b6f6      0x5ed binaries/dhcp.o
                0x000000000010b6f6                dhcp_get_opt_val
                0x000000000010b74a                dhcp_bld_bootp_msg
                0x000000000010b81c                dhcp_bld_disc
                0x000000000010b86e                dhcp_bld_req
                0x000000000010b909                getlocalip
 .text          0x000000000010bce3       0xda binaries/dot2ip.o
                0x000000000010bce3                dot2ip
 .text          0x000000000010bdbd      0x38c binaries/hexdump.o
                0x000000000010bdbd                hexdump
                0x000000000010bf17                hexadump
 .text          0x000000000010c149      0x6f6 binaries/icmp.o
                0x000000000010c149                icmp_init
                0x000000000010c165                icmp_register
                0x000000000010c223                icmp_recv
                0x000000000010c3c6                icmp_mkpkt
                0x000000000010c493                icmp_in
                0x000000000010c62d                icmp_send
                0x000000000010c69c                icmp_release
                0x000000000010c7b7                icmp_cksum
                0x000000000010c811                icmp_hton
                0x000000000010c828                icmp_ntoh
 .text          0x000000000010c83f      0x5e2 binaries/ip.o
                0x000000000010c83f                ip_local
                0x000000000010c87f                ipcksum
                0x000000000010c8d5                ip_ntoh
                0x000000000010c942                ip_in
                0x000000000010ca67                ip_hton
                0x000000000010cad4                ip_out
                0x000000000010cb8a                ip_send
                0x000000000010cc95                ipout
                0x000000000010cd88                ip_enqueue
 .text          0x000000000010ce21      0x1b2 binaries/net.o
                0x000000000010ce21                net_init
                0x000000000010cf18                eth_hton
                0x000000000010cf25                eth_ntoh
                0x000000000010cf32                netin
 .text          0x000000000010cfd3       0xb9 binaries/netstart.o
                0x000000000010cfd3                netstart
 .text          0x000000000010d08c      0xa30 binaries/pdump.o
                0x000000000010d08c                pdump
                0x000000000010d671                pdumph
 .text          0x000000000010dabc      0x5b8 binaries/tftp.o
                0x000000000010dabc                tftp_send1
                0x000000000010dbd0                tftpget_mb
                0x000000000010e051                tftpget
 .text          0x000000000010e074      0xa17 binaries/udp.o
                0x000000000010e074                udp_init
                0x000000000010e0b5                udp_in
                0x000000000010e1de                udp_register
                0x000000000010e2ef                udp_recv
                0x000000000010e488                udp_recvaddr
                0x000000000010e635                udp_send
                0x000000000010e7e3                udp_sendto
                0x000000000010e94c                udp_release
                0x000000000010ea5d                udp_ntoh
                0x000000000010ea74                udp_hton
 .text          0x000000000010ea8b      0x10e binaries/addargs.o
                0x000000000010ea8b                addargs
 .text          0x000000000010eb99      0x1db binaries/lexan.o
                0x000000000010eb99                lexan
 .text          0x000000000010ed74      0x657 binaries/shell.o
                0x000000000010ed74                shell
 .text          0x000000000010f3cb       0x59 binaries/xsh_argecho.o
                0x000000000010f3cb                xsh_argecho
 .text          0x000000000010f424      0x1fb binaries/xsh_arp.o
                0x000000000010f424                xsh_arp
 .text          0x000000000010f61f      0x1db binaries/xsh_cat.o
                0x000000000010f61f                xsh_cat
 .text          0x000000000010f7fa       0x4f binaries/xsh_clear.o
                0x000000000010f7fa                xsh_clear
 .text          0x000000000010f849      0x278 binaries/xsh_date.o
                0x000000000010f849                xsh_date
 .text          0x000000000010fac1       0x80 binaries/xsh_devdump.o
                0x000000000010fac1                xsh_devdump
 .text          0x000000000010fb41       0x63 binaries/xsh_echo.o
                0x000000000010fb41                xsh_echo
 .text          0x000000000010fba4        0xa binaries/xsh_exit.o
                0x000000000010fba4                xsh_exit
 .text          0x000000000010fbae      0x323 binaries/xsh_help.o
                0x000000000010fbae                xsh_help
 .text          0x000000000010fed1      0x367 binaries/xsh_ipaddr.o
                0x000000000010fed1                xsh_ipaddr
 .text          0x0000000000110238      0x1aa binaries/xsh_kill.o
                0x0000000000110238                xsh_kill
 .text          0x00000000001103e2      0x3bd binaries/xsh_memdump.o
                0x00000000001104a8                xsh_memdump
 .text          0x000000000011079f      0x1cc binaries/xsh_memstat.o
                0x000000000011079f                xsh_memstat
 .text          0x000000000011096b      0x27f binaries/xsh_ping.o
                0x000000000011096b                xsh_ping
 .text          0x0000000000110bea      0x1a9 binaries/xsh_ps.o
                0x0000000000110bea                xsh_ps
 .text          0x0000000000110d93      0x1a3 binaries/xsh_sleep.o
                0x0000000000110d93                xsh_sleep
 .text          0x0000000000110f36      0x1c3 binaries/xsh_udpdump.o
                0x0000000000110f36                xsh_udpdump
 .text          0x00000000001110f9      0x3ad binaries/xsh_udpecho.o
                0x00000000001110f9                xsh_udpecho
 .text          0x00000000001114a6      0x1fc binaries/xsh_udpeserver.o
                0x00000000001114a6                xsh_udpeserver
 .text          0x00000000001116a2      0x1b0 binaries/xsh_uptime.o
                0x00000000001116a2                xsh_uptime
 .text          0x0000000000111852        0xe binaries/clkdisp.o
                0x0000000000111852                clkdisp
 .text          0x0000000000111860       0x19 binaries/ctxsw.o
                0x0000000000111860                ctxsw
 .text          0x0000000000111879        0xa binaries/host2netla.o
                0x0000000000111879                host2netla
 *fill*         0x0000000000111883        0xd 
 .text          0x0000000000111890       0x25 binaries/host2netlc.o
                0x0000000000111890                host2netlc
 .text.unlikely
                0x00000000001118b5        0x0 binaries/host2netlc.o
 .text          0x00000000001118b5      0x376 binaries/intr.o
                0x00000000001118b5                disable
                0x00000000001118be                restore
                0x00000000001118cc                enable
                0x00000000001118ce                pause
                0x00000000001118d5                idle
                0x00000000001118e0                halt
                0x00000000001118e6                spurious_irq7
                0x00000000001118eb                spurious_irq15
                0x00000000001118fa                _Xint0
                0x0000000000111905                _Xint1
                0x0000000000111910                _Xint2
                0x000000000011191b                _Xint3
                0x0000000000111926                _Xint4
                0x0000000000111931                _Xint5
                0x000000000011193c                _Xint6
                0x0000000000111947                _Xint7
                0x0000000000111952                _Xint8
                0x000000000011195d                _Xint9
                0x0000000000111968                _Xint10
                0x0000000000111973                _Xint11
                0x0000000000111981                _Xint12
                0x000000000011198f                _Xint13
                0x000000000011199d                _Xint14
                0x00000000001119ab                _Xint15
                0x00000000001119b9                _Xint16
                0x00000000001119c7                _Xint17
                0x00000000001119d5                _Xint18
                0x00000000001119e3                _Xint19
                0x00000000001119f1                _Xint20
                0x00000000001119ff                _Xint21
                0x0000000000111a0d                _Xint22
                0x0000000000111a1b                _Xint23
                0x0000000000111a29                _Xint24
                0x0000000000111a37                _Xint25
                0x0000000000111a45                _Xint26
                0x0000000000111a53                _Xint27
                0x0000000000111a61                _Xint28
                0x0000000000111a6f                _Xint29
                0x0000000000111a7d                _Xint30
                0x0000000000111a8b                _Xint31
                0x0000000000111a99                _Xint32
                0x0000000000111aa7                _Xint33
                0x0000000000111ab5                _Xint34
                0x0000000000111ac3                _Xint35
                0x0000000000111ad1                _Xint36
                0x0000000000111adf                _Xint37
                0x0000000000111aed                _Xint38
                0x0000000000111afb                _Xint39
                0x0000000000111b09                _Xint40
                0x0000000000111b17                _Xint41
                0x0000000000111b25                _Xint42
                0x0000000000111b33                _Xint43
                0x0000000000111b41                _Xint44
                0x0000000000111b4f                _Xint45
                0x0000000000111b5d                _Xint46
                0x0000000000111b6b                defevec
 .text          0x0000000000111c2b        0xf binaries/ttydispatch.o
                0x0000000000111c2b                ttydispatch
 .text          0x0000000000111c3a       0x13 binaries/ethdispatch.o
                0x0000000000111c3a                ethdispatch
 *(.rodata .rodata.*)
 .rodata.str1.1
                0x0000000000111c4d       0x17 binaries/app1.o
 .rodata.str1.1
                0x0000000000111c64        0x5 binaries/app2.o
                                         0x1c (size before relaxing)
 *fill*         0x0000000000111c69        0x3 
 .rodata.str1.4
                0x0000000000111c6c       0x2d binaries/app2.o
 *fill*         0x0000000000111c99        0x3 
 .rodata.str1.4
                0x0000000000111c9c       0x4a binaries/app3.o
 .rodata.str1.1
                0x0000000000111ce6       0x29 binaries/app3.o
 .rodata.str1.1
                0x0000000000111d0f       0x54 binaries/ascdate.o
 *fill*         0x0000000000111d63        0x1 
 .rodata.str1.4
                0x0000000000111d64       0x22 binaries/ascdate.o
 *fill*         0x0000000000111d86        0x2 
 .rodata        0x0000000000111d88        0x4 binaries/clkhandler.o
                0x0000000000111d88                MAX_UINT32
 .rodata.str1.1
                0x0000000000111d8c       0x5f binaries/conf.o
 *fill*         0x0000000000111deb        0x1 
 .rodata.str1.4
                0x0000000000111dec      0x134 binaries/cpubound.o
 .rodata.str1.4
                0x0000000000111f20       0x4f binaries/early_imr.o
 *fill*         0x0000000000111f6f        0x1 
 .rodata        0x0000000000111f70       0x33 binaries/early_imr.o
 .rodata.str1.1
                0x0000000000111fa3      0x20c binaries/evec.o
 *fill*         0x00000000001121af        0x1 
 .rodata.str1.4
                0x00000000001121b0       0x23 binaries/evec.o
 .rodata.str1.1
                0x00000000001121d3        0xb binaries/getutime.o
 *fill*         0x00000000001121de        0x2 
 .rodata.str1.4
                0x00000000001121e0       0x54 binaries/getutime.o
 .rodata.str1.1
                0x0000000000112234       0x6b binaries/initialize.o
                                         0x6f (size before relaxing)
 *fill*         0x000000000011229f        0x1 
 .rodata.str1.4
                0x00000000001122a0       0xd4 binaries/initialize.o
 .rodata        0x0000000000112374        0x4 binaries/initialize.o
                0x0000000000112374                MAX_INT32
 .rodata.str1.4
                0x0000000000112378       0x45 binaries/insert.o
 *fill*         0x00000000001123bd        0x3 
 .rodata        0x00000000001123c0       0x20 binaries/kill.o
 .rodata.str1.1
                0x00000000001123e0       0x7a binaries/lab2q3.o
 *fill*         0x000000000011245a        0x2 
 .rodata.str1.4
                0x000000000011245c      0x23b binaries/lab2q3.o
 .rodata.str1.1
                0x0000000000112697       0x7a binaries/lab2q4.o
 *fill*         0x0000000000112697        0x1 
 .rodata.str1.4
                0x0000000000112698      0x10b binaries/lab2q4.o
                                        0x19f (size before relaxing)
 .rodata.str1.1
                0x00000000001127a3       0x48 binaries/main.o
 *fill*         0x00000000001127eb        0x1 
 .rodata.str1.4
                0x00000000001127ec       0x23 binaries/meminit.o
 .rodata.str1.1
                0x000000000011280f       0x1b binaries/meminit.o
 *fill*         0x000000000011282a        0x2 
 .rodata.str1.4
                0x000000000011282c      0x103 binaries/myappA.o
 *fill*         0x000000000011292f        0x1 
 .rodata.str1.4
                0x0000000000112930       0x57 binaries/myfuncA.o
 *fill*         0x0000000000112987        0x1 
 .rodata.str1.4
                0x0000000000112988       0x4c binaries/myhacker.o
 .rodata.str1.4
                0x00000000001129d4      0x178 binaries/myvictim.o
 .rodata.str1.4
                0x0000000000112b4c      0x19b binaries/mywelcomemsg.o
 .rodata.str1.1
                0x0000000000112ce7       0x16 binaries/mywelcomemsg.o
 .rodata.str1.1
                0x0000000000112cfd        0xf binaries/panic.o
 .rodata.str1.4
                0x0000000000112d0c       0xe1 binaries/printsegaddr.o
 .rodata.str1.1
                0x0000000000112ded       0x1c binaries/ptinit.o
 *fill*         0x0000000000112e09        0x3 
 .rodata.str1.4
                0x0000000000112e0c       0x25 binaries/ptsend.o
 .rodata.str1.1
                0x0000000000112e31       0x22 binaries/quark_pdat.o
 *fill*         0x0000000000112e53        0x1 
 .rodata.str1.4
                0x0000000000112e54       0x58 binaries/stackdepth.o
 .rodata.str1.1
                0x0000000000112eac       0x1b binaries/stackdepth.o
 *fill*         0x0000000000112ec7        0x1 
 .rodata.str1.4
                0x0000000000112ec8       0x63 binaries/stacktrace.o
 .rodata.str1.1
                0x0000000000112f2b       0x52 binaries/stacktrace.o
 .rodata.str1.1
                0x0000000000112f7d       0x1c binaries/teststackdepth.o
 *fill*         0x0000000000112f99        0x3 
 .rodata.str1.4
                0x0000000000112f9c       0x27 binaries/xdone.o
 *fill*         0x0000000000112fc3       0x1d 
 .rodata        0x0000000000112fe0       0x81 binaries/ctype_.o
                0x0000000000112fe0                _ctype_
 .rodata.str1.1
                0x0000000000113061       0x29 binaries/doprnt.o
 *fill*         0x000000000011308a        0x2 
 .rodata        0x000000000011308c       0xc4 binaries/doprnt.o
 .rodata        0x0000000000113150       0x98 binaries/doscan.o
 .rodata.str1.1
                0x00000000001131e8       0x29 binaries/fdoprnt.o
 .rodata        0x00000000001131e8       0x84 binaries/fdoprnt.o
 .rodata        0x000000000011326c       0x20 binaries/ttycontrol.o
 .rodata.str1.4
                0x000000000011328c       0x4c binaries/naminit.o
 .rodata.str1.1
                0x00000000001132d8       0x32 binaries/naminit.o
                                         0x35 (size before relaxing)
 .rodata.str1.1
                0x000000000011330a       0x15 binaries/ethinit.o
 *fill*         0x000000000011331f        0x1 
 .rodata.str1.4
                0x0000000000113320       0x2e binaries/ethinit.o
 *fill*         0x000000000011334e        0x2 
 .rodata.str1.4
                0x0000000000113350       0x2c binaries/rdsbufalloc.o
 .rodata.str1.4
                0x000000000011337c       0x76 binaries/rdscomm.o
 *fill*         0x00000000001133f2        0x2 
 .rodata.str1.4
                0x00000000001133f4       0x48 binaries/rdscontrol.o
 .rodata.str1.4
                0x000000000011343c       0x7e binaries/rdsinit.o
 .rodata.str1.1
                0x00000000001134ba       0x18 binaries/rdsinit.o
 *fill*         0x00000000001134d2        0x2 
 .rodata.str1.4
                0x00000000001134d4       0x22 binaries/rdsopen.o
 *fill*         0x00000000001134f6        0x2 
 .rodata.str1.4
                0x00000000001134f8       0x4d binaries/rdsprocess.o
 .rodata.str1.1
                0x0000000000113545        0x9 binaries/raminit.o
 .rodata.str1.1
                0x000000000011354e       0x13 binaries/lfdballoc.o
 *fill*         0x0000000000113561        0x3 
 .rodata.str1.4
                0x0000000000113564       0x23 binaries/lfdballoc.o
 .rodata.str1.1
                0x0000000000113587       0x14 binaries/lfiballoc.o
 *fill*         0x000000000011359b        0x1 
 .rodata.str1.4
                0x000000000011359c       0x23 binaries/lflcontrol.o
 .rodata.str1.1
                0x00000000001135bf       0x64 binaries/lfsckfmt.o
 *fill*         0x0000000000113623        0x1 
 .rodata.str1.4
                0x0000000000113624       0x51 binaries/lfsckfmt.o
 *fill*         0x0000000000113675        0x3 
 .rodata.str1.4
                0x0000000000113678       0x21 binaries/rflread.o
 .rodata.str1.4
                0x0000000000113699       0x21 binaries/rflwrite.o
 *fill*         0x0000000000113699        0x3 
 .rodata.str1.4
                0x000000000011369c       0x75 binaries/rfscomm.o
 *fill*         0x0000000000113711        0x3 
 .rodata.str1.4
                0x0000000000113714       0x23 binaries/rfscontrol.o
 *fill*         0x0000000000113737        0x1 
 .rodata        0x0000000000113738       0x18 binaries/rfscontrol.o
 .rodata.str1.1
                0x0000000000113750       0x10 binaries/rfsinit.o
 .rodata.str1.4
                0x0000000000113750       0x57 binaries/rfsinit.o
 *fill*         0x00000000001137a7        0x1 
 .rodata.str1.4
                0x00000000001137a8       0x2a binaries/rfsndmsg.o
 .rodata.str1.4
                0x00000000001137d2       0x22 binaries/rfsopen.o
 .rodata.str1.1
                0x00000000001137d2       0x19 binaries/arp.o
 *fill*         0x00000000001137eb        0x1 
 .rodata.str1.4
                0x00000000001137ec       0x21 binaries/arp.o
 *fill*         0x000000000011380d        0x3 
 .rodata.str1.4
                0x0000000000113810       0xa6 binaries/dhcp.o
 .rodata.str1.1
                0x00000000001138b6       0x4a binaries/dhcp.o
 .rodata.str1.1
                0x0000000000113900       0x5a binaries/hexdump.o
                                         0x61 (size before relaxing)
 *fill*         0x000000000011395a        0x2 
 .rodata.str1.4
                0x000000000011395c       0x67 binaries/hexdump.o
 *fill*         0x00000000001139c3        0x1 
 .rodata.str1.4
                0x00000000001139c4       0x29 binaries/icmp.o
 .rodata.str1.1
                0x00000000001139ed       0x4e binaries/ip.o
 *fill*         0x0000000000113a3b        0x1 
 .rodata.str1.4
                0x0000000000113a3c       0x20 binaries/ip.o
 .rodata.str1.4
                0x0000000000113a5c       0x28 binaries/net.o
 .rodata.str1.1
                0x0000000000113a84       0x27 binaries/net.o
 *fill*         0x0000000000113aab        0x1 
 .rodata.str1.4
                0x0000000000113aac       0xcf binaries/netstart.o
 .rodata.str1.1
                0x0000000000113b7b      0x141 binaries/pdump.o
                                        0x14b (size before relaxing)
 .rodata.str1.4
                0x0000000000113cbc      0x126 binaries/pdump.o
 *fill*         0x0000000000113de2        0x2 
 .rodata.str1.4
                0x0000000000113de4      0x148 binaries/tftp.o
 .rodata.str1.1
                0x0000000000113f2c        0x6 binaries/tftp.o
                                          0xa (size before relaxing)
 .rodata.str1.1
                0x0000000000113f32       0xe3 binaries/shell.o
                                         0xff (size before relaxing)
 *fill*         0x0000000000114015        0x3 
 .rodata.str1.4
                0x0000000000114018      0x1e8 binaries/shell.o
 .rodata        0x0000000000114200       0xfc binaries/shell.o
                0x0000000000114200                cmdtab
 .rodata.str1.1
                0x00000000001142fc       0x26 binaries/xsh_argecho.o
                                         0x28 (size before relaxing)
 .rodata.str1.1
                0x0000000000114322       0x70 binaries/xsh_arp.o
                                         0x72 (size before relaxing)
 *fill*         0x0000000000114392        0x2 
 .rodata.str1.4
                0x0000000000114394       0xb4 binaries/xsh_arp.o
 .rodata.str1.1
                0x0000000000114448       0x2d binaries/xsh_cat.o
                                         0x4f (size before relaxing)
 *fill*         0x0000000000114475        0x3 
 .rodata.str1.4
                0x0000000000114478       0x52 binaries/xsh_cat.o
                                         0x79 (size before relaxing)
 .rodata.str1.1
                0x00000000001144ca       0x15 binaries/xsh_clear.o
 .rodata.str1.1
                0x00000000001144df       0x46 binaries/xsh_date.o
                                         0x5f (size before relaxing)
 *fill*         0x0000000000114525        0x3 
 .rodata.str1.4
                0x0000000000114528      0x163 binaries/xsh_date.o
 .rodata.str1.1
                0x000000000011468b       0x5d binaries/xsh_devdump.o
 .rodata.str1.1
                0x00000000001146e8        0x4 binaries/xsh_echo.o
                                          0x9 (size before relaxing)
 .rodata.str1.1
                0x00000000001146ec       0x65 binaries/xsh_help.o
                                         0xa3 (size before relaxing)
 *fill*         0x0000000000114751        0x3 
 .rodata.str1.4
                0x0000000000114754       0x7c binaries/xsh_help.o
                                         0xc6 (size before relaxing)
 .rodata.str1.1
                0x00000000001147d0       0x9c binaries/xsh_ipaddr.o
                                         0xf8 (size before relaxing)
 .rodata.str1.4
                0x000000000011486c       0x4d binaries/xsh_ipaddr.o
                                         0x99 (size before relaxing)
 .rodata.str1.1
                0x00000000001148b9       0x78 binaries/xsh_kill.o
                                         0x97 (size before relaxing)
 *fill*         0x0000000000114931        0x3 
 .rodata.str1.4
                0x0000000000114934       0x4a binaries/xsh_kill.o
                                         0x96 (size before relaxing)
 .rodata.str1.1
                0x000000000011497e       0x84 binaries/xsh_memdump.o
                                         0xa8 (size before relaxing)
 *fill*         0x0000000000114a02        0x2 
 .rodata.str1.4
                0x0000000000114a04      0x15a binaries/xsh_memdump.o
                                        0x1aa (size before relaxing)
 .rodata.str1.1
                0x0000000000114b5e       0x40 binaries/xsh_memstat.o
                                         0x79 (size before relaxing)
 *fill*         0x0000000000114b9e        0x2 
 .rodata.str1.4
                0x0000000000114ba0      0x187 binaries/xsh_memstat.o
                                        0x1af (size before relaxing)
 .rodata.str1.1
                0x0000000000114d27       0x90 binaries/xsh_ping.o
                                         0xaf (size before relaxing)
 *fill*         0x0000000000114db7        0x1 
 .rodata.str1.4
                0x0000000000114db8       0x77 binaries/xsh_ping.o
                                         0xc6 (size before relaxing)
 .rodata.str1.1
                0x0000000000114e2f       0x6c binaries/xsh_ps.o
                                         0xde (size before relaxing)
 *fill*         0x0000000000114e9b        0x1 
 .rodata.str1.4
                0x0000000000114e9c       0x88 binaries/xsh_ps.o
                                         0xd8 (size before relaxing)
 *fill*         0x0000000000114f24       0x1c 
 .rodata        0x0000000000114f40       0x20 binaries/xsh_ps.o
 .rodata.str1.1
                0x0000000000114f60       0x31 binaries/xsh_sleep.o
                                         0x72 (size before relaxing)
 *fill*         0x0000000000114f91        0x3 
 .rodata.str1.4
                0x0000000000114f94       0x2a binaries/xsh_sleep.o
                                         0x7a (size before relaxing)
 .rodata.str1.1
                0x0000000000114fbe       0x6b binaries/xsh_udpdump.o
                                         0xd2 (size before relaxing)
 *fill*         0x0000000000115029        0x3 
 .rodata.str1.4
                0x000000000011502c       0x94 binaries/xsh_udpdump.o
                                         0xe4 (size before relaxing)
 .rodata.str1.1
                0x00000000001150c0       0xdb binaries/xsh_udpecho.o
                                         0xfa (size before relaxing)
 *fill*         0x000000000011519b        0x1 
 .rodata.str1.4
                0x000000000011519c       0xc7 binaries/xsh_udpecho.o
                                        0x116 (size before relaxing)
 .rodata.str1.1
                0x0000000000115263       0x66 binaries/xsh_udpeserver.o
                                         0x8f (size before relaxing)
 *fill*         0x00000000001152c9        0x3 
 .rodata.str1.4
                0x00000000001152cc       0x29 binaries/xsh_udpeserver.o
                                         0x9f (size before relaxing)
 .rodata.str1.1
                0x00000000001152f5       0x49 binaries/xsh_uptime.o
                                         0x8c (size before relaxing)
 *fill*         0x000000000011533e        0x2 
 .rodata.str1.4
                0x0000000000115340       0x28 binaries/xsh_uptime.o
                                         0x76 (size before relaxing)
                0x0000000000115368                etext = ABSOLUTE (.)
                0x0000000000116000                . = ALIGN (0x1000)
 *fill*         0x0000000000115368      0xc98 

.eh_frame       0x0000000000116000     0x33e4
 .eh_frame      0x0000000000116000       0x3c binaries/app1.o
 .eh_frame      0x000000000011603c       0x28 binaries/app2.o
                                         0x40 (size before relaxing)
 .eh_frame      0x0000000000116064       0x24 binaries/app3.o
                                         0x3c (size before relaxing)
 .eh_frame      0x0000000000116088       0x30 binaries/ascdate.o
                                         0x48 (size before relaxing)
 .eh_frame      0x00000000001160b8       0x20 binaries/bufinit.o
                                         0x38 (size before relaxing)
 .eh_frame      0x00000000001160d8       0x2c binaries/chprio.o
                                         0x44 (size before relaxing)
 .eh_frame      0x0000000000116104       0x20 binaries/clkhandler.o
                                         0x38 (size before relaxing)
 .eh_frame      0x0000000000116124       0x20 binaries/clkinit.o
                                         0x38 (size before relaxing)
 .eh_frame      0x0000000000116144       0x28 binaries/close.o
                                         0x40 (size before relaxing)
 .eh_frame      0x000000000011616c       0x28 binaries/control.o
                                         0x40 (size before relaxing)
 .eh_frame      0x0000000000116194       0x30 binaries/cpubound.o
                                         0x48 (size before relaxing)
 .eh_frame      0x00000000001161c4       0x30 binaries/create.o
                                         0x48 (size before relaxing)
 .eh_frame      0x00000000001161f4       0x94 binaries/early_imr.o
                                         0xac (size before relaxing)
 .eh_frame      0x0000000000116288       0x94 binaries/evec.o
                                         0xac (size before relaxing)
 .eh_frame      0x000000000011631c       0x24 binaries/factorial.o
                                         0x3c (size before relaxing)
 .eh_frame      0x0000000000116340       0x2c binaries/freebuf.o
                                         0x44 (size before relaxing)
 .eh_frame      0x000000000011636c       0x2c binaries/freemem.o
                                         0x44 (size before relaxing)
 .eh_frame      0x0000000000116398       0x2c binaries/getbuf.o
                                         0x44 (size before relaxing)
 .eh_frame      0x00000000001163c4       0x28 binaries/getc.o
                                         0x40 (size before relaxing)
 .eh_frame      0x00000000001163ec       0x2c binaries/getdev.o
                                         0x44 (size before relaxing)
 .eh_frame      0x0000000000116418       0x64 binaries/getitem.o
                                         0x7c (size before relaxing)
 .eh_frame      0x000000000011647c       0x28 binaries/getmem.o
                                         0x40 (size before relaxing)
 .eh_frame      0x00000000001164a4       0x20 binaries/getpid.o
                                         0x38 (size before relaxing)
 .eh_frame      0x00000000001164c4       0x20 binaries/getpname.o
                                         0x38 (size before relaxing)
 .eh_frame      0x00000000001164e4       0x20 binaries/getppid.o
                                         0x38 (size before relaxing)
 .eh_frame      0x0000000000116504       0x24 binaries/getprio.o
                                         0x3c (size before relaxing)
 .eh_frame      0x0000000000116528       0x2c binaries/getstk.o
                                         0x44 (size before relaxing)
 .eh_frame      0x0000000000116554       0x20 binaries/gettime.o
                                         0x38 (size before relaxing)
 .eh_frame      0x0000000000116574       0x24 binaries/getutime.o
                                         0x3c (size before relaxing)
 .eh_frame      0x0000000000116598       0x20 binaries/host2netlb.o
                                         0x38 (size before relaxing)
 .eh_frame      0x00000000001165b8       0x28 binaries/init.o
                                         0x40 (size before relaxing)
 .eh_frame      0x00000000001165e0       0x68 binaries/initialize.o
                                         0x80 (size before relaxing)
 .eh_frame      0x0000000000116648       0x28 binaries/insert.o
                                         0x40 (size before relaxing)
 .eh_frame      0x0000000000116670       0x2c binaries/insertd.o
                                         0x44 (size before relaxing)
 .eh_frame      0x000000000011669c       0x20 binaries/ioerr.o
                                         0x38 (size before relaxing)
 .eh_frame      0x00000000001166bc       0x20 binaries/ionull.o
                                         0x38 (size before relaxing)
 .eh_frame      0x00000000001166dc       0x30 binaries/kill.o
                                         0x48 (size before relaxing)
 .eh_frame      0x000000000011670c       0x80 binaries/kprintf.o
                                         0x98 (size before relaxing)
 .eh_frame      0x000000000011678c      0x108 binaries/lab2q3.o
                                        0x120 (size before relaxing)
 .eh_frame      0x0000000000116894       0x84 binaries/lab2q4.o
                                         0x9c (size before relaxing)
 .eh_frame      0x0000000000116918       0x30 binaries/main.o
                                         0x48 (size before relaxing)
 .eh_frame      0x0000000000116948       0x44 binaries/mark.o
                                         0x5c (size before relaxing)
 .eh_frame      0x000000000011698c       0x50 binaries/meminit.o
                                         0x68 (size before relaxing)
 .eh_frame      0x00000000001169dc       0x30 binaries/mkbufpool.o
                                         0x48 (size before relaxing)
 .eh_frame      0x0000000000116a0c       0x2c binaries/myappA.o
                                         0x44 (size before relaxing)
 .eh_frame      0x0000000000116a38       0x20 binaries/myfuncA.o
                                         0x38 (size before relaxing)
 .eh_frame      0x0000000000116a58       0x64 binaries/myhacker.o
                                         0x7c (size before relaxing)
 .eh_frame      0x0000000000116abc       0x60 binaries/myvictim.o
                                         0x78 (size before relaxing)
 .eh_frame      0x0000000000116b1c       0x20 binaries/mywelcomemsg.o
                                         0x38 (size before relaxing)
 .eh_frame      0x0000000000116b3c       0x20 binaries/newqueue.o
                                         0x38 (size before relaxing)
 .eh_frame      0x0000000000116b5c       0x28 binaries/open.o
                                         0x40 (size before relaxing)
 .eh_frame      0x0000000000116b84       0x1c binaries/panic.o
                                         0x34 (size before relaxing)
 .eh_frame      0x0000000000116ba0      0x12c binaries/pci.o
                                        0x144 (size before relaxing)
 .eh_frame      0x0000000000116ccc       0x20 binaries/platinit.o
                                         0x38 (size before relaxing)
 .eh_frame      0x0000000000116cec       0x20 binaries/printsegaddr.o
                                         0x38 (size before relaxing)
 .eh_frame      0x0000000000116d0c       0x2c binaries/ptclear.o
                                         0x44 (size before relaxing)
 .eh_frame      0x0000000000116d38       0x2c binaries/ptcount.o
                                         0x44 (size before relaxing)
 .eh_frame      0x0000000000116d64       0x2c binaries/ptcreate.o
                                         0x44 (size before relaxing)
 .eh_frame      0x0000000000116d90       0x28 binaries/ptdelete.o
                                         0x40 (size before relaxing)
 .eh_frame      0x0000000000116db8       0x28 binaries/ptinit.o
                                         0x40 (size before relaxing)
 .eh_frame      0x0000000000116de0       0x2c binaries/ptrecv.o
                                         0x44 (size before relaxing)
 .eh_frame      0x0000000000116e0c       0x28 binaries/ptreset.o
                                         0x40 (size before relaxing)
 .eh_frame      0x0000000000116e34       0x30 binaries/ptsend.o
                                         0x48 (size before relaxing)
 .eh_frame      0x0000000000116e64       0x2c binaries/putc.o
                                         0x44 (size before relaxing)
 .eh_frame      0x0000000000116e90       0x24 binaries/quark_irq.o
                                         0x3c (size before relaxing)
 .eh_frame      0x0000000000116eb4       0x54 binaries/quark_pdat.o
                                         0x6c (size before relaxing)
 .eh_frame      0x0000000000116f08       0x40 binaries/queue.o
                                         0x58 (size before relaxing)
 .eh_frame      0x0000000000116f48       0x28 binaries/read.o
                                         0x40 (size before relaxing)
 .eh_frame      0x0000000000116f70       0x20 binaries/ready.o
                                         0x38 (size before relaxing)
 .eh_frame      0x0000000000116f90       0x2c binaries/receive.o
                                         0x44 (size before relaxing)
 .eh_frame      0x0000000000116fbc       0x24 binaries/recvclr.o
                                         0x3c (size before relaxing)
 .eh_frame      0x0000000000116fe0       0x2c binaries/recvtime.o
                                         0x44 (size before relaxing)
 .eh_frame      0x000000000011700c       0x4c binaries/resched.o
                                         0x64 (size before relaxing)
 .eh_frame      0x0000000000117058       0x2c binaries/resume.o
                                         0x44 (size before relaxing)
 .eh_frame      0x0000000000117084       0x28 binaries/seek.o
                                         0x40 (size before relaxing)
 .eh_frame      0x00000000001170ac       0x24 binaries/semcount.o
                                         0x3c (size before relaxing)
 .eh_frame      0x00000000001170d0       0x2c binaries/semcreate.o
                                         0x44 (size before relaxing)
 .eh_frame      0x00000000001170fc       0x2c binaries/semdelete.o
                                         0x44 (size before relaxing)
 .eh_frame      0x0000000000117128       0x2c binaries/semreset.o
                                         0x44 (size before relaxing)
 .eh_frame      0x0000000000117154       0x28 binaries/send.o
                                         0x40 (size before relaxing)
 .eh_frame      0x000000000011717c       0x28 binaries/signal.o
                                         0x40 (size before relaxing)
 .eh_frame      0x00000000001171a4       0x2c binaries/signaln.o
                                         0x44 (size before relaxing)
 .eh_frame      0x00000000001171d0       0x48 binaries/sleep.o
                                         0x60 (size before relaxing)
 .eh_frame      0x0000000000117218       0x2c binaries/stackdepth.o
                                         0x44 (size before relaxing)
 .eh_frame      0x0000000000117244       0x30 binaries/stacktrace.o
                                         0x48 (size before relaxing)
 .eh_frame      0x0000000000117274       0x28 binaries/suspend.o
                                         0x40 (size before relaxing)
 .eh_frame      0x000000000011729c       0x20 binaries/teststackdepth.o
                                         0x38 (size before relaxing)
 .eh_frame      0x00000000001172bc       0x28 binaries/unsleep.o
                                         0x40 (size before relaxing)
 .eh_frame      0x00000000001172e4       0x20 binaries/userret.o
                                         0x38 (size before relaxing)
 .eh_frame      0x0000000000117304       0x28 binaries/wait.o
                                         0x40 (size before relaxing)
 .eh_frame      0x000000000011732c       0x20 binaries/wakeup.o
                                         0x38 (size before relaxing)
 .eh_frame      0x000000000011734c       0x28 binaries/write.o
                                         0x40 (size before relaxing)
 .eh_frame      0x0000000000117374       0x20 binaries/xdone.o
                                         0x38 (size before relaxing)
 .eh_frame      0x0000000000117394       0x24 binaries/yield.o
                                         0x3c (size before relaxing)
 .eh_frame      0x00000000001173b8       0x20 binaries/abs.o
                                         0x38 (size before relaxing)
 .eh_frame      0x00000000001173d8       0x28 binaries/atoi.o
                                         0x40 (size before relaxing)
 .eh_frame      0x0000000000117400       0x28 binaries/atol.o
                                         0x40 (size before relaxing)
 .eh_frame      0x0000000000117428       0x20 binaries/bzero.o
                                         0x38 (size before relaxing)
 .eh_frame      0x0000000000117448       0xac binaries/doprnt.o
                                         0xc4 (size before relaxing)
 .eh_frame      0x00000000001174f4       0x30 binaries/doscan.o
                                         0x48 (size before relaxing)
 .eh_frame      0x0000000000117524       0x5c binaries/fdoprnt.o
                                         0x74 (size before relaxing)
 .eh_frame      0x0000000000117580       0x20 binaries/fgetc.o
                                         0x38 (size before relaxing)
 .eh_frame      0x00000000001175a0       0x2c binaries/fgets.o
                                         0x44 (size before relaxing)
 .eh_frame      0x00000000001175cc       0x20 binaries/fprintf.o
                                         0x38 (size before relaxing)
 .eh_frame      0x00000000001175ec       0x20 binaries/fputc.o
                                         0x38 (size before relaxing)
 .eh_frame      0x000000000011760c       0x28 binaries/fputs.o
                                         0x40 (size before relaxing)
 .eh_frame      0x0000000000117634       0x64 binaries/fscanf.o
                                         0x7c (size before relaxing)
 .eh_frame      0x0000000000117698       0x20 binaries/getchar.o
                                         0x38 (size before relaxing)
 .eh_frame      0x00000000001176b8       0x20 binaries/labs.o
                                         0x38 (size before relaxing)
 .eh_frame      0x00000000001176d8       0x20 binaries/memchr.o
                                         0x38 (size before relaxing)
 .eh_frame      0x00000000001176f8       0x28 binaries/memcmp.o
                                         0x40 (size before relaxing)
 .eh_frame      0x0000000000117720       0x28 binaries/memcpy.o
                                         0x40 (size before relaxing)
 .eh_frame      0x0000000000117748       0x24 binaries/memset.o
                                         0x3c (size before relaxing)
 .eh_frame      0x000000000011776c       0x20 binaries/printf.o
                                         0x38 (size before relaxing)
 .eh_frame      0x000000000011778c       0x20 binaries/putchar.o
                                         0x38 (size before relaxing)
 .eh_frame      0x00000000001177ac       0xa4 binaries/qsort.o
                                         0xbc (size before relaxing)
 .eh_frame      0x0000000000117850       0x40 binaries/rand.o
                                         0x58 (size before relaxing)
 .eh_frame      0x0000000000117890       0x48 binaries/sprintf.o
                                         0x60 (size before relaxing)
 .eh_frame      0x00000000001178d8       0x60 binaries/sscanf.o
                                         0x78 (size before relaxing)
 .eh_frame      0x0000000000117938       0x24 binaries/strchr.o
                                         0x3c (size before relaxing)
 .eh_frame      0x000000000011795c       0x24 binaries/strcmp.o
                                         0x3c (size before relaxing)
 .eh_frame      0x0000000000117980       0x20 binaries/strcpy.o
                                         0x38 (size before relaxing)
 .eh_frame      0x00000000001179a0       0x20 binaries/strlen.o
                                         0x38 (size before relaxing)
 .eh_frame      0x00000000001179c0       0x2c binaries/strncat.o
                                         0x44 (size before relaxing)
 .eh_frame      0x00000000001179ec       0x24 binaries/strncmp.o
                                         0x3c (size before relaxing)
 .eh_frame      0x0000000000117a10       0x2c binaries/strncpy.o
                                         0x44 (size before relaxing)
 .eh_frame      0x0000000000117a3c       0x24 binaries/strnlen.o
                                         0x3c (size before relaxing)
 .eh_frame      0x0000000000117a60       0x24 binaries/strrchr.o
                                         0x3c (size before relaxing)
 .eh_frame      0x0000000000117a84       0x2c binaries/strstr.o
                                         0x44 (size before relaxing)
 .eh_frame      0x0000000000117ab0       0x30 binaries/ttycontrol.o
                                         0x48 (size before relaxing)
 .eh_frame      0x0000000000117ae0       0x2c binaries/ttygetc.o
                                         0x44 (size before relaxing)
 .eh_frame      0x0000000000117b0c       0x84 binaries/ttyhandle_in.o
                                         0x9c (size before relaxing)
 .eh_frame      0x0000000000117b90       0x30 binaries/ttyhandle_out.o
                                         0x48 (size before relaxing)
 .eh_frame      0x0000000000117bc0       0x28 binaries/ttyhandler.o
                                         0x40 (size before relaxing)
 .eh_frame      0x0000000000117be8       0x30 binaries/ttyinit.o
                                         0x48 (size before relaxing)
 .eh_frame      0x0000000000117c18       0x20 binaries/ttykickout.o
                                         0x38 (size before relaxing)
 .eh_frame      0x0000000000117c38       0x2c binaries/ttyputc.o
                                         0x44 (size before relaxing)
 .eh_frame      0x0000000000117c64       0x2c binaries/ttyread.o
                                         0x44 (size before relaxing)
 .eh_frame      0x0000000000117c90       0x2c binaries/ttywrite.o
                                         0x44 (size before relaxing)
 .eh_frame      0x0000000000117cbc       0x4c binaries/mount.o
                                         0x64 (size before relaxing)
 .eh_frame      0x0000000000117d08       0x30 binaries/naminit.o
                                         0x48 (size before relaxing)
 .eh_frame      0x0000000000117d38       0x84 binaries/nammap.o
                                         0x9c (size before relaxing)
 .eh_frame      0x0000000000117dbc       0x20 binaries/namopen.o
                                         0x38 (size before relaxing)
 .eh_frame      0x0000000000117ddc       0x2c binaries/colon2mac.o
                                         0x44 (size before relaxing)
 .eh_frame      0x0000000000117e08       0x20 binaries/ethcontrol.o
                                         0x38 (size before relaxing)
 .eh_frame      0x0000000000117e28       0x30 binaries/ethhandler.o
                                         0x48 (size before relaxing)
 .eh_frame      0x0000000000117e58       0x98 binaries/ethinit.o
                                         0xb0 (size before relaxing)
 .eh_frame      0x0000000000117ef0       0x54 binaries/ethmcast.o
                                         0x6c (size before relaxing)
 .eh_frame      0x0000000000117f44       0x30 binaries/ethread.o
                                         0x48 (size before relaxing)
 .eh_frame      0x0000000000117f74       0x2c binaries/ethwrite.o
                                         0x44 (size before relaxing)
 .eh_frame      0x0000000000117fa0       0x24 binaries/rdsbufalloc.o
                                         0x3c (size before relaxing)
 .eh_frame      0x0000000000117fc4       0x2c binaries/rdsclose.o
                                         0x44 (size before relaxing)
 .eh_frame      0x0000000000117ff0       0x30 binaries/rdscomm.o
                                         0x48 (size before relaxing)
 .eh_frame      0x0000000000118020       0x30 binaries/rdscontrol.o
                                         0x48 (size before relaxing)
 .eh_frame      0x0000000000118050       0x30 binaries/rdsinit.o
                                         0x48 (size before relaxing)
 .eh_frame      0x0000000000118080       0x30 binaries/rdsopen.o
                                         0x48 (size before relaxing)
 .eh_frame      0x00000000001180b0       0x20 binaries/rdsprocess.o
                                         0x38 (size before relaxing)
 .eh_frame      0x00000000001180d0       0x30 binaries/rdsread.o
                                         0x48 (size before relaxing)
 .eh_frame      0x0000000000118100       0x30 binaries/rdswrite.o
                                         0x48 (size before relaxing)
 .eh_frame      0x0000000000118130       0x20 binaries/ramclose.o
                                         0x38 (size before relaxing)
 .eh_frame      0x0000000000118150       0x20 binaries/raminit.o
                                         0x38 (size before relaxing)
 .eh_frame      0x0000000000118170       0x20 binaries/ramopen.o
                                         0x38 (size before relaxing)
 .eh_frame      0x0000000000118190       0x20 binaries/ramread.o
                                         0x38 (size before relaxing)
 .eh_frame      0x00000000001181b0       0x20 binaries/ramwrite.o
                                         0x38 (size before relaxing)
 .eh_frame      0x00000000001181d0       0x28 binaries/lfdballoc.o
                                         0x40 (size before relaxing)
 .eh_frame      0x00000000001181f8       0x24 binaries/lfdbfree.o
                                         0x3c (size before relaxing)
 .eh_frame      0x000000000011821c       0x24 binaries/lfflush.o
                                         0x3c (size before relaxing)
 .eh_frame      0x0000000000118240       0x20 binaries/lfgetmode.o
                                         0x38 (size before relaxing)
 .eh_frame      0x0000000000118260       0x24 binaries/lfiballoc.o
                                         0x3c (size before relaxing)
 .eh_frame      0x0000000000118284       0x20 binaries/lfibclear.o
                                         0x38 (size before relaxing)
 .eh_frame      0x00000000001182a4       0x2c binaries/lfibget.o
                                         0x44 (size before relaxing)
 .eh_frame      0x00000000001182d0       0x2c binaries/lfibput.o
                                         0x44 (size before relaxing)
 .eh_frame      0x00000000001182fc       0x28 binaries/lflclose.o
                                         0x40 (size before relaxing)
 .eh_frame      0x0000000000118324       0x2c binaries/lflcontrol.o
                                         0x44 (size before relaxing)
 .eh_frame      0x0000000000118350       0x2c binaries/lflgetc.o
                                         0x44 (size before relaxing)
 .eh_frame      0x000000000011837c       0x2c binaries/lflinit.o
                                         0x44 (size before relaxing)
 .eh_frame      0x00000000001183a8       0x30 binaries/lflputc.o
                                         0x48 (size before relaxing)
 .eh_frame      0x00000000001183d8       0x2c binaries/lflread.o
                                         0x44 (size before relaxing)
 .eh_frame      0x0000000000118404       0x2c binaries/lflseek.o
                                         0x44 (size before relaxing)
 .eh_frame      0x0000000000118430       0x2c binaries/lflwrite.o
                                         0x44 (size before relaxing)
 .eh_frame      0x000000000011845c       0x30 binaries/lfsckfmt.o
                                         0x48 (size before relaxing)
 .eh_frame      0x000000000011848c       0x30 binaries/lfscreate.o
                                         0x48 (size before relaxing)
 .eh_frame      0x00000000001184bc       0x30 binaries/lfsetup.o
                                         0x48 (size before relaxing)
 .eh_frame      0x00000000001184ec       0x20 binaries/lfsinit.o
                                         0x38 (size before relaxing)
 .eh_frame      0x000000000011850c       0x30 binaries/lfsopen.o
                                         0x48 (size before relaxing)
 .eh_frame      0x000000000011853c       0x30 binaries/lftruncate.o
                                         0x48 (size before relaxing)
 .eh_frame      0x000000000011856c       0x20 binaries/rflclose.o
                                         0x38 (size before relaxing)
 .eh_frame      0x000000000011858c       0x20 binaries/rflgetc.o
                                         0x38 (size before relaxing)
 .eh_frame      0x00000000001185ac       0x24 binaries/rflinit.o
                                         0x3c (size before relaxing)
 .eh_frame      0x00000000001185d0       0x20 binaries/rflputc.o
                                         0x38 (size before relaxing)
 .eh_frame      0x00000000001185f0       0x30 binaries/rflread.o
                                         0x48 (size before relaxing)
 .eh_frame      0x0000000000118620       0x20 binaries/rflseek.o
                                         0x38 (size before relaxing)
 .eh_frame      0x0000000000118640       0x30 binaries/rflwrite.o
                                         0x48 (size before relaxing)
 .eh_frame      0x0000000000118670       0x30 binaries/rfscomm.o
                                         0x48 (size before relaxing)
 .eh_frame      0x00000000001186a0       0x2c binaries/rfscontrol.o
                                         0x44 (size before relaxing)
 .eh_frame      0x00000000001186cc       0x20 binaries/rfsgetmode.o
                                         0x38 (size before relaxing)
 .eh_frame      0x00000000001186ec       0x20 binaries/rfsinit.o
                                         0x38 (size before relaxing)
 .eh_frame      0x000000000011870c       0x20 binaries/rfsndmsg.o
                                         0x38 (size before relaxing)
 .eh_frame      0x000000000011872c       0x2c binaries/rfsopen.o
                                         0x44 (size before relaxing)
 .eh_frame      0x0000000000118758       0xec binaries/arp.o
                                        0x104 (size before relaxing)
 .eh_frame      0x0000000000118844       0xd0 binaries/dhcp.o
                                         0xe8 (size before relaxing)
 .eh_frame      0x0000000000118914       0x2c binaries/dot2ip.o
                                         0x44 (size before relaxing)
 .eh_frame      0x0000000000118940       0x60 binaries/hexdump.o
                                         0x78 (size before relaxing)
 .eh_frame      0x00000000001189a0      0x198 binaries/icmp.o
                                        0x1b0 (size before relaxing)
 .eh_frame      0x0000000000118b38      0x148 binaries/ip.o
                                        0x160 (size before relaxing)
 .eh_frame      0x0000000000118c80       0x7c binaries/net.o
                                         0x94 (size before relaxing)
 .eh_frame      0x0000000000118cfc       0x24 binaries/netstart.o
                                         0x3c (size before relaxing)
 .eh_frame      0x0000000000118d20       0x50 binaries/pdump.o
                                         0x68 (size before relaxing)
 .eh_frame      0x0000000000118d70       0x80 binaries/tftp.o
                                         0x98 (size before relaxing)
 .eh_frame      0x0000000000118df0      0x1b0 binaries/udp.o
                                        0x1c8 (size before relaxing)
 .eh_frame      0x0000000000118fa0       0x30 binaries/addargs.o
                                         0x48 (size before relaxing)
 .eh_frame      0x0000000000118fd0       0x30 binaries/lexan.o
                                         0x48 (size before relaxing)
 .eh_frame      0x0000000000119000       0x30 binaries/shell.o
                                         0x48 (size before relaxing)
 .eh_frame      0x0000000000119030       0x2c binaries/xsh_argecho.o
                                         0x44 (size before relaxing)
 .eh_frame      0x000000000011905c       0x30 binaries/xsh_arp.o
                                         0x48 (size before relaxing)
 .eh_frame      0x000000000011908c       0x30 binaries/xsh_cat.o
                                         0x48 (size before relaxing)
 .eh_frame      0x00000000001190bc       0x20 binaries/xsh_clear.o
                                         0x38 (size before relaxing)
 .eh_frame      0x00000000001190dc       0x24 binaries/xsh_date.o
                                         0x3c (size before relaxing)
 .eh_frame      0x0000000000119100       0x28 binaries/xsh_devdump.o
                                         0x40 (size before relaxing)
 .eh_frame      0x0000000000119128       0x2c binaries/xsh_echo.o
                                         0x44 (size before relaxing)
 .eh_frame      0x0000000000119154       0x20 binaries/xsh_exit.o
                                         0x38 (size before relaxing)
 .eh_frame      0x0000000000119174       0x30 binaries/xsh_help.o
                                         0x48 (size before relaxing)
 .eh_frame      0x00000000001191a4       0x2c binaries/xsh_ipaddr.o
                                         0x44 (size before relaxing)
 .eh_frame      0x00000000001191d0       0x2c binaries/xsh_kill.o
                                         0x44 (size before relaxing)
 .eh_frame      0x00000000001191fc       0x58 binaries/xsh_memdump.o
                                         0x70 (size before relaxing)
 .eh_frame      0x0000000000119254       0x30 binaries/xsh_memstat.o
                                         0x48 (size before relaxing)
 .eh_frame      0x0000000000119284       0x30 binaries/xsh_ping.o
                                         0x48 (size before relaxing)
 .eh_frame      0x00000000001192b4       0x30 binaries/xsh_ps.o
                                         0x48 (size before relaxing)
 .eh_frame      0x00000000001192e4       0x30 binaries/xsh_sleep.o
                                         0x48 (size before relaxing)
 .eh_frame      0x0000000000119314       0x2c binaries/xsh_udpdump.o
                                         0x44 (size before relaxing)
 .eh_frame      0x0000000000119340       0x30 binaries/xsh_udpecho.o
                                         0x48 (size before relaxing)
 .eh_frame      0x0000000000119370       0x30 binaries/xsh_udpeserver.o
                                         0x48 (size before relaxing)
 .eh_frame      0x00000000001193a0       0x30 binaries/xsh_uptime.o
                                         0x48 (size before relaxing)
 .eh_frame      0x00000000001193d0       0x14 binaries/host2netlc.o
                                         0x2c (size before relaxing)

.iplt           0x00000000001193f0        0x0
 .iplt          0x00000000001193f0        0x0 binaries/start.o

.rel.dyn        0x00000000001193e4        0x0
 .rel.iplt      0x00000000001193e4        0x0 binaries/start.o
 .rel.text      0x00000000001193e4        0x0 binaries/start.o
 .rel.data      0x00000000001193e4        0x0 binaries/start.o
 .rel.rodata    0x00000000001193e4        0x0 binaries/start.o

.data           0x0000000000119400     0x1c00
                0x0000000000119400                data = ABSOLUTE (.)
 *(.data .data.*)
 .data          0x0000000000119400      0x85a binaries/start.o
                0x0000000000119400                gdt
                0x0000000000119450                idt
                0x0000000000119c56                cpudelay
 .data          0x0000000000119c5a        0x0 binaries/app1.o
 .data          0x0000000000119c5a        0x0 binaries/app2.o
 .data          0x0000000000119c5a        0x0 binaries/app3.o
 *fill*         0x0000000000119c5a        0x6 
 .data          0x0000000000119c60       0x88 binaries/ascdate.o
                0x0000000000119c60                Date
 .data          0x0000000000119ce8        0x0 binaries/bufinit.o
 .data          0x0000000000119ce8        0x0 binaries/chprio.o
 .data          0x0000000000119ce8        0x4 binaries/clkhandler.o
 .data          0x0000000000119cec        0x0 binaries/clkinit.o
 .data          0x0000000000119cec        0x0 binaries/close.o
 *fill*         0x0000000000119cec       0x14 
 .data          0x0000000000119d00      0x30c binaries/conf.o
                0x0000000000119d00                devtab
 .data          0x000000000011a00c        0x0 binaries/control.o
 .data          0x000000000011a00c        0x0 binaries/cpubound.o
 .data          0x000000000011a00c        0x4 binaries/create.o
 .data          0x000000000011a010        0x0 binaries/early_imr.o
 *fill*         0x000000000011a010       0x10 
 .data          0x000000000011a020       0x40 binaries/evec.o
                0x000000000011a020                inames
 .data          0x000000000011a060        0x0 binaries/factorial.o
 .data          0x000000000011a060        0x0 binaries/freebuf.o
 .data          0x000000000011a060        0x0 binaries/freemem.o
 .data          0x000000000011a060        0x0 binaries/getbuf.o
 .data          0x000000000011a060        0x0 binaries/getc.o
 .data          0x000000000011a060        0x0 binaries/getdev.o
 .data          0x000000000011a060        0x0 binaries/getitem.o
 .data          0x000000000011a060        0x0 binaries/getmem.o
 .data          0x000000000011a060        0x0 binaries/getpid.o
 .data          0x000000000011a060        0x0 binaries/getpname.o
 .data          0x000000000011a060        0x0 binaries/getppid.o
 .data          0x000000000011a060        0x0 binaries/getprio.o
 .data          0x000000000011a060        0x0 binaries/getstk.o
 .data          0x000000000011a060        0x0 binaries/gettime.o
 .data          0x000000000011a060        0x0 binaries/getutime.o
 .data          0x000000000011a060        0x0 binaries/host2netlb.o
 .data          0x000000000011a060        0x0 binaries/init.o
 .data          0x000000000011a060        0x0 binaries/initialize.o
 .data          0x000000000011a060        0x0 binaries/insert.o
 .data          0x000000000011a060        0x0 binaries/insertd.o
 .data          0x000000000011a060        0x0 binaries/ioerr.o
 .data          0x000000000011a060        0x0 binaries/ionull.o
 .data          0x000000000011a060        0x0 binaries/kill.o
 .data          0x000000000011a060        0x0 binaries/kprintf.o
 .data          0x000000000011a060        0x0 binaries/lab2q3.o
 .data          0x000000000011a060        0x0 binaries/lab2q4.o
 .data          0x000000000011a060        0x4 binaries/main.o
                0x000000000011a060                lab2flag
 .data          0x000000000011a064        0x0 binaries/mark.o
 *fill*         0x000000000011a064       0x1c 
 .data          0x000000000011a080       0x48 binaries/meminit.o
                0x000000000011a080                gdt_copy
                0x000000000011a0c0                bootinfo
                0x000000000011a0c4                bootsign
 .data          0x000000000011a0c8        0x0 binaries/mkbufpool.o
 .data          0x000000000011a0c8        0x0 binaries/myappA.o
 .data          0x000000000011a0c8        0x0 binaries/myfuncA.o
 .data          0x000000000011a0c8        0x0 binaries/myhacker.o
 .data          0x000000000011a0c8        0x0 binaries/myvictim.o
 .data          0x000000000011a0c8        0x0 binaries/mywelcomemsg.o
 .data          0x000000000011a0c8        0x2 binaries/newqueue.o
 .data          0x000000000011a0ca        0x0 binaries/open.o
 .data          0x000000000011a0ca        0x0 binaries/panic.o
 .data          0x000000000011a0ca        0x0 binaries/pci.o
 .data          0x000000000011a0ca        0x0 binaries/platinit.o
 .data          0x000000000011a0ca        0x0 binaries/printsegaddr.o
 .data          0x000000000011a0ca        0x0 binaries/ptclear.o
 .data          0x000000000011a0ca        0x0 binaries/ptcount.o
 .data          0x000000000011a0ca        0x0 binaries/ptcreate.o
 .data          0x000000000011a0ca        0x0 binaries/ptdelete.o
 .data          0x000000000011a0ca        0x0 binaries/ptinit.o
 .data          0x000000000011a0ca        0x0 binaries/ptrecv.o
 .data          0x000000000011a0ca        0x0 binaries/ptreset.o
 .data          0x000000000011a0ca        0x0 binaries/ptsend.o
 .data          0x000000000011a0ca        0x0 binaries/putc.o
 .data          0x000000000011a0ca        0x0 binaries/quark_irq.o
 .data          0x000000000011a0ca        0x0 binaries/quark_pdat.o
 .data          0x000000000011a0ca        0x0 binaries/queue.o
 .data          0x000000000011a0ca        0x0 binaries/read.o
 .data          0x000000000011a0ca        0x0 binaries/ready.o
 .data          0x000000000011a0ca        0x0 binaries/receive.o
 .data          0x000000000011a0ca        0x0 binaries/recvclr.o
 .data          0x000000000011a0ca        0x0 binaries/recvtime.o
 .data          0x000000000011a0ca        0x0 binaries/resched.o
 .data          0x000000000011a0ca        0x0 binaries/resume.o
 .data          0x000000000011a0ca        0x0 binaries/seek.o
 .data          0x000000000011a0ca        0x0 binaries/semcount.o
 .data          0x000000000011a0ca        0x0 binaries/semcreate.o
 .data          0x000000000011a0ca        0x0 binaries/semdelete.o
 .data          0x000000000011a0ca        0x0 binaries/semreset.o
 .data          0x000000000011a0ca        0x0 binaries/send.o
 .data          0x000000000011a0ca        0x0 binaries/signal.o
 .data          0x000000000011a0ca        0x0 binaries/signaln.o
 .data          0x000000000011a0ca        0x0 binaries/sleep.o
 .data          0x000000000011a0ca        0x0 binaries/stackdepth.o
 .data          0x000000000011a0ca        0x0 binaries/stacktrace.o
 .data          0x000000000011a0ca        0x0 binaries/suspend.o
 .data          0x000000000011a0ca        0x0 binaries/teststackdepth.o
 .data          0x000000000011a0ca        0x0 binaries/unsleep.o
 .data          0x000000000011a0ca        0x0 binaries/userret.o
 .data          0x000000000011a0ca        0x0 binaries/wait.o
 .data          0x000000000011a0ca        0x0 binaries/wakeup.o
 .data          0x000000000011a0ca        0x0 binaries/write.o
 .data          0x000000000011a0ca        0x0 binaries/xdone.o
 .data          0x000000000011a0ca        0x0 binaries/yield.o
 .data          0x000000000011a0ca        0x0 binaries/abs.o
 .data          0x000000000011a0ca        0x0 binaries/atoi.o
 .data          0x000000000011a0ca        0x0 binaries/atol.o
 .data          0x000000000011a0ca        0x0 binaries/bzero.o
 .data          0x000000000011a0ca        0x0 binaries/ctype_.o
 .data          0x000000000011a0ca        0x0 binaries/doprnt.o
 *fill*         0x000000000011a0ca       0x16 
 .data          0x000000000011a0e0       0x80 binaries/doscan.o
                0x000000000011a0e0                _sctab
 .data          0x000000000011a160        0x0 binaries/fdoprnt.o
 .data          0x000000000011a160        0x0 binaries/fgetc.o
 .data          0x000000000011a160        0x0 binaries/fgets.o
 .data          0x000000000011a160        0x0 binaries/fprintf.o
 .data          0x000000000011a160        0x0 binaries/fputc.o
 .data          0x000000000011a160        0x0 binaries/fputs.o
 .data          0x000000000011a160        0x0 binaries/fscanf.o
 .data          0x000000000011a160        0x0 binaries/getchar.o
 .data          0x000000000011a160        0x0 binaries/labs.o
 .data          0x000000000011a160        0x0 binaries/memchr.o
 .data          0x000000000011a160        0x0 binaries/memcmp.o
 .data          0x000000000011a160        0x0 binaries/memcpy.o
 .data          0x000000000011a160        0x0 binaries/memset.o
 .data          0x000000000011a160        0x0 binaries/printf.o
 .data          0x000000000011a160        0x0 binaries/putchar.o
 .data          0x000000000011a160        0x0 binaries/qsort.o
 .data          0x000000000011a160        0x4 binaries/rand.o
 .data          0x000000000011a164        0x0 binaries/sprintf.o
 .data          0x000000000011a164        0x0 binaries/sscanf.o
 .data          0x000000000011a164        0x0 binaries/strchr.o
 .data          0x000000000011a164        0x0 binaries/strcmp.o
 .data          0x000000000011a164        0x0 binaries/strcpy.o
 .data          0x000000000011a164        0x0 binaries/strlen.o
 .data          0x000000000011a164        0x0 binaries/strncat.o
 .data          0x000000000011a164        0x0 binaries/strncmp.o
 .data          0x000000000011a164        0x0 binaries/strncpy.o
 .data          0x000000000011a164        0x0 binaries/strnlen.o
 .data          0x000000000011a164        0x0 binaries/strrchr.o
 .data          0x000000000011a164        0x0 binaries/strstr.o
 .data          0x000000000011a164        0x0 binaries/ttycontrol.o
 .data          0x000000000011a164        0x0 binaries/ttygetc.o
 .data          0x000000000011a164        0x0 binaries/ttyhandle_in.o
 .data          0x000000000011a164        0x0 binaries/ttyhandle_out.o
 .data          0x000000000011a164        0x0 binaries/ttyhandler.o
 .data          0x000000000011a164        0x0 binaries/ttyinit.o
 .data          0x000000000011a164        0x0 binaries/ttykickout.o
 .data          0x000000000011a164        0x0 binaries/ttyputc.o
 .data          0x000000000011a164        0x0 binaries/ttyread.o
 .data          0x000000000011a164        0x0 binaries/ttywrite.o
 .data          0x000000000011a164        0x0 binaries/mount.o
 .data          0x000000000011a164        0x0 binaries/naminit.o
 .data          0x000000000011a164        0x0 binaries/nammap.o
 .data          0x000000000011a164        0x0 binaries/namopen.o
 .data          0x000000000011a164        0x0 binaries/colon2mac.o
 .data          0x000000000011a164        0x0 binaries/ethcontrol.o
 .data          0x000000000011a164        0x0 binaries/ethhandler.o
 .data          0x000000000011a164        0x0 binaries/ethinit.o
 .data          0x000000000011a164        0x0 binaries/ethmcast.o
 .data          0x000000000011a164        0x0 binaries/ethread.o
 .data          0x000000000011a164        0x0 binaries/ethwrite.o
 .data          0x000000000011a164        0x0 binaries/rdsbufalloc.o
 .data          0x000000000011a164        0x0 binaries/rdsclose.o
 .data          0x000000000011a164        0x0 binaries/rdscomm.o
 .data          0x000000000011a164        0x0 binaries/rdscontrol.o
 .data          0x000000000011a164        0x0 binaries/rdsinit.o
 .data          0x000000000011a164        0x0 binaries/rdsopen.o
 .data          0x000000000011a164        0x0 binaries/rdsprocess.o
 .data          0x000000000011a164        0x0 binaries/rdsread.o
 .data          0x000000000011a164        0x0 binaries/rdswrite.o
 .data          0x000000000011a164        0x0 binaries/ramclose.o
 .data          0x000000000011a164        0x0 binaries/raminit.o
 .data          0x000000000011a164        0x0 binaries/ramopen.o
 .data          0x000000000011a164        0x0 binaries/ramread.o
 .data          0x000000000011a164        0x0 binaries/ramwrite.o
 .data          0x000000000011a164        0x0 binaries/lfdballoc.o
 .data          0x000000000011a164        0x0 binaries/lfdbfree.o
 .data          0x000000000011a164        0x0 binaries/lfflush.o
 .data          0x000000000011a164        0x0 binaries/lfgetmode.o
 .data          0x000000000011a164        0x0 binaries/lfiballoc.o
 .data          0x000000000011a164        0x0 binaries/lfibclear.o
 .data          0x000000000011a164        0x0 binaries/lfibget.o
 .data          0x000000000011a164        0x0 binaries/lfibput.o
 .data          0x000000000011a164        0x0 binaries/lflclose.o
 .data          0x000000000011a164        0x0 binaries/lflcontrol.o
 .data          0x000000000011a164        0x0 binaries/lflgetc.o
 .data          0x000000000011a164        0x0 binaries/lflinit.o
 .data          0x000000000011a164        0x0 binaries/lflputc.o
 .data          0x000000000011a164        0x0 binaries/lflread.o
 .data          0x000000000011a164        0x0 binaries/lflseek.o
 .data          0x000000000011a164        0x0 binaries/lflwrite.o
 .data          0x000000000011a164        0x0 binaries/lfsckfmt.o
 .data          0x000000000011a164        0x0 binaries/lfscreate.o
 .data          0x000000000011a164        0x0 binaries/lfsetup.o
 .data          0x000000000011a164        0x0 binaries/lfsinit.o
 .data          0x000000000011a164        0x0 binaries/lfsopen.o
 .data          0x000000000011a164        0x0 binaries/lftruncate.o
 .data          0x000000000011a164        0x0 binaries/rflclose.o
 .data          0x000000000011a164        0x0 binaries/rflgetc.o
 .data          0x000000000011a164        0x0 binaries/rflinit.o
 .data          0x000000000011a164        0x0 binaries/rflputc.o
 .data          0x000000000011a164        0x0 binaries/rflread.o
 .data          0x000000000011a164        0x0 binaries/rflseek.o
 .data          0x000000000011a164        0x0 binaries/rflwrite.o
 .data          0x000000000011a164        0x0 binaries/rfscomm.o
 .data          0x000000000011a164        0x0 binaries/rfscontrol.o
 .data          0x000000000011a164        0x0 binaries/rfsgetmode.o
 .data          0x000000000011a164        0x0 binaries/rfsinit.o
 .data          0x000000000011a164        0x0 binaries/rfsndmsg.o
 .data          0x000000000011a164        0x0 binaries/rfsopen.o
 .data          0x000000000011a164        0x0 binaries/arp.o
 .data          0x000000000011a164        0x0 binaries/dhcp.o
 .data          0x000000000011a164        0x0 binaries/dot2ip.o
 .data          0x000000000011a164        0x0 binaries/hexdump.o
 .data          0x000000000011a164        0x4 binaries/icmp.o
 .data          0x000000000011a168        0x0 binaries/ip.o
 .data          0x000000000011a168        0x0 binaries/net.o
 .data          0x000000000011a168        0x0 binaries/netstart.o
 .data          0x000000000011a168        0x0 binaries/pdump.o
 .data          0x000000000011a168        0x0 binaries/tftp.o
 .data          0x000000000011a168        0x4 binaries/udp.o
 .data          0x000000000011a16c        0x0 binaries/addargs.o
 .data          0x000000000011a16c        0x0 binaries/lexan.o
 .data          0x000000000011a16c        0x4 binaries/shell.o
                0x000000000011a16c                ncmd
 .data          0x000000000011a170        0x0 binaries/xsh_argecho.o
 .data          0x000000000011a170        0x0 binaries/xsh_arp.o
 .data          0x000000000011a170        0x0 binaries/xsh_cat.o
 .data          0x000000000011a170        0x0 binaries/xsh_clear.o
 .data          0x000000000011a170        0x0 binaries/xsh_date.o
 .data          0x000000000011a170        0x0 binaries/xsh_devdump.o
 .data          0x000000000011a170        0x0 binaries/xsh_echo.o
 .data          0x000000000011a170        0x0 binaries/xsh_exit.o
 .data          0x000000000011a170        0x0 binaries/xsh_help.o
 .data          0x000000000011a170        0x0 binaries/xsh_ipaddr.o
 .data          0x000000000011a170        0x0 binaries/xsh_kill.o
 .data          0x000000000011a170        0x0 binaries/xsh_memdump.o
 .data          0x000000000011a170        0x0 binaries/xsh_memstat.o
 .data          0x000000000011a170        0x0 binaries/xsh_ping.o
 .data          0x000000000011a170        0x0 binaries/xsh_ps.o
 .data          0x000000000011a170        0x0 binaries/xsh_sleep.o
 .data          0x000000000011a170        0x0 binaries/xsh_udpdump.o
 .data          0x000000000011a170        0x0 binaries/xsh_udpecho.o
 .data          0x000000000011a170        0x0 binaries/xsh_udpeserver.o
 .data          0x000000000011a170        0x0 binaries/xsh_uptime.o
 .data          0x000000000011a170        0x0 binaries/clkdisp.o
 .data          0x000000000011a170        0x0 binaries/ctxsw.o
 .data          0x000000000011a170        0x0 binaries/host2netla.o
 .data          0x000000000011a170        0x0 binaries/host2netlc.o
 .data          0x000000000011a170        0x0 binaries/intr.o
 .data          0x000000000011a170        0x0 binaries/ttydispatch.o
 .data          0x000000000011a170        0x0 binaries/ethdispatch.o
                0x000000000011a170                edata = ABSOLUTE (.)
                0x000000000011b000                . = ALIGN (0x1000)
 *fill*         0x000000000011a170      0xe90 

.igot.plt       0x000000000011b000        0x0
 .igot.plt      0x000000000011b000        0x0 binaries/start.o

.bss            0x000000000011b000    0x20000
                0x000000000011b000                bss = ABSOLUTE (.)
 *(.bss .bss.*)
 .bss           0x000000000011b000        0x0 binaries/start.o
 .bss           0x000000000011b000        0x0 binaries/app1.o
 .bss           0x000000000011b000        0x0 binaries/app2.o
 .bss           0x000000000011b000        0x0 binaries/app3.o
 .bss           0x000000000011b000        0x0 binaries/ascdate.o
 .bss           0x000000000011b000        0x0 binaries/bufinit.o
 .bss           0x000000000011b000        0x0 binaries/chprio.o
 .bss           0x000000000011b000        0x0 binaries/clkhandler.o
 .bss           0x000000000011b000        0x4 binaries/clkinit.o
                0x000000000011b000                ctr1000
 .bss           0x000000000011b004        0x0 binaries/close.o
 .bss           0x000000000011b004        0x0 binaries/conf.o
 .bss           0x000000000011b004        0x0 binaries/control.o
 .bss           0x000000000011b004        0x0 binaries/cpubound.o
 .bss           0x000000000011b004        0x0 binaries/create.o
 .bss           0x000000000011b004        0x0 binaries/early_imr.o
 .bss           0x000000000011b004        0x0 binaries/evec.o
 .bss           0x000000000011b004        0x0 binaries/factorial.o
 .bss           0x000000000011b004        0x0 binaries/freebuf.o
 .bss           0x000000000011b004        0x0 binaries/freemem.o
 .bss           0x000000000011b004        0x0 binaries/getbuf.o
 .bss           0x000000000011b004        0x0 binaries/getc.o
 .bss           0x000000000011b004        0x0 binaries/getdev.o
 .bss           0x000000000011b004        0x0 binaries/getitem.o
 .bss           0x000000000011b004        0x0 binaries/getmem.o
 .bss           0x000000000011b004        0x0 binaries/getpid.o
 .bss           0x000000000011b004        0x0 binaries/getpname.o
 .bss           0x000000000011b004        0x0 binaries/getppid.o
 .bss           0x000000000011b004        0x0 binaries/getprio.o
 .bss           0x000000000011b004        0x0 binaries/getstk.o
 .bss           0x000000000011b004        0x0 binaries/gettime.o
 .bss           0x000000000011b004        0x0 binaries/getutime.o
 .bss           0x000000000011b004        0x0 binaries/host2netlb.o
 .bss           0x000000000011b004        0x0 binaries/init.o
 .bss           0x000000000011b004        0x0 binaries/initialize.o
 .bss           0x000000000011b004        0x0 binaries/insert.o
 .bss           0x000000000011b004        0x0 binaries/insertd.o
 .bss           0x000000000011b004        0x0 binaries/ioerr.o
 .bss           0x000000000011b004        0x0 binaries/ionull.o
 .bss           0x000000000011b004        0x0 binaries/kill.o
 .bss           0x000000000011b004        0x0 binaries/kprintf.o
 .bss           0x000000000011b004        0x0 binaries/lab2q3.o
 .bss           0x000000000011b004        0x0 binaries/lab2q4.o
 .bss           0x000000000011b004        0x0 binaries/main.o
 .bss           0x000000000011b004        0x0 binaries/mark.o
 .bss           0x000000000011b004        0x0 binaries/meminit.o
 .bss           0x000000000011b004        0x0 binaries/mkbufpool.o
 .bss           0x000000000011b004        0x0 binaries/myappA.o
 .bss           0x000000000011b004        0x0 binaries/myfuncA.o
 .bss           0x000000000011b004        0x0 binaries/myhacker.o
 .bss           0x000000000011b004        0x0 binaries/myvictim.o
 .bss           0x000000000011b004        0x0 binaries/mywelcomemsg.o
 .bss           0x000000000011b004        0x0 binaries/newqueue.o
 .bss           0x000000000011b004        0x0 binaries/open.o
 .bss           0x000000000011b004        0x0 binaries/panic.o
 .bss           0x000000000011b004        0x0 binaries/pci.o
 .bss           0x000000000011b004        0x0 binaries/platinit.o
 .bss           0x000000000011b004        0x0 binaries/printsegaddr.o
 .bss           0x000000000011b004        0x0 binaries/ptclear.o
 .bss           0x000000000011b004        0x0 binaries/ptcount.o
 .bss           0x000000000011b004        0x0 binaries/ptcreate.o
 .bss           0x000000000011b004        0x0 binaries/ptdelete.o
 .bss           0x000000000011b004        0x0 binaries/ptinit.o
 .bss           0x000000000011b004        0x0 binaries/ptrecv.o
 .bss           0x000000000011b004        0x0 binaries/ptreset.o
 .bss           0x000000000011b004        0x0 binaries/ptsend.o
 .bss           0x000000000011b004        0x0 binaries/putc.o
 .bss           0x000000000011b004        0x0 binaries/quark_irq.o
 .bss           0x000000000011b004        0x0 binaries/quark_pdat.o
 .bss           0x000000000011b004        0x0 binaries/queue.o
 .bss           0x000000000011b004        0x0 binaries/read.o
 .bss           0x000000000011b004        0x0 binaries/ready.o
 .bss           0x000000000011b004        0x0 binaries/receive.o
 .bss           0x000000000011b004        0x0 binaries/recvclr.o
 .bss           0x000000000011b004        0x0 binaries/recvtime.o
 .bss           0x000000000011b004        0x0 binaries/resched.o
 .bss           0x000000000011b004        0x0 binaries/resume.o
 .bss           0x000000000011b004        0x0 binaries/seek.o
 .bss           0x000000000011b004        0x0 binaries/semcount.o
 .bss           0x000000000011b004        0x4 binaries/semcreate.o
 .bss           0x000000000011b008        0x0 binaries/semdelete.o
 .bss           0x000000000011b008        0x0 binaries/semreset.o
 .bss           0x000000000011b008        0x0 binaries/send.o
 .bss           0x000000000011b008        0x0 binaries/signal.o
 .bss           0x000000000011b008        0x0 binaries/signaln.o
 .bss           0x000000000011b008        0x0 binaries/sleep.o
 .bss           0x000000000011b008        0x0 binaries/stackdepth.o
 .bss           0x000000000011b008        0x8 binaries/stacktrace.o
 .bss           0x000000000011b010        0x0 binaries/suspend.o
 .bss           0x000000000011b010        0x0 binaries/teststackdepth.o
 .bss           0x000000000011b010        0x0 binaries/unsleep.o
 .bss           0x000000000011b010        0x0 binaries/userret.o
 .bss           0x000000000011b010        0x0 binaries/wait.o
 .bss           0x000000000011b010        0x0 binaries/wakeup.o
 .bss           0x000000000011b010        0x0 binaries/write.o
 .bss           0x000000000011b010        0x0 binaries/xdone.o
 .bss           0x000000000011b010        0x0 binaries/yield.o
 .bss           0x000000000011b010        0x0 binaries/abs.o
 .bss           0x000000000011b010        0x0 binaries/atoi.o
 .bss           0x000000000011b010        0x0 binaries/atol.o
 .bss           0x000000000011b010        0x0 binaries/bzero.o
 .bss           0x000000000011b010        0x0 binaries/ctype_.o
 .bss           0x000000000011b010        0x0 binaries/doprnt.o
 .bss           0x000000000011b010        0x0 binaries/doscan.o
 .bss           0x000000000011b010        0x0 binaries/fdoprnt.o
 .bss           0x000000000011b010        0x0 binaries/fgetc.o
 .bss           0x000000000011b010        0x0 binaries/fgets.o
 .bss           0x000000000011b010        0x0 binaries/fprintf.o
 .bss           0x000000000011b010        0x0 binaries/fputc.o
 .bss           0x000000000011b010        0x0 binaries/fputs.o
 .bss           0x000000000011b010        0x0 binaries/fscanf.o
 .bss           0x000000000011b010        0x0 binaries/getchar.o
 .bss           0x000000000011b010        0x0 binaries/labs.o
 .bss           0x000000000011b010        0x0 binaries/memchr.o
 .bss           0x000000000011b010        0x0 binaries/memcmp.o
 .bss           0x000000000011b010        0x0 binaries/memcpy.o
 .bss           0x000000000011b010        0x0 binaries/memset.o
 .bss           0x000000000011b010        0x0 binaries/printf.o
 .bss           0x000000000011b010        0x0 binaries/putchar.o
 .bss           0x000000000011b010        0x8 binaries/qsort.o
 .bss           0x000000000011b018        0x0 binaries/rand.o
 .bss           0x000000000011b018        0x0 binaries/sprintf.o
 .bss           0x000000000011b018        0x0 binaries/sscanf.o
 .bss           0x000000000011b018        0x0 binaries/strchr.o
 .bss           0x000000000011b018        0x0 binaries/strcmp.o
 .bss           0x000000000011b018        0x0 binaries/strcpy.o
 .bss           0x000000000011b018        0x0 binaries/strlen.o
 .bss           0x000000000011b018        0x0 binaries/strncat.o
 .bss           0x000000000011b018        0x0 binaries/strncmp.o
 .bss           0x000000000011b018        0x0 binaries/strncpy.o
 .bss           0x000000000011b018        0x0 binaries/strnlen.o
 .bss           0x000000000011b018        0x0 binaries/strrchr.o
 .bss           0x000000000011b018        0x0 binaries/strstr.o
 .bss           0x000000000011b018        0x0 binaries/ttycontrol.o
 .bss           0x000000000011b018        0x0 binaries/ttygetc.o
 .bss           0x000000000011b018        0x0 binaries/ttyhandle_in.o
 .bss           0x000000000011b018        0x0 binaries/ttyhandle_out.o
 .bss           0x000000000011b018        0x0 binaries/ttyhandler.o
 .bss           0x000000000011b018        0x0 binaries/ttyinit.o
 .bss           0x000000000011b018        0x0 binaries/ttykickout.o
 .bss           0x000000000011b018        0x0 binaries/ttyputc.o
 .bss           0x000000000011b018        0x0 binaries/ttyread.o
 .bss           0x000000000011b018        0x0 binaries/ttywrite.o
 .bss           0x000000000011b018        0x0 binaries/mount.o
 .bss           0x000000000011b018        0x0 binaries/naminit.o
 .bss           0x000000000011b018        0x0 binaries/nammap.o
 .bss           0x000000000011b018        0x0 binaries/namopen.o
 .bss           0x000000000011b018        0x0 binaries/colon2mac.o
 .bss           0x000000000011b018        0x0 binaries/ethcontrol.o
 .bss           0x000000000011b018        0x0 binaries/ethhandler.o
 .bss           0x000000000011b018        0x0 binaries/ethinit.o
 .bss           0x000000000011b018        0x0 binaries/ethmcast.o
 .bss           0x000000000011b018        0x0 binaries/ethread.o
 .bss           0x000000000011b018        0x0 binaries/ethwrite.o
 .bss           0x000000000011b018        0x0 binaries/rdsbufalloc.o
 .bss           0x000000000011b018        0x0 binaries/rdsclose.o
 .bss           0x000000000011b018        0x0 binaries/rdscomm.o
 .bss           0x000000000011b018        0x0 binaries/rdscontrol.o
 .bss           0x000000000011b018        0x0 binaries/rdsinit.o
 .bss           0x000000000011b018        0x0 binaries/rdsopen.o
 .bss           0x000000000011b018        0x0 binaries/rdsprocess.o
 .bss           0x000000000011b018        0x0 binaries/rdsread.o
 .bss           0x000000000011b018        0x0 binaries/rdswrite.o
 .bss           0x000000000011b018        0x0 binaries/ramclose.o
 .bss           0x000000000011b018        0x0 binaries/raminit.o
 .bss           0x000000000011b018        0x0 binaries/ramopen.o
 .bss           0x000000000011b018        0x0 binaries/ramread.o
 .bss           0x000000000011b018        0x0 binaries/ramwrite.o
 .bss           0x000000000011b018        0x0 binaries/lfdballoc.o
 .bss           0x000000000011b018        0x0 binaries/lfdbfree.o
 .bss           0x000000000011b018        0x0 binaries/lfflush.o
 .bss           0x000000000011b018        0x0 binaries/lfgetmode.o
 .bss           0x000000000011b018        0x0 binaries/lfiballoc.o
 .bss           0x000000000011b018        0x0 binaries/lfibclear.o
 .bss           0x000000000011b018        0x0 binaries/lfibget.o
 .bss           0x000000000011b018        0x0 binaries/lfibput.o
 .bss           0x000000000011b018        0x0 binaries/lflclose.o
 .bss           0x000000000011b018        0x0 binaries/lflcontrol.o
 .bss           0x000000000011b018        0x0 binaries/lflgetc.o
 .bss           0x000000000011b018        0x0 binaries/lflinit.o
 .bss           0x000000000011b018        0x0 binaries/lflputc.o
 .bss           0x000000000011b018        0x0 binaries/lflread.o
 .bss           0x000000000011b018        0x0 binaries/lflseek.o
 .bss           0x000000000011b018        0x0 binaries/lflwrite.o
 .bss           0x000000000011b018        0x0 binaries/lfsckfmt.o
 .bss           0x000000000011b018        0x0 binaries/lfscreate.o
 .bss           0x000000000011b018        0x0 binaries/lfsetup.o
 .bss           0x000000000011b018        0x0 binaries/lfsinit.o
 .bss           0x000000000011b018        0x0 binaries/lfsopen.o
 .bss           0x000000000011b018        0x0 binaries/lftruncate.o
 .bss           0x000000000011b018        0x0 binaries/rflclose.o
 .bss           0x000000000011b018        0x0 binaries/rflgetc.o
 .bss           0x000000000011b018        0x0 binaries/rflinit.o
 .bss           0x000000000011b018        0x0 binaries/rflputc.o
 .bss           0x000000000011b018        0x0 binaries/rflread.o
 .bss           0x000000000011b018        0x0 binaries/rflseek.o
 .bss           0x000000000011b018        0x0 binaries/rflwrite.o
 .bss           0x000000000011b018        0x0 binaries/rfscomm.o
 .bss           0x000000000011b018        0x0 binaries/rfscontrol.o
 .bss           0x000000000011b018        0x0 binaries/rfsgetmode.o
 .bss           0x000000000011b018        0x0 binaries/rfsinit.o
 .bss           0x000000000011b018        0x0 binaries/rfsndmsg.o
 .bss           0x000000000011b018        0x0 binaries/rfsopen.o
 .bss           0x000000000011b018        0x0 binaries/arp.o
 .bss           0x000000000011b018        0x0 binaries/dhcp.o
 .bss           0x000000000011b018        0x0 binaries/dot2ip.o
 .bss           0x000000000011b018        0x0 binaries/hexdump.o
 .bss           0x000000000011b018        0x0 binaries/icmp.o
 .bss           0x000000000011b018        0x0 binaries/ip.o
 .bss           0x000000000011b018        0x0 binaries/net.o
 .bss           0x000000000011b018        0x0 binaries/netstart.o
 .bss           0x000000000011b018        0x0 binaries/pdump.o
 .bss           0x000000000011b018        0x0 binaries/tftp.o
 .bss           0x000000000011b018        0x0 binaries/udp.o
 .bss           0x000000000011b018        0x0 binaries/addargs.o
 .bss           0x000000000011b018        0x0 binaries/lexan.o
 .bss           0x000000000011b018        0x0 binaries/shell.o
 .bss           0x000000000011b018        0x0 binaries/xsh_argecho.o
 .bss           0x000000000011b018        0x0 binaries/xsh_arp.o
 .bss           0x000000000011b018        0x0 binaries/xsh_cat.o
 .bss           0x000000000011b018        0x0 binaries/xsh_clear.o
 .bss           0x000000000011b018        0x0 binaries/xsh_date.o
 .bss           0x000000000011b018        0x0 binaries/xsh_devdump.o
 .bss           0x000000000011b018        0x0 binaries/xsh_echo.o
 .bss           0x000000000011b018        0x0 binaries/xsh_exit.o
 .bss           0x000000000011b018        0x0 binaries/xsh_help.o
 .bss           0x000000000011b018        0x0 binaries/xsh_ipaddr.o
 .bss           0x000000000011b018        0x0 binaries/xsh_kill.o
 .bss           0x000000000011b018        0x0 binaries/xsh_memdump.o
 .bss           0x000000000011b018        0x0 binaries/xsh_memstat.o
 .bss           0x000000000011b018        0x4 binaries/xsh_ping.o
 .bss           0x000000000011b01c        0x0 binaries/xsh_ps.o
 .bss           0x000000000011b01c        0x0 binaries/xsh_sleep.o
 .bss           0x000000000011b01c        0x0 binaries/xsh_udpdump.o
 .bss           0x000000000011b01c        0x0 binaries/xsh_udpecho.o
 .bss           0x000000000011b01c        0x0 binaries/xsh_udpeserver.o
 .bss           0x000000000011b01c        0x0 binaries/xsh_uptime.o
 .bss           0x000000000011b01c        0x0 binaries/clkdisp.o
 .bss           0x000000000011b01c        0x0 binaries/ctxsw.o
 .bss           0x000000000011b01c        0x0 binaries/host2netla.o
 .bss           0x000000000011b01c        0x0 binaries/host2netlc.o
 .bss           0x000000000011b01c        0x0 binaries/intr.o
 .bss           0x000000000011b01c        0x0 binaries/ttydispatch.o
 .bss           0x000000000011b01c        0x0 binaries/ethdispatch.o
 *(COMMON)
 *fill*         0x000000000011b01c        0x4 
 COMMON         0x000000000011b020       0xf4 binaries/bufinit.o
                0x000000000011b020                buftab
                0x000000000011b110                nbpools
 COMMON         0x000000000011b114       0x10 binaries/clkinit.o
                0x000000000011b114                sleepq
                0x000000000011b118                preempt
                0x000000000011b11c                clktimemsec
                0x000000000011b120                clktime
 COMMON         0x000000000011b124        0x2 binaries/evec.o
                0x000000000011b124                girmask
 *fill*         0x000000000011b126       0x1a 
 COMMON         0x000000000011b140     0x1df8 binaries/initialize.o
                0x000000000011b140                currpid
                0x000000000011b160                proctab
                0x000000000011ca60                prcount
                0x000000000011ca80                semtab
                0x000000000011cf30                memlist
 *fill*         0x000000000011cf38        0x8 
 COMMON         0x000000000011cf40       0x58 binaries/mark.o
                0x000000000011cf40                marks
                0x000000000011cf90                nmarks
                0x000000000011cf94                mkmutex
 COMMON         0x000000000011cf98        0x8 binaries/meminit.o
                0x000000000011cf98                minheap
                0x000000000011cf9c                maxheap
 COMMON         0x000000000011cfa0        0x8 binaries/myhacker.o
                0x000000000011cfa0                victimglobal
                0x000000000011cfa4                victimsRetAddress
 *fill*         0x000000000011cfa8       0x18 
 COMMON         0x000000000011cfc0      0x2d8 binaries/ptinit.o
                0x000000000011cfc0                porttab
                0x000000000011d290                ptnextid
                0x000000000011d294                ptfree
 *fill*         0x000000000011d298        0x8 
 COMMON         0x000000000011d2a0      0x980 binaries/queue.o
                0x000000000011d2a0                queuetab
 COMMON         0x000000000011dc20        0x2 binaries/ready.o
                0x000000000011dc20                readylist
 *fill*         0x000000000011dc22        0x2 
 COMMON         0x000000000011dc24        0x8 binaries/resched.o
                0x000000000011dc24                Defer
 *fill*         0x000000000011dc2c       0x14 
 COMMON         0x000000000011dc40      0x10c binaries/ttyinit.o
                0x000000000011dc40                ttytab
 *fill*         0x000000000011dd4c       0x14 
 COMMON         0x000000000011dd60     0x19c0 binaries/naminit.o
                0x000000000011dd60                nnames
                0x000000000011dd80                nametab
 COMMON         0x000000000011f720      0x138 binaries/ethinit.o
                0x000000000011f720                ethertab
 *fill*         0x000000000011f858        0x8 
 COMMON         0x000000000011f860       0x8c binaries/rdsinit.o
                0x000000000011f860                rdstab
 *fill*         0x000000000011f8ec       0x14 
 COMMON         0x000000000011f900    0x19000 binaries/raminit.o
                0x000000000011f900                Ram
 COMMON         0x0000000000138900      0xf00 binaries/lflinit.o
                0x0000000000138900                lfltab
 COMMON         0x0000000000139800      0x20c binaries/lfsinit.o
                0x0000000000139800                Lf_data
 *fill*         0x0000000000139a0c       0x14 
 COMMON         0x0000000000139a20      0x5a0 binaries/rflinit.o
                0x0000000000139a20                rfltab
 COMMON         0x0000000000139fc0       0x18 binaries/rfsinit.o
                0x0000000000139fc0                Rf_data
 *fill*         0x0000000000139fd8        0x8 
 COMMON         0x0000000000139fe0      0x140 binaries/arp.o
                0x0000000000139fe0                arpcache
 COMMON         0x000000000013a120      0x230 binaries/icmp.o
                0x000000000013a120                icmptab
 *fill*         0x000000000013a350       0x10 
 COMMON         0x000000000013a360       0x2c binaries/ip.o
                0x000000000013a360                ipoqueue
 *fill*         0x000000000013a38c       0x14 
 COMMON         0x000000000013a3a0       0xc8 binaries/net.o
                0x000000000013a3a0                netbufpool
                0x000000000013a3c0                NetData
 *fill*         0x000000000013a468       0x18 
 COMMON         0x000000000013a480      0x168 binaries/udp.o
                0x000000000013a480                udptab
                0x000000000013a5e8                ebss = ABSOLUTE (.)
                0x000000000013b000                . = ALIGN (0x1000)
 *fill*         0x000000000013a5e8      0xa18 
 */()
                0x000000000013b000                end = ABSOLUTE (.)
                0x000000000013b000                _end = ABSOLUTE (.)
                0x000000000013b000                . = ALIGN (0x1000)
LOAD binaries/start.o
LOAD binaries/app1.o
LOAD binaries/app2.o
LOAD binaries/app3.o
LOAD binaries/ascdate.o
LOAD binaries/bufinit.o
LOAD binaries/chprio.o
LOAD binaries/clkhandler.o
LOAD binaries/clkinit.o
LOAD binaries/close.o
LOAD binaries/conf.o
LOAD binaries/control.o
LOAD binaries/cpubound.o
LOAD binaries/create.o
LOAD binaries/early_imr.o
LOAD binaries/evec.o
LOAD binaries/factorial.o
LOAD binaries/freebuf.o
LOAD binaries/freemem.o
LOAD binaries/getbuf.o
LOAD binaries/getc.o
LOAD binaries/getdev.o
LOAD binaries/getitem.o
LOAD binaries/getmem.o
LOAD binaries/getpid.o
LOAD binaries/getpname.o
LOAD binaries/getppid.o
LOAD binaries/getprio.o
LOAD binaries/getstk.o
LOAD binaries/gettime.o
LOAD binaries/getutime.o
LOAD binaries/host2netlb.o
LOAD binaries/init.o
LOAD binaries/initialize.o
LOAD binaries/insert.o
LOAD binaries/insertd.o
LOAD binaries/ioerr.o
LOAD binaries/ionull.o
LOAD binaries/kill.o
LOAD binaries/kprintf.o
LOAD binaries/lab2q3.o
LOAD binaries/lab2q4.o
LOAD binaries/main.o
LOAD binaries/mark.o
LOAD binaries/meminit.o
LOAD binaries/mkbufpool.o
LOAD binaries/myappA.o
LOAD binaries/myfuncA.o
LOAD binaries/myhacker.o
LOAD binaries/myvictim.o
LOAD binaries/mywelcomemsg.o
LOAD binaries/newqueue.o
LOAD binaries/open.o
LOAD binaries/panic.o
LOAD binaries/pci.o
LOAD binaries/platinit.o
LOAD binaries/printsegaddr.o
LOAD binaries/ptclear.o
LOAD binaries/ptcount.o
LOAD binaries/ptcreate.o
LOAD binaries/ptdelete.o
LOAD binaries/ptinit.o
LOAD binaries/ptrecv.o
LOAD binaries/ptreset.o
LOAD binaries/ptsend.o
LOAD binaries/putc.o
LOAD binaries/quark_irq.o
LOAD binaries/quark_pdat.o
LOAD binaries/queue.o
LOAD binaries/read.o
LOAD binaries/ready.o
LOAD binaries/receive.o
LOAD binaries/recvclr.o
LOAD binaries/recvtime.o
LOAD binaries/resched.o
LOAD binaries/resume.o
LOAD binaries/seek.o
LOAD binaries/semcount.o
LOAD binaries/semcreate.o
LOAD binaries/semdelete.o
LOAD binaries/semreset.o
LOAD binaries/send.o
LOAD binaries/signal.o
LOAD binaries/signaln.o
LOAD binaries/sleep.o
LOAD binaries/stackdepth.o
LOAD binaries/stacktrace.o
LOAD binaries/suspend.o
LOAD binaries/teststackdepth.o
LOAD binaries/unsleep.o
LOAD binaries/userret.o
LOAD binaries/wait.o
LOAD binaries/wakeup.o
LOAD binaries/write.o
LOAD binaries/xdone.o
LOAD binaries/yield.o
LOAD binaries/abs.o
LOAD binaries/atoi.o
LOAD binaries/atol.o
LOAD binaries/bzero.o
LOAD binaries/ctype_.o
LOAD binaries/doprnt.o
LOAD binaries/doscan.o
LOAD binaries/fdoprnt.o
LOAD binaries/fgetc.o
LOAD binaries/fgets.o
LOAD binaries/fprintf.o
LOAD binaries/fputc.o
LOAD binaries/fputs.o
LOAD binaries/fscanf.o
LOAD binaries/getchar.o
LOAD binaries/labs.o
LOAD binaries/memchr.o
LOAD binaries/memcmp.o
LOAD binaries/memcpy.o
LOAD binaries/memset.o
LOAD binaries/printf.o
LOAD binaries/putchar.o
LOAD binaries/qsort.o
LOAD binaries/rand.o
LOAD binaries/sprintf.o
LOAD binaries/sscanf.o
LOAD binaries/strchr.o
LOAD binaries/strcmp.o
LOAD binaries/strcpy.o
LOAD binaries/strlen.o
LOAD binaries/strncat.o
LOAD binaries/strncmp.o
LOAD binaries/strncpy.o
LOAD binaries/strnlen.o
LOAD binaries/strrchr.o
LOAD binaries/strstr.o
LOAD binaries/ttycontrol.o
LOAD binaries/ttygetc.o
LOAD binaries/ttyhandle_in.o
LOAD binaries/ttyhandle_out.o
LOAD binaries/ttyhandler.o
LOAD binaries/ttyinit.o
LOAD binaries/ttykickout.o
LOAD binaries/ttyputc.o
LOAD binaries/ttyread.o
LOAD binaries/ttywrite.o
LOAD binaries/mount.o
LOAD binaries/naminit.o
LOAD binaries/nammap.o
LOAD binaries/namopen.o
LOAD binaries/colon2mac.o
LOAD binaries/ethcontrol.o
LOAD binaries/ethhandler.o
LOAD binaries/ethinit.o
LOAD binaries/ethmcast.o
LOAD binaries/ethread.o
LOAD binaries/ethwrite.o
LOAD binaries/rdsbufalloc.o
LOAD binaries/rdsclose.o
LOAD binaries/rdscomm.o
LOAD binaries/rdscontrol.o
LOAD binaries/rdsinit.o
LOAD binaries/rdsopen.o
LOAD binaries/rdsprocess.o
LOAD binaries/rdsread.o
LOAD binaries/rdswrite.o
LOAD binaries/ramclose.o
LOAD binaries/raminit.o
LOAD binaries/ramopen.o
LOAD binaries/ramread.o
LOAD binaries/ramwrite.o
LOAD binaries/lfdballoc.o
LOAD binaries/lfdbfree.o
LOAD binaries/lfflush.o
LOAD binaries/lfgetmode.o
LOAD binaries/lfiballoc.o
LOAD binaries/lfibclear.o
LOAD binaries/lfibget.o
LOAD binaries/lfibput.o
LOAD binaries/lflclose.o
LOAD binaries/lflcontrol.o
LOAD binaries/lflgetc.o
LOAD binaries/lflinit.o
LOAD binaries/lflputc.o
LOAD binaries/lflread.o
LOAD binaries/lflseek.o
LOAD binaries/lflwrite.o
LOAD binaries/lfsckfmt.o
LOAD binaries/lfscreate.o
LOAD binaries/lfsetup.o
LOAD binaries/lfsinit.o
LOAD binaries/lfsopen.o
LOAD binaries/lftruncate.o
LOAD binaries/rflclose.o
LOAD binaries/rflgetc.o
LOAD binaries/rflinit.o
LOAD binaries/rflputc.o
LOAD binaries/rflread.o
LOAD binaries/rflseek.o
LOAD binaries/rflwrite.o
LOAD binaries/rfscomm.o
LOAD binaries/rfscontrol.o
LOAD binaries/rfsgetmode.o
LOAD binaries/rfsinit.o
LOAD binaries/rfsndmsg.o
LOAD binaries/rfsopen.o
LOAD binaries/arp.o
LOAD binaries/dhcp.o
LOAD binaries/dot2ip.o
LOAD binaries/hexdump.o
LOAD binaries/icmp.o
LOAD binaries/ip.o
LOAD binaries/net.o
LOAD binaries/netstart.o
LOAD binaries/pdump.o
LOAD binaries/tftp.o
LOAD binaries/udp.o
LOAD binaries/addargs.o
LOAD binaries/lexan.o
LOAD binaries/shell.o
LOAD binaries/xsh_argecho.o
LOAD binaries/xsh_arp.o
LOAD binaries/xsh_cat.o
LOAD binaries/xsh_clear.o
LOAD binaries/xsh_date.o
LOAD binaries/xsh_devdump.o
LOAD binaries/xsh_echo.o
LOAD binaries/xsh_exit.o
LOAD binaries/xsh_help.o
LOAD binaries/xsh_ipaddr.o
LOAD binaries/xsh_kill.o
LOAD binaries/xsh_memdump.o
LOAD binaries/xsh_memstat.o
LOAD binaries/xsh_ping.o
LOAD binaries/xsh_ps.o
LOAD binaries/xsh_sleep.o
LOAD binaries/xsh_udpdump.o
LOAD binaries/xsh_udpecho.o
LOAD binaries/xsh_udpeserver.o
LOAD binaries/xsh_uptime.o
LOAD binaries/clkdisp.o
LOAD binaries/ctxsw.o
LOAD binaries/host2netla.o
LOAD binaries/host2netlc.o
LOAD binaries/intr.o
LOAD binaries/ttydispatch.o
LOAD binaries/ethdispatch.o
OUTPUT(../compile/xinu elf32-i386)

.comment        0x0000000000000000       0x2a
 .comment       0x0000000000000000       0x2a binaries/app1.o
                                         0x2b (size before relaxing)
 .comment       0x000000000000002a       0x2b binaries/app2.o
 .comment       0x000000000000002a       0x2b binaries/app3.o
 .comment       0x000000000000002a       0x2b binaries/ascdate.o
 .comment       0x000000000000002a       0x2b binaries/bufinit.o
 .comment       0x000000000000002a       0x2b binaries/chprio.o
 .comment       0x000000000000002a       0x2b binaries/clkhandler.o
 .comment       0x000000000000002a       0x2b binaries/clkinit.o
 .comment       0x000000000000002a       0x2b binaries/close.o
 .comment       0x000000000000002a       0x2b binaries/conf.o
 .comment       0x000000000000002a       0x2b binaries/control.o
 .comment       0x000000000000002a       0x2b binaries/cpubound.o
 .comment       0x000000000000002a       0x2b binaries/create.o
 .comment       0x000000000000002a       0x2b binaries/early_imr.o
 .comment       0x000000000000002a       0x2b binaries/evec.o
 .comment       0x000000000000002a       0x2b binaries/factorial.o
 .comment       0x000000000000002a       0x2b binaries/freebuf.o
 .comment       0x000000000000002a       0x2b binaries/freemem.o
 .comment       0x000000000000002a       0x2b binaries/getbuf.o
 .comment       0x000000000000002a       0x2b binaries/getc.o
 .comment       0x000000000000002a       0x2b binaries/getdev.o
 .comment       0x000000000000002a       0x2b binaries/getitem.o
 .comment       0x000000000000002a       0x2b binaries/getmem.o
 .comment       0x000000000000002a       0x2b binaries/getpid.o
 .comment       0x000000000000002a       0x2b binaries/getpname.o
 .comment       0x000000000000002a       0x2b binaries/getppid.o
 .comment       0x000000000000002a       0x2b binaries/getprio.o
 .comment       0x000000000000002a       0x2b binaries/getstk.o
 .comment       0x000000000000002a       0x2b binaries/gettime.o
 .comment       0x000000000000002a       0x2b binaries/getutime.o
 .comment       0x000000000000002a       0x2b binaries/host2netlb.o
 .comment       0x000000000000002a       0x2b binaries/init.o
 .comment       0x000000000000002a       0x2b binaries/initialize.o
 .comment       0x000000000000002a       0x2b binaries/insert.o
 .comment       0x000000000000002a       0x2b binaries/insertd.o
 .comment       0x000000000000002a       0x2b binaries/ioerr.o
 .comment       0x000000000000002a       0x2b binaries/ionull.o
 .comment       0x000000000000002a       0x2b binaries/kill.o
 .comment       0x000000000000002a       0x2b binaries/kprintf.o
 .comment       0x000000000000002a       0x2b binaries/lab2q3.o
 .comment       0x000000000000002a       0x2b binaries/lab2q4.o
 .comment       0x000000000000002a       0x2b binaries/main.o
 .comment       0x000000000000002a       0x2b binaries/mark.o
 .comment       0x000000000000002a       0x2b binaries/meminit.o
 .comment       0x000000000000002a       0x2b binaries/mkbufpool.o
 .comment       0x000000000000002a       0x2b binaries/myappA.o
 .comment       0x000000000000002a       0x2b binaries/myfuncA.o
 .comment       0x000000000000002a       0x2b binaries/myhacker.o
 .comment       0x000000000000002a       0x2b binaries/myvictim.o
 .comment       0x000000000000002a       0x2b binaries/mywelcomemsg.o
 .comment       0x000000000000002a       0x2b binaries/newqueue.o
 .comment       0x000000000000002a       0x2b binaries/open.o
 .comment       0x000000000000002a       0x2b binaries/panic.o
 .comment       0x000000000000002a       0x2b binaries/pci.o
 .comment       0x000000000000002a       0x2b binaries/platinit.o
 .comment       0x000000000000002a       0x2b binaries/printsegaddr.o
 .comment       0x000000000000002a       0x2b binaries/ptclear.o
 .comment       0x000000000000002a       0x2b binaries/ptcount.o
 .comment       0x000000000000002a       0x2b binaries/ptcreate.o
 .comment       0x000000000000002a       0x2b binaries/ptdelete.o
 .comment       0x000000000000002a       0x2b binaries/ptinit.o
 .comment       0x000000000000002a       0x2b binaries/ptrecv.o
 .comment       0x000000000000002a       0x2b binaries/ptreset.o
 .comment       0x000000000000002a       0x2b binaries/ptsend.o
 .comment       0x000000000000002a       0x2b binaries/putc.o
 .comment       0x000000000000002a       0x2b binaries/quark_irq.o
 .comment       0x000000000000002a       0x2b binaries/quark_pdat.o
 .comment       0x000000000000002a       0x2b binaries/queue.o
 .comment       0x000000000000002a       0x2b binaries/read.o
 .comment       0x000000000000002a       0x2b binaries/ready.o
 .comment       0x000000000000002a       0x2b binaries/receive.o
 .comment       0x000000000000002a       0x2b binaries/recvclr.o
 .comment       0x000000000000002a       0x2b binaries/recvtime.o
 .comment       0x000000000000002a       0x2b binaries/resched.o
 .comment       0x000000000000002a       0x2b binaries/resume.o
 .comment       0x000000000000002a       0x2b binaries/seek.o
 .comment       0x000000000000002a       0x2b binaries/semcount.o
 .comment       0x000000000000002a       0x2b binaries/semcreate.o
 .comment       0x000000000000002a       0x2b binaries/semdelete.o
 .comment       0x000000000000002a       0x2b binaries/semreset.o
 .comment       0x000000000000002a       0x2b binaries/send.o
 .comment       0x000000000000002a       0x2b binaries/signal.o
 .comment       0x000000000000002a       0x2b binaries/signaln.o
 .comment       0x000000000000002a       0x2b binaries/sleep.o
 .comment       0x000000000000002a       0x2b binaries/stackdepth.o
 .comment       0x000000000000002a       0x2b binaries/stacktrace.o
 .comment       0x000000000000002a       0x2b binaries/suspend.o
 .comment       0x000000000000002a       0x2b binaries/teststackdepth.o
 .comment       0x000000000000002a       0x2b binaries/unsleep.o
 .comment       0x000000000000002a       0x2b binaries/userret.o
 .comment       0x000000000000002a       0x2b binaries/wait.o
 .comment       0x000000000000002a       0x2b binaries/wakeup.o
 .comment       0x000000000000002a       0x2b binaries/write.o
 .comment       0x000000000000002a       0x2b binaries/xdone.o
 .comment       0x000000000000002a       0x2b binaries/yield.o
 .comment       0x000000000000002a       0x2b binaries/abs.o
 .comment       0x000000000000002a       0x2b binaries/atoi.o
 .comment       0x000000000000002a       0x2b binaries/atol.o
 .comment       0x000000000000002a       0x2b binaries/bzero.o
 .comment       0x000000000000002a       0x2b binaries/ctype_.o
 .comment       0x000000000000002a       0x2b binaries/doprnt.o
 .comment       0x000000000000002a       0x2b binaries/doscan.o
 .comment       0x000000000000002a       0x2b binaries/fdoprnt.o
 .comment       0x000000000000002a       0x2b binaries/fgetc.o
 .comment       0x000000000000002a       0x2b binaries/fgets.o
 .comment       0x000000000000002a       0x2b binaries/fprintf.o
 .comment       0x000000000000002a       0x2b binaries/fputc.o
 .comment       0x000000000000002a       0x2b binaries/fputs.o
 .comment       0x000000000000002a       0x2b binaries/fscanf.o
 .comment       0x000000000000002a       0x2b binaries/getchar.o
 .comment       0x000000000000002a       0x2b binaries/labs.o
 .comment       0x000000000000002a       0x2b binaries/memchr.o
 .comment       0x000000000000002a       0x2b binaries/memcmp.o
 .comment       0x000000000000002a       0x2b binaries/memcpy.o
 .comment       0x000000000000002a       0x2b binaries/memset.o
 .comment       0x000000000000002a       0x2b binaries/printf.o
 .comment       0x000000000000002a       0x2b binaries/putchar.o
 .comment       0x000000000000002a       0x2b binaries/qsort.o
 .comment       0x000000000000002a       0x2b binaries/rand.o
 .comment       0x000000000000002a       0x2b binaries/sprintf.o
 .comment       0x000000000000002a       0x2b binaries/sscanf.o
 .comment       0x000000000000002a       0x2b binaries/strchr.o
 .comment       0x000000000000002a       0x2b binaries/strcmp.o
 .comment       0x000000000000002a       0x2b binaries/strcpy.o
 .comment       0x000000000000002a       0x2b binaries/strlen.o
 .comment       0x000000000000002a       0x2b binaries/strncat.o
 .comment       0x000000000000002a       0x2b binaries/strncmp.o
 .comment       0x000000000000002a       0x2b binaries/strncpy.o
 .comment       0x000000000000002a       0x2b binaries/strnlen.o
 .comment       0x000000000000002a       0x2b binaries/strrchr.o
 .comment       0x000000000000002a       0x2b binaries/strstr.o
 .comment       0x000000000000002a       0x2b binaries/ttycontrol.o
 .comment       0x000000000000002a       0x2b binaries/ttygetc.o
 .comment       0x000000000000002a       0x2b binaries/ttyhandle_in.o
 .comment       0x000000000000002a       0x2b binaries/ttyhandle_out.o
 .comment       0x000000000000002a       0x2b binaries/ttyhandler.o
 .comment       0x000000000000002a       0x2b binaries/ttyinit.o
 .comment       0x000000000000002a       0x2b binaries/ttykickout.o
 .comment       0x000000000000002a       0x2b binaries/ttyputc.o
 .comment       0x000000000000002a       0x2b binaries/ttyread.o
 .comment       0x000000000000002a       0x2b binaries/ttywrite.o
 .comment       0x000000000000002a       0x2b binaries/mount.o
 .comment       0x000000000000002a       0x2b binaries/naminit.o
 .comment       0x000000000000002a       0x2b binaries/nammap.o
 .comment       0x000000000000002a       0x2b binaries/namopen.o
 .comment       0x000000000000002a       0x2b binaries/colon2mac.o
 .comment       0x000000000000002a       0x2b binaries/ethcontrol.o
 .comment       0x000000000000002a       0x2b binaries/ethhandler.o
 .comment       0x000000000000002a       0x2b binaries/ethinit.o
 .comment       0x000000000000002a       0x2b binaries/ethmcast.o
 .comment       0x000000000000002a       0x2b binaries/ethread.o
 .comment       0x000000000000002a       0x2b binaries/ethwrite.o
 .comment       0x000000000000002a       0x2b binaries/rdsbufalloc.o
 .comment       0x000000000000002a       0x2b binaries/rdsclose.o
 .comment       0x000000000000002a       0x2b binaries/rdscomm.o
 .comment       0x000000000000002a       0x2b binaries/rdscontrol.o
 .comment       0x000000000000002a       0x2b binaries/rdsinit.o
 .comment       0x000000000000002a       0x2b binaries/rdsopen.o
 .comment       0x000000000000002a       0x2b binaries/rdsprocess.o
 .comment       0x000000000000002a       0x2b binaries/rdsread.o
 .comment       0x000000000000002a       0x2b binaries/rdswrite.o
 .comment       0x000000000000002a       0x2b binaries/ramclose.o
 .comment       0x000000000000002a       0x2b binaries/raminit.o
 .comment       0x000000000000002a       0x2b binaries/ramopen.o
 .comment       0x000000000000002a       0x2b binaries/ramread.o
 .comment       0x000000000000002a       0x2b binaries/ramwrite.o
 .comment       0x000000000000002a       0x2b binaries/lfdballoc.o
 .comment       0x000000000000002a       0x2b binaries/lfdbfree.o
 .comment       0x000000000000002a       0x2b binaries/lfflush.o
 .comment       0x000000000000002a       0x2b binaries/lfgetmode.o
 .comment       0x000000000000002a       0x2b binaries/lfiballoc.o
 .comment       0x000000000000002a       0x2b binaries/lfibclear.o
 .comment       0x000000000000002a       0x2b binaries/lfibget.o
 .comment       0x000000000000002a       0x2b binaries/lfibput.o
 .comment       0x000000000000002a       0x2b binaries/lflclose.o
 .comment       0x000000000000002a       0x2b binaries/lflcontrol.o
 .comment       0x000000000000002a       0x2b binaries/lflgetc.o
 .comment       0x000000000000002a       0x2b binaries/lflinit.o
 .comment       0x000000000000002a       0x2b binaries/lflputc.o
 .comment       0x000000000000002a       0x2b binaries/lflread.o
 .comment       0x000000000000002a       0x2b binaries/lflseek.o
 .comment       0x000000000000002a       0x2b binaries/lflwrite.o
 .comment       0x000000000000002a       0x2b binaries/lfsckfmt.o
 .comment       0x000000000000002a       0x2b binaries/lfscreate.o
 .comment       0x000000000000002a       0x2b binaries/lfsetup.o
 .comment       0x000000000000002a       0x2b binaries/lfsinit.o
 .comment       0x000000000000002a       0x2b binaries/lfsopen.o
 .comment       0x000000000000002a       0x2b binaries/lftruncate.o
 .comment       0x000000000000002a       0x2b binaries/rflclose.o
 .comment       0x000000000000002a       0x2b binaries/rflgetc.o
 .comment       0x000000000000002a       0x2b binaries/rflinit.o
 .comment       0x000000000000002a       0x2b binaries/rflputc.o
 .comment       0x000000000000002a       0x2b binaries/rflread.o
 .comment       0x000000000000002a       0x2b binaries/rflseek.o
 .comment       0x000000000000002a       0x2b binaries/rflwrite.o
 .comment       0x000000000000002a       0x2b binaries/rfscomm.o
 .comment       0x000000000000002a       0x2b binaries/rfscontrol.o
 .comment       0x000000000000002a       0x2b binaries/rfsgetmode.o
 .comment       0x000000000000002a       0x2b binaries/rfsinit.o
 .comment       0x000000000000002a       0x2b binaries/rfsndmsg.o
 .comment       0x000000000000002a       0x2b binaries/rfsopen.o
 .comment       0x000000000000002a       0x2b binaries/arp.o
 .comment       0x000000000000002a       0x2b binaries/dhcp.o
 .comment       0x000000000000002a       0x2b binaries/dot2ip.o
 .comment       0x000000000000002a       0x2b binaries/hexdump.o
 .comment       0x000000000000002a       0x2b binaries/icmp.o
 .comment       0x000000000000002a       0x2b binaries/ip.o
 .comment       0x000000000000002a       0x2b binaries/net.o
 .comment       0x000000000000002a       0x2b binaries/netstart.o
 .comment       0x000000000000002a       0x2b binaries/pdump.o
 .comment       0x000000000000002a       0x2b binaries/tftp.o
 .comment       0x000000000000002a       0x2b binaries/udp.o
 .comment       0x000000000000002a       0x2b binaries/addargs.o
 .comment       0x000000000000002a       0x2b binaries/lexan.o
 .comment       0x000000000000002a       0x2b binaries/shell.o
 .comment       0x000000000000002a       0x2b binaries/xsh_argecho.o
 .comment       0x000000000000002a       0x2b binaries/xsh_arp.o
 .comment       0x000000000000002a       0x2b binaries/xsh_cat.o
 .comment       0x000000000000002a       0x2b binaries/xsh_clear.o
 .comment       0x000000000000002a       0x2b binaries/xsh_date.o
 .comment       0x000000000000002a       0x2b binaries/xsh_devdump.o
 .comment       0x000000000000002a       0x2b binaries/xsh_echo.o
 .comment       0x000000000000002a       0x2b binaries/xsh_exit.o
 .comment       0x000000000000002a       0x2b binaries/xsh_help.o
 .comment       0x000000000000002a       0x2b binaries/xsh_ipaddr.o
 .comment       0x000000000000002a       0x2b binaries/xsh_kill.o
 .comment       0x000000000000002a       0x2b binaries/xsh_memdump.o
 .comment       0x000000000000002a       0x2b binaries/xsh_memstat.o
 .comment       0x000000000000002a       0x2b binaries/xsh_ping.o
 .comment       0x000000000000002a       0x2b binaries/xsh_ps.o
 .comment       0x000000000000002a       0x2b binaries/xsh_sleep.o
 .comment       0x000000000000002a       0x2b binaries/xsh_udpdump.o
 .comment       0x000000000000002a       0x2b binaries/xsh_udpecho.o
 .comment       0x000000000000002a       0x2b binaries/xsh_udpeserver.o
 .comment       0x000000000000002a       0x2b binaries/xsh_uptime.o
 .comment       0x000000000000002a       0x2b binaries/host2netlc.o

.note.GNU-stack
                0x0000000000000000        0x0
 .note.GNU-stack
                0x0000000000000000        0x0 binaries/app1.o
 .note.GNU-stack
                0x0000000000000000        0x0 binaries/app2.o
 .note.GNU-stack
                0x0000000000000000        0x0 binaries/app3.o
 .note.GNU-stack
                0x0000000000000000        0x0 binaries/ascdate.o
 .note.GNU-stack
                0x0000000000000000        0x0 binaries/bufinit.o
 .note.GNU-stack
                0x0000000000000000        0x0 binaries/chprio.o
 .note.GNU-stack
                0x0000000000000000        0x0 binaries/clkhandler.o
 .note.GNU-stack
                0x0000000000000000        0x0 binaries/clkinit.o
 .note.GNU-stack
                0x0000000000000000        0x0 binaries/close.o
 .note.GNU-stack
                0x0000000000000000        0x0 binaries/conf.o
 .note.GNU-stack
                0x0000000000000000        0x0 binaries/control.o
 .note.GNU-stack
                0x0000000000000000        0x0 binaries/cpubound.o
 .note.GNU-stack
                0x0000000000000000        0x0 binaries/create.o
 .note.GNU-stack
                0x0000000000000000        0x0 binaries/early_imr.o
 .note.GNU-stack
                0x0000000000000000        0x0 binaries/evec.o
 .note.GNU-stack
                0x0000000000000000        0x0 binaries/factorial.o
 .note.GNU-stack
                0x0000000000000000        0x0 binaries/freebuf.o
 .note.GNU-stack
                0x0000000000000000        0x0 binaries/freemem.o
 .note.GNU-stack
                0x0000000000000000        0x0 binaries/getbuf.o
 .note.GNU-stack
                0x0000000000000000        0x0 binaries/getc.o
 .note.GNU-stack
                0x0000000000000000        0x0 binaries/getdev.o
 .note.GNU-stack
                0x0000000000000000        0x0 binaries/getitem.o
 .note.GNU-stack
                0x0000000000000000        0x0 binaries/getmem.o
 .note.GNU-stack
                0x0000000000000000        0x0 binaries/getpid.o
 .note.GNU-stack
                0x0000000000000000        0x0 binaries/getpname.o
 .note.GNU-stack
                0x0000000000000000        0x0 binaries/getppid.o
 .note.GNU-stack
                0x0000000000000000        0x0 binaries/getprio.o
 .note.GNU-stack
                0x0000000000000000        0x0 binaries/getstk.o
 .note.GNU-stack
                0x0000000000000000        0x0 binaries/gettime.o
 .note.GNU-stack
                0x0000000000000000        0x0 binaries/getutime.o
 .note.GNU-stack
                0x0000000000000000        0x0 binaries/host2netlb.o
 .note.GNU-stack
                0x0000000000000000        0x0 binaries/init.o
 .note.GNU-stack
                0x0000000000000000        0x0 binaries/initialize.o
 .note.GNU-stack
                0x0000000000000000        0x0 binaries/insert.o
 .note.GNU-stack
                0x0000000000000000        0x0 binaries/insertd.o
 .note.GNU-stack
                0x0000000000000000        0x0 binaries/ioerr.o
 .note.GNU-stack
                0x0000000000000000        0x0 binaries/ionull.o
 .note.GNU-stack
                0x0000000000000000        0x0 binaries/kill.o
 .note.GNU-stack
                0x0000000000000000        0x0 binaries/kprintf.o
 .note.GNU-stack
                0x0000000000000000        0x0 binaries/lab2q3.o
 .note.GNU-stack
                0x0000000000000000        0x0 binaries/lab2q4.o
 .note.GNU-stack
                0x0000000000000000        0x0 binaries/main.o
 .note.GNU-stack
                0x0000000000000000        0x0 binaries/mark.o
 .note.GNU-stack
                0x0000000000000000        0x0 binaries/meminit.o
 .note.GNU-stack
                0x0000000000000000        0x0 binaries/mkbufpool.o
 .note.GNU-stack
                0x0000000000000000        0x0 binaries/myappA.o
 .note.GNU-stack
                0x0000000000000000        0x0 binaries/myfuncA.o
 .note.GNU-stack
                0x0000000000000000        0x0 binaries/myhacker.o
 .note.GNU-stack
                0x0000000000000000        0x0 binaries/myvictim.o
 .note.GNU-stack
                0x0000000000000000        0x0 binaries/mywelcomemsg.o
 .note.GNU-stack
                0x0000000000000000        0x0 binaries/newqueue.o
 .note.GNU-stack
                0x0000000000000000        0x0 binaries/open.o
 .note.GNU-stack
                0x0000000000000000        0x0 binaries/panic.o
 .note.GNU-stack
                0x0000000000000000        0x0 binaries/pci.o
 .note.GNU-stack
                0x0000000000000000        0x0 binaries/platinit.o
 .note.GNU-stack
                0x0000000000000000        0x0 binaries/printsegaddr.o
 .note.GNU-stack
                0x0000000000000000        0x0 binaries/ptclear.o
 .note.GNU-stack
                0x0000000000000000        0x0 binaries/ptcount.o
 .note.GNU-stack
                0x0000000000000000        0x0 binaries/ptcreate.o
 .note.GNU-stack
                0x0000000000000000        0x0 binaries/ptdelete.o
 .note.GNU-stack
                0x0000000000000000        0x0 binaries/ptinit.o
 .note.GNU-stack
                0x0000000000000000        0x0 binaries/ptrecv.o
 .note.GNU-stack
                0x0000000000000000        0x0 binaries/ptreset.o
 .note.GNU-stack
                0x0000000000000000        0x0 binaries/ptsend.o
 .note.GNU-stack
                0x0000000000000000        0x0 binaries/putc.o
 .note.GNU-stack
                0x0000000000000000        0x0 binaries/quark_irq.o
 .note.GNU-stack
                0x0000000000000000        0x0 binaries/quark_pdat.o
 .note.GNU-stack
                0x0000000000000000        0x0 binaries/queue.o
 .note.GNU-stack
                0x0000000000000000        0x0 binaries/read.o
 .note.GNU-stack
                0x0000000000000000        0x0 binaries/ready.o
 .note.GNU-stack
                0x0000000000000000        0x0 binaries/receive.o
 .note.GNU-stack
                0x0000000000000000        0x0 binaries/recvclr.o
 .note.GNU-stack
                0x0000000000000000        0x0 binaries/recvtime.o
 .note.GNU-stack
                0x0000000000000000        0x0 binaries/resched.o
 .note.GNU-stack
                0x0000000000000000        0x0 binaries/resume.o
 .note.GNU-stack
                0x0000000000000000        0x0 binaries/seek.o
 .note.GNU-stack
                0x0000000000000000        0x0 binaries/semcount.o
 .note.GNU-stack
                0x0000000000000000        0x0 binaries/semcreate.o
 .note.GNU-stack
                0x0000000000000000        0x0 binaries/semdelete.o
 .note.GNU-stack
                0x0000000000000000        0x0 binaries/semreset.o
 .note.GNU-stack
                0x0000000000000000        0x0 binaries/send.o
 .note.GNU-stack
                0x0000000000000000        0x0 binaries/signal.o
 .note.GNU-stack
                0x0000000000000000        0x0 binaries/signaln.o
 .note.GNU-stack
                0x0000000000000000        0x0 binaries/sleep.o
 .note.GNU-stack
                0x0000000000000000        0x0 binaries/stackdepth.o
 .note.GNU-stack
                0x0000000000000000        0x0 binaries/stacktrace.o
 .note.GNU-stack
                0x0000000000000000        0x0 binaries/suspend.o
 .note.GNU-stack
                0x0000000000000000        0x0 binaries/teststackdepth.o
 .note.GNU-stack
                0x0000000000000000        0x0 binaries/unsleep.o
 .note.GNU-stack
                0x0000000000000000        0x0 binaries/userret.o
 .note.GNU-stack
                0x0000000000000000        0x0 binaries/wait.o
 .note.GNU-stack
                0x0000000000000000        0x0 binaries/wakeup.o
 .note.GNU-stack
                0x0000000000000000        0x0 binaries/write.o
 .note.GNU-stack
                0x0000000000000000        0x0 binaries/xdone.o
 .note.GNU-stack
                0x0000000000000000        0x0 binaries/yield.o
 .note.GNU-stack
                0x0000000000000000        0x0 binaries/abs.o
 .note.GNU-stack
                0x0000000000000000        0x0 binaries/atoi.o
 .note.GNU-stack
                0x0000000000000000        0x0 binaries/atol.o
 .note.GNU-stack
                0x0000000000000000        0x0 binaries/bzero.o
 .note.GNU-stack
                0x0000000000000000        0x0 binaries/ctype_.o
 .note.GNU-stack
                0x0000000000000000        0x0 binaries/doprnt.o
 .note.GNU-stack
                0x0000000000000000        0x0 binaries/doscan.o
 .note.GNU-stack
                0x0000000000000000        0x0 binaries/fdoprnt.o
 .note.GNU-stack
                0x0000000000000000        0x0 binaries/fgetc.o
 .note.GNU-stack
                0x0000000000000000        0x0 binaries/fgets.o
 .note.GNU-stack
                0x0000000000000000        0x0 binaries/fprintf.o
 .note.GNU-stack
                0x0000000000000000        0x0 binaries/fputc.o
 .note.GNU-stack
                0x0000000000000000        0x0 binaries/fputs.o
 .note.GNU-stack
                0x0000000000000000        0x0 binaries/fscanf.o
 .note.GNU-stack
                0x0000000000000000        0x0 binaries/getchar.o
 .note.GNU-stack
                0x0000000000000000        0x0 binaries/labs.o
 .note.GNU-stack
                0x0000000000000000        0x0 binaries/memchr.o
 .note.GNU-stack
                0x0000000000000000        0x0 binaries/memcmp.o
 .note.GNU-stack
                0x0000000000000000        0x0 binaries/memcpy.o
 .note.GNU-stack
                0x0000000000000000        0x0 binaries/memset.o
 .note.GNU-stack
                0x0000000000000000        0x0 binaries/printf.o
 .note.GNU-stack
                0x0000000000000000        0x0 binaries/putchar.o
 .note.GNU-stack
                0x0000000000000000        0x0 binaries/qsort.o
 .note.GNU-stack
                0x0000000000000000        0x0 binaries/rand.o
 .note.GNU-stack
                0x0000000000000000        0x0 binaries/sprintf.o
 .note.GNU-stack
                0x0000000000000000        0x0 binaries/sscanf.o
 .note.GNU-stack
                0x0000000000000000        0x0 binaries/strchr.o
 .note.GNU-stack
                0x0000000000000000        0x0 binaries/strcmp.o
 .note.GNU-stack
                0x0000000000000000        0x0 binaries/strcpy.o
 .note.GNU-stack
                0x0000000000000000        0x0 binaries/strlen.o
 .note.GNU-stack
                0x0000000000000000        0x0 binaries/strncat.o
 .note.GNU-stack
                0x0000000000000000        0x0 binaries/strncmp.o
 .note.GNU-stack
                0x0000000000000000        0x0 binaries/strncpy.o
 .note.GNU-stack
                0x0000000000000000        0x0 binaries/strnlen.o
 .note.GNU-stack
                0x0000000000000000        0x0 binaries/strrchr.o
 .note.GNU-stack
                0x0000000000000000        0x0 binaries/strstr.o
 .note.GNU-stack
                0x0000000000000000        0x0 binaries/ttycontrol.o
 .note.GNU-stack
                0x0000000000000000        0x0 binaries/ttygetc.o
 .note.GNU-stack
                0x0000000000000000        0x0 binaries/ttyhandle_in.o
 .note.GNU-stack
                0x0000000000000000        0x0 binaries/ttyhandle_out.o
 .note.GNU-stack
                0x0000000000000000        0x0 binaries/ttyhandler.o
 .note.GNU-stack
                0x0000000000000000        0x0 binaries/ttyinit.o
 .note.GNU-stack
                0x0000000000000000        0x0 binaries/ttykickout.o
 .note.GNU-stack
                0x0000000000000000        0x0 binaries/ttyputc.o
 .note.GNU-stack
                0x0000000000000000        0x0 binaries/ttyread.o
 .note.GNU-stack
                0x0000000000000000        0x0 binaries/ttywrite.o
 .note.GNU-stack
                0x0000000000000000        0x0 binaries/mount.o
 .note.GNU-stack
                0x0000000000000000        0x0 binaries/naminit.o
 .note.GNU-stack
                0x0000000000000000        0x0 binaries/nammap.o
 .note.GNU-stack
                0x0000000000000000        0x0 binaries/namopen.o
 .note.GNU-stack
                0x0000000000000000        0x0 binaries/colon2mac.o
 .note.GNU-stack
                0x0000000000000000        0x0 binaries/ethcontrol.o
 .note.GNU-stack
                0x0000000000000000        0x0 binaries/ethhandler.o
 .note.GNU-stack
                0x0000000000000000        0x0 binaries/ethinit.o
 .note.GNU-stack
                0x0000000000000000        0x0 binaries/ethmcast.o
 .note.GNU-stack
                0x0000000000000000        0x0 binaries/ethread.o
 .note.GNU-stack
                0x0000000000000000        0x0 binaries/ethwrite.o
 .note.GNU-stack
                0x0000000000000000        0x0 binaries/rdsbufalloc.o
 .note.GNU-stack
                0x0000000000000000        0x0 binaries/rdsclose.o
 .note.GNU-stack
                0x0000000000000000        0x0 binaries/rdscomm.o
 .note.GNU-stack
                0x0000000000000000        0x0 binaries/rdscontrol.o
 .note.GNU-stack
                0x0000000000000000        0x0 binaries/rdsinit.o
 .note.GNU-stack
                0x0000000000000000        0x0 binaries/rdsopen.o
 .note.GNU-stack
                0x0000000000000000        0x0 binaries/rdsprocess.o
 .note.GNU-stack
                0x0000000000000000        0x0 binaries/rdsread.o
 .note.GNU-stack
                0x0000000000000000        0x0 binaries/rdswrite.o
 .note.GNU-stack
                0x0000000000000000        0x0 binaries/ramclose.o
 .note.GNU-stack
                0x0000000000000000        0x0 binaries/raminit.o
 .note.GNU-stack
                0x0000000000000000        0x0 binaries/ramopen.o
 .note.GNU-stack
                0x0000000000000000        0x0 binaries/ramread.o
 .note.GNU-stack
                0x0000000000000000        0x0 binaries/ramwrite.o
 .note.GNU-stack
                0x0000000000000000        0x0 binaries/lfdballoc.o
 .note.GNU-stack
                0x0000000000000000        0x0 binaries/lfdbfree.o
 .note.GNU-stack
                0x0000000000000000        0x0 binaries/lfflush.o
 .note.GNU-stack
                0x0000000000000000        0x0 binaries/lfgetmode.o
 .note.GNU-stack
                0x0000000000000000        0x0 binaries/lfiballoc.o
 .note.GNU-stack
                0x0000000000000000        0x0 binaries/lfibclear.o
 .note.GNU-stack
                0x0000000000000000        0x0 binaries/lfibget.o
 .note.GNU-stack
                0x0000000000000000        0x0 binaries/lfibput.o
 .note.GNU-stack
                0x0000000000000000        0x0 binaries/lflclose.o
 .note.GNU-stack
                0x0000000000000000        0x0 binaries/lflcontrol.o
 .note.GNU-stack
                0x0000000000000000        0x0 binaries/lflgetc.o
 .note.GNU-stack
                0x0000000000000000        0x0 binaries/lflinit.o
 .note.GNU-stack
                0x0000000000000000        0x0 binaries/lflputc.o
 .note.GNU-stack
                0x0000000000000000        0x0 binaries/lflread.o
 .note.GNU-stack
                0x0000000000000000        0x0 binaries/lflseek.o
 .note.GNU-stack
                0x0000000000000000        0x0 binaries/lflwrite.o
 .note.GNU-stack
                0x0000000000000000        0x0 binaries/lfsckfmt.o
 .note.GNU-stack
                0x0000000000000000        0x0 binaries/lfscreate.o
 .note.GNU-stack
                0x0000000000000000        0x0 binaries/lfsetup.o
 .note.GNU-stack
                0x0000000000000000        0x0 binaries/lfsinit.o
 .note.GNU-stack
                0x0000000000000000        0x0 binaries/lfsopen.o
 .note.GNU-stack
                0x0000000000000000        0x0 binaries/lftruncate.o
 .note.GNU-stack
                0x0000000000000000        0x0 binaries/rflclose.o
 .note.GNU-stack
                0x0000000000000000        0x0 binaries/rflgetc.o
 .note.GNU-stack
                0x0000000000000000        0x0 binaries/rflinit.o
 .note.GNU-stack
                0x0000000000000000        0x0 binaries/rflputc.o
 .note.GNU-stack
                0x0000000000000000        0x0 binaries/rflread.o
 .note.GNU-stack
                0x0000000000000000        0x0 binaries/rflseek.o
 .note.GNU-stack
                0x0000000000000000        0x0 binaries/rflwrite.o
 .note.GNU-stack
                0x0000000000000000        0x0 binaries/rfscomm.o
 .note.GNU-stack
                0x0000000000000000        0x0 binaries/rfscontrol.o
 .note.GNU-stack
                0x0000000000000000        0x0 binaries/rfsgetmode.o
 .note.GNU-stack
                0x0000000000000000        0x0 binaries/rfsinit.o
 .note.GNU-stack
                0x0000000000000000        0x0 binaries/rfsndmsg.o
 .note.GNU-stack
                0x0000000000000000        0x0 binaries/rfsopen.o
 .note.GNU-stack
                0x0000000000000000        0x0 binaries/arp.o
 .note.GNU-stack
                0x0000000000000000        0x0 binaries/dhcp.o
 .note.GNU-stack
                0x0000000000000000        0x0 binaries/dot2ip.o
 .note.GNU-stack
                0x0000000000000000        0x0 binaries/hexdump.o
 .note.GNU-stack
                0x0000000000000000        0x0 binaries/icmp.o
 .note.GNU-stack
                0x0000000000000000        0x0 binaries/ip.o
 .note.GNU-stack
                0x0000000000000000        0x0 binaries/net.o
 .note.GNU-stack
                0x0000000000000000        0x0 binaries/netstart.o
 .note.GNU-stack
                0x0000000000000000        0x0 binaries/pdump.o
 .note.GNU-stack
                0x0000000000000000        0x0 binaries/tftp.o
 .note.GNU-stack
                0x0000000000000000        0x0 binaries/udp.o
 .note.GNU-stack
                0x0000000000000000        0x0 binaries/addargs.o
 .note.GNU-stack
                0x0000000000000000        0x0 binaries/lexan.o
 .note.GNU-stack
                0x0000000000000000        0x0 binaries/shell.o
 .note.GNU-stack
                0x0000000000000000        0x0 binaries/xsh_argecho.o
 .note.GNU-stack
                0x0000000000000000        0x0 binaries/xsh_arp.o
 .note.GNU-stack
                0x0000000000000000        0x0 binaries/xsh_cat.o
 .note.GNU-stack
                0x0000000000000000        0x0 binaries/xsh_clear.o
 .note.GNU-stack
                0x0000000000000000        0x0 binaries/xsh_date.o
 .note.GNU-stack
                0x0000000000000000        0x0 binaries/xsh_devdump.o
 .note.GNU-stack
                0x0000000000000000        0x0 binaries/xsh_echo.o
 .note.GNU-stack
                0x0000000000000000        0x0 binaries/xsh_exit.o
 .note.GNU-stack
                0x0000000000000000        0x0 binaries/xsh_help.o
 .note.GNU-stack
                0x0000000000000000        0x0 binaries/xsh_ipaddr.o
 .note.GNU-stack
                0x0000000000000000        0x0 binaries/xsh_kill.o
 .note.GNU-stack
                0x0000000000000000        0x0 binaries/xsh_memdump.o
 .note.GNU-stack
                0x0000000000000000        0x0 binaries/xsh_memstat.o
 .note.GNU-stack
                0x0000000000000000        0x0 binaries/xsh_ping.o
 .note.GNU-stack
                0x0000000000000000        0x0 binaries/xsh_ps.o
 .note.GNU-stack
                0x0000000000000000        0x0 binaries/xsh_sleep.o
 .note.GNU-stack
                0x0000000000000000        0x0 binaries/xsh_udpdump.o
 .note.GNU-stack
                0x0000000000000000        0x0 binaries/xsh_udpecho.o
 .note.GNU-stack
                0x0000000000000000        0x0 binaries/xsh_udpeserver.o
 .note.GNU-stack
                0x0000000000000000        0x0 binaries/xsh_uptime.o
 .note.GNU-stack
                0x0000000000000000        0x0 binaries/host2netlc.o
