
Allocating common symbols
Common symbol       size              file

netbufpool          0x4               binaries/net.o
readylist           0x2               binaries/ready.o
rfltab              0x5a0             binaries/rflinit.o
sleepq              0x2               binaries/clkinit.o
nnames              0x4               binaries/naminit.o
udptab              0x168             binaries/udp.o
minheap             0x4               binaries/meminit.o
marks               0x50              binaries/mark.o
currpid             0x4               binaries/initialize.o
Lf_data             0x20c             binaries/lfsinit.o
porttab             0x2d0             binaries/ptinit.o
girmask             0x2               binaries/evec.o
ttytab              0x10c             binaries/ttyinit.o
victimglobal        0x4               binaries/myhacker.o
proctab             0x1900            binaries/initialize.o
prcount             0x4               binaries/initialize.o
victimsRetAddress   0x4               binaries/myhacker.o
lfltab              0xf00             binaries/lflinit.o
rdstab              0x8c              binaries/rdsinit.o
ethertab            0x138             binaries/ethinit.o
NetData             0xa8              binaries/net.o
nmarks              0x4               binaries/mark.o
Defer               0x8               binaries/resched.o
semtab              0x4b0             binaries/initialize.o
maxheap             0x4               binaries/meminit.o
preempt             0x4               binaries/clkinit.o
buftab              0xf0              binaries/bufinit.o
Rf_data             0x18              binaries/rfsinit.o
mkmutex             0x4               binaries/mark.o
clktimemsec         0x4               binaries/clkinit.o
clktime             0x4               binaries/clkinit.o
arpcache            0x140             binaries/arp.o
icmptab             0x230             binaries/icmp.o
nbpools             0x4               binaries/bufinit.o
queuetab            0x980             binaries/queue.o
ptnextid            0x4               binaries/ptinit.o
Ram                 0x19000           binaries/raminit.o
ipoqueue            0x2c              binaries/ip.o
memlist             0x8               binaries/initialize.o
nametab             0x19a0            binaries/naminit.o
ptfree              0x4               binaries/ptinit.o

Memory Configuration

Name             Origin             Length             Attributes
*default*        0x0000000000000000 0xffffffffffffffff

Linker script and memory map

                0x0000000000100000                physbase = 0x100000
                0x0000000000100000                . = physbase
                0x0000000000100000                . = ALIGN (0x1000)

.text           0x0000000000100000    0x15000
                0x0000000000100000                text = ABSOLUTE (.)
 *(.text .text.*)
 .text          0x0000000000100000      0x1ac binaries/start.o
                0x0000000000100028                start
                0x00000000001000fa                inb
                0x0000000000100102                inw
                0x000000000010010b                inl
                0x0000000000100113                outb
                0x000000000010011d                outw
                0x0000000000100128                outl
                0x0000000000100132                _rtcin
                0x000000000010013d                ___udivsi3
                0x0000000000100148                ___divsi3
                0x0000000000100154                sbzero
                0x0000000000100164                bcopy
                0x0000000000100178                insw
                0x000000000010018e                outsw
                0x00000000001001a4                lidt
 .text          0x00000000001001ac       0x35 binaries/app1.o
                0x00000000001001ac                app1
 .text          0x00000000001001e1       0x8f binaries/app2.o
                0x00000000001001e1                app2
 .text          0x0000000000100270       0x67 binaries/app3.o
                0x0000000000100270                app3
 .text          0x00000000001002d7      0x2b9 binaries/ascdate.o
                0x00000000001002d7                ascdate
 .text          0x0000000000100590       0x14 binaries/bufinit.o
                0x0000000000100590                bufinit
 .text          0x00000000001005a4       0x62 binaries/chprio.o
                0x00000000001005a4                chprio
 .text          0x0000000000100606       0x90 binaries/clkhandler.o
                0x0000000000100606                clkhandler
 .text          0x0000000000100696       0x67 binaries/clkinit.o
                0x0000000000100696                clkinit
 .text          0x00000000001006fd       0x56 binaries/close.o
                0x00000000001006fd                close
 .text          0x0000000000100753        0x0 binaries/conf.o
 .text          0x0000000000100753       0x5c binaries/control.o
                0x0000000000100753                control
 .text          0x00000000001007af      0x233 binaries/create.o
                0x00000000001007af                create
 .text          0x00000000001009e2      0x20e binaries/early_imr.o
                0x00000000001009e2                intel_cln_early_sb_read_reg
                0x0000000000100a39                intel_cln_early_sb_write_reg
                0x0000000000100af3                remove_irm_protections
 .text          0x0000000000100bf0      0x2e2 binaries/evec.o
                0x0000000000100bf0                setirmask
                0x0000000000100c28                set_evec
                0x0000000000100c83                initevec
                0x0000000000100d55                trap
 .text          0x0000000000100ed2       0x30 binaries/factorial.o
                0x0000000000100ed2                factorial
 .text          0x0000000000100f02       0x7f binaries/freebuf.o
                0x0000000000100f02                freebuf
 .text          0x0000000000100f81      0x108 binaries/freemem.o
                0x0000000000100f81                freemem
 .text          0x0000000000101089       0x6e binaries/getbuf.o
                0x0000000000101089                getbuf
 .text          0x00000000001010f7       0x56 binaries/getc.o
                0x00000000001010f7                getc
 .text          0x000000000010114d       0x69 binaries/getdev.o
                0x000000000010114d                getdev
 .text          0x00000000001011b6       0x82 binaries/getitem.o
                0x00000000001011b6                getitem
                0x00000000001011e5                getfirst
                0x000000000010120c                getlast
 .text          0x0000000000101238       0xc2 binaries/getmem.o
                0x0000000000101238                getmem
 .text          0x00000000001012fa        0xa binaries/getpid.o
                0x00000000001012fa                getpid
 .text          0x0000000000101304       0x10 binaries/getpname.o
                0x0000000000101304                getpname
 .text          0x0000000000101314       0x13 binaries/getppid.o
                0x0000000000101314                getppid
 .text          0x0000000000101327       0x54 binaries/getprio.o
                0x0000000000101327                getprio
 .text          0x000000000010137b       0xac binaries/getstk.o
                0x000000000010137b                getstk
 .text          0x0000000000101427       0x32 binaries/gettime.o
                0x0000000000101427                gettime
 .text          0x0000000000101459      0x186 binaries/getutime.o
                0x0000000000101459                getutime
 .text          0x00000000001015df       0x10 binaries/host2netlb.o
                0x00000000001015df                host2netlb
 .text          0x00000000001015ef       0x56 binaries/init.o
                0x00000000001015ef                init
 .text          0x0000000000101645      0x289 binaries/initialize.o
                0x0000000000101645                nulluser
                0x0000000000101884                stop
                0x00000000001018a8                delay
 .text          0x00000000001018ce       0xf2 binaries/insert.o
                0x00000000001018ce                insert
 .text          0x00000000001019c0       0xe8 binaries/insertd.o
                0x00000000001019c0                insertd
 .text          0x0000000000101aa8        0xa binaries/ioerr.o
                0x0000000000101aa8                ioerr
 .text          0x0000000000101ab2        0xa binaries/ionull.o
                0x0000000000101ab2                ionull
 .text          0x0000000000101abc      0x161 binaries/kill.o
                0x0000000000101abc                kill
 .text          0x0000000000101c1d       0xa9 binaries/kprintf.o
                0x0000000000101c1d                kputc
                0x0000000000101c4f                console_init
                0x0000000000101c82                kgetc
                0x0000000000101ca8                kprintf
 .text          0x0000000000101cc6      0x3b6 binaries/lab2q3.o
                0x0000000000101cc6                workerProcessTypeA
                0x0000000000101ccb                workerProcessTypeB
                0x0000000000101ce8                monitorProcess
                0x0000000000101d62                lab2q3t1
                0x0000000000101dc1                lab2q3t2
                0x0000000000101eaa                lab2q3t3
                0x0000000000101f93                lab2q3t4
 .text          0x000000000010207c      0x109 binaries/main.o
                0x000000000010207c                main
 .text          0x0000000000102185       0x99 binaries/mark.o
                0x0000000000102185                markinit
                0x00000000001021a6                mark
 .text          0x000000000010221e      0x1ff binaries/meminit.o
                0x000000000010221e                meminit
                0x00000000001023ad                setsegs
 .text          0x000000000010241d      0x122 binaries/mkbufpool.o
                0x000000000010241d                mkbufpool
 .text          0x000000000010253f       0x9c binaries/myappA.o
                0x000000000010253f                myappA
 .text          0x00000000001025db       0x23 binaries/myfuncA.o
                0x00000000001025db                myfuncA
 .text          0x00000000001025fe       0x83 binaries/myhacker.o
                0x00000000001025fe                myhackermalware
                0x000000000010262a                getretaddrbydepth
                0x0000000000102658                myhacker
 .text          0x0000000000102681       0x9b binaries/myvictim.o
                0x0000000000102681                makevictimsleep
                0x00000000001026ac                invokevictimsleep
                0x00000000001026d7                myvictim
 .text          0x000000000010271c       0x5f binaries/mywelcomemsg.o
                0x000000000010271c                mywelcomemsg
 .text          0x000000000010277b       0x63 binaries/newqueue.o
                0x000000000010277b                newqueue
 .text          0x00000000001027de       0x5c binaries/open.o
                0x00000000001027de                open
 .text          0x000000000010283a       0x20 binaries/panic.o
                0x000000000010283a                panic
 .text          0x000000000010285a      0x282 binaries/pci.o
                0x000000000010285a                pci_init
                0x0000000000102864                find_pci_device
                0x0000000000102923                pci_read_config_byte
                0x0000000000102961                pci_read_config_word
                0x00000000001029a1                pci_read_config_dword
                0x00000000001029df                pci_write_config_byte
                0x0000000000102a1b                pci_write_config_word
                0x0000000000102a58                pci_write_config_dword
                0x0000000000102a94                pci_get_dev_mmio_base_addr
 .text          0x0000000000102adc       0x50 binaries/platinit.o
                0x0000000000102adc                platinit
 .text          0x0000000000102b2c       0xa7 binaries/printsegaddr.o
                0x0000000000102b2c                printsegaddr
 .text          0x0000000000102bd3       0xa9 binaries/ptclear.o
                0x0000000000102bd3                _ptclear
 .text          0x0000000000102c7c       0x85 binaries/ptcount.o
                0x0000000000102c7c                ptcount
 .text          0x0000000000102d01       0xfe binaries/ptcreate.o
                0x0000000000102d01                ptcreate
 .text          0x0000000000102dff       0x63 binaries/ptdelete.o
                0x0000000000102dff                ptdelete
 .text          0x0000000000102e62       0x91 binaries/ptinit.o
                0x0000000000102e62                ptinit
 .text          0x0000000000102ef3       0xf5 binaries/ptrecv.o
                0x0000000000102ef3                ptrecv
 .text          0x0000000000102fe8       0x66 binaries/ptreset.o
                0x0000000000102fe8                ptreset
 .text          0x000000000010304e      0x115 binaries/ptsend.o
                0x000000000010304e                ptsend
 .text          0x0000000000103163       0x64 binaries/putc.o
                0x0000000000103163                putc
 .text          0x00000000001031c7       0xb3 binaries/quark_irq.o
                0x00000000001031c7                quark_irq_routing
 .text          0x000000000010327a      0x19a binaries/quark_pdat.o
                0x000000000010327a                get_quark_pdat_entry_data_by_id
                0x0000000000103344                get_quark_pdat_entry_data_by_desc
 .text          0x0000000000103414       0xae binaries/queue.o
                0x0000000000103414                enqueue
                0x0000000000103477                dequeue
 .text          0x00000000001034c2       0x5c binaries/read.o
                0x00000000001034c2                read
 .text          0x000000000010351e       0x90 binaries/ready.o
                0x000000000010351e                ready
 .text          0x00000000001035ae       0x5a binaries/receive.o
                0x00000000001035ae                receive
 .text          0x0000000000103608       0x42 binaries/recvclr.o
                0x0000000000103608                recvclr
 .text          0x000000000010364a       0xad binaries/recvtime.o
                0x000000000010364a                recvtime
 .text          0x00000000001036f7      0x1b0 binaries/resched.o
                0x00000000001036f7                resched
                0x0000000000103835                resched_cntl
 .text          0x00000000001038a7       0x7e binaries/resume.o
                0x00000000001038a7                resume
 .text          0x0000000000103925       0x59 binaries/seek.o
                0x0000000000103925                seek
 .text          0x000000000010397e       0x51 binaries/semcount.o
                0x000000000010397e                semcount
 .text          0x00000000001039cf       0x93 binaries/semcreate.o
                0x00000000001039cf                semcreate
 .text          0x0000000000103a62       0xd1 binaries/semdelete.o
                0x0000000000103a62                semdelete
 .text          0x0000000000103b33       0xa8 binaries/semreset.o
                0x0000000000103b33                semreset
 .text          0x0000000000103bdb       0xb3 binaries/send.o
                0x0000000000103bdb                send
 .text          0x0000000000103c8e       0x95 binaries/signal.o
                0x0000000000103c8e                signal
 .text          0x0000000000103d23       0xc2 binaries/signaln.o
                0x0000000000103d23                signaln
 .text          0x0000000000103de5       0xbd binaries/sleep.o
                0x0000000000103de5                sleepms
                0x0000000000103e6c                sleep
 .text          0x0000000000103ea2       0x94 binaries/stackdepth.o
                0x0000000000103ea2                stackdepth
 .text          0x0000000000103f36      0x17c binaries/stacktrace.o
                0x0000000000103f36                stacktrace
 .text          0x00000000001040b2       0xac binaries/suspend.o
                0x00000000001040b2                suspend
 .text          0x000000000010415e       0x27 binaries/teststackdepth.o
                0x000000000010415e                teststackdepth
 .text          0x0000000000104185       0x91 binaries/unsleep.o
                0x0000000000104185                unsleep
 .text          0x0000000000104216       0x19 binaries/userret.o
                0x0000000000104216                userret
 .text          0x000000000010422f       0xac binaries/wait.o
                0x000000000010422f                wait
 .text          0x00000000001042db       0x71 binaries/wakeup.o
                0x00000000001042db                wakeup
 .text          0x000000000010434c       0x5c binaries/write.o
                0x000000000010434c                write
 .text          0x00000000001043a8       0x1a binaries/xdone.o
                0x00000000001043a8                xdone
 .text          0x00000000001043c2       0x26 binaries/yield.o
                0x00000000001043c2                yield
 .text          0x00000000001043e8       0x11 binaries/abs.o
                0x00000000001043e8                abs
 .text          0x00000000001043f9       0x84 binaries/atoi.o
                0x00000000001043f9                atoi
 .text          0x000000000010447d       0x84 binaries/atol.o
                0x000000000010447d                atol
 .text          0x0000000000104501       0x1a binaries/bzero.o
                0x0000000000104501                bzero
 .text          0x000000000010451b        0x0 binaries/ctype_.o
 .text          0x000000000010451b      0x6bf binaries/doprnt.o
                0x000000000010466e                _doprnt
 .text          0x0000000000104bda      0x5f2 binaries/doscan.o
                0x0000000000104bda                _doscan
 .text          0x00000000001051cc      0x64e binaries/fdoprnt.o
                0x0000000000105251                _fdoprnt
 .text          0x000000000010581a       0x1c binaries/fgetc.o
                0x000000000010581a                fgetc
 .text          0x0000000000105836       0x61 binaries/fgets.o
                0x0000000000105836                fgets
 .text          0x0000000000105897       0x21 binaries/fprintf.o
                0x0000000000105897                fprintf
 .text          0x00000000001058b8       0x27 binaries/fputc.o
                0x00000000001058b8                fputc
 .text          0x00000000001058df       0x3a binaries/fputs.o
                0x00000000001058df                fputs
 .text          0x0000000000105919       0x6a binaries/fscanf.o
                0x0000000000105957                fscanf
 .text          0x0000000000105983       0x1d binaries/getchar.o
                0x0000000000105983                getchar
 .text          0x00000000001059a0       0x11 binaries/labs.o
                0x00000000001059a0                labs
 .text          0x00000000001059b1       0x36 binaries/memchr.o
                0x00000000001059b1                memchr
 .text          0x00000000001059e7       0x4a binaries/memcmp.o
                0x00000000001059e7                memcmp
 .text          0x0000000000105a31       0x26 binaries/memcpy.o
                0x0000000000105a31                memcpy
 .text          0x0000000000105a57       0x1f binaries/memset.o
                0x0000000000105a57                memset
 .text          0x0000000000105a76       0x2e binaries/printf.o
                0x0000000000105a76                printf
 .text          0x0000000000105aa4       0x20 binaries/putchar.o
                0x0000000000105aa4                putchar
 .text          0x0000000000105ac4      0x1cc binaries/qsort.o
                0x0000000000105c68                qsort
 .text          0x0000000000105c90       0x4c binaries/rand.o
                0x0000000000105c90                srand
                0x0000000000105c9d                rand
 .text          0x0000000000105cdc       0x48 binaries/sprintf.o
                0x0000000000105cf5                sprintf
 .text          0x0000000000105d24       0x5a binaries/sscanf.o
                0x0000000000105d54                sscanf
 .text          0x0000000000105d7e       0x2f binaries/strchr.o
                0x0000000000105d7e                strchr
 .text          0x0000000000105dad       0x45 binaries/strcmp.o
                0x0000000000105dad                strcmp
 .text          0x0000000000105df2       0x1c binaries/strcpy.o
                0x0000000000105df2                strcpy
 .text          0x0000000000105e0e       0x20 binaries/strlen.o
                0x0000000000105e0e                strlen
 .text          0x0000000000105e2e       0x3d binaries/strncat.o
                0x0000000000105e2e                strncat
 .text          0x0000000000105e6b       0x3b binaries/strncmp.o
                0x0000000000105e6b                strncmp
 .text          0x0000000000105ea6       0x59 binaries/strncpy.o
                0x0000000000105ea6                strncpy
 .text          0x0000000000105eff       0x38 binaries/strnlen.o
                0x0000000000105eff                strnlen
 .text          0x0000000000105f37       0x32 binaries/strrchr.o
                0x0000000000105f37                strrchr
 .text          0x0000000000105f69       0x68 binaries/strstr.o
                0x0000000000105f69                strstr
 .text          0x0000000000105fd1      0x112 binaries/ttycontrol.o
                0x0000000000105fd1                ttycontrol
 .text          0x00000000001060e3       0xb0 binaries/ttygetc.o
                0x00000000001060e3                ttygetc
 .text          0x0000000000106193      0x4a3 binaries/ttyhandle_in.o
                0x0000000000106257                ttyhandle_in
 .text          0x0000000000106636      0x178 binaries/ttyhandle_out.o
                0x0000000000106636                ttyhandle_out
 .text          0x00000000001067ae       0x85 binaries/ttyhandler.o
                0x00000000001067ae                ttyhandler
 .text          0x0000000000106833      0x15d binaries/ttyinit.o
                0x0000000000106833                ttyinit
 .text          0x0000000000106990        0xf binaries/ttykickout.o
                0x0000000000106990                ttykickout
 .text          0x000000000010699f       0xb2 binaries/ttyputc.o
                0x000000000010699f                ttyputc
 .text          0x0000000000106a51       0xff binaries/ttyread.o
                0x0000000000106a51                ttyread
 .text          0x0000000000106b50       0x4d binaries/ttywrite.o
                0x0000000000106b50                ttywrite
 .text          0x0000000000106b9d      0x129 binaries/mount.o
                0x0000000000106b9d                namlen
                0x0000000000106bd9                mount
 .text          0x0000000000106cc6      0x1c4 binaries/naminit.o
                0x0000000000106cc6                naminit
 .text          0x0000000000106e8a      0x1fe binaries/nammap.o
                0x0000000000106e8a                namrepl
                0x0000000000106fad                namcpy
                0x0000000000106ffb                nammap
 .text          0x0000000000107088       0x44 binaries/namopen.o
                0x0000000000107088                namopen
 .text          0x00000000001070cc       0xd4 binaries/colon2mac.o
                0x00000000001070cc                colon2mac
 .text          0x00000000001071a0       0x7d binaries/ethcontrol.o
                0x00000000001071a0                ethcontrol
 .text          0x000000000010721d      0x17e binaries/ethhandler.o
                0x000000000010721d                ethhandler
 .text          0x000000000010739b      0x548 binaries/ethinit.o
                0x000000000010739b                eth_phy_read
                0x00000000001073db                eth_phy_write
                0x000000000010741c                eth_phy_reset
                0x00000000001074f6                ethinit
 .text          0x00000000001078e3      0x107 binaries/ethmcast.o
                0x00000000001078e3                ethmcast_add
                0x000000000010792f                ethmcast_remove
 .text          0x00000000001079ea      0x172 binaries/ethread.o
                0x00000000001079ea                ethread
 .text          0x0000000000107b5c       0xc1 binaries/ethwrite.o
                0x0000000000107b5c                ethwrite
 .text          0x0000000000107c1d       0x68 binaries/rdsbufalloc.o
                0x0000000000107c1d                rdsbufalloc
 .text          0x0000000000107c85       0xd6 binaries/rdsclose.o
                0x0000000000107c85                rdsclose
 .text          0x0000000000107d5b      0x1df binaries/rdscomm.o
                0x0000000000107d5b                rdscomm
 .text          0x0000000000107f3a      0x1c4 binaries/rdscontrol.o
                0x0000000000107f3a                rdscontrol
 .text          0x00000000001080fe      0x1f7 binaries/rdsinit.o
                0x00000000001080fe                rdsinit
 .text          0x00000000001082f5      0x199 binaries/rdsopen.o
                0x00000000001082f5                rdsopen
 .text          0x000000000010848e      0x2c5 binaries/rdsprocess.o
                0x000000000010848e                rdsprocess
 .text          0x0000000000108753      0x1d8 binaries/rdsread.o
                0x0000000000108753                rdsread
 .text          0x000000000010892b      0x1ae binaries/rdswrite.o
                0x000000000010892b                rdswrite
 .text          0x0000000000108ad9        0xa binaries/ramclose.o
                0x0000000000108ad9                ramclose
 .text          0x0000000000108ae3       0x35 binaries/raminit.o
                0x0000000000108ae3                raminit
 .text          0x0000000000108b18        0xa binaries/ramopen.o
                0x0000000000108b18                ramopen
 .text          0x0000000000108b22       0x26 binaries/ramread.o
                0x0000000000108b22                ramread
 .text          0x0000000000108b48       0x26 binaries/ramwrite.o
                0x0000000000108b48                ramwrite
 .text          0x0000000000108b6e       0x87 binaries/lfdballoc.o
                0x0000000000108b6e                lfdballoc
 .text          0x0000000000108bf5       0x49 binaries/lfdbfree.o
                0x0000000000108bf5                lfdbfree
 .text          0x0000000000108c3e       0xa1 binaries/lfflush.o
                0x0000000000108c3e                lfflush
 .text          0x0000000000108cdf       0x82 binaries/lfgetmode.o
                0x0000000000108cdf                lfgetmode
 .text          0x0000000000108d61       0x60 binaries/lfiballoc.o
                0x0000000000108d61                lfiballoc
 .text          0x0000000000108dc1       0x27 binaries/lfibclear.o
                0x0000000000108dc1                lfibclear
 .text          0x0000000000108de8       0x6c binaries/lfibget.o
                0x0000000000108de8                lfibget
 .text          0x0000000000108e54       0x88 binaries/lfibput.o
                0x0000000000108e54                lfibput
 .text          0x0000000000108edc       0xa4 binaries/lflclose.o
                0x0000000000108edc                lflclose
 .text          0x0000000000108f80       0xc2 binaries/lflcontrol.o
                0x0000000000108f80                lflcontrol
 .text          0x0000000000109042       0xfd binaries/lflgetc.o
                0x0000000000109042                lflgetc
 .text          0x000000000010913f       0xe7 binaries/lflinit.o
                0x000000000010913f                lflinit
 .text          0x0000000000109226      0x12f binaries/lflputc.o
                0x0000000000109226                lflputc
 .text          0x0000000000109355       0x6b binaries/lflread.o
                0x0000000000109355                lflread
 .text          0x00000000001093c0       0xbd binaries/lflseek.o
                0x00000000001093c0                lflseek
 .text          0x000000000010947d       0x52 binaries/lflwrite.o
                0x000000000010947d                lflwrite
 .text          0x00000000001094cf      0x114 binaries/lfsckfmt.o
                0x00000000001094cf                lfsckfmt
 .text          0x00000000001095e3      0x1e6 binaries/lfscreate.o
                0x00000000001095e3                lfscreate
 .text          0x00000000001097c9      0x1b1 binaries/lfsetup.o
                0x00000000001097c9                lfsetup
 .text          0x000000000010997a       0x45 binaries/lfsinit.o
                0x000000000010997a                lfsinit
 .text          0x00000000001099bf      0x302 binaries/lfsopen.o
                0x00000000001099bf                lfsopen
 .text          0x0000000000109cc1      0x112 binaries/lftruncate.o
                0x0000000000109cc1                lftruncate
 .text          0x0000000000109dd3       0x69 binaries/rflclose.o
                0x0000000000109dd3                rflclose
 .text          0x0000000000109e3c       0x29 binaries/rflgetc.o
                0x0000000000109e3c                rflgetc
 .text          0x0000000000109e65       0x6c binaries/rflinit.o
                0x0000000000109e65                rflinit
 .text          0x0000000000109ed1       0x29 binaries/rflputc.o
                0x0000000000109ed1                rflputc
 .text          0x0000000000109efa      0x2b6 binaries/rflread.o
                0x0000000000109efa                rflread
 .text          0x000000000010a1b0       0x68 binaries/rflseek.o
                0x000000000010a1b0                rflseek
 .text          0x000000000010a218      0x2fa binaries/rflwrite.o
                0x000000000010a218                rflwrite
 .text          0x000000000010a512      0x17d binaries/rfscomm.o
                0x000000000010a512                rfscomm
 .text          0x000000000010a68f      0x22b binaries/rfscontrol.o
                0x000000000010a68f                rfscontrol
 .text          0x000000000010a8ba       0x82 binaries/rfsgetmode.o
                0x000000000010a8ba                rfsgetmode
 .text          0x000000000010a93c       0x7e binaries/rfsinit.o
                0x000000000010a93c                rfsinit
 .text          0x000000000010a9ba       0xad binaries/rfsndmsg.o
                0x000000000010a9ba                rfsndmsg
 .text          0x000000000010aa67      0x243 binaries/rfsopen.o
                0x000000000010aa67                rfsopen
 .text          0x000000000010acaa      0x626 binaries/arp.o
                0x000000000010acaa                arp_init
                0x000000000010acc6                arp_alloc
                0x000000000010ad6d                arp_ntoh
                0x000000000010adda                arp_hton
                0x000000000010ae47                arp_resolve
                0x000000000010b098                arp_in
 .text          0x000000000010b2d0      0x5ed binaries/dhcp.o
                0x000000000010b2d0                dhcp_get_opt_val
                0x000000000010b324                dhcp_bld_bootp_msg
                0x000000000010b3f6                dhcp_bld_disc
                0x000000000010b448                dhcp_bld_req
                0x000000000010b4e3                getlocalip
 .text          0x000000000010b8bd       0xda binaries/dot2ip.o
                0x000000000010b8bd                dot2ip
 .text          0x000000000010b997      0x38c binaries/hexdump.o
                0x000000000010b997                hexdump
                0x000000000010baf1                hexadump
 .text          0x000000000010bd23      0x6f6 binaries/icmp.o
                0x000000000010bd23                icmp_init
                0x000000000010bd3f                icmp_register
                0x000000000010bdfd                icmp_recv
                0x000000000010bfa0                icmp_mkpkt
                0x000000000010c06d                icmp_in
                0x000000000010c207                icmp_send
                0x000000000010c276                icmp_release
                0x000000000010c391                icmp_cksum
                0x000000000010c3eb                icmp_hton
                0x000000000010c402                icmp_ntoh
 .text          0x000000000010c419      0x5e2 binaries/ip.o
                0x000000000010c419                ip_local
                0x000000000010c459                ipcksum
                0x000000000010c4af                ip_ntoh
                0x000000000010c51c                ip_in
                0x000000000010c641                ip_hton
                0x000000000010c6ae                ip_out
                0x000000000010c764                ip_send
                0x000000000010c86f                ipout
                0x000000000010c962                ip_enqueue
 .text          0x000000000010c9fb      0x1b2 binaries/net.o
                0x000000000010c9fb                net_init
                0x000000000010caf2                eth_hton
                0x000000000010caff                eth_ntoh
                0x000000000010cb0c                netin
 .text          0x000000000010cbad       0xb9 binaries/netstart.o
                0x000000000010cbad                netstart
 .text          0x000000000010cc66      0xa30 binaries/pdump.o
                0x000000000010cc66                pdump
                0x000000000010d24b                pdumph
 .text          0x000000000010d696      0x5b8 binaries/tftp.o
                0x000000000010d696                tftp_send1
                0x000000000010d7aa                tftpget_mb
                0x000000000010dc2b                tftpget
 .text          0x000000000010dc4e      0xa17 binaries/udp.o
                0x000000000010dc4e                udp_init
                0x000000000010dc8f                udp_in
                0x000000000010ddb8                udp_register
                0x000000000010dec9                udp_recv
                0x000000000010e062                udp_recvaddr
                0x000000000010e20f                udp_send
                0x000000000010e3bd                udp_sendto
                0x000000000010e526                udp_release
                0x000000000010e637                udp_ntoh
                0x000000000010e64e                udp_hton
 .text          0x000000000010e665      0x10e binaries/addargs.o
                0x000000000010e665                addargs
 .text          0x000000000010e773      0x1db binaries/lexan.o
                0x000000000010e773                lexan
 .text          0x000000000010e94e      0x657 binaries/shell.o
                0x000000000010e94e                shell
 .text          0x000000000010efa5       0x59 binaries/xsh_argecho.o
                0x000000000010efa5                xsh_argecho
 .text          0x000000000010effe      0x1fb binaries/xsh_arp.o
                0x000000000010effe                xsh_arp
 .text          0x000000000010f1f9      0x1db binaries/xsh_cat.o
                0x000000000010f1f9                xsh_cat
 .text          0x000000000010f3d4       0x4f binaries/xsh_clear.o
                0x000000000010f3d4                xsh_clear
 .text          0x000000000010f423      0x278 binaries/xsh_date.o
                0x000000000010f423                xsh_date
 .text          0x000000000010f69b       0x80 binaries/xsh_devdump.o
                0x000000000010f69b                xsh_devdump
 .text          0x000000000010f71b       0x63 binaries/xsh_echo.o
                0x000000000010f71b                xsh_echo
 .text          0x000000000010f77e        0xa binaries/xsh_exit.o
                0x000000000010f77e                xsh_exit
 .text          0x000000000010f788      0x323 binaries/xsh_help.o
                0x000000000010f788                xsh_help
 .text          0x000000000010faab      0x367 binaries/xsh_ipaddr.o
                0x000000000010faab                xsh_ipaddr
 .text          0x000000000010fe12      0x1aa binaries/xsh_kill.o
                0x000000000010fe12                xsh_kill
 .text          0x000000000010ffbc      0x3bd binaries/xsh_memdump.o
                0x0000000000110082                xsh_memdump
 .text          0x0000000000110379      0x1cc binaries/xsh_memstat.o
                0x0000000000110379                xsh_memstat
 .text          0x0000000000110545      0x27f binaries/xsh_ping.o
                0x0000000000110545                xsh_ping
 .text          0x00000000001107c4      0x1a9 binaries/xsh_ps.o
                0x00000000001107c4                xsh_ps
 .text          0x000000000011096d      0x1a3 binaries/xsh_sleep.o
                0x000000000011096d                xsh_sleep
 .text          0x0000000000110b10      0x1c3 binaries/xsh_udpdump.o
                0x0000000000110b10                xsh_udpdump
 .text          0x0000000000110cd3      0x3ad binaries/xsh_udpecho.o
                0x0000000000110cd3                xsh_udpecho
 .text          0x0000000000111080      0x1fc binaries/xsh_udpeserver.o
                0x0000000000111080                xsh_udpeserver
 .text          0x000000000011127c      0x1b0 binaries/xsh_uptime.o
                0x000000000011127c                xsh_uptime
 .text          0x000000000011142c        0xe binaries/clkdisp.o
                0x000000000011142c                clkdisp
 .text          0x000000000011143a       0x19 binaries/ctxsw.o
                0x000000000011143a                ctxsw
 .text          0x0000000000111453        0xa binaries/host2netla.o
                0x0000000000111453                host2netla
 *fill*         0x000000000011145d        0x3 
 .text          0x0000000000111460       0x25 binaries/host2netlc.o
                0x0000000000111460                host2netlc
 .text.unlikely
                0x0000000000111485        0x0 binaries/host2netlc.o
 .text          0x0000000000111485      0x376 binaries/intr.o
                0x0000000000111485                disable
                0x000000000011148e                restore
                0x000000000011149c                enable
                0x000000000011149e                pause
                0x00000000001114a5                idle
                0x00000000001114b0                halt
                0x00000000001114b6                spurious_irq7
                0x00000000001114bb                spurious_irq15
                0x00000000001114ca                _Xint0
                0x00000000001114d5                _Xint1
                0x00000000001114e0                _Xint2
                0x00000000001114eb                _Xint3
                0x00000000001114f6                _Xint4
                0x0000000000111501                _Xint5
                0x000000000011150c                _Xint6
                0x0000000000111517                _Xint7
                0x0000000000111522                _Xint8
                0x000000000011152d                _Xint9
                0x0000000000111538                _Xint10
                0x0000000000111543                _Xint11
                0x0000000000111551                _Xint12
                0x000000000011155f                _Xint13
                0x000000000011156d                _Xint14
                0x000000000011157b                _Xint15
                0x0000000000111589                _Xint16
                0x0000000000111597                _Xint17
                0x00000000001115a5                _Xint18
                0x00000000001115b3                _Xint19
                0x00000000001115c1                _Xint20
                0x00000000001115cf                _Xint21
                0x00000000001115dd                _Xint22
                0x00000000001115eb                _Xint23
                0x00000000001115f9                _Xint24
                0x0000000000111607                _Xint25
                0x0000000000111615                _Xint26
                0x0000000000111623                _Xint27
                0x0000000000111631                _Xint28
                0x000000000011163f                _Xint29
                0x000000000011164d                _Xint30
                0x000000000011165b                _Xint31
                0x0000000000111669                _Xint32
                0x0000000000111677                _Xint33
                0x0000000000111685                _Xint34
                0x0000000000111693                _Xint35
                0x00000000001116a1                _Xint36
                0x00000000001116af                _Xint37
                0x00000000001116bd                _Xint38
                0x00000000001116cb                _Xint39
                0x00000000001116d9                _Xint40
                0x00000000001116e7                _Xint41
                0x00000000001116f5                _Xint42
                0x0000000000111703                _Xint43
                0x0000000000111711                _Xint44
                0x000000000011171f                _Xint45
                0x000000000011172d                _Xint46
                0x000000000011173b                defevec
 .text          0x00000000001117fb        0xf binaries/ttydispatch.o
                0x00000000001117fb                ttydispatch
 .text          0x000000000011180a       0x13 binaries/ethdispatch.o
                0x000000000011180a                ethdispatch
 *(.rodata .rodata.*)
 .rodata.str1.1
                0x000000000011181d       0x17 binaries/app1.o
 .rodata.str1.1
                0x0000000000111834        0x5 binaries/app2.o
                                         0x1c (size before relaxing)
 *fill*         0x0000000000111839        0x3 
 .rodata.str1.4
                0x000000000011183c       0x2d binaries/app2.o
 *fill*         0x0000000000111869        0x3 
 .rodata.str1.4
                0x000000000011186c       0x4a binaries/app3.o
 .rodata.str1.1
                0x00000000001118b6       0x29 binaries/app3.o
 .rodata.str1.1
                0x00000000001118df       0x54 binaries/ascdate.o
 *fill*         0x0000000000111933        0x1 
 .rodata.str1.4
                0x0000000000111934       0x22 binaries/ascdate.o
 *fill*         0x0000000000111956        0x2 
 .rodata        0x0000000000111958        0x4 binaries/clkhandler.o
                0x0000000000111958                MAX_UINT32
 .rodata.str1.1
                0x000000000011195c       0x5f binaries/conf.o
 *fill*         0x00000000001119bb        0x1 
 .rodata.str1.4
                0x00000000001119bc       0x4f binaries/early_imr.o
 *fill*         0x0000000000111a0b        0x1 
 .rodata        0x0000000000111a0c       0x33 binaries/early_imr.o
 .rodata.str1.1
                0x0000000000111a3f      0x20c binaries/evec.o
 *fill*         0x0000000000111c4b        0x1 
 .rodata.str1.4
                0x0000000000111c4c       0x23 binaries/evec.o
 .rodata.str1.1
                0x0000000000111c6f        0xb binaries/getutime.o
 *fill*         0x0000000000111c7a        0x2 
 .rodata.str1.4
                0x0000000000111c7c       0x54 binaries/getutime.o
 .rodata.str1.1
                0x0000000000111cd0       0x6b binaries/initialize.o
                                         0x6f (size before relaxing)
 *fill*         0x0000000000111d3b        0x1 
 .rodata.str1.4
                0x0000000000111d3c       0xd4 binaries/initialize.o
 .rodata.str1.4
                0x0000000000111e10       0x45 binaries/insert.o
 *fill*         0x0000000000111e55        0x3 
 .rodata        0x0000000000111e58       0x20 binaries/kill.o
 .rodata.str1.1
                0x0000000000111e78       0x7a binaries/lab2q3.o
 *fill*         0x0000000000111ef2        0x2 
 .rodata.str1.4
                0x0000000000111ef4      0x23b binaries/lab2q3.o
 .rodata.str1.1
                0x000000000011212f       0x39 binaries/main.o
 .rodata.str1.4
                0x0000000000112168       0x23 binaries/meminit.o
 .rodata.str1.1
                0x000000000011218b       0x1b binaries/meminit.o
 *fill*         0x00000000001121a6        0x2 
 .rodata.str1.4
                0x00000000001121a8      0x103 binaries/myappA.o
 *fill*         0x00000000001122ab        0x1 
 .rodata.str1.4
                0x00000000001122ac       0x57 binaries/myfuncA.o
 *fill*         0x0000000000112303        0x1 
 .rodata.str1.4
                0x0000000000112304       0x4c binaries/myhacker.o
 .rodata.str1.4
                0x0000000000112350      0x178 binaries/myvictim.o
 .rodata.str1.4
                0x00000000001124c8      0x19b binaries/mywelcomemsg.o
 .rodata.str1.1
                0x0000000000112663       0x16 binaries/mywelcomemsg.o
 .rodata.str1.1
                0x0000000000112679        0xf binaries/panic.o
 .rodata.str1.4
                0x0000000000112688       0xe1 binaries/printsegaddr.o
 .rodata.str1.1
                0x0000000000112769       0x1c binaries/ptinit.o
 *fill*         0x0000000000112785        0x3 
 .rodata.str1.4
                0x0000000000112788       0x25 binaries/ptsend.o
 .rodata.str1.1
                0x00000000001127ad       0x22 binaries/quark_pdat.o
 *fill*         0x00000000001127cf        0x1 
 .rodata.str1.4
                0x00000000001127d0       0x58 binaries/stackdepth.o
 .rodata.str1.1
                0x0000000000112828       0x1b binaries/stackdepth.o
 *fill*         0x0000000000112843        0x1 
 .rodata.str1.4
                0x0000000000112844       0x63 binaries/stacktrace.o
 .rodata.str1.1
                0x00000000001128a7       0x52 binaries/stacktrace.o
 .rodata.str1.1
                0x00000000001128f9       0x1c binaries/teststackdepth.o
 *fill*         0x0000000000112915        0x3 
 .rodata.str1.4
                0x0000000000112918       0x27 binaries/xdone.o
 *fill*         0x000000000011293f        0x1 
 .rodata        0x0000000000112940       0x81 binaries/ctype_.o
                0x0000000000112940                _ctype_
 .rodata.str1.1
                0x00000000001129c1       0x29 binaries/doprnt.o
 *fill*         0x00000000001129ea        0x2 
 .rodata        0x00000000001129ec       0xc4 binaries/doprnt.o
 .rodata        0x0000000000112ab0       0x98 binaries/doscan.o
 .rodata.str1.1
                0x0000000000112b48       0x29 binaries/fdoprnt.o
 .rodata        0x0000000000112b48       0x84 binaries/fdoprnt.o
 .rodata        0x0000000000112bcc       0x20 binaries/ttycontrol.o
 .rodata.str1.4
                0x0000000000112bec       0x4c binaries/naminit.o
 .rodata.str1.1
                0x0000000000112c38       0x32 binaries/naminit.o
                                         0x35 (size before relaxing)
 .rodata.str1.1
                0x0000000000112c6a       0x15 binaries/ethinit.o
 *fill*         0x0000000000112c7f        0x1 
 .rodata.str1.4
                0x0000000000112c80       0x2e binaries/ethinit.o
 *fill*         0x0000000000112cae        0x2 
 .rodata.str1.4
                0x0000000000112cb0       0x2c binaries/rdsbufalloc.o
 .rodata.str1.4
                0x0000000000112cdc       0x76 binaries/rdscomm.o
 *fill*         0x0000000000112d52        0x2 
 .rodata.str1.4
                0x0000000000112d54       0x48 binaries/rdscontrol.o
 .rodata.str1.4
                0x0000000000112d9c       0x7e binaries/rdsinit.o
 .rodata.str1.1
                0x0000000000112e1a       0x18 binaries/rdsinit.o
 *fill*         0x0000000000112e32        0x2 
 .rodata.str1.4
                0x0000000000112e34       0x22 binaries/rdsopen.o
 *fill*         0x0000000000112e56        0x2 
 .rodata.str1.4
                0x0000000000112e58       0x4d binaries/rdsprocess.o
 .rodata.str1.1
                0x0000000000112ea5        0x9 binaries/raminit.o
 .rodata.str1.1
                0x0000000000112eae       0x13 binaries/lfdballoc.o
 *fill*         0x0000000000112ec1        0x3 
 .rodata.str1.4
                0x0000000000112ec4       0x23 binaries/lfdballoc.o
 .rodata.str1.1
                0x0000000000112ee7       0x14 binaries/lfiballoc.o
 *fill*         0x0000000000112efb        0x1 
 .rodata.str1.4
                0x0000000000112efc       0x23 binaries/lflcontrol.o
 .rodata.str1.1
                0x0000000000112f1f       0x64 binaries/lfsckfmt.o
 *fill*         0x0000000000112f83        0x1 
 .rodata.str1.4
                0x0000000000112f84       0x51 binaries/lfsckfmt.o
 *fill*         0x0000000000112fd5        0x3 
 .rodata.str1.4
                0x0000000000112fd8       0x21 binaries/rflread.o
 .rodata.str1.4
                0x0000000000112ff9       0x21 binaries/rflwrite.o
 *fill*         0x0000000000112ff9        0x3 
 .rodata.str1.4
                0x0000000000112ffc       0x75 binaries/rfscomm.o
 *fill*         0x0000000000113071        0x3 
 .rodata.str1.4
                0x0000000000113074       0x23 binaries/rfscontrol.o
 *fill*         0x0000000000113097        0x1 
 .rodata        0x0000000000113098       0x18 binaries/rfscontrol.o
 .rodata.str1.1
                0x00000000001130b0       0x10 binaries/rfsinit.o
 .rodata.str1.4
                0x00000000001130b0       0x57 binaries/rfsinit.o
 *fill*         0x0000000000113107        0x1 
 .rodata.str1.4
                0x0000000000113108       0x2a binaries/rfsndmsg.o
 .rodata.str1.4
                0x0000000000113132       0x22 binaries/rfsopen.o
 .rodata.str1.1
                0x0000000000113132       0x19 binaries/arp.o
 *fill*         0x000000000011314b        0x1 
 .rodata.str1.4
                0x000000000011314c       0x21 binaries/arp.o
 *fill*         0x000000000011316d        0x3 
 .rodata.str1.4
                0x0000000000113170       0xa6 binaries/dhcp.o
 .rodata.str1.1
                0x0000000000113216       0x4a binaries/dhcp.o
 .rodata.str1.1
                0x0000000000113260       0x5a binaries/hexdump.o
                                         0x61 (size before relaxing)
 *fill*         0x00000000001132ba        0x2 
 .rodata.str1.4
                0x00000000001132bc       0x67 binaries/hexdump.o
 *fill*         0x0000000000113323        0x1 
 .rodata.str1.4
                0x0000000000113324       0x29 binaries/icmp.o
 .rodata.str1.1
                0x000000000011334d       0x4e binaries/ip.o
 *fill*         0x000000000011339b        0x1 
 .rodata.str1.4
                0x000000000011339c       0x20 binaries/ip.o
 .rodata.str1.4
                0x00000000001133bc       0x28 binaries/net.o
 .rodata.str1.1
                0x00000000001133e4       0x27 binaries/net.o
 *fill*         0x000000000011340b        0x1 
 .rodata.str1.4
                0x000000000011340c       0xcf binaries/netstart.o
 .rodata.str1.1
                0x00000000001134db      0x141 binaries/pdump.o
                                        0x14b (size before relaxing)
 .rodata.str1.4
                0x000000000011361c      0x126 binaries/pdump.o
 *fill*         0x0000000000113742        0x2 
 .rodata.str1.4
                0x0000000000113744      0x148 binaries/tftp.o
 .rodata.str1.1
                0x000000000011388c        0x6 binaries/tftp.o
                                          0xa (size before relaxing)
 .rodata.str1.1
                0x0000000000113892       0xe3 binaries/shell.o
                                         0xff (size before relaxing)
 *fill*         0x0000000000113975        0x3 
 .rodata.str1.4
                0x0000000000113978      0x1e8 binaries/shell.o
 .rodata        0x0000000000113b60       0xfc binaries/shell.o
                0x0000000000113b60                cmdtab
 .rodata.str1.1
                0x0000000000113c5c       0x26 binaries/xsh_argecho.o
                                         0x28 (size before relaxing)
 .rodata.str1.1
                0x0000000000113c82       0x70 binaries/xsh_arp.o
                                         0x72 (size before relaxing)
 *fill*         0x0000000000113cf2        0x2 
 .rodata.str1.4
                0x0000000000113cf4       0xb4 binaries/xsh_arp.o
 .rodata.str1.1
                0x0000000000113da8       0x2d binaries/xsh_cat.o
                                         0x4f (size before relaxing)
 *fill*         0x0000000000113dd5        0x3 
 .rodata.str1.4
                0x0000000000113dd8       0x52 binaries/xsh_cat.o
                                         0x79 (size before relaxing)
 .rodata.str1.1
                0x0000000000113e2a       0x15 binaries/xsh_clear.o
 .rodata.str1.1
                0x0000000000113e3f       0x46 binaries/xsh_date.o
                                         0x5f (size before relaxing)
 *fill*         0x0000000000113e85        0x3 
 .rodata.str1.4
                0x0000000000113e88      0x163 binaries/xsh_date.o
 .rodata.str1.1
                0x0000000000113feb       0x5d binaries/xsh_devdump.o
 .rodata.str1.1
                0x0000000000114048        0x4 binaries/xsh_echo.o
                                          0x9 (size before relaxing)
 .rodata.str1.1
                0x000000000011404c       0x65 binaries/xsh_help.o
                                         0xa3 (size before relaxing)
 *fill*         0x00000000001140b1        0x3 
 .rodata.str1.4
                0x00000000001140b4       0x7c binaries/xsh_help.o
                                         0xc6 (size before relaxing)
 .rodata.str1.1
                0x0000000000114130       0x9c binaries/xsh_ipaddr.o
                                         0xf8 (size before relaxing)
 .rodata.str1.4
                0x00000000001141cc       0x4d binaries/xsh_ipaddr.o
                                         0x99 (size before relaxing)
 .rodata.str1.1
                0x0000000000114219       0x78 binaries/xsh_kill.o
                                         0x97 (size before relaxing)
 *fill*         0x0000000000114291        0x3 
 .rodata.str1.4
                0x0000000000114294       0x4a binaries/xsh_kill.o
                                         0x96 (size before relaxing)
 .rodata.str1.1
                0x00000000001142de       0x84 binaries/xsh_memdump.o
                                         0xa8 (size before relaxing)
 *fill*         0x0000000000114362        0x2 
 .rodata.str1.4
                0x0000000000114364      0x15a binaries/xsh_memdump.o
                                        0x1aa (size before relaxing)
 .rodata.str1.1
                0x00000000001144be       0x40 binaries/xsh_memstat.o
                                         0x79 (size before relaxing)
 *fill*         0x00000000001144fe        0x2 
 .rodata.str1.4
                0x0000000000114500      0x187 binaries/xsh_memstat.o
                                        0x1af (size before relaxing)
 .rodata.str1.1
                0x0000000000114687       0x90 binaries/xsh_ping.o
                                         0xaf (size before relaxing)
 *fill*         0x0000000000114717        0x1 
 .rodata.str1.4
                0x0000000000114718       0x77 binaries/xsh_ping.o
                                         0xc6 (size before relaxing)
 .rodata.str1.1
                0x000000000011478f       0x6c binaries/xsh_ps.o
                                         0xde (size before relaxing)
 *fill*         0x00000000001147fb        0x1 
 .rodata.str1.4
                0x00000000001147fc       0x88 binaries/xsh_ps.o
                                         0xd8 (size before relaxing)
 *fill*         0x0000000000114884       0x1c 
 .rodata        0x00000000001148a0       0x20 binaries/xsh_ps.o
 .rodata.str1.1
                0x00000000001148c0       0x31 binaries/xsh_sleep.o
                                         0x72 (size before relaxing)
 *fill*         0x00000000001148f1        0x3 
 .rodata.str1.4
                0x00000000001148f4       0x2a binaries/xsh_sleep.o
                                         0x7a (size before relaxing)
 .rodata.str1.1
                0x000000000011491e       0x6b binaries/xsh_udpdump.o
                                         0xd2 (size before relaxing)
 *fill*         0x0000000000114989        0x3 
 .rodata.str1.4
                0x000000000011498c       0x94 binaries/xsh_udpdump.o
                                         0xe4 (size before relaxing)
 .rodata.str1.1
                0x0000000000114a20       0xdb binaries/xsh_udpecho.o
                                         0xfa (size before relaxing)
 *fill*         0x0000000000114afb        0x1 
 .rodata.str1.4
                0x0000000000114afc       0xc7 binaries/xsh_udpecho.o
                                        0x116 (size before relaxing)
 .rodata.str1.1
                0x0000000000114bc3       0x66 binaries/xsh_udpeserver.o
                                         0x8f (size before relaxing)
 *fill*         0x0000000000114c29        0x3 
 .rodata.str1.4
                0x0000000000114c2c       0x29 binaries/xsh_udpeserver.o
                                         0x9f (size before relaxing)
 .rodata.str1.1
                0x0000000000114c55       0x49 binaries/xsh_uptime.o
                                         0x8c (size before relaxing)
 *fill*         0x0000000000114c9e        0x2 
 .rodata.str1.4
                0x0000000000114ca0       0x28 binaries/xsh_uptime.o
                                         0x76 (size before relaxing)
                0x0000000000114cc8                etext = ABSOLUTE (.)
                0x0000000000115000                . = ALIGN (0x1000)
 *fill*         0x0000000000114cc8      0x338 

.eh_frame       0x0000000000115000     0x332c
 .eh_frame      0x0000000000115000       0x3c binaries/app1.o
 .eh_frame      0x000000000011503c       0x28 binaries/app2.o
                                         0x40 (size before relaxing)
 .eh_frame      0x0000000000115064       0x24 binaries/app3.o
                                         0x3c (size before relaxing)
 .eh_frame      0x0000000000115088       0x30 binaries/ascdate.o
                                         0x48 (size before relaxing)
 .eh_frame      0x00000000001150b8       0x20 binaries/bufinit.o
                                         0x38 (size before relaxing)
 .eh_frame      0x00000000001150d8       0x2c binaries/chprio.o
                                         0x44 (size before relaxing)
 .eh_frame      0x0000000000115104       0x20 binaries/clkhandler.o
                                         0x38 (size before relaxing)
 .eh_frame      0x0000000000115124       0x20 binaries/clkinit.o
                                         0x38 (size before relaxing)
 .eh_frame      0x0000000000115144       0x28 binaries/close.o
                                         0x40 (size before relaxing)
 .eh_frame      0x000000000011516c       0x28 binaries/control.o
                                         0x40 (size before relaxing)
 .eh_frame      0x0000000000115194       0x30 binaries/create.o
                                         0x48 (size before relaxing)
 .eh_frame      0x00000000001151c4       0x94 binaries/early_imr.o
                                         0xac (size before relaxing)
 .eh_frame      0x0000000000115258       0x94 binaries/evec.o
                                         0xac (size before relaxing)
 .eh_frame      0x00000000001152ec       0x24 binaries/factorial.o
                                         0x3c (size before relaxing)
 .eh_frame      0x0000000000115310       0x2c binaries/freebuf.o
                                         0x44 (size before relaxing)
 .eh_frame      0x000000000011533c       0x2c binaries/freemem.o
                                         0x44 (size before relaxing)
 .eh_frame      0x0000000000115368       0x2c binaries/getbuf.o
                                         0x44 (size before relaxing)
 .eh_frame      0x0000000000115394       0x28 binaries/getc.o
                                         0x40 (size before relaxing)
 .eh_frame      0x00000000001153bc       0x2c binaries/getdev.o
                                         0x44 (size before relaxing)
 .eh_frame      0x00000000001153e8       0x64 binaries/getitem.o
                                         0x7c (size before relaxing)
 .eh_frame      0x000000000011544c       0x28 binaries/getmem.o
                                         0x40 (size before relaxing)
 .eh_frame      0x0000000000115474       0x20 binaries/getpid.o
                                         0x38 (size before relaxing)
 .eh_frame      0x0000000000115494       0x20 binaries/getpname.o
                                         0x38 (size before relaxing)
 .eh_frame      0x00000000001154b4       0x20 binaries/getppid.o
                                         0x38 (size before relaxing)
 .eh_frame      0x00000000001154d4       0x24 binaries/getprio.o
                                         0x3c (size before relaxing)
 .eh_frame      0x00000000001154f8       0x2c binaries/getstk.o
                                         0x44 (size before relaxing)
 .eh_frame      0x0000000000115524       0x20 binaries/gettime.o
                                         0x38 (size before relaxing)
 .eh_frame      0x0000000000115544       0x24 binaries/getutime.o
                                         0x3c (size before relaxing)
 .eh_frame      0x0000000000115568       0x20 binaries/host2netlb.o
                                         0x38 (size before relaxing)
 .eh_frame      0x0000000000115588       0x28 binaries/init.o
                                         0x40 (size before relaxing)
 .eh_frame      0x00000000001155b0       0x68 binaries/initialize.o
                                         0x80 (size before relaxing)
 .eh_frame      0x0000000000115618       0x28 binaries/insert.o
                                         0x40 (size before relaxing)
 .eh_frame      0x0000000000115640       0x2c binaries/insertd.o
                                         0x44 (size before relaxing)
 .eh_frame      0x000000000011566c       0x20 binaries/ioerr.o
                                         0x38 (size before relaxing)
 .eh_frame      0x000000000011568c       0x20 binaries/ionull.o
                                         0x38 (size before relaxing)
 .eh_frame      0x00000000001156ac       0x30 binaries/kill.o
                                         0x48 (size before relaxing)
 .eh_frame      0x00000000001156dc       0x80 binaries/kprintf.o
                                         0x98 (size before relaxing)
 .eh_frame      0x000000000011575c      0x108 binaries/lab2q3.o
                                        0x120 (size before relaxing)
 .eh_frame      0x0000000000115864       0x2c binaries/main.o
                                         0x44 (size before relaxing)
 .eh_frame      0x0000000000115890       0x44 binaries/mark.o
                                         0x5c (size before relaxing)
 .eh_frame      0x00000000001158d4       0x50 binaries/meminit.o
                                         0x68 (size before relaxing)
 .eh_frame      0x0000000000115924       0x30 binaries/mkbufpool.o
                                         0x48 (size before relaxing)
 .eh_frame      0x0000000000115954       0x2c binaries/myappA.o
                                         0x44 (size before relaxing)
 .eh_frame      0x0000000000115980       0x20 binaries/myfuncA.o
                                         0x38 (size before relaxing)
 .eh_frame      0x00000000001159a0       0x64 binaries/myhacker.o
                                         0x7c (size before relaxing)
 .eh_frame      0x0000000000115a04       0x60 binaries/myvictim.o
                                         0x78 (size before relaxing)
 .eh_frame      0x0000000000115a64       0x20 binaries/mywelcomemsg.o
                                         0x38 (size before relaxing)
 .eh_frame      0x0000000000115a84       0x20 binaries/newqueue.o
                                         0x38 (size before relaxing)
 .eh_frame      0x0000000000115aa4       0x28 binaries/open.o
                                         0x40 (size before relaxing)
 .eh_frame      0x0000000000115acc       0x1c binaries/panic.o
                                         0x34 (size before relaxing)
 .eh_frame      0x0000000000115ae8      0x12c binaries/pci.o
                                        0x144 (size before relaxing)
 .eh_frame      0x0000000000115c14       0x20 binaries/platinit.o
                                         0x38 (size before relaxing)
 .eh_frame      0x0000000000115c34       0x20 binaries/printsegaddr.o
                                         0x38 (size before relaxing)
 .eh_frame      0x0000000000115c54       0x2c binaries/ptclear.o
                                         0x44 (size before relaxing)
 .eh_frame      0x0000000000115c80       0x2c binaries/ptcount.o
                                         0x44 (size before relaxing)
 .eh_frame      0x0000000000115cac       0x2c binaries/ptcreate.o
                                         0x44 (size before relaxing)
 .eh_frame      0x0000000000115cd8       0x28 binaries/ptdelete.o
                                         0x40 (size before relaxing)
 .eh_frame      0x0000000000115d00       0x28 binaries/ptinit.o
                                         0x40 (size before relaxing)
 .eh_frame      0x0000000000115d28       0x2c binaries/ptrecv.o
                                         0x44 (size before relaxing)
 .eh_frame      0x0000000000115d54       0x28 binaries/ptreset.o
                                         0x40 (size before relaxing)
 .eh_frame      0x0000000000115d7c       0x30 binaries/ptsend.o
                                         0x48 (size before relaxing)
 .eh_frame      0x0000000000115dac       0x2c binaries/putc.o
                                         0x44 (size before relaxing)
 .eh_frame      0x0000000000115dd8       0x24 binaries/quark_irq.o
                                         0x3c (size before relaxing)
 .eh_frame      0x0000000000115dfc       0x54 binaries/quark_pdat.o
                                         0x6c (size before relaxing)
 .eh_frame      0x0000000000115e50       0x40 binaries/queue.o
                                         0x58 (size before relaxing)
 .eh_frame      0x0000000000115e90       0x28 binaries/read.o
                                         0x40 (size before relaxing)
 .eh_frame      0x0000000000115eb8       0x20 binaries/ready.o
                                         0x38 (size before relaxing)
 .eh_frame      0x0000000000115ed8       0x2c binaries/receive.o
                                         0x44 (size before relaxing)
 .eh_frame      0x0000000000115f04       0x24 binaries/recvclr.o
                                         0x3c (size before relaxing)
 .eh_frame      0x0000000000115f28       0x2c binaries/recvtime.o
                                         0x44 (size before relaxing)
 .eh_frame      0x0000000000115f54       0x4c binaries/resched.o
                                         0x64 (size before relaxing)
 .eh_frame      0x0000000000115fa0       0x2c binaries/resume.o
                                         0x44 (size before relaxing)
 .eh_frame      0x0000000000115fcc       0x28 binaries/seek.o
                                         0x40 (size before relaxing)
 .eh_frame      0x0000000000115ff4       0x24 binaries/semcount.o
                                         0x3c (size before relaxing)
 .eh_frame      0x0000000000116018       0x2c binaries/semcreate.o
                                         0x44 (size before relaxing)
 .eh_frame      0x0000000000116044       0x2c binaries/semdelete.o
                                         0x44 (size before relaxing)
 .eh_frame      0x0000000000116070       0x2c binaries/semreset.o
                                         0x44 (size before relaxing)
 .eh_frame      0x000000000011609c       0x28 binaries/send.o
                                         0x40 (size before relaxing)
 .eh_frame      0x00000000001160c4       0x28 binaries/signal.o
                                         0x40 (size before relaxing)
 .eh_frame      0x00000000001160ec       0x2c binaries/signaln.o
                                         0x44 (size before relaxing)
 .eh_frame      0x0000000000116118       0x48 binaries/sleep.o
                                         0x60 (size before relaxing)
 .eh_frame      0x0000000000116160       0x2c binaries/stackdepth.o
                                         0x44 (size before relaxing)
 .eh_frame      0x000000000011618c       0x30 binaries/stacktrace.o
                                         0x48 (size before relaxing)
 .eh_frame      0x00000000001161bc       0x28 binaries/suspend.o
                                         0x40 (size before relaxing)
 .eh_frame      0x00000000001161e4       0x20 binaries/teststackdepth.o
                                         0x38 (size before relaxing)
 .eh_frame      0x0000000000116204       0x28 binaries/unsleep.o
                                         0x40 (size before relaxing)
 .eh_frame      0x000000000011622c       0x20 binaries/userret.o
                                         0x38 (size before relaxing)
 .eh_frame      0x000000000011624c       0x28 binaries/wait.o
                                         0x40 (size before relaxing)
 .eh_frame      0x0000000000116274       0x20 binaries/wakeup.o
                                         0x38 (size before relaxing)
 .eh_frame      0x0000000000116294       0x28 binaries/write.o
                                         0x40 (size before relaxing)
 .eh_frame      0x00000000001162bc       0x20 binaries/xdone.o
                                         0x38 (size before relaxing)
 .eh_frame      0x00000000001162dc       0x24 binaries/yield.o
                                         0x3c (size before relaxing)
 .eh_frame      0x0000000000116300       0x20 binaries/abs.o
                                         0x38 (size before relaxing)
 .eh_frame      0x0000000000116320       0x28 binaries/atoi.o
                                         0x40 (size before relaxing)
 .eh_frame      0x0000000000116348       0x28 binaries/atol.o
                                         0x40 (size before relaxing)
 .eh_frame      0x0000000000116370       0x20 binaries/bzero.o
                                         0x38 (size before relaxing)
 .eh_frame      0x0000000000116390       0xac binaries/doprnt.o
                                         0xc4 (size before relaxing)
 .eh_frame      0x000000000011643c       0x30 binaries/doscan.o
                                         0x48 (size before relaxing)
 .eh_frame      0x000000000011646c       0x5c binaries/fdoprnt.o
                                         0x74 (size before relaxing)
 .eh_frame      0x00000000001164c8       0x20 binaries/fgetc.o
                                         0x38 (size before relaxing)
 .eh_frame      0x00000000001164e8       0x2c binaries/fgets.o
                                         0x44 (size before relaxing)
 .eh_frame      0x0000000000116514       0x20 binaries/fprintf.o
                                         0x38 (size before relaxing)
 .eh_frame      0x0000000000116534       0x20 binaries/fputc.o
                                         0x38 (size before relaxing)
 .eh_frame      0x0000000000116554       0x28 binaries/fputs.o
                                         0x40 (size before relaxing)
 .eh_frame      0x000000000011657c       0x64 binaries/fscanf.o
                                         0x7c (size before relaxing)
 .eh_frame      0x00000000001165e0       0x20 binaries/getchar.o
                                         0x38 (size before relaxing)
 .eh_frame      0x0000000000116600       0x20 binaries/labs.o
                                         0x38 (size before relaxing)
 .eh_frame      0x0000000000116620       0x20 binaries/memchr.o
                                         0x38 (size before relaxing)
 .eh_frame      0x0000000000116640       0x28 binaries/memcmp.o
                                         0x40 (size before relaxing)
 .eh_frame      0x0000000000116668       0x28 binaries/memcpy.o
                                         0x40 (size before relaxing)
 .eh_frame      0x0000000000116690       0x24 binaries/memset.o
                                         0x3c (size before relaxing)
 .eh_frame      0x00000000001166b4       0x20 binaries/printf.o
                                         0x38 (size before relaxing)
 .eh_frame      0x00000000001166d4       0x20 binaries/putchar.o
                                         0x38 (size before relaxing)
 .eh_frame      0x00000000001166f4       0xa4 binaries/qsort.o
                                         0xbc (size before relaxing)
 .eh_frame      0x0000000000116798       0x40 binaries/rand.o
                                         0x58 (size before relaxing)
 .eh_frame      0x00000000001167d8       0x48 binaries/sprintf.o
                                         0x60 (size before relaxing)
 .eh_frame      0x0000000000116820       0x60 binaries/sscanf.o
                                         0x78 (size before relaxing)
 .eh_frame      0x0000000000116880       0x24 binaries/strchr.o
                                         0x3c (size before relaxing)
 .eh_frame      0x00000000001168a4       0x24 binaries/strcmp.o
                                         0x3c (size before relaxing)
 .eh_frame      0x00000000001168c8       0x20 binaries/strcpy.o
                                         0x38 (size before relaxing)
 .eh_frame      0x00000000001168e8       0x20 binaries/strlen.o
                                         0x38 (size before relaxing)
 .eh_frame      0x0000000000116908       0x2c binaries/strncat.o
                                         0x44 (size before relaxing)
 .eh_frame      0x0000000000116934       0x24 binaries/strncmp.o
                                         0x3c (size before relaxing)
 .eh_frame      0x0000000000116958       0x2c binaries/strncpy.o
                                         0x44 (size before relaxing)
 .eh_frame      0x0000000000116984       0x24 binaries/strnlen.o
                                         0x3c (size before relaxing)
 .eh_frame      0x00000000001169a8       0x24 binaries/strrchr.o
                                         0x3c (size before relaxing)
 .eh_frame      0x00000000001169cc       0x2c binaries/strstr.o
                                         0x44 (size before relaxing)
 .eh_frame      0x00000000001169f8       0x30 binaries/ttycontrol.o
                                         0x48 (size before relaxing)
 .eh_frame      0x0000000000116a28       0x2c binaries/ttygetc.o
                                         0x44 (size before relaxing)
 .eh_frame      0x0000000000116a54       0x84 binaries/ttyhandle_in.o
                                         0x9c (size before relaxing)
 .eh_frame      0x0000000000116ad8       0x30 binaries/ttyhandle_out.o
                                         0x48 (size before relaxing)
 .eh_frame      0x0000000000116b08       0x28 binaries/ttyhandler.o
                                         0x40 (size before relaxing)
 .eh_frame      0x0000000000116b30       0x30 binaries/ttyinit.o
                                         0x48 (size before relaxing)
 .eh_frame      0x0000000000116b60       0x20 binaries/ttykickout.o
                                         0x38 (size before relaxing)
 .eh_frame      0x0000000000116b80       0x2c binaries/ttyputc.o
                                         0x44 (size before relaxing)
 .eh_frame      0x0000000000116bac       0x2c binaries/ttyread.o
                                         0x44 (size before relaxing)
 .eh_frame      0x0000000000116bd8       0x2c binaries/ttywrite.o
                                         0x44 (size before relaxing)
 .eh_frame      0x0000000000116c04       0x4c binaries/mount.o
                                         0x64 (size before relaxing)
 .eh_frame      0x0000000000116c50       0x30 binaries/naminit.o
                                         0x48 (size before relaxing)
 .eh_frame      0x0000000000116c80       0x84 binaries/nammap.o
                                         0x9c (size before relaxing)
 .eh_frame      0x0000000000116d04       0x20 binaries/namopen.o
                                         0x38 (size before relaxing)
 .eh_frame      0x0000000000116d24       0x2c binaries/colon2mac.o
                                         0x44 (size before relaxing)
 .eh_frame      0x0000000000116d50       0x20 binaries/ethcontrol.o
                                         0x38 (size before relaxing)
 .eh_frame      0x0000000000116d70       0x30 binaries/ethhandler.o
                                         0x48 (size before relaxing)
 .eh_frame      0x0000000000116da0       0x98 binaries/ethinit.o
                                         0xb0 (size before relaxing)
 .eh_frame      0x0000000000116e38       0x54 binaries/ethmcast.o
                                         0x6c (size before relaxing)
 .eh_frame      0x0000000000116e8c       0x30 binaries/ethread.o
                                         0x48 (size before relaxing)
 .eh_frame      0x0000000000116ebc       0x2c binaries/ethwrite.o
                                         0x44 (size before relaxing)
 .eh_frame      0x0000000000116ee8       0x24 binaries/rdsbufalloc.o
                                         0x3c (size before relaxing)
 .eh_frame      0x0000000000116f0c       0x2c binaries/rdsclose.o
                                         0x44 (size before relaxing)
 .eh_frame      0x0000000000116f38       0x30 binaries/rdscomm.o
                                         0x48 (size before relaxing)
 .eh_frame      0x0000000000116f68       0x30 binaries/rdscontrol.o
                                         0x48 (size before relaxing)
 .eh_frame      0x0000000000116f98       0x30 binaries/rdsinit.o
                                         0x48 (size before relaxing)
 .eh_frame      0x0000000000116fc8       0x30 binaries/rdsopen.o
                                         0x48 (size before relaxing)
 .eh_frame      0x0000000000116ff8       0x20 binaries/rdsprocess.o
                                         0x38 (size before relaxing)
 .eh_frame      0x0000000000117018       0x30 binaries/rdsread.o
                                         0x48 (size before relaxing)
 .eh_frame      0x0000000000117048       0x30 binaries/rdswrite.o
                                         0x48 (size before relaxing)
 .eh_frame      0x0000000000117078       0x20 binaries/ramclose.o
                                         0x38 (size before relaxing)
 .eh_frame      0x0000000000117098       0x20 binaries/raminit.o
                                         0x38 (size before relaxing)
 .eh_frame      0x00000000001170b8       0x20 binaries/ramopen.o
                                         0x38 (size before relaxing)
 .eh_frame      0x00000000001170d8       0x20 binaries/ramread.o
                                         0x38 (size before relaxing)
 .eh_frame      0x00000000001170f8       0x20 binaries/ramwrite.o
                                         0x38 (size before relaxing)
 .eh_frame      0x0000000000117118       0x28 binaries/lfdballoc.o
                                         0x40 (size before relaxing)
 .eh_frame      0x0000000000117140       0x24 binaries/lfdbfree.o
                                         0x3c (size before relaxing)
 .eh_frame      0x0000000000117164       0x24 binaries/lfflush.o
                                         0x3c (size before relaxing)
 .eh_frame      0x0000000000117188       0x20 binaries/lfgetmode.o
                                         0x38 (size before relaxing)
 .eh_frame      0x00000000001171a8       0x24 binaries/lfiballoc.o
                                         0x3c (size before relaxing)
 .eh_frame      0x00000000001171cc       0x20 binaries/lfibclear.o
                                         0x38 (size before relaxing)
 .eh_frame      0x00000000001171ec       0x2c binaries/lfibget.o
                                         0x44 (size before relaxing)
 .eh_frame      0x0000000000117218       0x2c binaries/lfibput.o
                                         0x44 (size before relaxing)
 .eh_frame      0x0000000000117244       0x28 binaries/lflclose.o
                                         0x40 (size before relaxing)
 .eh_frame      0x000000000011726c       0x2c binaries/lflcontrol.o
                                         0x44 (size before relaxing)
 .eh_frame      0x0000000000117298       0x2c binaries/lflgetc.o
                                         0x44 (size before relaxing)
 .eh_frame      0x00000000001172c4       0x2c binaries/lflinit.o
                                         0x44 (size before relaxing)
 .eh_frame      0x00000000001172f0       0x30 binaries/lflputc.o
                                         0x48 (size before relaxing)
 .eh_frame      0x0000000000117320       0x2c binaries/lflread.o
                                         0x44 (size before relaxing)
 .eh_frame      0x000000000011734c       0x2c binaries/lflseek.o
                                         0x44 (size before relaxing)
 .eh_frame      0x0000000000117378       0x2c binaries/lflwrite.o
                                         0x44 (size before relaxing)
 .eh_frame      0x00000000001173a4       0x30 binaries/lfsckfmt.o
                                         0x48 (size before relaxing)
 .eh_frame      0x00000000001173d4       0x30 binaries/lfscreate.o
                                         0x48 (size before relaxing)
 .eh_frame      0x0000000000117404       0x30 binaries/lfsetup.o
                                         0x48 (size before relaxing)
 .eh_frame      0x0000000000117434       0x20 binaries/lfsinit.o
                                         0x38 (size before relaxing)
 .eh_frame      0x0000000000117454       0x30 binaries/lfsopen.o
                                         0x48 (size before relaxing)
 .eh_frame      0x0000000000117484       0x30 binaries/lftruncate.o
                                         0x48 (size before relaxing)
 .eh_frame      0x00000000001174b4       0x20 binaries/rflclose.o
                                         0x38 (size before relaxing)
 .eh_frame      0x00000000001174d4       0x20 binaries/rflgetc.o
                                         0x38 (size before relaxing)
 .eh_frame      0x00000000001174f4       0x24 binaries/rflinit.o
                                         0x3c (size before relaxing)
 .eh_frame      0x0000000000117518       0x20 binaries/rflputc.o
                                         0x38 (size before relaxing)
 .eh_frame      0x0000000000117538       0x30 binaries/rflread.o
                                         0x48 (size before relaxing)
 .eh_frame      0x0000000000117568       0x20 binaries/rflseek.o
                                         0x38 (size before relaxing)
 .eh_frame      0x0000000000117588       0x30 binaries/rflwrite.o
                                         0x48 (size before relaxing)
 .eh_frame      0x00000000001175b8       0x30 binaries/rfscomm.o
                                         0x48 (size before relaxing)
 .eh_frame      0x00000000001175e8       0x2c binaries/rfscontrol.o
                                         0x44 (size before relaxing)
 .eh_frame      0x0000000000117614       0x20 binaries/rfsgetmode.o
                                         0x38 (size before relaxing)
 .eh_frame      0x0000000000117634       0x20 binaries/rfsinit.o
                                         0x38 (size before relaxing)
 .eh_frame      0x0000000000117654       0x20 binaries/rfsndmsg.o
                                         0x38 (size before relaxing)
 .eh_frame      0x0000000000117674       0x2c binaries/rfsopen.o
                                         0x44 (size before relaxing)
 .eh_frame      0x00000000001176a0       0xec binaries/arp.o
                                        0x104 (size before relaxing)
 .eh_frame      0x000000000011778c       0xd0 binaries/dhcp.o
                                         0xe8 (size before relaxing)
 .eh_frame      0x000000000011785c       0x2c binaries/dot2ip.o
                                         0x44 (size before relaxing)
 .eh_frame      0x0000000000117888       0x60 binaries/hexdump.o
                                         0x78 (size before relaxing)
 .eh_frame      0x00000000001178e8      0x198 binaries/icmp.o
                                        0x1b0 (size before relaxing)
 .eh_frame      0x0000000000117a80      0x148 binaries/ip.o
                                        0x160 (size before relaxing)
 .eh_frame      0x0000000000117bc8       0x7c binaries/net.o
                                         0x94 (size before relaxing)
 .eh_frame      0x0000000000117c44       0x24 binaries/netstart.o
                                         0x3c (size before relaxing)
 .eh_frame      0x0000000000117c68       0x50 binaries/pdump.o
                                         0x68 (size before relaxing)
 .eh_frame      0x0000000000117cb8       0x80 binaries/tftp.o
                                         0x98 (size before relaxing)
 .eh_frame      0x0000000000117d38      0x1b0 binaries/udp.o
                                        0x1c8 (size before relaxing)
 .eh_frame      0x0000000000117ee8       0x30 binaries/addargs.o
                                         0x48 (size before relaxing)
 .eh_frame      0x0000000000117f18       0x30 binaries/lexan.o
                                         0x48 (size before relaxing)
 .eh_frame      0x0000000000117f48       0x30 binaries/shell.o
                                         0x48 (size before relaxing)
 .eh_frame      0x0000000000117f78       0x2c binaries/xsh_argecho.o
                                         0x44 (size before relaxing)
 .eh_frame      0x0000000000117fa4       0x30 binaries/xsh_arp.o
                                         0x48 (size before relaxing)
 .eh_frame      0x0000000000117fd4       0x30 binaries/xsh_cat.o
                                         0x48 (size before relaxing)
 .eh_frame      0x0000000000118004       0x20 binaries/xsh_clear.o
                                         0x38 (size before relaxing)
 .eh_frame      0x0000000000118024       0x24 binaries/xsh_date.o
                                         0x3c (size before relaxing)
 .eh_frame      0x0000000000118048       0x28 binaries/xsh_devdump.o
                                         0x40 (size before relaxing)
 .eh_frame      0x0000000000118070       0x2c binaries/xsh_echo.o
                                         0x44 (size before relaxing)
 .eh_frame      0x000000000011809c       0x20 binaries/xsh_exit.o
                                         0x38 (size before relaxing)
 .eh_frame      0x00000000001180bc       0x30 binaries/xsh_help.o
                                         0x48 (size before relaxing)
 .eh_frame      0x00000000001180ec       0x2c binaries/xsh_ipaddr.o
                                         0x44 (size before relaxing)
 .eh_frame      0x0000000000118118       0x2c binaries/xsh_kill.o
                                         0x44 (size before relaxing)
 .eh_frame      0x0000000000118144       0x58 binaries/xsh_memdump.o
                                         0x70 (size before relaxing)
 .eh_frame      0x000000000011819c       0x30 binaries/xsh_memstat.o
                                         0x48 (size before relaxing)
 .eh_frame      0x00000000001181cc       0x30 binaries/xsh_ping.o
                                         0x48 (size before relaxing)
 .eh_frame      0x00000000001181fc       0x30 binaries/xsh_ps.o
                                         0x48 (size before relaxing)
 .eh_frame      0x000000000011822c       0x30 binaries/xsh_sleep.o
                                         0x48 (size before relaxing)
 .eh_frame      0x000000000011825c       0x2c binaries/xsh_udpdump.o
                                         0x44 (size before relaxing)
 .eh_frame      0x0000000000118288       0x30 binaries/xsh_udpecho.o
                                         0x48 (size before relaxing)
 .eh_frame      0x00000000001182b8       0x30 binaries/xsh_udpeserver.o
                                         0x48 (size before relaxing)
 .eh_frame      0x00000000001182e8       0x30 binaries/xsh_uptime.o
                                         0x48 (size before relaxing)
 .eh_frame      0x0000000000118318       0x14 binaries/host2netlc.o
                                         0x2c (size before relaxing)

.iplt           0x0000000000118330        0x0
 .iplt          0x0000000000118330        0x0 binaries/start.o

.rel.dyn        0x000000000011832c        0x0
 .rel.iplt      0x000000000011832c        0x0 binaries/start.o
 .rel.text      0x000000000011832c        0x0 binaries/start.o
 .rel.data      0x000000000011832c        0x0 binaries/start.o
 .rel.rodata    0x000000000011832c        0x0 binaries/start.o

.data           0x0000000000118340     0x1cc0
                0x0000000000118340                data = ABSOLUTE (.)
 *(.data .data.*)
 .data          0x0000000000118340      0x85a binaries/start.o
                0x0000000000118340                gdt
                0x0000000000118390                idt
                0x0000000000118b96                cpudelay
 .data          0x0000000000118b9a        0x0 binaries/app1.o
 .data          0x0000000000118b9a        0x0 binaries/app2.o
 .data          0x0000000000118b9a        0x0 binaries/app3.o
 *fill*         0x0000000000118b9a        0x6 
 .data          0x0000000000118ba0       0x88 binaries/ascdate.o
                0x0000000000118ba0                Date
 .data          0x0000000000118c28        0x0 binaries/bufinit.o
 .data          0x0000000000118c28        0x0 binaries/chprio.o
 .data          0x0000000000118c28        0x4 binaries/clkhandler.o
 .data          0x0000000000118c2c        0x0 binaries/clkinit.o
 .data          0x0000000000118c2c        0x0 binaries/close.o
 *fill*         0x0000000000118c2c       0x14 
 .data          0x0000000000118c40      0x30c binaries/conf.o
                0x0000000000118c40                devtab
 .data          0x0000000000118f4c        0x0 binaries/control.o
 .data          0x0000000000118f4c        0x4 binaries/create.o
 .data          0x0000000000118f50        0x0 binaries/early_imr.o
 *fill*         0x0000000000118f50       0x10 
 .data          0x0000000000118f60       0x40 binaries/evec.o
                0x0000000000118f60                inames
 .data          0x0000000000118fa0        0x0 binaries/factorial.o
 .data          0x0000000000118fa0        0x0 binaries/freebuf.o
 .data          0x0000000000118fa0        0x0 binaries/freemem.o
 .data          0x0000000000118fa0        0x0 binaries/getbuf.o
 .data          0x0000000000118fa0        0x0 binaries/getc.o
 .data          0x0000000000118fa0        0x0 binaries/getdev.o
 .data          0x0000000000118fa0        0x0 binaries/getitem.o
 .data          0x0000000000118fa0        0x0 binaries/getmem.o
 .data          0x0000000000118fa0        0x0 binaries/getpid.o
 .data          0x0000000000118fa0        0x0 binaries/getpname.o
 .data          0x0000000000118fa0        0x0 binaries/getppid.o
 .data          0x0000000000118fa0        0x0 binaries/getprio.o
 .data          0x0000000000118fa0        0x0 binaries/getstk.o
 .data          0x0000000000118fa0        0x0 binaries/gettime.o
 .data          0x0000000000118fa0        0x0 binaries/getutime.o
 .data          0x0000000000118fa0        0x0 binaries/host2netlb.o
 .data          0x0000000000118fa0        0x0 binaries/init.o
 .data          0x0000000000118fa0        0x0 binaries/initialize.o
 .data          0x0000000000118fa0        0x0 binaries/insert.o
 .data          0x0000000000118fa0        0x0 binaries/insertd.o
 .data          0x0000000000118fa0        0x0 binaries/ioerr.o
 .data          0x0000000000118fa0        0x0 binaries/ionull.o
 .data          0x0000000000118fa0        0x0 binaries/kill.o
 .data          0x0000000000118fa0        0x0 binaries/kprintf.o
 .data          0x0000000000118fa0        0x0 binaries/lab2q3.o
 .data          0x0000000000118fa0        0x4 binaries/main.o
                0x0000000000118fa0                lab2flag
 .data          0x0000000000118fa4        0x0 binaries/mark.o
 *fill*         0x0000000000118fa4       0x1c 
 .data          0x0000000000118fc0       0x48 binaries/meminit.o
                0x0000000000118fc0                gdt_copy
                0x0000000000119000                bootinfo
                0x0000000000119004                bootsign
 .data          0x0000000000119008        0x0 binaries/mkbufpool.o
 .data          0x0000000000119008        0x0 binaries/myappA.o
 .data          0x0000000000119008        0x0 binaries/myfuncA.o
 .data          0x0000000000119008        0x0 binaries/myhacker.o
 .data          0x0000000000119008        0x0 binaries/myvictim.o
 .data          0x0000000000119008        0x0 binaries/mywelcomemsg.o
 .data          0x0000000000119008        0x2 binaries/newqueue.o
 .data          0x000000000011900a        0x0 binaries/open.o
 .data          0x000000000011900a        0x0 binaries/panic.o
 .data          0x000000000011900a        0x0 binaries/pci.o
 .data          0x000000000011900a        0x0 binaries/platinit.o
 .data          0x000000000011900a        0x0 binaries/printsegaddr.o
 .data          0x000000000011900a        0x0 binaries/ptclear.o
 .data          0x000000000011900a        0x0 binaries/ptcount.o
 .data          0x000000000011900a        0x0 binaries/ptcreate.o
 .data          0x000000000011900a        0x0 binaries/ptdelete.o
 .data          0x000000000011900a        0x0 binaries/ptinit.o
 .data          0x000000000011900a        0x0 binaries/ptrecv.o
 .data          0x000000000011900a        0x0 binaries/ptreset.o
 .data          0x000000000011900a        0x0 binaries/ptsend.o
 .data          0x000000000011900a        0x0 binaries/putc.o
 .data          0x000000000011900a        0x0 binaries/quark_irq.o
 .data          0x000000000011900a        0x0 binaries/quark_pdat.o
 .data          0x000000000011900a        0x0 binaries/queue.o
 .data          0x000000000011900a        0x0 binaries/read.o
 .data          0x000000000011900a        0x0 binaries/ready.o
 .data          0x000000000011900a        0x0 binaries/receive.o
 .data          0x000000000011900a        0x0 binaries/recvclr.o
 .data          0x000000000011900a        0x0 binaries/recvtime.o
 .data          0x000000000011900a        0x0 binaries/resched.o
 .data          0x000000000011900a        0x0 binaries/resume.o
 .data          0x000000000011900a        0x0 binaries/seek.o
 .data          0x000000000011900a        0x0 binaries/semcount.o
 .data          0x000000000011900a        0x0 binaries/semcreate.o
 .data          0x000000000011900a        0x0 binaries/semdelete.o
 .data          0x000000000011900a        0x0 binaries/semreset.o
 .data          0x000000000011900a        0x0 binaries/send.o
 .data          0x000000000011900a        0x0 binaries/signal.o
 .data          0x000000000011900a        0x0 binaries/signaln.o
 .data          0x000000000011900a        0x0 binaries/sleep.o
 .data          0x000000000011900a        0x0 binaries/stackdepth.o
 .data          0x000000000011900a        0x0 binaries/stacktrace.o
 .data          0x000000000011900a        0x0 binaries/suspend.o
 .data          0x000000000011900a        0x0 binaries/teststackdepth.o
 .data          0x000000000011900a        0x0 binaries/unsleep.o
 .data          0x000000000011900a        0x0 binaries/userret.o
 .data          0x000000000011900a        0x0 binaries/wait.o
 .data          0x000000000011900a        0x0 binaries/wakeup.o
 .data          0x000000000011900a        0x0 binaries/write.o
 .data          0x000000000011900a        0x0 binaries/xdone.o
 .data          0x000000000011900a        0x0 binaries/yield.o
 .data          0x000000000011900a        0x0 binaries/abs.o
 .data          0x000000000011900a        0x0 binaries/atoi.o
 .data          0x000000000011900a        0x0 binaries/atol.o
 .data          0x000000000011900a        0x0 binaries/bzero.o
 .data          0x000000000011900a        0x0 binaries/ctype_.o
 .data          0x000000000011900a        0x0 binaries/doprnt.o
 *fill*         0x000000000011900a       0x16 
 .data          0x0000000000119020       0x80 binaries/doscan.o
                0x0000000000119020                _sctab
 .data          0x00000000001190a0        0x0 binaries/fdoprnt.o
 .data          0x00000000001190a0        0x0 binaries/fgetc.o
 .data          0x00000000001190a0        0x0 binaries/fgets.o
 .data          0x00000000001190a0        0x0 binaries/fprintf.o
 .data          0x00000000001190a0        0x0 binaries/fputc.o
 .data          0x00000000001190a0        0x0 binaries/fputs.o
 .data          0x00000000001190a0        0x0 binaries/fscanf.o
 .data          0x00000000001190a0        0x0 binaries/getchar.o
 .data          0x00000000001190a0        0x0 binaries/labs.o
 .data          0x00000000001190a0        0x0 binaries/memchr.o
 .data          0x00000000001190a0        0x0 binaries/memcmp.o
 .data          0x00000000001190a0        0x0 binaries/memcpy.o
 .data          0x00000000001190a0        0x0 binaries/memset.o
 .data          0x00000000001190a0        0x0 binaries/printf.o
 .data          0x00000000001190a0        0x0 binaries/putchar.o
 .data          0x00000000001190a0        0x0 binaries/qsort.o
 .data          0x00000000001190a0        0x4 binaries/rand.o
 .data          0x00000000001190a4        0x0 binaries/sprintf.o
 .data          0x00000000001190a4        0x0 binaries/sscanf.o
 .data          0x00000000001190a4        0x0 binaries/strchr.o
 .data          0x00000000001190a4        0x0 binaries/strcmp.o
 .data          0x00000000001190a4        0x0 binaries/strcpy.o
 .data          0x00000000001190a4        0x0 binaries/strlen.o
 .data          0x00000000001190a4        0x0 binaries/strncat.o
 .data          0x00000000001190a4        0x0 binaries/strncmp.o
 .data          0x00000000001190a4        0x0 binaries/strncpy.o
 .data          0x00000000001190a4        0x0 binaries/strnlen.o
 .data          0x00000000001190a4        0x0 binaries/strrchr.o
 .data          0x00000000001190a4        0x0 binaries/strstr.o
 .data          0x00000000001190a4        0x0 binaries/ttycontrol.o
 .data          0x00000000001190a4        0x0 binaries/ttygetc.o
 .data          0x00000000001190a4        0x0 binaries/ttyhandle_in.o
 .data          0x00000000001190a4        0x0 binaries/ttyhandle_out.o
 .data          0x00000000001190a4        0x0 binaries/ttyhandler.o
 .data          0x00000000001190a4        0x0 binaries/ttyinit.o
 .data          0x00000000001190a4        0x0 binaries/ttykickout.o
 .data          0x00000000001190a4        0x0 binaries/ttyputc.o
 .data          0x00000000001190a4        0x0 binaries/ttyread.o
 .data          0x00000000001190a4        0x0 binaries/ttywrite.o
 .data          0x00000000001190a4        0x0 binaries/mount.o
 .data          0x00000000001190a4        0x0 binaries/naminit.o
 .data          0x00000000001190a4        0x0 binaries/nammap.o
 .data          0x00000000001190a4        0x0 binaries/namopen.o
 .data          0x00000000001190a4        0x0 binaries/colon2mac.o
 .data          0x00000000001190a4        0x0 binaries/ethcontrol.o
 .data          0x00000000001190a4        0x0 binaries/ethhandler.o
 .data          0x00000000001190a4        0x0 binaries/ethinit.o
 .data          0x00000000001190a4        0x0 binaries/ethmcast.o
 .data          0x00000000001190a4        0x0 binaries/ethread.o
 .data          0x00000000001190a4        0x0 binaries/ethwrite.o
 .data          0x00000000001190a4        0x0 binaries/rdsbufalloc.o
 .data          0x00000000001190a4        0x0 binaries/rdsclose.o
 .data          0x00000000001190a4        0x0 binaries/rdscomm.o
 .data          0x00000000001190a4        0x0 binaries/rdscontrol.o
 .data          0x00000000001190a4        0x0 binaries/rdsinit.o
 .data          0x00000000001190a4        0x0 binaries/rdsopen.o
 .data          0x00000000001190a4        0x0 binaries/rdsprocess.o
 .data          0x00000000001190a4        0x0 binaries/rdsread.o
 .data          0x00000000001190a4        0x0 binaries/rdswrite.o
 .data          0x00000000001190a4        0x0 binaries/ramclose.o
 .data          0x00000000001190a4        0x0 binaries/raminit.o
 .data          0x00000000001190a4        0x0 binaries/ramopen.o
 .data          0x00000000001190a4        0x0 binaries/ramread.o
 .data          0x00000000001190a4        0x0 binaries/ramwrite.o
 .data          0x00000000001190a4        0x0 binaries/lfdballoc.o
 .data          0x00000000001190a4        0x0 binaries/lfdbfree.o
 .data          0x00000000001190a4        0x0 binaries/lfflush.o
 .data          0x00000000001190a4        0x0 binaries/lfgetmode.o
 .data          0x00000000001190a4        0x0 binaries/lfiballoc.o
 .data          0x00000000001190a4        0x0 binaries/lfibclear.o
 .data          0x00000000001190a4        0x0 binaries/lfibget.o
 .data          0x00000000001190a4        0x0 binaries/lfibput.o
 .data          0x00000000001190a4        0x0 binaries/lflclose.o
 .data          0x00000000001190a4        0x0 binaries/lflcontrol.o
 .data          0x00000000001190a4        0x0 binaries/lflgetc.o
 .data          0x00000000001190a4        0x0 binaries/lflinit.o
 .data          0x00000000001190a4        0x0 binaries/lflputc.o
 .data          0x00000000001190a4        0x0 binaries/lflread.o
 .data          0x00000000001190a4        0x0 binaries/lflseek.o
 .data          0x00000000001190a4        0x0 binaries/lflwrite.o
 .data          0x00000000001190a4        0x0 binaries/lfsckfmt.o
 .data          0x00000000001190a4        0x0 binaries/lfscreate.o
 .data          0x00000000001190a4        0x0 binaries/lfsetup.o
 .data          0x00000000001190a4        0x0 binaries/lfsinit.o
 .data          0x00000000001190a4        0x0 binaries/lfsopen.o
 .data          0x00000000001190a4        0x0 binaries/lftruncate.o
 .data          0x00000000001190a4        0x0 binaries/rflclose.o
 .data          0x00000000001190a4        0x0 binaries/rflgetc.o
 .data          0x00000000001190a4        0x0 binaries/rflinit.o
 .data          0x00000000001190a4        0x0 binaries/rflputc.o
 .data          0x00000000001190a4        0x0 binaries/rflread.o
 .data          0x00000000001190a4        0x0 binaries/rflseek.o
 .data          0x00000000001190a4        0x0 binaries/rflwrite.o
 .data          0x00000000001190a4        0x0 binaries/rfscomm.o
 .data          0x00000000001190a4        0x0 binaries/rfscontrol.o
 .data          0x00000000001190a4        0x0 binaries/rfsgetmode.o
 .data          0x00000000001190a4        0x0 binaries/rfsinit.o
 .data          0x00000000001190a4        0x0 binaries/rfsndmsg.o
 .data          0x00000000001190a4        0x0 binaries/rfsopen.o
 .data          0x00000000001190a4        0x0 binaries/arp.o
 .data          0x00000000001190a4        0x0 binaries/dhcp.o
 .data          0x00000000001190a4        0x0 binaries/dot2ip.o
 .data          0x00000000001190a4        0x0 binaries/hexdump.o
 .data          0x00000000001190a4        0x4 binaries/icmp.o
 .data          0x00000000001190a8        0x0 binaries/ip.o
 .data          0x00000000001190a8        0x0 binaries/net.o
 .data          0x00000000001190a8        0x0 binaries/netstart.o
 .data          0x00000000001190a8        0x0 binaries/pdump.o
 .data          0x00000000001190a8        0x0 binaries/tftp.o
 .data          0x00000000001190a8        0x4 binaries/udp.o
 .data          0x00000000001190ac        0x0 binaries/addargs.o
 .data          0x00000000001190ac        0x0 binaries/lexan.o
 .data          0x00000000001190ac        0x4 binaries/shell.o
                0x00000000001190ac                ncmd
 .data          0x00000000001190b0        0x0 binaries/xsh_argecho.o
 .data          0x00000000001190b0        0x0 binaries/xsh_arp.o
 .data          0x00000000001190b0        0x0 binaries/xsh_cat.o
 .data          0x00000000001190b0        0x0 binaries/xsh_clear.o
 .data          0x00000000001190b0        0x0 binaries/xsh_date.o
 .data          0x00000000001190b0        0x0 binaries/xsh_devdump.o
 .data          0x00000000001190b0        0x0 binaries/xsh_echo.o
 .data          0x00000000001190b0        0x0 binaries/xsh_exit.o
 .data          0x00000000001190b0        0x0 binaries/xsh_help.o
 .data          0x00000000001190b0        0x0 binaries/xsh_ipaddr.o
 .data          0x00000000001190b0        0x0 binaries/xsh_kill.o
 .data          0x00000000001190b0        0x0 binaries/xsh_memdump.o
 .data          0x00000000001190b0        0x0 binaries/xsh_memstat.o
 .data          0x00000000001190b0        0x0 binaries/xsh_ping.o
 .data          0x00000000001190b0        0x0 binaries/xsh_ps.o
 .data          0x00000000001190b0        0x0 binaries/xsh_sleep.o
 .data          0x00000000001190b0        0x0 binaries/xsh_udpdump.o
 .data          0x00000000001190b0        0x0 binaries/xsh_udpecho.o
 .data          0x00000000001190b0        0x0 binaries/xsh_udpeserver.o
 .data          0x00000000001190b0        0x0 binaries/xsh_uptime.o
 .data          0x00000000001190b0        0x0 binaries/clkdisp.o
 .data          0x00000000001190b0        0x0 binaries/ctxsw.o
 .data          0x00000000001190b0        0x0 binaries/host2netla.o
 .data          0x00000000001190b0        0x0 binaries/host2netlc.o
 .data          0x00000000001190b0        0x0 binaries/intr.o
 .data          0x00000000001190b0        0x0 binaries/ttydispatch.o
 .data          0x00000000001190b0        0x0 binaries/ethdispatch.o
                0x00000000001190b0                edata = ABSOLUTE (.)
                0x000000000011a000                . = ALIGN (0x1000)
 *fill*         0x00000000001190b0      0xf50 

.igot.plt       0x000000000011a000        0x0
 .igot.plt      0x000000000011a000        0x0 binaries/start.o

.bss            0x000000000011a000    0x20000
                0x000000000011a000                bss = ABSOLUTE (.)
 *(.bss .bss.*)
 .bss           0x000000000011a000        0x0 binaries/start.o
 .bss           0x000000000011a000        0x0 binaries/app1.o
 .bss           0x000000000011a000        0x0 binaries/app2.o
 .bss           0x000000000011a000        0x0 binaries/app3.o
 .bss           0x000000000011a000        0x0 binaries/ascdate.o
 .bss           0x000000000011a000        0x0 binaries/bufinit.o
 .bss           0x000000000011a000        0x0 binaries/chprio.o
 .bss           0x000000000011a000        0x0 binaries/clkhandler.o
 .bss           0x000000000011a000        0x4 binaries/clkinit.o
                0x000000000011a000                ctr1000
 .bss           0x000000000011a004        0x0 binaries/close.o
 .bss           0x000000000011a004        0x0 binaries/conf.o
 .bss           0x000000000011a004        0x0 binaries/control.o
 .bss           0x000000000011a004        0x0 binaries/create.o
 .bss           0x000000000011a004        0x0 binaries/early_imr.o
 .bss           0x000000000011a004        0x0 binaries/evec.o
 .bss           0x000000000011a004        0x0 binaries/factorial.o
 .bss           0x000000000011a004        0x0 binaries/freebuf.o
 .bss           0x000000000011a004        0x0 binaries/freemem.o
 .bss           0x000000000011a004        0x0 binaries/getbuf.o
 .bss           0x000000000011a004        0x0 binaries/getc.o
 .bss           0x000000000011a004        0x0 binaries/getdev.o
 .bss           0x000000000011a004        0x0 binaries/getitem.o
 .bss           0x000000000011a004        0x0 binaries/getmem.o
 .bss           0x000000000011a004        0x0 binaries/getpid.o
 .bss           0x000000000011a004        0x0 binaries/getpname.o
 .bss           0x000000000011a004        0x0 binaries/getppid.o
 .bss           0x000000000011a004        0x0 binaries/getprio.o
 .bss           0x000000000011a004        0x0 binaries/getstk.o
 .bss           0x000000000011a004        0x0 binaries/gettime.o
 .bss           0x000000000011a004        0x0 binaries/getutime.o
 .bss           0x000000000011a004        0x0 binaries/host2netlb.o
 .bss           0x000000000011a004        0x0 binaries/init.o
 .bss           0x000000000011a004        0x0 binaries/initialize.o
 .bss           0x000000000011a004        0x0 binaries/insert.o
 .bss           0x000000000011a004        0x0 binaries/insertd.o
 .bss           0x000000000011a004        0x0 binaries/ioerr.o
 .bss           0x000000000011a004        0x0 binaries/ionull.o
 .bss           0x000000000011a004        0x0 binaries/kill.o
 .bss           0x000000000011a004        0x0 binaries/kprintf.o
 .bss           0x000000000011a004        0x0 binaries/lab2q3.o
 .bss           0x000000000011a004        0x0 binaries/main.o
 .bss           0x000000000011a004        0x0 binaries/mark.o
 .bss           0x000000000011a004        0x0 binaries/meminit.o
 .bss           0x000000000011a004        0x0 binaries/mkbufpool.o
 .bss           0x000000000011a004        0x0 binaries/myappA.o
 .bss           0x000000000011a004        0x0 binaries/myfuncA.o
 .bss           0x000000000011a004        0x0 binaries/myhacker.o
 .bss           0x000000000011a004        0x0 binaries/myvictim.o
 .bss           0x000000000011a004        0x0 binaries/mywelcomemsg.o
 .bss           0x000000000011a004        0x0 binaries/newqueue.o
 .bss           0x000000000011a004        0x0 binaries/open.o
 .bss           0x000000000011a004        0x0 binaries/panic.o
 .bss           0x000000000011a004        0x0 binaries/pci.o
 .bss           0x000000000011a004        0x0 binaries/platinit.o
 .bss           0x000000000011a004        0x0 binaries/printsegaddr.o
 .bss           0x000000000011a004        0x0 binaries/ptclear.o
 .bss           0x000000000011a004        0x0 binaries/ptcount.o
 .bss           0x000000000011a004        0x0 binaries/ptcreate.o
 .bss           0x000000000011a004        0x0 binaries/ptdelete.o
 .bss           0x000000000011a004        0x0 binaries/ptinit.o
 .bss           0x000000000011a004        0x0 binaries/ptrecv.o
 .bss           0x000000000011a004        0x0 binaries/ptreset.o
 .bss           0x000000000011a004        0x0 binaries/ptsend.o
 .bss           0x000000000011a004        0x0 binaries/putc.o
 .bss           0x000000000011a004        0x0 binaries/quark_irq.o
 .bss           0x000000000011a004        0x0 binaries/quark_pdat.o
 .bss           0x000000000011a004        0x0 binaries/queue.o
 .bss           0x000000000011a004        0x0 binaries/read.o
 .bss           0x000000000011a004        0x0 binaries/ready.o
 .bss           0x000000000011a004        0x0 binaries/receive.o
 .bss           0x000000000011a004        0x0 binaries/recvclr.o
 .bss           0x000000000011a004        0x0 binaries/recvtime.o
 .bss           0x000000000011a004        0x0 binaries/resched.o
 .bss           0x000000000011a004        0x0 binaries/resume.o
 .bss           0x000000000011a004        0x0 binaries/seek.o
 .bss           0x000000000011a004        0x0 binaries/semcount.o
 .bss           0x000000000011a004        0x4 binaries/semcreate.o
 .bss           0x000000000011a008        0x0 binaries/semdelete.o
 .bss           0x000000000011a008        0x0 binaries/semreset.o
 .bss           0x000000000011a008        0x0 binaries/send.o
 .bss           0x000000000011a008        0x0 binaries/signal.o
 .bss           0x000000000011a008        0x0 binaries/signaln.o
 .bss           0x000000000011a008        0x0 binaries/sleep.o
 .bss           0x000000000011a008        0x0 binaries/stackdepth.o
 .bss           0x000000000011a008        0x8 binaries/stacktrace.o
 .bss           0x000000000011a010        0x0 binaries/suspend.o
 .bss           0x000000000011a010        0x0 binaries/teststackdepth.o
 .bss           0x000000000011a010        0x0 binaries/unsleep.o
 .bss           0x000000000011a010        0x0 binaries/userret.o
 .bss           0x000000000011a010        0x0 binaries/wait.o
 .bss           0x000000000011a010        0x0 binaries/wakeup.o
 .bss           0x000000000011a010        0x0 binaries/write.o
 .bss           0x000000000011a010        0x0 binaries/xdone.o
 .bss           0x000000000011a010        0x0 binaries/yield.o
 .bss           0x000000000011a010        0x0 binaries/abs.o
 .bss           0x000000000011a010        0x0 binaries/atoi.o
 .bss           0x000000000011a010        0x0 binaries/atol.o
 .bss           0x000000000011a010        0x0 binaries/bzero.o
 .bss           0x000000000011a010        0x0 binaries/ctype_.o
 .bss           0x000000000011a010        0x0 binaries/doprnt.o
 .bss           0x000000000011a010        0x0 binaries/doscan.o
 .bss           0x000000000011a010        0x0 binaries/fdoprnt.o
 .bss           0x000000000011a010        0x0 binaries/fgetc.o
 .bss           0x000000000011a010        0x0 binaries/fgets.o
 .bss           0x000000000011a010        0x0 binaries/fprintf.o
 .bss           0x000000000011a010        0x0 binaries/fputc.o
 .bss           0x000000000011a010        0x0 binaries/fputs.o
 .bss           0x000000000011a010        0x0 binaries/fscanf.o
 .bss           0x000000000011a010        0x0 binaries/getchar.o
 .bss           0x000000000011a010        0x0 binaries/labs.o
 .bss           0x000000000011a010        0x0 binaries/memchr.o
 .bss           0x000000000011a010        0x0 binaries/memcmp.o
 .bss           0x000000000011a010        0x0 binaries/memcpy.o
 .bss           0x000000000011a010        0x0 binaries/memset.o
 .bss           0x000000000011a010        0x0 binaries/printf.o
 .bss           0x000000000011a010        0x0 binaries/putchar.o
 .bss           0x000000000011a010        0x8 binaries/qsort.o
 .bss           0x000000000011a018        0x0 binaries/rand.o
 .bss           0x000000000011a018        0x0 binaries/sprintf.o
 .bss           0x000000000011a018        0x0 binaries/sscanf.o
 .bss           0x000000000011a018        0x0 binaries/strchr.o
 .bss           0x000000000011a018        0x0 binaries/strcmp.o
 .bss           0x000000000011a018        0x0 binaries/strcpy.o
 .bss           0x000000000011a018        0x0 binaries/strlen.o
 .bss           0x000000000011a018        0x0 binaries/strncat.o
 .bss           0x000000000011a018        0x0 binaries/strncmp.o
 .bss           0x000000000011a018        0x0 binaries/strncpy.o
 .bss           0x000000000011a018        0x0 binaries/strnlen.o
 .bss           0x000000000011a018        0x0 binaries/strrchr.o
 .bss           0x000000000011a018        0x0 binaries/strstr.o
 .bss           0x000000000011a018        0x0 binaries/ttycontrol.o
 .bss           0x000000000011a018        0x0 binaries/ttygetc.o
 .bss           0x000000000011a018        0x0 binaries/ttyhandle_in.o
 .bss           0x000000000011a018        0x0 binaries/ttyhandle_out.o
 .bss           0x000000000011a018        0x0 binaries/ttyhandler.o
 .bss           0x000000000011a018        0x0 binaries/ttyinit.o
 .bss           0x000000000011a018        0x0 binaries/ttykickout.o
 .bss           0x000000000011a018        0x0 binaries/ttyputc.o
 .bss           0x000000000011a018        0x0 binaries/ttyread.o
 .bss           0x000000000011a018        0x0 binaries/ttywrite.o
 .bss           0x000000000011a018        0x0 binaries/mount.o
 .bss           0x000000000011a018        0x0 binaries/naminit.o
 .bss           0x000000000011a018        0x0 binaries/nammap.o
 .bss           0x000000000011a018        0x0 binaries/namopen.o
 .bss           0x000000000011a018        0x0 binaries/colon2mac.o
 .bss           0x000000000011a018        0x0 binaries/ethcontrol.o
 .bss           0x000000000011a018        0x0 binaries/ethhandler.o
 .bss           0x000000000011a018        0x0 binaries/ethinit.o
 .bss           0x000000000011a018        0x0 binaries/ethmcast.o
 .bss           0x000000000011a018        0x0 binaries/ethread.o
 .bss           0x000000000011a018        0x0 binaries/ethwrite.o
 .bss           0x000000000011a018        0x0 binaries/rdsbufalloc.o
 .bss           0x000000000011a018        0x0 binaries/rdsclose.o
 .bss           0x000000000011a018        0x0 binaries/rdscomm.o
 .bss           0x000000000011a018        0x0 binaries/rdscontrol.o
 .bss           0x000000000011a018        0x0 binaries/rdsinit.o
 .bss           0x000000000011a018        0x0 binaries/rdsopen.o
 .bss           0x000000000011a018        0x0 binaries/rdsprocess.o
 .bss           0x000000000011a018        0x0 binaries/rdsread.o
 .bss           0x000000000011a018        0x0 binaries/rdswrite.o
 .bss           0x000000000011a018        0x0 binaries/ramclose.o
 .bss           0x000000000011a018        0x0 binaries/raminit.o
 .bss           0x000000000011a018        0x0 binaries/ramopen.o
 .bss           0x000000000011a018        0x0 binaries/ramread.o
 .bss           0x000000000011a018        0x0 binaries/ramwrite.o
 .bss           0x000000000011a018        0x0 binaries/lfdballoc.o
 .bss           0x000000000011a018        0x0 binaries/lfdbfree.o
 .bss           0x000000000011a018        0x0 binaries/lfflush.o
 .bss           0x000000000011a018        0x0 binaries/lfgetmode.o
 .bss           0x000000000011a018        0x0 binaries/lfiballoc.o
 .bss           0x000000000011a018        0x0 binaries/lfibclear.o
 .bss           0x000000000011a018        0x0 binaries/lfibget.o
 .bss           0x000000000011a018        0x0 binaries/lfibput.o
 .bss           0x000000000011a018        0x0 binaries/lflclose.o
 .bss           0x000000000011a018        0x0 binaries/lflcontrol.o
 .bss           0x000000000011a018        0x0 binaries/lflgetc.o
 .bss           0x000000000011a018        0x0 binaries/lflinit.o
 .bss           0x000000000011a018        0x0 binaries/lflputc.o
 .bss           0x000000000011a018        0x0 binaries/lflread.o
 .bss           0x000000000011a018        0x0 binaries/lflseek.o
 .bss           0x000000000011a018        0x0 binaries/lflwrite.o
 .bss           0x000000000011a018        0x0 binaries/lfsckfmt.o
 .bss           0x000000000011a018        0x0 binaries/lfscreate.o
 .bss           0x000000000011a018        0x0 binaries/lfsetup.o
 .bss           0x000000000011a018        0x0 binaries/lfsinit.o
 .bss           0x000000000011a018        0x0 binaries/lfsopen.o
 .bss           0x000000000011a018        0x0 binaries/lftruncate.o
 .bss           0x000000000011a018        0x0 binaries/rflclose.o
 .bss           0x000000000011a018        0x0 binaries/rflgetc.o
 .bss           0x000000000011a018        0x0 binaries/rflinit.o
 .bss           0x000000000011a018        0x0 binaries/rflputc.o
 .bss           0x000000000011a018        0x0 binaries/rflread.o
 .bss           0x000000000011a018        0x0 binaries/rflseek.o
 .bss           0x000000000011a018        0x0 binaries/rflwrite.o
 .bss           0x000000000011a018        0x0 binaries/rfscomm.o
 .bss           0x000000000011a018        0x0 binaries/rfscontrol.o
 .bss           0x000000000011a018        0x0 binaries/rfsgetmode.o
 .bss           0x000000000011a018        0x0 binaries/rfsinit.o
 .bss           0x000000000011a018        0x0 binaries/rfsndmsg.o
 .bss           0x000000000011a018        0x0 binaries/rfsopen.o
 .bss           0x000000000011a018        0x0 binaries/arp.o
 .bss           0x000000000011a018        0x0 binaries/dhcp.o
 .bss           0x000000000011a018        0x0 binaries/dot2ip.o
 .bss           0x000000000011a018        0x0 binaries/hexdump.o
 .bss           0x000000000011a018        0x0 binaries/icmp.o
 .bss           0x000000000011a018        0x0 binaries/ip.o
 .bss           0x000000000011a018        0x0 binaries/net.o
 .bss           0x000000000011a018        0x0 binaries/netstart.o
 .bss           0x000000000011a018        0x0 binaries/pdump.o
 .bss           0x000000000011a018        0x0 binaries/tftp.o
 .bss           0x000000000011a018        0x0 binaries/udp.o
 .bss           0x000000000011a018        0x0 binaries/addargs.o
 .bss           0x000000000011a018        0x0 binaries/lexan.o
 .bss           0x000000000011a018        0x0 binaries/shell.o
 .bss           0x000000000011a018        0x0 binaries/xsh_argecho.o
 .bss           0x000000000011a018        0x0 binaries/xsh_arp.o
 .bss           0x000000000011a018        0x0 binaries/xsh_cat.o
 .bss           0x000000000011a018        0x0 binaries/xsh_clear.o
 .bss           0x000000000011a018        0x0 binaries/xsh_date.o
 .bss           0x000000000011a018        0x0 binaries/xsh_devdump.o
 .bss           0x000000000011a018        0x0 binaries/xsh_echo.o
 .bss           0x000000000011a018        0x0 binaries/xsh_exit.o
 .bss           0x000000000011a018        0x0 binaries/xsh_help.o
 .bss           0x000000000011a018        0x0 binaries/xsh_ipaddr.o
 .bss           0x000000000011a018        0x0 binaries/xsh_kill.o
 .bss           0x000000000011a018        0x0 binaries/xsh_memdump.o
 .bss           0x000000000011a018        0x0 binaries/xsh_memstat.o
 .bss           0x000000000011a018        0x4 binaries/xsh_ping.o
 .bss           0x000000000011a01c        0x0 binaries/xsh_ps.o
 .bss           0x000000000011a01c        0x0 binaries/xsh_sleep.o
 .bss           0x000000000011a01c        0x0 binaries/xsh_udpdump.o
 .bss           0x000000000011a01c        0x0 binaries/xsh_udpecho.o
 .bss           0x000000000011a01c        0x0 binaries/xsh_udpeserver.o
 .bss           0x000000000011a01c        0x0 binaries/xsh_uptime.o
 .bss           0x000000000011a01c        0x0 binaries/clkdisp.o
 .bss           0x000000000011a01c        0x0 binaries/ctxsw.o
 .bss           0x000000000011a01c        0x0 binaries/host2netla.o
 .bss           0x000000000011a01c        0x0 binaries/host2netlc.o
 .bss           0x000000000011a01c        0x0 binaries/intr.o
 .bss           0x000000000011a01c        0x0 binaries/ttydispatch.o
 .bss           0x000000000011a01c        0x0 binaries/ethdispatch.o
 *(COMMON)
 *fill*         0x000000000011a01c        0x4 
 COMMON         0x000000000011a020       0xf4 binaries/bufinit.o
                0x000000000011a020                buftab
                0x000000000011a110                nbpools
 COMMON         0x000000000011a114       0x10 binaries/clkinit.o
                0x000000000011a114                sleepq
                0x000000000011a118                preempt
                0x000000000011a11c                clktimemsec
                0x000000000011a120                clktime
 COMMON         0x000000000011a124        0x2 binaries/evec.o
                0x000000000011a124                girmask
 *fill*         0x000000000011a126       0x1a 
 COMMON         0x000000000011a140     0x1df8 binaries/initialize.o
                0x000000000011a140                currpid
                0x000000000011a160                proctab
                0x000000000011ba60                prcount
                0x000000000011ba80                semtab
                0x000000000011bf30                memlist
 *fill*         0x000000000011bf38        0x8 
 COMMON         0x000000000011bf40       0x58 binaries/mark.o
                0x000000000011bf40                marks
                0x000000000011bf90                nmarks
                0x000000000011bf94                mkmutex
 COMMON         0x000000000011bf98        0x8 binaries/meminit.o
                0x000000000011bf98                minheap
                0x000000000011bf9c                maxheap
 COMMON         0x000000000011bfa0        0x8 binaries/myhacker.o
                0x000000000011bfa0                victimglobal
                0x000000000011bfa4                victimsRetAddress
 *fill*         0x000000000011bfa8       0x18 
 COMMON         0x000000000011bfc0      0x2d8 binaries/ptinit.o
                0x000000000011bfc0                porttab
                0x000000000011c290                ptnextid
                0x000000000011c294                ptfree
 *fill*         0x000000000011c298        0x8 
 COMMON         0x000000000011c2a0      0x980 binaries/queue.o
                0x000000000011c2a0                queuetab
 COMMON         0x000000000011cc20        0x2 binaries/ready.o
                0x000000000011cc20                readylist
 *fill*         0x000000000011cc22        0x2 
 COMMON         0x000000000011cc24        0x8 binaries/resched.o
                0x000000000011cc24                Defer
 *fill*         0x000000000011cc2c       0x14 
 COMMON         0x000000000011cc40      0x10c binaries/ttyinit.o
                0x000000000011cc40                ttytab
 *fill*         0x000000000011cd4c       0x14 
 COMMON         0x000000000011cd60     0x19c0 binaries/naminit.o
                0x000000000011cd60                nnames
                0x000000000011cd80                nametab
 COMMON         0x000000000011e720      0x138 binaries/ethinit.o
                0x000000000011e720                ethertab
 *fill*         0x000000000011e858        0x8 
 COMMON         0x000000000011e860       0x8c binaries/rdsinit.o
                0x000000000011e860                rdstab
 *fill*         0x000000000011e8ec       0x14 
 COMMON         0x000000000011e900    0x19000 binaries/raminit.o
                0x000000000011e900                Ram
 COMMON         0x0000000000137900      0xf00 binaries/lflinit.o
                0x0000000000137900                lfltab
 COMMON         0x0000000000138800      0x20c binaries/lfsinit.o
                0x0000000000138800                Lf_data
 *fill*         0x0000000000138a0c       0x14 
 COMMON         0x0000000000138a20      0x5a0 binaries/rflinit.o
                0x0000000000138a20                rfltab
 COMMON         0x0000000000138fc0       0x18 binaries/rfsinit.o
                0x0000000000138fc0                Rf_data
 *fill*         0x0000000000138fd8        0x8 
 COMMON         0x0000000000138fe0      0x140 binaries/arp.o
                0x0000000000138fe0                arpcache
 COMMON         0x0000000000139120      0x230 binaries/icmp.o
                0x0000000000139120                icmptab
 *fill*         0x0000000000139350       0x10 
 COMMON         0x0000000000139360       0x2c binaries/ip.o
                0x0000000000139360                ipoqueue
 *fill*         0x000000000013938c       0x14 
 COMMON         0x00000000001393a0       0xc8 binaries/net.o
                0x00000000001393a0                netbufpool
                0x00000000001393c0                NetData
 *fill*         0x0000000000139468       0x18 
 COMMON         0x0000000000139480      0x168 binaries/udp.o
                0x0000000000139480                udptab
                0x00000000001395e8                ebss = ABSOLUTE (.)
                0x000000000013a000                . = ALIGN (0x1000)
 *fill*         0x00000000001395e8      0xa18 
 */()
                0x000000000013a000                end = ABSOLUTE (.)
                0x000000000013a000                _end = ABSOLUTE (.)
                0x000000000013a000                . = ALIGN (0x1000)
LOAD binaries/start.o
LOAD binaries/app1.o
LOAD binaries/app2.o
LOAD binaries/app3.o
LOAD binaries/ascdate.o
LOAD binaries/bufinit.o
LOAD binaries/chprio.o
LOAD binaries/clkhandler.o
LOAD binaries/clkinit.o
LOAD binaries/close.o
LOAD binaries/conf.o
LOAD binaries/control.o
LOAD binaries/create.o
LOAD binaries/early_imr.o
LOAD binaries/evec.o
LOAD binaries/factorial.o
LOAD binaries/freebuf.o
LOAD binaries/freemem.o
LOAD binaries/getbuf.o
LOAD binaries/getc.o
LOAD binaries/getdev.o
LOAD binaries/getitem.o
LOAD binaries/getmem.o
LOAD binaries/getpid.o
LOAD binaries/getpname.o
LOAD binaries/getppid.o
LOAD binaries/getprio.o
LOAD binaries/getstk.o
LOAD binaries/gettime.o
LOAD binaries/getutime.o
LOAD binaries/host2netlb.o
LOAD binaries/init.o
LOAD binaries/initialize.o
LOAD binaries/insert.o
LOAD binaries/insertd.o
LOAD binaries/ioerr.o
LOAD binaries/ionull.o
LOAD binaries/kill.o
LOAD binaries/kprintf.o
LOAD binaries/lab2q3.o
LOAD binaries/main.o
LOAD binaries/mark.o
LOAD binaries/meminit.o
LOAD binaries/mkbufpool.o
LOAD binaries/myappA.o
LOAD binaries/myfuncA.o
LOAD binaries/myhacker.o
LOAD binaries/myvictim.o
LOAD binaries/mywelcomemsg.o
LOAD binaries/newqueue.o
LOAD binaries/open.o
LOAD binaries/panic.o
LOAD binaries/pci.o
LOAD binaries/platinit.o
LOAD binaries/printsegaddr.o
LOAD binaries/ptclear.o
LOAD binaries/ptcount.o
LOAD binaries/ptcreate.o
LOAD binaries/ptdelete.o
LOAD binaries/ptinit.o
LOAD binaries/ptrecv.o
LOAD binaries/ptreset.o
LOAD binaries/ptsend.o
LOAD binaries/putc.o
LOAD binaries/quark_irq.o
LOAD binaries/quark_pdat.o
LOAD binaries/queue.o
LOAD binaries/read.o
LOAD binaries/ready.o
LOAD binaries/receive.o
LOAD binaries/recvclr.o
LOAD binaries/recvtime.o
LOAD binaries/resched.o
LOAD binaries/resume.o
LOAD binaries/seek.o
LOAD binaries/semcount.o
LOAD binaries/semcreate.o
LOAD binaries/semdelete.o
LOAD binaries/semreset.o
LOAD binaries/send.o
LOAD binaries/signal.o
LOAD binaries/signaln.o
LOAD binaries/sleep.o
LOAD binaries/stackdepth.o
LOAD binaries/stacktrace.o
LOAD binaries/suspend.o
LOAD binaries/teststackdepth.o
LOAD binaries/unsleep.o
LOAD binaries/userret.o
LOAD binaries/wait.o
LOAD binaries/wakeup.o
LOAD binaries/write.o
LOAD binaries/xdone.o
LOAD binaries/yield.o
LOAD binaries/abs.o
LOAD binaries/atoi.o
LOAD binaries/atol.o
LOAD binaries/bzero.o
LOAD binaries/ctype_.o
LOAD binaries/doprnt.o
LOAD binaries/doscan.o
LOAD binaries/fdoprnt.o
LOAD binaries/fgetc.o
LOAD binaries/fgets.o
LOAD binaries/fprintf.o
LOAD binaries/fputc.o
LOAD binaries/fputs.o
LOAD binaries/fscanf.o
LOAD binaries/getchar.o
LOAD binaries/labs.o
LOAD binaries/memchr.o
LOAD binaries/memcmp.o
LOAD binaries/memcpy.o
LOAD binaries/memset.o
LOAD binaries/printf.o
LOAD binaries/putchar.o
LOAD binaries/qsort.o
LOAD binaries/rand.o
LOAD binaries/sprintf.o
LOAD binaries/sscanf.o
LOAD binaries/strchr.o
LOAD binaries/strcmp.o
LOAD binaries/strcpy.o
LOAD binaries/strlen.o
LOAD binaries/strncat.o
LOAD binaries/strncmp.o
LOAD binaries/strncpy.o
LOAD binaries/strnlen.o
LOAD binaries/strrchr.o
LOAD binaries/strstr.o
LOAD binaries/ttycontrol.o
LOAD binaries/ttygetc.o
LOAD binaries/ttyhandle_in.o
LOAD binaries/ttyhandle_out.o
LOAD binaries/ttyhandler.o
LOAD binaries/ttyinit.o
LOAD binaries/ttykickout.o
LOAD binaries/ttyputc.o
LOAD binaries/ttyread.o
LOAD binaries/ttywrite.o
LOAD binaries/mount.o
LOAD binaries/naminit.o
LOAD binaries/nammap.o
LOAD binaries/namopen.o
LOAD binaries/colon2mac.o
LOAD binaries/ethcontrol.o
LOAD binaries/ethhandler.o
LOAD binaries/ethinit.o
LOAD binaries/ethmcast.o
LOAD binaries/ethread.o
LOAD binaries/ethwrite.o
LOAD binaries/rdsbufalloc.o
LOAD binaries/rdsclose.o
LOAD binaries/rdscomm.o
LOAD binaries/rdscontrol.o
LOAD binaries/rdsinit.o
LOAD binaries/rdsopen.o
LOAD binaries/rdsprocess.o
LOAD binaries/rdsread.o
LOAD binaries/rdswrite.o
LOAD binaries/ramclose.o
LOAD binaries/raminit.o
LOAD binaries/ramopen.o
LOAD binaries/ramread.o
LOAD binaries/ramwrite.o
LOAD binaries/lfdballoc.o
LOAD binaries/lfdbfree.o
LOAD binaries/lfflush.o
LOAD binaries/lfgetmode.o
LOAD binaries/lfiballoc.o
LOAD binaries/lfibclear.o
LOAD binaries/lfibget.o
LOAD binaries/lfibput.o
LOAD binaries/lflclose.o
LOAD binaries/lflcontrol.o
LOAD binaries/lflgetc.o
LOAD binaries/lflinit.o
LOAD binaries/lflputc.o
LOAD binaries/lflread.o
LOAD binaries/lflseek.o
LOAD binaries/lflwrite.o
LOAD binaries/lfsckfmt.o
LOAD binaries/lfscreate.o
LOAD binaries/lfsetup.o
LOAD binaries/lfsinit.o
LOAD binaries/lfsopen.o
LOAD binaries/lftruncate.o
LOAD binaries/rflclose.o
LOAD binaries/rflgetc.o
LOAD binaries/rflinit.o
LOAD binaries/rflputc.o
LOAD binaries/rflread.o
LOAD binaries/rflseek.o
LOAD binaries/rflwrite.o
LOAD binaries/rfscomm.o
LOAD binaries/rfscontrol.o
LOAD binaries/rfsgetmode.o
LOAD binaries/rfsinit.o
LOAD binaries/rfsndmsg.o
LOAD binaries/rfsopen.o
LOAD binaries/arp.o
LOAD binaries/dhcp.o
LOAD binaries/dot2ip.o
LOAD binaries/hexdump.o
LOAD binaries/icmp.o
LOAD binaries/ip.o
LOAD binaries/net.o
LOAD binaries/netstart.o
LOAD binaries/pdump.o
LOAD binaries/tftp.o
LOAD binaries/udp.o
LOAD binaries/addargs.o
LOAD binaries/lexan.o
LOAD binaries/shell.o
LOAD binaries/xsh_argecho.o
LOAD binaries/xsh_arp.o
LOAD binaries/xsh_cat.o
LOAD binaries/xsh_clear.o
LOAD binaries/xsh_date.o
LOAD binaries/xsh_devdump.o
LOAD binaries/xsh_echo.o
LOAD binaries/xsh_exit.o
LOAD binaries/xsh_help.o
LOAD binaries/xsh_ipaddr.o
LOAD binaries/xsh_kill.o
LOAD binaries/xsh_memdump.o
LOAD binaries/xsh_memstat.o
LOAD binaries/xsh_ping.o
LOAD binaries/xsh_ps.o
LOAD binaries/xsh_sleep.o
LOAD binaries/xsh_udpdump.o
LOAD binaries/xsh_udpecho.o
LOAD binaries/xsh_udpeserver.o
LOAD binaries/xsh_uptime.o
LOAD binaries/clkdisp.o
LOAD binaries/ctxsw.o
LOAD binaries/host2netla.o
LOAD binaries/host2netlc.o
LOAD binaries/intr.o
LOAD binaries/ttydispatch.o
LOAD binaries/ethdispatch.o
OUTPUT(../compile/xinu elf32-i386)

.comment        0x0000000000000000       0x2a
 .comment       0x0000000000000000       0x2a binaries/app1.o
                                         0x2b (size before relaxing)
 .comment       0x000000000000002a       0x2b binaries/app2.o
 .comment       0x000000000000002a       0x2b binaries/app3.o
 .comment       0x000000000000002a       0x2b binaries/ascdate.o
 .comment       0x000000000000002a       0x2b binaries/bufinit.o
 .comment       0x000000000000002a       0x2b binaries/chprio.o
 .comment       0x000000000000002a       0x2b binaries/clkhandler.o
 .comment       0x000000000000002a       0x2b binaries/clkinit.o
 .comment       0x000000000000002a       0x2b binaries/close.o
 .comment       0x000000000000002a       0x2b binaries/conf.o
 .comment       0x000000000000002a       0x2b binaries/control.o
 .comment       0x000000000000002a       0x2b binaries/create.o
 .comment       0x000000000000002a       0x2b binaries/early_imr.o
 .comment       0x000000000000002a       0x2b binaries/evec.o
 .comment       0x000000000000002a       0x2b binaries/factorial.o
 .comment       0x000000000000002a       0x2b binaries/freebuf.o
 .comment       0x000000000000002a       0x2b binaries/freemem.o
 .comment       0x000000000000002a       0x2b binaries/getbuf.o
 .comment       0x000000000000002a       0x2b binaries/getc.o
 .comment       0x000000000000002a       0x2b binaries/getdev.o
 .comment       0x000000000000002a       0x2b binaries/getitem.o
 .comment       0x000000000000002a       0x2b binaries/getmem.o
 .comment       0x000000000000002a       0x2b binaries/getpid.o
 .comment       0x000000000000002a       0x2b binaries/getpname.o
 .comment       0x000000000000002a       0x2b binaries/getppid.o
 .comment       0x000000000000002a       0x2b binaries/getprio.o
 .comment       0x000000000000002a       0x2b binaries/getstk.o
 .comment       0x000000000000002a       0x2b binaries/gettime.o
 .comment       0x000000000000002a       0x2b binaries/getutime.o
 .comment       0x000000000000002a       0x2b binaries/host2netlb.o
 .comment       0x000000000000002a       0x2b binaries/init.o
 .comment       0x000000000000002a       0x2b binaries/initialize.o
 .comment       0x000000000000002a       0x2b binaries/insert.o
 .comment       0x000000000000002a       0x2b binaries/insertd.o
 .comment       0x000000000000002a       0x2b binaries/ioerr.o
 .comment       0x000000000000002a       0x2b binaries/ionull.o
 .comment       0x000000000000002a       0x2b binaries/kill.o
 .comment       0x000000000000002a       0x2b binaries/kprintf.o
 .comment       0x000000000000002a       0x2b binaries/lab2q3.o
 .comment       0x000000000000002a       0x2b binaries/main.o
 .comment       0x000000000000002a       0x2b binaries/mark.o
 .comment       0x000000000000002a       0x2b binaries/meminit.o
 .comment       0x000000000000002a       0x2b binaries/mkbufpool.o
 .comment       0x000000000000002a       0x2b binaries/myappA.o
 .comment       0x000000000000002a       0x2b binaries/myfuncA.o
 .comment       0x000000000000002a       0x2b binaries/myhacker.o
 .comment       0x000000000000002a       0x2b binaries/myvictim.o
 .comment       0x000000000000002a       0x2b binaries/mywelcomemsg.o
 .comment       0x000000000000002a       0x2b binaries/newqueue.o
 .comment       0x000000000000002a       0x2b binaries/open.o
 .comment       0x000000000000002a       0x2b binaries/panic.o
 .comment       0x000000000000002a       0x2b binaries/pci.o
 .comment       0x000000000000002a       0x2b binaries/platinit.o
 .comment       0x000000000000002a       0x2b binaries/printsegaddr.o
 .comment       0x000000000000002a       0x2b binaries/ptclear.o
 .comment       0x000000000000002a       0x2b binaries/ptcount.o
 .comment       0x000000000000002a       0x2b binaries/ptcreate.o
 .comment       0x000000000000002a       0x2b binaries/ptdelete.o
 .comment       0x000000000000002a       0x2b binaries/ptinit.o
 .comment       0x000000000000002a       0x2b binaries/ptrecv.o
 .comment       0x000000000000002a       0x2b binaries/ptreset.o
 .comment       0x000000000000002a       0x2b binaries/ptsend.o
 .comment       0x000000000000002a       0x2b binaries/putc.o
 .comment       0x000000000000002a       0x2b binaries/quark_irq.o
 .comment       0x000000000000002a       0x2b binaries/quark_pdat.o
 .comment       0x000000000000002a       0x2b binaries/queue.o
 .comment       0x000000000000002a       0x2b binaries/read.o
 .comment       0x000000000000002a       0x2b binaries/ready.o
 .comment       0x000000000000002a       0x2b binaries/receive.o
 .comment       0x000000000000002a       0x2b binaries/recvclr.o
 .comment       0x000000000000002a       0x2b binaries/recvtime.o
 .comment       0x000000000000002a       0x2b binaries/resched.o
 .comment       0x000000000000002a       0x2b binaries/resume.o
 .comment       0x000000000000002a       0x2b binaries/seek.o
 .comment       0x000000000000002a       0x2b binaries/semcount.o
 .comment       0x000000000000002a       0x2b binaries/semcreate.o
 .comment       0x000000000000002a       0x2b binaries/semdelete.o
 .comment       0x000000000000002a       0x2b binaries/semreset.o
 .comment       0x000000000000002a       0x2b binaries/send.o
 .comment       0x000000000000002a       0x2b binaries/signal.o
 .comment       0x000000000000002a       0x2b binaries/signaln.o
 .comment       0x000000000000002a       0x2b binaries/sleep.o
 .comment       0x000000000000002a       0x2b binaries/stackdepth.o
 .comment       0x000000000000002a       0x2b binaries/stacktrace.o
 .comment       0x000000000000002a       0x2b binaries/suspend.o
 .comment       0x000000000000002a       0x2b binaries/teststackdepth.o
 .comment       0x000000000000002a       0x2b binaries/unsleep.o
 .comment       0x000000000000002a       0x2b binaries/userret.o
 .comment       0x000000000000002a       0x2b binaries/wait.o
 .comment       0x000000000000002a       0x2b binaries/wakeup.o
 .comment       0x000000000000002a       0x2b binaries/write.o
 .comment       0x000000000000002a       0x2b binaries/xdone.o
 .comment       0x000000000000002a       0x2b binaries/yield.o
 .comment       0x000000000000002a       0x2b binaries/abs.o
 .comment       0x000000000000002a       0x2b binaries/atoi.o
 .comment       0x000000000000002a       0x2b binaries/atol.o
 .comment       0x000000000000002a       0x2b binaries/bzero.o
 .comment       0x000000000000002a       0x2b binaries/ctype_.o
 .comment       0x000000000000002a       0x2b binaries/doprnt.o
 .comment       0x000000000000002a       0x2b binaries/doscan.o
 .comment       0x000000000000002a       0x2b binaries/fdoprnt.o
 .comment       0x000000000000002a       0x2b binaries/fgetc.o
 .comment       0x000000000000002a       0x2b binaries/fgets.o
 .comment       0x000000000000002a       0x2b binaries/fprintf.o
 .comment       0x000000000000002a       0x2b binaries/fputc.o
 .comment       0x000000000000002a       0x2b binaries/fputs.o
 .comment       0x000000000000002a       0x2b binaries/fscanf.o
 .comment       0x000000000000002a       0x2b binaries/getchar.o
 .comment       0x000000000000002a       0x2b binaries/labs.o
 .comment       0x000000000000002a       0x2b binaries/memchr.o
 .comment       0x000000000000002a       0x2b binaries/memcmp.o
 .comment       0x000000000000002a       0x2b binaries/memcpy.o
 .comment       0x000000000000002a       0x2b binaries/memset.o
 .comment       0x000000000000002a       0x2b binaries/printf.o
 .comment       0x000000000000002a       0x2b binaries/putchar.o
 .comment       0x000000000000002a       0x2b binaries/qsort.o
 .comment       0x000000000000002a       0x2b binaries/rand.o
 .comment       0x000000000000002a       0x2b binaries/sprintf.o
 .comment       0x000000000000002a       0x2b binaries/sscanf.o
 .comment       0x000000000000002a       0x2b binaries/strchr.o
 .comment       0x000000000000002a       0x2b binaries/strcmp.o
 .comment       0x000000000000002a       0x2b binaries/strcpy.o
 .comment       0x000000000000002a       0x2b binaries/strlen.o
 .comment       0x000000000000002a       0x2b binaries/strncat.o
 .comment       0x000000000000002a       0x2b binaries/strncmp.o
 .comment       0x000000000000002a       0x2b binaries/strncpy.o
 .comment       0x000000000000002a       0x2b binaries/strnlen.o
 .comment       0x000000000000002a       0x2b binaries/strrchr.o
 .comment       0x000000000000002a       0x2b binaries/strstr.o
 .comment       0x000000000000002a       0x2b binaries/ttycontrol.o
 .comment       0x000000000000002a       0x2b binaries/ttygetc.o
 .comment       0x000000000000002a       0x2b binaries/ttyhandle_in.o
 .comment       0x000000000000002a       0x2b binaries/ttyhandle_out.o
 .comment       0x000000000000002a       0x2b binaries/ttyhandler.o
 .comment       0x000000000000002a       0x2b binaries/ttyinit.o
 .comment       0x000000000000002a       0x2b binaries/ttykickout.o
 .comment       0x000000000000002a       0x2b binaries/ttyputc.o
 .comment       0x000000000000002a       0x2b binaries/ttyread.o
 .comment       0x000000000000002a       0x2b binaries/ttywrite.o
 .comment       0x000000000000002a       0x2b binaries/mount.o
 .comment       0x000000000000002a       0x2b binaries/naminit.o
 .comment       0x000000000000002a       0x2b binaries/nammap.o
 .comment       0x000000000000002a       0x2b binaries/namopen.o
 .comment       0x000000000000002a       0x2b binaries/colon2mac.o
 .comment       0x000000000000002a       0x2b binaries/ethcontrol.o
 .comment       0x000000000000002a       0x2b binaries/ethhandler.o
 .comment       0x000000000000002a       0x2b binaries/ethinit.o
 .comment       0x000000000000002a       0x2b binaries/ethmcast.o
 .comment       0x000000000000002a       0x2b binaries/ethread.o
 .comment       0x000000000000002a       0x2b binaries/ethwrite.o
 .comment       0x000000000000002a       0x2b binaries/rdsbufalloc.o
 .comment       0x000000000000002a       0x2b binaries/rdsclose.o
 .comment       0x000000000000002a       0x2b binaries/rdscomm.o
 .comment       0x000000000000002a       0x2b binaries/rdscontrol.o
 .comment       0x000000000000002a       0x2b binaries/rdsinit.o
 .comment       0x000000000000002a       0x2b binaries/rdsopen.o
 .comment       0x000000000000002a       0x2b binaries/rdsprocess.o
 .comment       0x000000000000002a       0x2b binaries/rdsread.o
 .comment       0x000000000000002a       0x2b binaries/rdswrite.o
 .comment       0x000000000000002a       0x2b binaries/ramclose.o
 .comment       0x000000000000002a       0x2b binaries/raminit.o
 .comment       0x000000000000002a       0x2b binaries/ramopen.o
 .comment       0x000000000000002a       0x2b binaries/ramread.o
 .comment       0x000000000000002a       0x2b binaries/ramwrite.o
 .comment       0x000000000000002a       0x2b binaries/lfdballoc.o
 .comment       0x000000000000002a       0x2b binaries/lfdbfree.o
 .comment       0x000000000000002a       0x2b binaries/lfflush.o
 .comment       0x000000000000002a       0x2b binaries/lfgetmode.o
 .comment       0x000000000000002a       0x2b binaries/lfiballoc.o
 .comment       0x000000000000002a       0x2b binaries/lfibclear.o
 .comment       0x000000000000002a       0x2b binaries/lfibget.o
 .comment       0x000000000000002a       0x2b binaries/lfibput.o
 .comment       0x000000000000002a       0x2b binaries/lflclose.o
 .comment       0x000000000000002a       0x2b binaries/lflcontrol.o
 .comment       0x000000000000002a       0x2b binaries/lflgetc.o
 .comment       0x000000000000002a       0x2b binaries/lflinit.o
 .comment       0x000000000000002a       0x2b binaries/lflputc.o
 .comment       0x000000000000002a       0x2b binaries/lflread.o
 .comment       0x000000000000002a       0x2b binaries/lflseek.o
 .comment       0x000000000000002a       0x2b binaries/lflwrite.o
 .comment       0x000000000000002a       0x2b binaries/lfsckfmt.o
 .comment       0x000000000000002a       0x2b binaries/lfscreate.o
 .comment       0x000000000000002a       0x2b binaries/lfsetup.o
 .comment       0x000000000000002a       0x2b binaries/lfsinit.o
 .comment       0x000000000000002a       0x2b binaries/lfsopen.o
 .comment       0x000000000000002a       0x2b binaries/lftruncate.o
 .comment       0x000000000000002a       0x2b binaries/rflclose.o
 .comment       0x000000000000002a       0x2b binaries/rflgetc.o
 .comment       0x000000000000002a       0x2b binaries/rflinit.o
 .comment       0x000000000000002a       0x2b binaries/rflputc.o
 .comment       0x000000000000002a       0x2b binaries/rflread.o
 .comment       0x000000000000002a       0x2b binaries/rflseek.o
 .comment       0x000000000000002a       0x2b binaries/rflwrite.o
 .comment       0x000000000000002a       0x2b binaries/rfscomm.o
 .comment       0x000000000000002a       0x2b binaries/rfscontrol.o
 .comment       0x000000000000002a       0x2b binaries/rfsgetmode.o
 .comment       0x000000000000002a       0x2b binaries/rfsinit.o
 .comment       0x000000000000002a       0x2b binaries/rfsndmsg.o
 .comment       0x000000000000002a       0x2b binaries/rfsopen.o
 .comment       0x000000000000002a       0x2b binaries/arp.o
 .comment       0x000000000000002a       0x2b binaries/dhcp.o
 .comment       0x000000000000002a       0x2b binaries/dot2ip.o
 .comment       0x000000000000002a       0x2b binaries/hexdump.o
 .comment       0x000000000000002a       0x2b binaries/icmp.o
 .comment       0x000000000000002a       0x2b binaries/ip.o
 .comment       0x000000000000002a       0x2b binaries/net.o
 .comment       0x000000000000002a       0x2b binaries/netstart.o
 .comment       0x000000000000002a       0x2b binaries/pdump.o
 .comment       0x000000000000002a       0x2b binaries/tftp.o
 .comment       0x000000000000002a       0x2b binaries/udp.o
 .comment       0x000000000000002a       0x2b binaries/addargs.o
 .comment       0x000000000000002a       0x2b binaries/lexan.o
 .comment       0x000000000000002a       0x2b binaries/shell.o
 .comment       0x000000000000002a       0x2b binaries/xsh_argecho.o
 .comment       0x000000000000002a       0x2b binaries/xsh_arp.o
 .comment       0x000000000000002a       0x2b binaries/xsh_cat.o
 .comment       0x000000000000002a       0x2b binaries/xsh_clear.o
 .comment       0x000000000000002a       0x2b binaries/xsh_date.o
 .comment       0x000000000000002a       0x2b binaries/xsh_devdump.o
 .comment       0x000000000000002a       0x2b binaries/xsh_echo.o
 .comment       0x000000000000002a       0x2b binaries/xsh_exit.o
 .comment       0x000000000000002a       0x2b binaries/xsh_help.o
 .comment       0x000000000000002a       0x2b binaries/xsh_ipaddr.o
 .comment       0x000000000000002a       0x2b binaries/xsh_kill.o
 .comment       0x000000000000002a       0x2b binaries/xsh_memdump.o
 .comment       0x000000000000002a       0x2b binaries/xsh_memstat.o
 .comment       0x000000000000002a       0x2b binaries/xsh_ping.o
 .comment       0x000000000000002a       0x2b binaries/xsh_ps.o
 .comment       0x000000000000002a       0x2b binaries/xsh_sleep.o
 .comment       0x000000000000002a       0x2b binaries/xsh_udpdump.o
 .comment       0x000000000000002a       0x2b binaries/xsh_udpecho.o
 .comment       0x000000000000002a       0x2b binaries/xsh_udpeserver.o
 .comment       0x000000000000002a       0x2b binaries/xsh_uptime.o
 .comment       0x000000000000002a       0x2b binaries/host2netlc.o

.note.GNU-stack
                0x0000000000000000        0x0
 .note.GNU-stack
                0x0000000000000000        0x0 binaries/app1.o
 .note.GNU-stack
                0x0000000000000000        0x0 binaries/app2.o
 .note.GNU-stack
                0x0000000000000000        0x0 binaries/app3.o
 .note.GNU-stack
                0x0000000000000000        0x0 binaries/ascdate.o
 .note.GNU-stack
                0x0000000000000000        0x0 binaries/bufinit.o
 .note.GNU-stack
                0x0000000000000000        0x0 binaries/chprio.o
 .note.GNU-stack
                0x0000000000000000        0x0 binaries/clkhandler.o
 .note.GNU-stack
                0x0000000000000000        0x0 binaries/clkinit.o
 .note.GNU-stack
                0x0000000000000000        0x0 binaries/close.o
 .note.GNU-stack
                0x0000000000000000        0x0 binaries/conf.o
 .note.GNU-stack
                0x0000000000000000        0x0 binaries/control.o
 .note.GNU-stack
                0x0000000000000000        0x0 binaries/create.o
 .note.GNU-stack
                0x0000000000000000        0x0 binaries/early_imr.o
 .note.GNU-stack
                0x0000000000000000        0x0 binaries/evec.o
 .note.GNU-stack
                0x0000000000000000        0x0 binaries/factorial.o
 .note.GNU-stack
                0x0000000000000000        0x0 binaries/freebuf.o
 .note.GNU-stack
                0x0000000000000000        0x0 binaries/freemem.o
 .note.GNU-stack
                0x0000000000000000        0x0 binaries/getbuf.o
 .note.GNU-stack
                0x0000000000000000        0x0 binaries/getc.o
 .note.GNU-stack
                0x0000000000000000        0x0 binaries/getdev.o
 .note.GNU-stack
                0x0000000000000000        0x0 binaries/getitem.o
 .note.GNU-stack
                0x0000000000000000        0x0 binaries/getmem.o
 .note.GNU-stack
                0x0000000000000000        0x0 binaries/getpid.o
 .note.GNU-stack
                0x0000000000000000        0x0 binaries/getpname.o
 .note.GNU-stack
                0x0000000000000000        0x0 binaries/getppid.o
 .note.GNU-stack
                0x0000000000000000        0x0 binaries/getprio.o
 .note.GNU-stack
                0x0000000000000000        0x0 binaries/getstk.o
 .note.GNU-stack
                0x0000000000000000        0x0 binaries/gettime.o
 .note.GNU-stack
                0x0000000000000000        0x0 binaries/getutime.o
 .note.GNU-stack
                0x0000000000000000        0x0 binaries/host2netlb.o
 .note.GNU-stack
                0x0000000000000000        0x0 binaries/init.o
 .note.GNU-stack
                0x0000000000000000        0x0 binaries/initialize.o
 .note.GNU-stack
                0x0000000000000000        0x0 binaries/insert.o
 .note.GNU-stack
                0x0000000000000000        0x0 binaries/insertd.o
 .note.GNU-stack
                0x0000000000000000        0x0 binaries/ioerr.o
 .note.GNU-stack
                0x0000000000000000        0x0 binaries/ionull.o
 .note.GNU-stack
                0x0000000000000000        0x0 binaries/kill.o
 .note.GNU-stack
                0x0000000000000000        0x0 binaries/kprintf.o
 .note.GNU-stack
                0x0000000000000000        0x0 binaries/lab2q3.o
 .note.GNU-stack
                0x0000000000000000        0x0 binaries/main.o
 .note.GNU-stack
                0x0000000000000000        0x0 binaries/mark.o
 .note.GNU-stack
                0x0000000000000000        0x0 binaries/meminit.o
 .note.GNU-stack
                0x0000000000000000        0x0 binaries/mkbufpool.o
 .note.GNU-stack
                0x0000000000000000        0x0 binaries/myappA.o
 .note.GNU-stack
                0x0000000000000000        0x0 binaries/myfuncA.o
 .note.GNU-stack
                0x0000000000000000        0x0 binaries/myhacker.o
 .note.GNU-stack
                0x0000000000000000        0x0 binaries/myvictim.o
 .note.GNU-stack
                0x0000000000000000        0x0 binaries/mywelcomemsg.o
 .note.GNU-stack
                0x0000000000000000        0x0 binaries/newqueue.o
 .note.GNU-stack
                0x0000000000000000        0x0 binaries/open.o
 .note.GNU-stack
                0x0000000000000000        0x0 binaries/panic.o
 .note.GNU-stack
                0x0000000000000000        0x0 binaries/pci.o
 .note.GNU-stack
                0x0000000000000000        0x0 binaries/platinit.o
 .note.GNU-stack
                0x0000000000000000        0x0 binaries/printsegaddr.o
 .note.GNU-stack
                0x0000000000000000        0x0 binaries/ptclear.o
 .note.GNU-stack
                0x0000000000000000        0x0 binaries/ptcount.o
 .note.GNU-stack
                0x0000000000000000        0x0 binaries/ptcreate.o
 .note.GNU-stack
                0x0000000000000000        0x0 binaries/ptdelete.o
 .note.GNU-stack
                0x0000000000000000        0x0 binaries/ptinit.o
 .note.GNU-stack
                0x0000000000000000        0x0 binaries/ptrecv.o
 .note.GNU-stack
                0x0000000000000000        0x0 binaries/ptreset.o
 .note.GNU-stack
                0x0000000000000000        0x0 binaries/ptsend.o
 .note.GNU-stack
                0x0000000000000000        0x0 binaries/putc.o
 .note.GNU-stack
                0x0000000000000000        0x0 binaries/quark_irq.o
 .note.GNU-stack
                0x0000000000000000        0x0 binaries/quark_pdat.o
 .note.GNU-stack
                0x0000000000000000        0x0 binaries/queue.o
 .note.GNU-stack
                0x0000000000000000        0x0 binaries/read.o
 .note.GNU-stack
                0x0000000000000000        0x0 binaries/ready.o
 .note.GNU-stack
                0x0000000000000000        0x0 binaries/receive.o
 .note.GNU-stack
                0x0000000000000000        0x0 binaries/recvclr.o
 .note.GNU-stack
                0x0000000000000000        0x0 binaries/recvtime.o
 .note.GNU-stack
                0x0000000000000000        0x0 binaries/resched.o
 .note.GNU-stack
                0x0000000000000000        0x0 binaries/resume.o
 .note.GNU-stack
                0x0000000000000000        0x0 binaries/seek.o
 .note.GNU-stack
                0x0000000000000000        0x0 binaries/semcount.o
 .note.GNU-stack
                0x0000000000000000        0x0 binaries/semcreate.o
 .note.GNU-stack
                0x0000000000000000        0x0 binaries/semdelete.o
 .note.GNU-stack
                0x0000000000000000        0x0 binaries/semreset.o
 .note.GNU-stack
                0x0000000000000000        0x0 binaries/send.o
 .note.GNU-stack
                0x0000000000000000        0x0 binaries/signal.o
 .note.GNU-stack
                0x0000000000000000        0x0 binaries/signaln.o
 .note.GNU-stack
                0x0000000000000000        0x0 binaries/sleep.o
 .note.GNU-stack
                0x0000000000000000        0x0 binaries/stackdepth.o
 .note.GNU-stack
                0x0000000000000000        0x0 binaries/stacktrace.o
 .note.GNU-stack
                0x0000000000000000        0x0 binaries/suspend.o
 .note.GNU-stack
                0x0000000000000000        0x0 binaries/teststackdepth.o
 .note.GNU-stack
                0x0000000000000000        0x0 binaries/unsleep.o
 .note.GNU-stack
                0x0000000000000000        0x0 binaries/userret.o
 .note.GNU-stack
                0x0000000000000000        0x0 binaries/wait.o
 .note.GNU-stack
                0x0000000000000000        0x0 binaries/wakeup.o
 .note.GNU-stack
                0x0000000000000000        0x0 binaries/write.o
 .note.GNU-stack
                0x0000000000000000        0x0 binaries/xdone.o
 .note.GNU-stack
                0x0000000000000000        0x0 binaries/yield.o
 .note.GNU-stack
                0x0000000000000000        0x0 binaries/abs.o
 .note.GNU-stack
                0x0000000000000000        0x0 binaries/atoi.o
 .note.GNU-stack
                0x0000000000000000        0x0 binaries/atol.o
 .note.GNU-stack
                0x0000000000000000        0x0 binaries/bzero.o
 .note.GNU-stack
                0x0000000000000000        0x0 binaries/ctype_.o
 .note.GNU-stack
                0x0000000000000000        0x0 binaries/doprnt.o
 .note.GNU-stack
                0x0000000000000000        0x0 binaries/doscan.o
 .note.GNU-stack
                0x0000000000000000        0x0 binaries/fdoprnt.o
 .note.GNU-stack
                0x0000000000000000        0x0 binaries/fgetc.o
 .note.GNU-stack
                0x0000000000000000        0x0 binaries/fgets.o
 .note.GNU-stack
                0x0000000000000000        0x0 binaries/fprintf.o
 .note.GNU-stack
                0x0000000000000000        0x0 binaries/fputc.o
 .note.GNU-stack
                0x0000000000000000        0x0 binaries/fputs.o
 .note.GNU-stack
                0x0000000000000000        0x0 binaries/fscanf.o
 .note.GNU-stack
                0x0000000000000000        0x0 binaries/getchar.o
 .note.GNU-stack
                0x0000000000000000        0x0 binaries/labs.o
 .note.GNU-stack
                0x0000000000000000        0x0 binaries/memchr.o
 .note.GNU-stack
                0x0000000000000000        0x0 binaries/memcmp.o
 .note.GNU-stack
                0x0000000000000000        0x0 binaries/memcpy.o
 .note.GNU-stack
                0x0000000000000000        0x0 binaries/memset.o
 .note.GNU-stack
                0x0000000000000000        0x0 binaries/printf.o
 .note.GNU-stack
                0x0000000000000000        0x0 binaries/putchar.o
 .note.GNU-stack
                0x0000000000000000        0x0 binaries/qsort.o
 .note.GNU-stack
                0x0000000000000000        0x0 binaries/rand.o
 .note.GNU-stack
                0x0000000000000000        0x0 binaries/sprintf.o
 .note.GNU-stack
                0x0000000000000000        0x0 binaries/sscanf.o
 .note.GNU-stack
                0x0000000000000000        0x0 binaries/strchr.o
 .note.GNU-stack
                0x0000000000000000        0x0 binaries/strcmp.o
 .note.GNU-stack
                0x0000000000000000        0x0 binaries/strcpy.o
 .note.GNU-stack
                0x0000000000000000        0x0 binaries/strlen.o
 .note.GNU-stack
                0x0000000000000000        0x0 binaries/strncat.o
 .note.GNU-stack
                0x0000000000000000        0x0 binaries/strncmp.o
 .note.GNU-stack
                0x0000000000000000        0x0 binaries/strncpy.o
 .note.GNU-stack
                0x0000000000000000        0x0 binaries/strnlen.o
 .note.GNU-stack
                0x0000000000000000        0x0 binaries/strrchr.o
 .note.GNU-stack
                0x0000000000000000        0x0 binaries/strstr.o
 .note.GNU-stack
                0x0000000000000000        0x0 binaries/ttycontrol.o
 .note.GNU-stack
                0x0000000000000000        0x0 binaries/ttygetc.o
 .note.GNU-stack
                0x0000000000000000        0x0 binaries/ttyhandle_in.o
 .note.GNU-stack
                0x0000000000000000        0x0 binaries/ttyhandle_out.o
 .note.GNU-stack
                0x0000000000000000        0x0 binaries/ttyhandler.o
 .note.GNU-stack
                0x0000000000000000        0x0 binaries/ttyinit.o
 .note.GNU-stack
                0x0000000000000000        0x0 binaries/ttykickout.o
 .note.GNU-stack
                0x0000000000000000        0x0 binaries/ttyputc.o
 .note.GNU-stack
                0x0000000000000000        0x0 binaries/ttyread.o
 .note.GNU-stack
                0x0000000000000000        0x0 binaries/ttywrite.o
 .note.GNU-stack
                0x0000000000000000        0x0 binaries/mount.o
 .note.GNU-stack
                0x0000000000000000        0x0 binaries/naminit.o
 .note.GNU-stack
                0x0000000000000000        0x0 binaries/nammap.o
 .note.GNU-stack
                0x0000000000000000        0x0 binaries/namopen.o
 .note.GNU-stack
                0x0000000000000000        0x0 binaries/colon2mac.o
 .note.GNU-stack
                0x0000000000000000        0x0 binaries/ethcontrol.o
 .note.GNU-stack
                0x0000000000000000        0x0 binaries/ethhandler.o
 .note.GNU-stack
                0x0000000000000000        0x0 binaries/ethinit.o
 .note.GNU-stack
                0x0000000000000000        0x0 binaries/ethmcast.o
 .note.GNU-stack
                0x0000000000000000        0x0 binaries/ethread.o
 .note.GNU-stack
                0x0000000000000000        0x0 binaries/ethwrite.o
 .note.GNU-stack
                0x0000000000000000        0x0 binaries/rdsbufalloc.o
 .note.GNU-stack
                0x0000000000000000        0x0 binaries/rdsclose.o
 .note.GNU-stack
                0x0000000000000000        0x0 binaries/rdscomm.o
 .note.GNU-stack
                0x0000000000000000        0x0 binaries/rdscontrol.o
 .note.GNU-stack
                0x0000000000000000        0x0 binaries/rdsinit.o
 .note.GNU-stack
                0x0000000000000000        0x0 binaries/rdsopen.o
 .note.GNU-stack
                0x0000000000000000        0x0 binaries/rdsprocess.o
 .note.GNU-stack
                0x0000000000000000        0x0 binaries/rdsread.o
 .note.GNU-stack
                0x0000000000000000        0x0 binaries/rdswrite.o
 .note.GNU-stack
                0x0000000000000000        0x0 binaries/ramclose.o
 .note.GNU-stack
                0x0000000000000000        0x0 binaries/raminit.o
 .note.GNU-stack
                0x0000000000000000        0x0 binaries/ramopen.o
 .note.GNU-stack
                0x0000000000000000        0x0 binaries/ramread.o
 .note.GNU-stack
                0x0000000000000000        0x0 binaries/ramwrite.o
 .note.GNU-stack
                0x0000000000000000        0x0 binaries/lfdballoc.o
 .note.GNU-stack
                0x0000000000000000        0x0 binaries/lfdbfree.o
 .note.GNU-stack
                0x0000000000000000        0x0 binaries/lfflush.o
 .note.GNU-stack
                0x0000000000000000        0x0 binaries/lfgetmode.o
 .note.GNU-stack
                0x0000000000000000        0x0 binaries/lfiballoc.o
 .note.GNU-stack
                0x0000000000000000        0x0 binaries/lfibclear.o
 .note.GNU-stack
                0x0000000000000000        0x0 binaries/lfibget.o
 .note.GNU-stack
                0x0000000000000000        0x0 binaries/lfibput.o
 .note.GNU-stack
                0x0000000000000000        0x0 binaries/lflclose.o
 .note.GNU-stack
                0x0000000000000000        0x0 binaries/lflcontrol.o
 .note.GNU-stack
                0x0000000000000000        0x0 binaries/lflgetc.o
 .note.GNU-stack
                0x0000000000000000        0x0 binaries/lflinit.o
 .note.GNU-stack
                0x0000000000000000        0x0 binaries/lflputc.o
 .note.GNU-stack
                0x0000000000000000        0x0 binaries/lflread.o
 .note.GNU-stack
                0x0000000000000000        0x0 binaries/lflseek.o
 .note.GNU-stack
                0x0000000000000000        0x0 binaries/lflwrite.o
 .note.GNU-stack
                0x0000000000000000        0x0 binaries/lfsckfmt.o
 .note.GNU-stack
                0x0000000000000000        0x0 binaries/lfscreate.o
 .note.GNU-stack
                0x0000000000000000        0x0 binaries/lfsetup.o
 .note.GNU-stack
                0x0000000000000000        0x0 binaries/lfsinit.o
 .note.GNU-stack
                0x0000000000000000        0x0 binaries/lfsopen.o
 .note.GNU-stack
                0x0000000000000000        0x0 binaries/lftruncate.o
 .note.GNU-stack
                0x0000000000000000        0x0 binaries/rflclose.o
 .note.GNU-stack
                0x0000000000000000        0x0 binaries/rflgetc.o
 .note.GNU-stack
                0x0000000000000000        0x0 binaries/rflinit.o
 .note.GNU-stack
                0x0000000000000000        0x0 binaries/rflputc.o
 .note.GNU-stack
                0x0000000000000000        0x0 binaries/rflread.o
 .note.GNU-stack
                0x0000000000000000        0x0 binaries/rflseek.o
 .note.GNU-stack
                0x0000000000000000        0x0 binaries/rflwrite.o
 .note.GNU-stack
                0x0000000000000000        0x0 binaries/rfscomm.o
 .note.GNU-stack
                0x0000000000000000        0x0 binaries/rfscontrol.o
 .note.GNU-stack
                0x0000000000000000        0x0 binaries/rfsgetmode.o
 .note.GNU-stack
                0x0000000000000000        0x0 binaries/rfsinit.o
 .note.GNU-stack
                0x0000000000000000        0x0 binaries/rfsndmsg.o
 .note.GNU-stack
                0x0000000000000000        0x0 binaries/rfsopen.o
 .note.GNU-stack
                0x0000000000000000        0x0 binaries/arp.o
 .note.GNU-stack
                0x0000000000000000        0x0 binaries/dhcp.o
 .note.GNU-stack
                0x0000000000000000        0x0 binaries/dot2ip.o
 .note.GNU-stack
                0x0000000000000000        0x0 binaries/hexdump.o
 .note.GNU-stack
                0x0000000000000000        0x0 binaries/icmp.o
 .note.GNU-stack
                0x0000000000000000        0x0 binaries/ip.o
 .note.GNU-stack
                0x0000000000000000        0x0 binaries/net.o
 .note.GNU-stack
                0x0000000000000000        0x0 binaries/netstart.o
 .note.GNU-stack
                0x0000000000000000        0x0 binaries/pdump.o
 .note.GNU-stack
                0x0000000000000000        0x0 binaries/tftp.o
 .note.GNU-stack
                0x0000000000000000        0x0 binaries/udp.o
 .note.GNU-stack
                0x0000000000000000        0x0 binaries/addargs.o
 .note.GNU-stack
                0x0000000000000000        0x0 binaries/lexan.o
 .note.GNU-stack
                0x0000000000000000        0x0 binaries/shell.o
 .note.GNU-stack
                0x0000000000000000        0x0 binaries/xsh_argecho.o
 .note.GNU-stack
                0x0000000000000000        0x0 binaries/xsh_arp.o
 .note.GNU-stack
                0x0000000000000000        0x0 binaries/xsh_cat.o
 .note.GNU-stack
                0x0000000000000000        0x0 binaries/xsh_clear.o
 .note.GNU-stack
                0x0000000000000000        0x0 binaries/xsh_date.o
 .note.GNU-stack
                0x0000000000000000        0x0 binaries/xsh_devdump.o
 .note.GNU-stack
                0x0000000000000000        0x0 binaries/xsh_echo.o
 .note.GNU-stack
                0x0000000000000000        0x0 binaries/xsh_exit.o
 .note.GNU-stack
                0x0000000000000000        0x0 binaries/xsh_help.o
 .note.GNU-stack
                0x0000000000000000        0x0 binaries/xsh_ipaddr.o
 .note.GNU-stack
                0x0000000000000000        0x0 binaries/xsh_kill.o
 .note.GNU-stack
                0x0000000000000000        0x0 binaries/xsh_memdump.o
 .note.GNU-stack
                0x0000000000000000        0x0 binaries/xsh_memstat.o
 .note.GNU-stack
                0x0000000000000000        0x0 binaries/xsh_ping.o
 .note.GNU-stack
                0x0000000000000000        0x0 binaries/xsh_ps.o
 .note.GNU-stack
                0x0000000000000000        0x0 binaries/xsh_sleep.o
 .note.GNU-stack
                0x0000000000000000        0x0 binaries/xsh_udpdump.o
 .note.GNU-stack
                0x0000000000000000        0x0 binaries/xsh_udpecho.o
 .note.GNU-stack
                0x0000000000000000        0x0 binaries/xsh_udpeserver.o
 .note.GNU-stack
                0x0000000000000000        0x0 binaries/xsh_uptime.o
 .note.GNU-stack
                0x0000000000000000        0x0 binaries/host2netlc.o
