
Allocating common symbols
Common symbol       size              file

netbufpool          0x4               binaries/net.o
readylist           0x2               binaries/ready.o
rfltab              0x5a0             binaries/rflinit.o
queueArr            0x28              binaries/initialize.o
sleepq              0x2               binaries/clkinit.o
nnames              0x4               binaries/naminit.o
udptab              0x168             binaries/udp.o
minheap             0x4               binaries/meminit.o
marks               0x50              binaries/mark.o
currpid             0x4               binaries/initialize.o
Lf_data             0x20c             binaries/lfsinit.o
porttab             0x2d0             binaries/ptinit.o
girmask             0x2               binaries/evec.o
ttytab              0x10c             binaries/ttyinit.o
victimglobal        0x4               binaries/myhacker.o
proctab             0x1c20            binaries/initialize.o
prcount             0x4               binaries/initialize.o
victimsRetAddress   0x4               binaries/myhacker.o
lfltab              0xf00             binaries/lflinit.o
rdstab              0x8c              binaries/rdsinit.o
ethertab            0x138             binaries/ethinit.o
NetData             0xa8              binaries/net.o
nmarks              0x4               binaries/mark.o
Defer               0x8               binaries/resched.o
semtab              0x4b0             binaries/initialize.o
maxheap             0x4               binaries/meminit.o
preempt             0x4               binaries/clkinit.o
buftab              0xf0              binaries/bufinit.o
Rf_data             0x18              binaries/rfsinit.o
myqueuetab          0xca0             binaries/myqueue.o
mkmutex             0x4               binaries/mark.o
clktimemsec         0x4               binaries/clkinit.o
clktime             0x4               binaries/clkinit.o
arpcache            0x140             binaries/arp.o
icmptab             0x230             binaries/icmp.o
nbpools             0x4               binaries/bufinit.o
queuetab            0xca0             binaries/queue.o
ptnextid            0x4               binaries/ptinit.o
Ram                 0x19000           binaries/raminit.o
ipoqueue            0x2c              binaries/ip.o
memlist             0x8               binaries/initialize.o
nametab             0x19a0            binaries/naminit.o
ptfree              0x4               binaries/ptinit.o

Memory Configuration

Name             Origin             Length             Attributes
*default*        0x0000000000000000 0xffffffffffffffff

Linker script and memory map

                0x0000000000100000                physbase = 0x100000
                0x0000000000100000                . = physbase
                0x0000000000100000                . = ALIGN (0x1000)

.text           0x0000000000100000    0x18000
                0x0000000000100000                text = ABSOLUTE (.)
 *(.text .text.*)
 .text          0x0000000000100000      0x1ac binaries/start.o
                0x0000000000100028                start
                0x00000000001000fa                inb
                0x0000000000100102                inw
                0x000000000010010b                inl
                0x0000000000100113                outb
                0x000000000010011d                outw
                0x0000000000100128                outl
                0x0000000000100132                _rtcin
                0x000000000010013d                ___udivsi3
                0x0000000000100148                ___divsi3
                0x0000000000100154                sbzero
                0x0000000000100164                bcopy
                0x0000000000100178                insw
                0x000000000010018e                outsw
                0x00000000001001a4                lidt
 .text          0x00000000001001ac       0x35 binaries/app1.o
                0x00000000001001ac                app1
 .text          0x00000000001001e1       0x8f binaries/app2.o
                0x00000000001001e1                app2
 .text          0x0000000000100270       0x67 binaries/app3.o
                0x0000000000100270                app3
 .text          0x00000000001002d7      0x2b9 binaries/ascdate.o
                0x00000000001002d7                ascdate
 .text          0x0000000000100590       0x14 binaries/bufinit.o
                0x0000000000100590                bufinit
 .text          0x00000000001005a4       0x6a binaries/chprio.o
                0x00000000001005a4                chprio
 .text          0x000000000010060e       0x90 binaries/clkhandler.o
                0x000000000010060e                clkhandler
 .text          0x000000000010069e       0x67 binaries/clkinit.o
                0x000000000010069e                clkinit
 .text          0x0000000000100705       0x56 binaries/close.o
                0x0000000000100705                close
 .text          0x000000000010075b        0x0 binaries/conf.o
 .text          0x000000000010075b       0x5c binaries/control.o
                0x000000000010075b                control
 .text          0x00000000001007b7      0x122 binaries/cpubound.o
                0x00000000001007b7                cpubound
 .text          0x00000000001008d9      0x260 binaries/create.o
                0x00000000001008d9                create
 .text          0x0000000000100b39      0x20e binaries/early_imr.o
                0x0000000000100b39                intel_cln_early_sb_read_reg
                0x0000000000100b90                intel_cln_early_sb_write_reg
                0x0000000000100c4a                remove_irm_protections
 .text          0x0000000000100d47      0x2e0 binaries/evec.o
                0x0000000000100d47                setirmask
                0x0000000000100d7f                set_evec
                0x0000000000100dda                initevec
                0x0000000000100eac                trap
 .text          0x0000000000101027       0x30 binaries/factorial.o
                0x0000000000101027                factorial
 .text          0x0000000000101057       0x7f binaries/freebuf.o
                0x0000000000101057                freebuf
 .text          0x00000000001010d6      0x108 binaries/freemem.o
                0x00000000001010d6                freemem
 .text          0x00000000001011de       0x6e binaries/getbuf.o
                0x00000000001011de                getbuf
 .text          0x000000000010124c       0x56 binaries/getc.o
                0x000000000010124c                getc
 .text          0x00000000001012a2       0x69 binaries/getdev.o
                0x00000000001012a2                getdev
 .text          0x000000000010130b      0x104 binaries/getitem.o
                0x000000000010130b                getitem
                0x000000000010133a                getfirst
                0x0000000000101361                getlast
                0x000000000010138d                mygetitem
                0x00000000001013bc                mygetfirst
                0x00000000001013e3                mygetlast
 .text          0x000000000010140f       0xc2 binaries/getmem.o
                0x000000000010140f                getmem
 .text          0x00000000001014d1        0xa binaries/getpid.o
                0x00000000001014d1                getpid
 .text          0x00000000001014db       0x12 binaries/getpname.o
                0x00000000001014db                getpname
 .text          0x00000000001014ed       0x14 binaries/getppid.o
                0x00000000001014ed                getppid
 .text          0x0000000000101501       0x54 binaries/getprio.o
                0x0000000000101501                getprio
 .text          0x0000000000101555       0xac binaries/getstk.o
                0x0000000000101555                getstk
 .text          0x0000000000101601       0x32 binaries/gettime.o
                0x0000000000101601                gettime
 .text          0x0000000000101633      0x188 binaries/getutime.o
                0x0000000000101633                getutime
 .text          0x00000000001017bb       0x10 binaries/host2netlb.o
                0x00000000001017bb                host2netlb
 .text          0x00000000001017cb       0x56 binaries/init.o
                0x00000000001017cb                init
 .text          0x0000000000101821      0x2e7 binaries/initialize.o
                0x0000000000101821                nulluser
                0x0000000000101abe                stop
                0x0000000000101ae2                delay
 .text          0x0000000000101b08       0xba binaries/insert.o
                0x0000000000101b08                insert
 .text          0x0000000000101bc2       0xe7 binaries/insertd.o
                0x0000000000101bc2                insertd
 .text          0x0000000000101ca9       0xbc binaries/iobound.o
                0x0000000000101ca9                iobound
 .text          0x0000000000101d65        0xa binaries/ioerr.o
                0x0000000000101d65                ioerr
 .text          0x0000000000101d6f        0xa binaries/ionull.o
                0x0000000000101d6f                ionull
 .text          0x0000000000101d79      0x165 binaries/kill.o
                0x0000000000101d79                kill
 .text          0x0000000000101ede       0xa9 binaries/kprintf.o
                0x0000000000101ede                kputc
                0x0000000000101f10                console_init
                0x0000000000101f43                kgetc
                0x0000000000101f69                kprintf
 .text          0x0000000000101f87      0x3af binaries/lab2q3.o
                0x0000000000101f87                workerProcessTypeA
                0x0000000000101f8c                workerProcessTypeB
                0x0000000000101fa9                monitorProcess
                0x000000000010201c                lab2q3t1
                0x000000000010207b                lab2q3t2
                0x0000000000102164                lab2q3t3
                0x000000000010224d                lab2q3t4
 .text          0x0000000000102336      0x804 binaries/lab2q4.o
                0x0000000000102336                lab2q4t1
                0x0000000000102502                lab2q4t2
                0x00000000001026bc                lab2q4t3
                0x000000000010287f                lab2q4t4
                0x0000000000102968                lab2q4t5
                0x0000000000102a51                lab2q4t6
 .text          0x0000000000102b3a      0x1e3 binaries/lab2q5.o
                0x0000000000102b3a                lab2q5t1
 .text          0x0000000000102d1d      0x1f0 binaries/main.o
                0x0000000000102d1d                testReceive
                0x0000000000102d54                testASender
                0x0000000000102de3                main
 .text          0x0000000000102f0d       0x99 binaries/mark.o
                0x0000000000102f0d                markinit
                0x0000000000102f2e                mark
 .text          0x0000000000102fa6      0x1ff binaries/meminit.o
                0x0000000000102fa6                meminit
                0x0000000000103135                setsegs
 .text          0x00000000001031a5      0x122 binaries/mkbufpool.o
                0x00000000001031a5                mkbufpool
 .text          0x00000000001032c7       0x91 binaries/multilevelfbq.o
                0x00000000001032c7                multifeedbackDQ
                0x000000000010330d                printMFQ
 .text          0x0000000000103358       0xa9 binaries/myappA.o
                0x0000000000103358                myappA
 .text          0x0000000000103401       0x23 binaries/myfuncA.o
                0x0000000000103401                myfuncA
 .text          0x0000000000103424       0x84 binaries/myhacker.o
                0x0000000000103424                myhackermalware
                0x0000000000103450                getretaddrbydepth
                0x000000000010347e                myhacker
 .text          0x00000000001034a8      0x167 binaries/myqueue.o
                0x00000000001034a8                myenqueue
                0x000000000010354e                mydequeue
                0x0000000000103599                myprintQueue
 .text          0x000000000010360f       0x9b binaries/myvictim.o
                0x000000000010360f                makevictimsleep
                0x000000000010363a                invokevictimsleep
                0x0000000000103665                myvictim
 .text          0x00000000001036aa       0x5f binaries/mywelcomemsg.o
                0x00000000001036aa                mywelcomemsg
 .text          0x0000000000103709       0xc6 binaries/newqueue.o
                0x0000000000103709                newqueue
                0x000000000010376c                mynewqueue
 .text          0x00000000001037cf       0x5c binaries/open.o
                0x00000000001037cf                open
 .text          0x000000000010382b       0x20 binaries/panic.o
                0x000000000010382b                panic
 .text          0x000000000010384b      0x282 binaries/pci.o
                0x000000000010384b                pci_init
                0x0000000000103855                find_pci_device
                0x0000000000103914                pci_read_config_byte
                0x0000000000103952                pci_read_config_word
                0x0000000000103992                pci_read_config_dword
                0x00000000001039d0                pci_write_config_byte
                0x0000000000103a0c                pci_write_config_word
                0x0000000000103a49                pci_write_config_dword
                0x0000000000103a85                pci_get_dev_mmio_base_addr
 .text          0x0000000000103acd       0x50 binaries/platinit.o
                0x0000000000103acd                platinit
 .text          0x0000000000103b1d       0xa7 binaries/printsegaddr.o
                0x0000000000103b1d                printsegaddr
 .text          0x0000000000103bc4      0x3ec binaries/process_state.o
                0x0000000000103bc4                process_state
 .text          0x0000000000103fb0       0xa9 binaries/ptclear.o
                0x0000000000103fb0                _ptclear
 .text          0x0000000000104059       0x85 binaries/ptcount.o
                0x0000000000104059                ptcount
 .text          0x00000000001040de       0xfe binaries/ptcreate.o
                0x00000000001040de                ptcreate
 .text          0x00000000001041dc       0x63 binaries/ptdelete.o
                0x00000000001041dc                ptdelete
 .text          0x000000000010423f       0x91 binaries/ptinit.o
                0x000000000010423f                ptinit
 .text          0x00000000001042d0       0xf5 binaries/ptrecv.o
                0x00000000001042d0                ptrecv
 .text          0x00000000001043c5       0x66 binaries/ptreset.o
                0x00000000001043c5                ptreset
 .text          0x000000000010442b      0x115 binaries/ptsend.o
                0x000000000010442b                ptsend
 .text          0x0000000000104540       0x64 binaries/putc.o
                0x0000000000104540                putc
 .text          0x00000000001045a4       0xb3 binaries/quark_irq.o
                0x00000000001045a4                quark_irq_routing
 .text          0x0000000000104657      0x19a binaries/quark_pdat.o
                0x0000000000104657                get_quark_pdat_entry_data_by_id
                0x0000000000104721                get_quark_pdat_entry_data_by_desc
 .text          0x00000000001047f1      0x167 binaries/queue.o
                0x00000000001047f1                enqueue
                0x0000000000104897                dequeue
                0x00000000001048e2                printQueue
 .text          0x0000000000104958       0x5c binaries/read.o
                0x0000000000104958                read
 .text          0x00000000001049b4       0xed binaries/ready.o
                0x00000000001049b4                ready
 .text          0x0000000000104aa1       0x5e binaries/receive.o
                0x0000000000104aa1                receive
 .text          0x0000000000104aff      0x11c binaries/receivebt.o
                0x0000000000104aff                receivebt
 .text          0x0000000000104c1b       0x4f binaries/recvclr.o
                0x0000000000104c1b                recvclr
 .text          0x0000000000104c6a       0xb6 binaries/recvtime.o
                0x0000000000104c6a                recvtime
 .text          0x0000000000104d20      0x488 binaries/resched.o
                0x0000000000104d20                currproc_eligible
                0x0000000000104d76                resched_lab3
                0x0000000000104ea8                resched_lab1
                0x0000000000104f65                reward_ready_waiting
                0x0000000000104f9b                resched_lab2
                0x000000000010510c                resched
                0x0000000000105136                resched_cntl
 .text          0x00000000001051a8       0x7c binaries/resume.o
                0x00000000001051a8                resume
 .text          0x0000000000105224       0x59 binaries/seek.o
                0x0000000000105224                seek
 .text          0x000000000010527d       0x51 binaries/semcount.o
                0x000000000010527d                semcount
 .text          0x00000000001052ce       0x93 binaries/semcreate.o
                0x00000000001052ce                semcreate
 .text          0x0000000000105361       0xd1 binaries/semdelete.o
                0x0000000000105361                semdelete
 .text          0x0000000000105432       0xa8 binaries/semreset.o
                0x0000000000105432                semreset
 .text          0x00000000001054da       0xb0 binaries/send.o
                0x00000000001054da                send
 .text          0x000000000010558a      0x232 binaries/sendbt.o
                0x000000000010558a                sendbt
 .text          0x00000000001057bc       0x95 binaries/signal.o
                0x00000000001057bc                signal
 .text          0x0000000000105851       0xc2 binaries/signaln.o
                0x0000000000105851                signaln
 .text          0x0000000000105913       0xbe binaries/sleep.o
                0x0000000000105913                sleepms
                0x000000000010599b                sleep
 .text          0x00000000001059d1       0x95 binaries/stackdepth.o
                0x00000000001059d1                stackdepth
 .text          0x0000000000105a66      0x17e binaries/stacktrace.o
                0x0000000000105a66                stacktrace
 .text          0x0000000000105be4       0xaa binaries/suspend.o
                0x0000000000105be4                suspend
 .text          0x0000000000105c8e       0x27 binaries/teststackdepth.o
                0x0000000000105c8e                teststackdepth
 .text          0x0000000000105cb5        0x0 binaries/tsdtab.o
 .text          0x0000000000105cb5       0x90 binaries/unsleep.o
                0x0000000000105cb5                unsleep
 .text          0x0000000000105d45       0x19 binaries/userret.o
                0x0000000000105d45                userret
 .text          0x0000000000105d5e       0xb1 binaries/wait.o
                0x0000000000105d5e                wait
 .text          0x0000000000105e0f       0x71 binaries/wakeup.o
                0x0000000000105e0f                wakeup
 .text          0x0000000000105e80       0x5c binaries/write.o
                0x0000000000105e80                write
 .text          0x0000000000105edc       0x1a binaries/xdone.o
                0x0000000000105edc                xdone
 .text          0x0000000000105ef6       0x26 binaries/yield.o
                0x0000000000105ef6                yield
 .text          0x0000000000105f1c       0x11 binaries/abs.o
                0x0000000000105f1c                abs
 .text          0x0000000000105f2d       0x84 binaries/atoi.o
                0x0000000000105f2d                atoi
 .text          0x0000000000105fb1       0x84 binaries/atol.o
                0x0000000000105fb1                atol
 .text          0x0000000000106035       0x1a binaries/bzero.o
                0x0000000000106035                bzero
 .text          0x000000000010604f        0x0 binaries/ctype_.o
 .text          0x000000000010604f      0x6bf binaries/doprnt.o
                0x00000000001061a2                _doprnt
 .text          0x000000000010670e      0x5f2 binaries/doscan.o
                0x000000000010670e                _doscan
 .text          0x0000000000106d00      0x64e binaries/fdoprnt.o
                0x0000000000106d85                _fdoprnt
 .text          0x000000000010734e       0x1c binaries/fgetc.o
                0x000000000010734e                fgetc
 .text          0x000000000010736a       0x61 binaries/fgets.o
                0x000000000010736a                fgets
 .text          0x00000000001073cb       0x21 binaries/fprintf.o
                0x00000000001073cb                fprintf
 .text          0x00000000001073ec       0x27 binaries/fputc.o
                0x00000000001073ec                fputc
 .text          0x0000000000107413       0x3a binaries/fputs.o
                0x0000000000107413                fputs
 .text          0x000000000010744d       0x6a binaries/fscanf.o
                0x000000000010748b                fscanf
 .text          0x00000000001074b7       0x1e binaries/getchar.o
                0x00000000001074b7                getchar
 .text          0x00000000001074d5       0x11 binaries/labs.o
                0x00000000001074d5                labs
 .text          0x00000000001074e6       0x36 binaries/memchr.o
                0x00000000001074e6                memchr
 .text          0x000000000010751c       0x4a binaries/memcmp.o
                0x000000000010751c                memcmp
 .text          0x0000000000107566       0x26 binaries/memcpy.o
                0x0000000000107566                memcpy
 .text          0x000000000010758c       0x1f binaries/memset.o
                0x000000000010758c                memset
 .text          0x00000000001075ab       0x2f binaries/printf.o
                0x00000000001075ab                printf
 .text          0x00000000001075da       0x21 binaries/putchar.o
                0x00000000001075da                putchar
 .text          0x00000000001075fb      0x1cc binaries/qsort.o
                0x000000000010779f                qsort
 .text          0x00000000001077c7       0x4c binaries/rand.o
                0x00000000001077c7                srand
                0x00000000001077d4                rand
 .text          0x0000000000107813       0x48 binaries/sprintf.o
                0x000000000010782c                sprintf
 .text          0x000000000010785b       0x5a binaries/sscanf.o
                0x000000000010788b                sscanf
 .text          0x00000000001078b5       0x2f binaries/strchr.o
                0x00000000001078b5                strchr
 .text          0x00000000001078e4       0x45 binaries/strcmp.o
                0x00000000001078e4                strcmp
 .text          0x0000000000107929       0x1c binaries/strcpy.o
                0x0000000000107929                strcpy
 .text          0x0000000000107945       0x20 binaries/strlen.o
                0x0000000000107945                strlen
 .text          0x0000000000107965       0x3d binaries/strncat.o
                0x0000000000107965                strncat
 .text          0x00000000001079a2       0x3b binaries/strncmp.o
                0x00000000001079a2                strncmp
 .text          0x00000000001079dd       0x59 binaries/strncpy.o
                0x00000000001079dd                strncpy
 .text          0x0000000000107a36       0x38 binaries/strnlen.o
                0x0000000000107a36                strnlen
 .text          0x0000000000107a6e       0x32 binaries/strrchr.o
                0x0000000000107a6e                strrchr
 .text          0x0000000000107aa0       0x68 binaries/strstr.o
                0x0000000000107aa0                strstr
 .text          0x0000000000107b08      0x112 binaries/ttycontrol.o
                0x0000000000107b08                ttycontrol
 .text          0x0000000000107c1a       0xb0 binaries/ttygetc.o
                0x0000000000107c1a                ttygetc
 .text          0x0000000000107cca      0x4a3 binaries/ttyhandle_in.o
                0x0000000000107d8e                ttyhandle_in
 .text          0x000000000010816d      0x178 binaries/ttyhandle_out.o
                0x000000000010816d                ttyhandle_out
 .text          0x00000000001082e5       0x85 binaries/ttyhandler.o
                0x00000000001082e5                ttyhandler
 .text          0x000000000010836a      0x15d binaries/ttyinit.o
                0x000000000010836a                ttyinit
 .text          0x00000000001084c7        0xf binaries/ttykickout.o
                0x00000000001084c7                ttykickout
 .text          0x00000000001084d6       0xb2 binaries/ttyputc.o
                0x00000000001084d6                ttyputc
 .text          0x0000000000108588       0xff binaries/ttyread.o
                0x0000000000108588                ttyread
 .text          0x0000000000108687       0x4d binaries/ttywrite.o
                0x0000000000108687                ttywrite
 .text          0x00000000001086d4      0x129 binaries/mount.o
                0x00000000001086d4                namlen
                0x0000000000108710                mount
 .text          0x00000000001087fd      0x1c4 binaries/naminit.o
                0x00000000001087fd                naminit
 .text          0x00000000001089c1      0x1fe binaries/nammap.o
                0x00000000001089c1                namrepl
                0x0000000000108ae4                namcpy
                0x0000000000108b32                nammap
 .text          0x0000000000108bbf       0x44 binaries/namopen.o
                0x0000000000108bbf                namopen
 .text          0x0000000000108c03       0xd4 binaries/colon2mac.o
                0x0000000000108c03                colon2mac
 .text          0x0000000000108cd7       0x7d binaries/ethcontrol.o
                0x0000000000108cd7                ethcontrol
 .text          0x0000000000108d54      0x17e binaries/ethhandler.o
                0x0000000000108d54                ethhandler
 .text          0x0000000000108ed2      0x548 binaries/ethinit.o
                0x0000000000108ed2                eth_phy_read
                0x0000000000108f12                eth_phy_write
                0x0000000000108f53                eth_phy_reset
                0x000000000010902d                ethinit
 .text          0x000000000010941a      0x107 binaries/ethmcast.o
                0x000000000010941a                ethmcast_add
                0x0000000000109466                ethmcast_remove
 .text          0x0000000000109521      0x172 binaries/ethread.o
                0x0000000000109521                ethread
 .text          0x0000000000109693       0xc1 binaries/ethwrite.o
                0x0000000000109693                ethwrite
 .text          0x0000000000109754       0x68 binaries/rdsbufalloc.o
                0x0000000000109754                rdsbufalloc
 .text          0x00000000001097bc       0xd6 binaries/rdsclose.o
                0x00000000001097bc                rdsclose
 .text          0x0000000000109892      0x1df binaries/rdscomm.o
                0x0000000000109892                rdscomm
 .text          0x0000000000109a71      0x1c4 binaries/rdscontrol.o
                0x0000000000109a71                rdscontrol
 .text          0x0000000000109c35      0x1f7 binaries/rdsinit.o
                0x0000000000109c35                rdsinit
 .text          0x0000000000109e2c      0x199 binaries/rdsopen.o
                0x0000000000109e2c                rdsopen
 .text          0x0000000000109fc5      0x2c5 binaries/rdsprocess.o
                0x0000000000109fc5                rdsprocess
 .text          0x000000000010a28a      0x1d8 binaries/rdsread.o
                0x000000000010a28a                rdsread
 .text          0x000000000010a462      0x1ae binaries/rdswrite.o
                0x000000000010a462                rdswrite
 .text          0x000000000010a610        0xa binaries/ramclose.o
                0x000000000010a610                ramclose
 .text          0x000000000010a61a       0x35 binaries/raminit.o
                0x000000000010a61a                raminit
 .text          0x000000000010a64f        0xa binaries/ramopen.o
                0x000000000010a64f                ramopen
 .text          0x000000000010a659       0x26 binaries/ramread.o
                0x000000000010a659                ramread
 .text          0x000000000010a67f       0x26 binaries/ramwrite.o
                0x000000000010a67f                ramwrite
 .text          0x000000000010a6a5       0x87 binaries/lfdballoc.o
                0x000000000010a6a5                lfdballoc
 .text          0x000000000010a72c       0x49 binaries/lfdbfree.o
                0x000000000010a72c                lfdbfree
 .text          0x000000000010a775       0xa1 binaries/lfflush.o
                0x000000000010a775                lfflush
 .text          0x000000000010a816       0x82 binaries/lfgetmode.o
                0x000000000010a816                lfgetmode
 .text          0x000000000010a898       0x60 binaries/lfiballoc.o
                0x000000000010a898                lfiballoc
 .text          0x000000000010a8f8       0x27 binaries/lfibclear.o
                0x000000000010a8f8                lfibclear
 .text          0x000000000010a91f       0x6c binaries/lfibget.o
                0x000000000010a91f                lfibget
 .text          0x000000000010a98b       0x88 binaries/lfibput.o
                0x000000000010a98b                lfibput
 .text          0x000000000010aa13       0xa4 binaries/lflclose.o
                0x000000000010aa13                lflclose
 .text          0x000000000010aab7       0xc2 binaries/lflcontrol.o
                0x000000000010aab7                lflcontrol
 .text          0x000000000010ab79       0xfd binaries/lflgetc.o
                0x000000000010ab79                lflgetc
 .text          0x000000000010ac76       0xe7 binaries/lflinit.o
                0x000000000010ac76                lflinit
 .text          0x000000000010ad5d      0x12f binaries/lflputc.o
                0x000000000010ad5d                lflputc
 .text          0x000000000010ae8c       0x6b binaries/lflread.o
                0x000000000010ae8c                lflread
 .text          0x000000000010aef7       0xbd binaries/lflseek.o
                0x000000000010aef7                lflseek
 .text          0x000000000010afb4       0x52 binaries/lflwrite.o
                0x000000000010afb4                lflwrite
 .text          0x000000000010b006      0x114 binaries/lfsckfmt.o
                0x000000000010b006                lfsckfmt
 .text          0x000000000010b11a      0x1e6 binaries/lfscreate.o
                0x000000000010b11a                lfscreate
 .text          0x000000000010b300      0x1b1 binaries/lfsetup.o
                0x000000000010b300                lfsetup
 .text          0x000000000010b4b1       0x45 binaries/lfsinit.o
                0x000000000010b4b1                lfsinit
 .text          0x000000000010b4f6      0x302 binaries/lfsopen.o
                0x000000000010b4f6                lfsopen
 .text          0x000000000010b7f8      0x112 binaries/lftruncate.o
                0x000000000010b7f8                lftruncate
 .text          0x000000000010b90a       0x69 binaries/rflclose.o
                0x000000000010b90a                rflclose
 .text          0x000000000010b973       0x29 binaries/rflgetc.o
                0x000000000010b973                rflgetc
 .text          0x000000000010b99c       0x6c binaries/rflinit.o
                0x000000000010b99c                rflinit
 .text          0x000000000010ba08       0x29 binaries/rflputc.o
                0x000000000010ba08                rflputc
 .text          0x000000000010ba31      0x2b6 binaries/rflread.o
                0x000000000010ba31                rflread
 .text          0x000000000010bce7       0x68 binaries/rflseek.o
                0x000000000010bce7                rflseek
 .text          0x000000000010bd4f      0x2fa binaries/rflwrite.o
                0x000000000010bd4f                rflwrite
 .text          0x000000000010c049      0x17d binaries/rfscomm.o
                0x000000000010c049                rfscomm
 .text          0x000000000010c1c6      0x22b binaries/rfscontrol.o
                0x000000000010c1c6                rfscontrol
 .text          0x000000000010c3f1       0x82 binaries/rfsgetmode.o
                0x000000000010c3f1                rfsgetmode
 .text          0x000000000010c473       0x7e binaries/rfsinit.o
                0x000000000010c473                rfsinit
 .text          0x000000000010c4f1       0xad binaries/rfsndmsg.o
                0x000000000010c4f1                rfsndmsg
 .text          0x000000000010c59e      0x243 binaries/rfsopen.o
                0x000000000010c59e                rfsopen
 .text          0x000000000010c7e1      0x626 binaries/arp.o
                0x000000000010c7e1                arp_init
                0x000000000010c7fd                arp_alloc
                0x000000000010c8a4                arp_ntoh
                0x000000000010c911                arp_hton
                0x000000000010c97e                arp_resolve
                0x000000000010cbcf                arp_in
 .text          0x000000000010ce07      0x5ed binaries/dhcp.o
                0x000000000010ce07                dhcp_get_opt_val
                0x000000000010ce5b                dhcp_bld_bootp_msg
                0x000000000010cf2d                dhcp_bld_disc
                0x000000000010cf7f                dhcp_bld_req
                0x000000000010d01a                getlocalip
 .text          0x000000000010d3f4       0xda binaries/dot2ip.o
                0x000000000010d3f4                dot2ip
 .text          0x000000000010d4ce      0x38c binaries/hexdump.o
                0x000000000010d4ce                hexdump
                0x000000000010d628                hexadump
 .text          0x000000000010d85a      0x6f6 binaries/icmp.o
                0x000000000010d85a                icmp_init
                0x000000000010d876                icmp_register
                0x000000000010d934                icmp_recv
                0x000000000010dad7                icmp_mkpkt
                0x000000000010dba4                icmp_in
                0x000000000010dd3e                icmp_send
                0x000000000010ddad                icmp_release
                0x000000000010dec8                icmp_cksum
                0x000000000010df22                icmp_hton
                0x000000000010df39                icmp_ntoh
 .text          0x000000000010df50      0x5e2 binaries/ip.o
                0x000000000010df50                ip_local
                0x000000000010df90                ipcksum
                0x000000000010dfe6                ip_ntoh
                0x000000000010e053                ip_in
                0x000000000010e178                ip_hton
                0x000000000010e1e5                ip_out
                0x000000000010e29b                ip_send
                0x000000000010e3a6                ipout
                0x000000000010e499                ip_enqueue
 .text          0x000000000010e532      0x1b2 binaries/net.o
                0x000000000010e532                net_init
                0x000000000010e629                eth_hton
                0x000000000010e636                eth_ntoh
                0x000000000010e643                netin
 .text          0x000000000010e6e4       0xb9 binaries/netstart.o
                0x000000000010e6e4                netstart
 .text          0x000000000010e79d      0xa30 binaries/pdump.o
                0x000000000010e79d                pdump
                0x000000000010ed82                pdumph
 .text          0x000000000010f1cd      0x5b8 binaries/tftp.o
                0x000000000010f1cd                tftp_send1
                0x000000000010f2e1                tftpget_mb
                0x000000000010f762                tftpget
 .text          0x000000000010f785      0xa17 binaries/udp.o
                0x000000000010f785                udp_init
                0x000000000010f7c6                udp_in
                0x000000000010f8ef                udp_register
                0x000000000010fa00                udp_recv
                0x000000000010fb99                udp_recvaddr
                0x000000000010fd46                udp_send
                0x000000000010fef4                udp_sendto
                0x000000000011005d                udp_release
                0x000000000011016e                udp_ntoh
                0x0000000000110185                udp_hton
 .text          0x000000000011019c      0x11b binaries/addargs.o
                0x000000000011019c                addargs
 .text          0x00000000001102b7      0x1db binaries/lexan.o
                0x00000000001102b7                lexan
 .text          0x0000000000110492      0x656 binaries/shell.o
                0x0000000000110492                shell
 .text          0x0000000000110ae8       0x59 binaries/xsh_argecho.o
                0x0000000000110ae8                xsh_argecho
 .text          0x0000000000110b41      0x1fb binaries/xsh_arp.o
                0x0000000000110b41                xsh_arp
 .text          0x0000000000110d3c      0x1e1 binaries/xsh_cat.o
                0x0000000000110d3c                xsh_cat
 .text          0x0000000000110f1d       0x50 binaries/xsh_clear.o
                0x0000000000110f1d                xsh_clear
 .text          0x0000000000110f6d      0x27d binaries/xsh_date.o
                0x0000000000110f6d                xsh_date
 .text          0x00000000001111ea       0x81 binaries/xsh_devdump.o
                0x00000000001111ea                xsh_devdump
 .text          0x000000000011126b       0x63 binaries/xsh_echo.o
                0x000000000011126b                xsh_echo
 .text          0x00000000001112ce        0xa binaries/xsh_exit.o
                0x00000000001112ce                xsh_exit
 .text          0x00000000001112d8      0x325 binaries/xsh_help.o
                0x00000000001112d8                xsh_help
 .text          0x00000000001115fd      0x36b binaries/xsh_ipaddr.o
                0x00000000001115fd                xsh_ipaddr
 .text          0x0000000000111968      0x1b6 binaries/xsh_kill.o
                0x0000000000111968                xsh_kill
 .text          0x0000000000111b1e      0x3c3 binaries/xsh_memdump.o
                0x0000000000111be4                xsh_memdump
 .text          0x0000000000111ee1      0x1ce binaries/xsh_memstat.o
                0x0000000000111ee1                xsh_memstat
 .text          0x00000000001120af      0x287 binaries/xsh_ping.o
                0x00000000001120af                xsh_ping
 .text          0x0000000000112336      0x1ab binaries/xsh_ps.o
                0x0000000000112336                xsh_ps
 .text          0x00000000001124e1      0x1a8 binaries/xsh_sleep.o
                0x00000000001124e1                xsh_sleep
 .text          0x0000000000112689      0x1c5 binaries/xsh_udpdump.o
                0x0000000000112689                xsh_udpdump
 .text          0x000000000011284e      0x3b7 binaries/xsh_udpecho.o
                0x000000000011284e                xsh_udpecho
 .text          0x0000000000112c05      0x202 binaries/xsh_udpeserver.o
                0x0000000000112c05                xsh_udpeserver
 .text          0x0000000000112e07      0x1b2 binaries/xsh_uptime.o
                0x0000000000112e07                xsh_uptime
 .text          0x0000000000112fb9        0xe binaries/clkdisp.o
                0x0000000000112fb9                clkdisp
 .text          0x0000000000112fc7       0x19 binaries/ctxsw.o
                0x0000000000112fc7                ctxsw
 .text          0x0000000000112fe0        0xa binaries/host2netla.o
                0x0000000000112fe0                host2netla
 *fill*         0x0000000000112fea        0x6 
 .text          0x0000000000112ff0       0x25 binaries/host2netlc.o
                0x0000000000112ff0                host2netlc
 .text.unlikely
                0x0000000000113015        0x0 binaries/host2netlc.o
 .text          0x0000000000113015      0x376 binaries/intr.o
                0x0000000000113015                disable
                0x000000000011301e                restore
                0x000000000011302c                enable
                0x000000000011302e                pause
                0x0000000000113035                idle
                0x0000000000113040                halt
                0x0000000000113046                spurious_irq7
                0x000000000011304b                spurious_irq15
                0x000000000011305a                _Xint0
                0x0000000000113065                _Xint1
                0x0000000000113070                _Xint2
                0x000000000011307b                _Xint3
                0x0000000000113086                _Xint4
                0x0000000000113091                _Xint5
                0x000000000011309c                _Xint6
                0x00000000001130a7                _Xint7
                0x00000000001130b2                _Xint8
                0x00000000001130bd                _Xint9
                0x00000000001130c8                _Xint10
                0x00000000001130d3                _Xint11
                0x00000000001130e1                _Xint12
                0x00000000001130ef                _Xint13
                0x00000000001130fd                _Xint14
                0x000000000011310b                _Xint15
                0x0000000000113119                _Xint16
                0x0000000000113127                _Xint17
                0x0000000000113135                _Xint18
                0x0000000000113143                _Xint19
                0x0000000000113151                _Xint20
                0x000000000011315f                _Xint21
                0x000000000011316d                _Xint22
                0x000000000011317b                _Xint23
                0x0000000000113189                _Xint24
                0x0000000000113197                _Xint25
                0x00000000001131a5                _Xint26
                0x00000000001131b3                _Xint27
                0x00000000001131c1                _Xint28
                0x00000000001131cf                _Xint29
                0x00000000001131dd                _Xint30
                0x00000000001131eb                _Xint31
                0x00000000001131f9                _Xint32
                0x0000000000113207                _Xint33
                0x0000000000113215                _Xint34
                0x0000000000113223                _Xint35
                0x0000000000113231                _Xint36
                0x000000000011323f                _Xint37
                0x000000000011324d                _Xint38
                0x000000000011325b                _Xint39
                0x0000000000113269                _Xint40
                0x0000000000113277                _Xint41
                0x0000000000113285                _Xint42
                0x0000000000113293                _Xint43
                0x00000000001132a1                _Xint44
                0x00000000001132af                _Xint45
                0x00000000001132bd                _Xint46
                0x00000000001132cb                defevec
 .text          0x000000000011338b        0xf binaries/ttydispatch.o
                0x000000000011338b                ttydispatch
 .text          0x000000000011339a       0x13 binaries/ethdispatch.o
                0x000000000011339a                ethdispatch
 *(.rodata .rodata.*)
 .rodata.str1.1
                0x00000000001133ad       0x17 binaries/app1.o
 .rodata.str1.1
                0x00000000001133c4        0x5 binaries/app2.o
                                         0x1c (size before relaxing)
 *fill*         0x00000000001133c9        0x3 
 .rodata.str1.4
                0x00000000001133cc       0x2d binaries/app2.o
 *fill*         0x00000000001133f9        0x3 
 .rodata.str1.4
                0x00000000001133fc       0x4a binaries/app3.o
 .rodata.str1.1
                0x0000000000113446       0x29 binaries/app3.o
 .rodata.str1.1
                0x000000000011346f       0x54 binaries/ascdate.o
 *fill*         0x00000000001134c3        0x1 
 .rodata.str1.4
                0x00000000001134c4       0x22 binaries/ascdate.o
 *fill*         0x00000000001134e6        0x2 
 .rodata        0x00000000001134e8        0x4 binaries/clkhandler.o
                0x00000000001134e8                MAX_UINT32
 .rodata.str1.1
                0x00000000001134ec       0x5f binaries/conf.o
 *fill*         0x000000000011354b        0x1 
 .rodata.str1.4
                0x000000000011354c      0x134 binaries/cpubound.o
 .rodata.str1.1
                0x0000000000113680        0x7 binaries/create.o
 *fill*         0x0000000000113687        0x1 
 .rodata.str1.4
                0x0000000000113688       0x4f binaries/early_imr.o
 *fill*         0x00000000001136d7        0x1 
 .rodata        0x00000000001136d8       0x33 binaries/early_imr.o
 .rodata.str1.1
                0x000000000011370b      0x20c binaries/evec.o
 *fill*         0x0000000000113917        0x1 
 .rodata.str1.4
                0x0000000000113918       0x23 binaries/evec.o
 .rodata.str1.1
                0x000000000011393b        0xb binaries/getutime.o
 *fill*         0x0000000000113946        0x2 
 .rodata.str1.4
                0x0000000000113948       0x54 binaries/getutime.o
 .rodata.str1.1
                0x000000000011399c       0x64 binaries/initialize.o
                                         0x6f (size before relaxing)
 .rodata.str1.4
                0x0000000000113a00      0x168 binaries/initialize.o
 .rodata        0x0000000000113b68        0x4 binaries/initialize.o
                0x0000000000113b68                MAX_INT32
 .rodata.str1.1
                0x0000000000113b6c       0x18 binaries/insert.o
 .rodata.str1.4
                0x0000000000113b84       0x80 binaries/iobound.o
 .rodata        0x0000000000113b84       0x20 binaries/kill.o
 .rodata.str1.1
                0x0000000000113ba4       0x7a binaries/lab2q3.o
 *fill*         0x0000000000113c1e        0x2 
 .rodata.str1.4
                0x0000000000113c20      0x23b binaries/lab2q3.o
 .rodata.str1.1
                0x0000000000113e5b       0x7e binaries/lab2q4.o
                                         0xf8 (size before relaxing)
 *fill*         0x0000000000113ed9        0x3 
 .rodata.str1.4
                0x0000000000113edc      0x1fb binaries/lab2q4.o
                                        0x28f (size before relaxing)
 .rodata.str1.1
                0x00000000001140d7       0x42 binaries/lab2q5.o
 .rodata.str1.1
                0x00000000001140d7       0x57 binaries/main.o
                                         0x5f (size before relaxing)
 *fill*         0x000000000011412e        0x2 
 .rodata.str1.4
                0x0000000000114130       0xc3 binaries/main.o
 *fill*         0x00000000001141f3        0x1 
 .rodata.str1.4
                0x00000000001141f4       0x23 binaries/meminit.o
 .rodata.str1.1
                0x0000000000114217       0x1b binaries/meminit.o
 *fill*         0x0000000000114232        0x2 
 .rodata.str1.4
                0x0000000000114234       0x1f binaries/multilevelfbq.o
 *fill*         0x0000000000114253        0x1 
 .rodata.str1.4
                0x0000000000114254      0x103 binaries/myappA.o
 *fill*         0x0000000000114357        0x1 
 .rodata.str1.4
                0x0000000000114358       0x57 binaries/myfuncA.o
 *fill*         0x00000000001143af        0x1 
 .rodata.str1.4
                0x00000000001143b0       0x4c binaries/myhacker.o
 .rodata.str1.1
                0x00000000001143fc       0x1b binaries/myqueue.o
                                         0x2f (size before relaxing)
 *fill*         0x0000000000114417        0x1 
 .rodata.str1.4
                0x0000000000114418      0x178 binaries/myvictim.o
 .rodata.str1.4
                0x0000000000114590      0x19b binaries/mywelcomemsg.o
 .rodata.str1.1
                0x000000000011472b       0x16 binaries/mywelcomemsg.o
 .rodata.str1.1
                0x0000000000114741        0xf binaries/panic.o
 .rodata.str1.4
                0x0000000000114750       0xe1 binaries/printsegaddr.o
 .rodata.str1.1
                0x0000000000114831       0x94 binaries/process_state.o
                                         0xce (size before relaxing)
 *fill*         0x00000000001148c5        0x3 
 .rodata.str1.4
                0x00000000001148c8       0x97 binaries/process_state.o
 *fill*         0x000000000011495f        0x1 
 .rodata        0x0000000000114960      0x1b0 binaries/process_state.o
 .rodata.str1.1
                0x0000000000114b10       0x1c binaries/ptinit.o
 .rodata.str1.4
                0x0000000000114b2c       0x25 binaries/ptsend.o
 .rodata.str1.1
                0x0000000000114b51       0x22 binaries/quark_pdat.o
 .rodata.str1.1
                0x0000000000114b73       0x2f binaries/queue.o
 .rodata.str1.1
                0x0000000000114b73       0x51 binaries/receivebt.o
 .rodata.str1.1
                0x0000000000114bc4       0x1d binaries/sendbt.o
 *fill*         0x0000000000114be1        0x3 
 .rodata.str1.4
                0x0000000000114be4       0x7b binaries/sendbt.o
 *fill*         0x0000000000114c5f        0x1 
 .rodata.str1.4
                0x0000000000114c60       0x58 binaries/stackdepth.o
 .rodata.str1.1
                0x0000000000114cb8       0x18 binaries/stackdepth.o
                                         0x1b (size before relaxing)
 .rodata.str1.4
                0x0000000000114cd0       0x63 binaries/stacktrace.o
 .rodata.str1.1
                0x0000000000114d33       0x52 binaries/stacktrace.o
 .rodata.str1.1
                0x0000000000114d85       0x1c binaries/teststackdepth.o
 *fill*         0x0000000000114da1        0x3 
 .rodata.str1.4
                0x0000000000114da4       0x27 binaries/xdone.o
 *fill*         0x0000000000114dcb       0x15 
 .rodata        0x0000000000114de0       0x81 binaries/ctype_.o
                0x0000000000114de0                _ctype_
 .rodata.str1.1
                0x0000000000114e61       0x29 binaries/doprnt.o
 *fill*         0x0000000000114e8a        0x2 
 .rodata        0x0000000000114e8c       0xc4 binaries/doprnt.o
 .rodata        0x0000000000114f50       0x98 binaries/doscan.o
 .rodata.str1.1
                0x0000000000114fe8       0x29 binaries/fdoprnt.o
 .rodata        0x0000000000114fe8       0x84 binaries/fdoprnt.o
 .rodata        0x000000000011506c       0x20 binaries/ttycontrol.o
 .rodata.str1.4
                0x000000000011508c       0x4c binaries/naminit.o
 .rodata.str1.1
                0x00000000001150d8       0x32 binaries/naminit.o
                                         0x35 (size before relaxing)
 .rodata.str1.1
                0x000000000011510a       0x15 binaries/ethinit.o
 *fill*         0x000000000011511f        0x1 
 .rodata.str1.4
                0x0000000000115120       0x2e binaries/ethinit.o
 *fill*         0x000000000011514e        0x2 
 .rodata.str1.4
                0x0000000000115150       0x2c binaries/rdsbufalloc.o
 .rodata.str1.4
                0x000000000011517c       0x76 binaries/rdscomm.o
 *fill*         0x00000000001151f2        0x2 
 .rodata.str1.4
                0x00000000001151f4       0x48 binaries/rdscontrol.o
 .rodata.str1.4
                0x000000000011523c       0x7e binaries/rdsinit.o
 .rodata.str1.1
                0x00000000001152ba       0x18 binaries/rdsinit.o
 *fill*         0x00000000001152d2        0x2 
 .rodata.str1.4
                0x00000000001152d4       0x22 binaries/rdsopen.o
 *fill*         0x00000000001152f6        0x2 
 .rodata.str1.4
                0x00000000001152f8       0x4d binaries/rdsprocess.o
 .rodata.str1.1
                0x0000000000115345        0x9 binaries/raminit.o
 .rodata.str1.1
                0x000000000011534e       0x13 binaries/lfdballoc.o
 *fill*         0x0000000000115361        0x3 
 .rodata.str1.4
                0x0000000000115364       0x23 binaries/lfdballoc.o
 .rodata.str1.1
                0x0000000000115387       0x14 binaries/lfiballoc.o
 *fill*         0x000000000011539b        0x1 
 .rodata.str1.4
                0x000000000011539c       0x23 binaries/lflcontrol.o
 .rodata.str1.1
                0x00000000001153bf       0x64 binaries/lfsckfmt.o
 *fill*         0x0000000000115423        0x1 
 .rodata.str1.4
                0x0000000000115424       0x51 binaries/lfsckfmt.o
 *fill*         0x0000000000115475        0x3 
 .rodata.str1.4
                0x0000000000115478       0x21 binaries/rflread.o
 .rodata.str1.4
                0x0000000000115499       0x21 binaries/rflwrite.o
 *fill*         0x0000000000115499        0x3 
 .rodata.str1.4
                0x000000000011549c       0x75 binaries/rfscomm.o
 *fill*         0x0000000000115511        0x3 
 .rodata.str1.4
                0x0000000000115514       0x23 binaries/rfscontrol.o
 *fill*         0x0000000000115537        0x1 
 .rodata        0x0000000000115538       0x18 binaries/rfscontrol.o
 .rodata.str1.1
                0x0000000000115550       0x10 binaries/rfsinit.o
 .rodata.str1.4
                0x0000000000115550       0x57 binaries/rfsinit.o
 *fill*         0x00000000001155a7        0x1 
 .rodata.str1.4
                0x00000000001155a8       0x2a binaries/rfsndmsg.o
 .rodata.str1.4
                0x00000000001155d2       0x22 binaries/rfsopen.o
 .rodata.str1.1
                0x00000000001155d2       0x19 binaries/arp.o
 *fill*         0x00000000001155eb        0x1 
 .rodata.str1.4
                0x00000000001155ec       0x21 binaries/arp.o
 *fill*         0x000000000011560d        0x3 
 .rodata.str1.4
                0x0000000000115610       0xa6 binaries/dhcp.o
 .rodata.str1.1
                0x00000000001156b6       0x4a binaries/dhcp.o
 .rodata.str1.1
                0x0000000000115700       0x5a binaries/hexdump.o
                                         0x61 (size before relaxing)
 *fill*         0x000000000011575a        0x2 
 .rodata.str1.4
                0x000000000011575c       0x67 binaries/hexdump.o
 *fill*         0x00000000001157c3        0x1 
 .rodata.str1.4
                0x00000000001157c4       0x29 binaries/icmp.o
 .rodata.str1.1
                0x00000000001157ed       0x4e binaries/ip.o
 *fill*         0x000000000011583b        0x1 
 .rodata.str1.4
                0x000000000011583c       0x20 binaries/ip.o
 .rodata.str1.4
                0x000000000011585c       0x28 binaries/net.o
 .rodata.str1.1
                0x0000000000115884       0x27 binaries/net.o
 *fill*         0x00000000001158ab        0x1 
 .rodata.str1.4
                0x00000000001158ac       0xcf binaries/netstart.o
 .rodata.str1.1
                0x000000000011597b      0x141 binaries/pdump.o
                                        0x14b (size before relaxing)
 .rodata.str1.4
                0x0000000000115abc      0x126 binaries/pdump.o
 *fill*         0x0000000000115be2        0x2 
 .rodata.str1.4
                0x0000000000115be4      0x148 binaries/tftp.o
 .rodata.str1.1
                0x0000000000115d2c        0x6 binaries/tftp.o
                                          0xa (size before relaxing)
 .rodata.str1.1
                0x0000000000115d32       0xdd binaries/shell.o
                                         0xff (size before relaxing)
 *fill*         0x0000000000115e0f        0x1 
 .rodata.str1.4
                0x0000000000115e10      0x1e8 binaries/shell.o
 *fill*         0x0000000000115ff8        0x8 
 .rodata        0x0000000000116000       0xfc binaries/shell.o
                0x0000000000116000                cmdtab
 .rodata.str1.1
                0x00000000001160fc       0x26 binaries/xsh_argecho.o
                                         0x28 (size before relaxing)
 .rodata.str1.1
                0x0000000000116122       0x70 binaries/xsh_arp.o
                                         0x72 (size before relaxing)
 *fill*         0x0000000000116192        0x2 
 .rodata.str1.4
                0x0000000000116194       0xb4 binaries/xsh_arp.o
 .rodata.str1.1
                0x0000000000116248       0x2d binaries/xsh_cat.o
                                         0x4f (size before relaxing)
 *fill*         0x0000000000116275        0x3 
 .rodata.str1.4
                0x0000000000116278       0x52 binaries/xsh_cat.o
                                         0x79 (size before relaxing)
 .rodata.str1.1
                0x00000000001162ca       0x15 binaries/xsh_clear.o
 .rodata.str1.1
                0x00000000001162df       0x46 binaries/xsh_date.o
                                         0x5f (size before relaxing)
 *fill*         0x0000000000116325        0x3 
 .rodata.str1.4
                0x0000000000116328      0x163 binaries/xsh_date.o
 .rodata.str1.1
                0x000000000011648b       0x5d binaries/xsh_devdump.o
 .rodata.str1.1
                0x00000000001164e8        0x4 binaries/xsh_echo.o
                                          0x9 (size before relaxing)
 .rodata.str1.1
                0x00000000001164ec       0x65 binaries/xsh_help.o
                                         0xa3 (size before relaxing)
 *fill*         0x0000000000116551        0x3 
 .rodata.str1.4
                0x0000000000116554       0x7c binaries/xsh_help.o
                                         0xc6 (size before relaxing)
 .rodata.str1.1
                0x00000000001165d0       0x9c binaries/xsh_ipaddr.o
                                         0xf8 (size before relaxing)
 .rodata.str1.4
                0x000000000011666c       0x4d binaries/xsh_ipaddr.o
                                         0x99 (size before relaxing)
 .rodata.str1.1
                0x00000000001166b9       0x78 binaries/xsh_kill.o
                                         0x97 (size before relaxing)
 *fill*         0x0000000000116731        0x3 
 .rodata.str1.4
                0x0000000000116734       0x4a binaries/xsh_kill.o
                                         0x96 (size before relaxing)
 .rodata.str1.1
                0x000000000011677e       0x84 binaries/xsh_memdump.o
                                         0xa8 (size before relaxing)
 *fill*         0x0000000000116802        0x2 
 .rodata.str1.4
                0x0000000000116804      0x15a binaries/xsh_memdump.o
                                        0x1aa (size before relaxing)
 .rodata.str1.1
                0x000000000011695e       0x40 binaries/xsh_memstat.o
                                         0x79 (size before relaxing)
 *fill*         0x000000000011699e        0x2 
 .rodata.str1.4
                0x00000000001169a0      0x187 binaries/xsh_memstat.o
                                        0x1af (size before relaxing)
 .rodata.str1.1
                0x0000000000116b27       0x90 binaries/xsh_ping.o
                                         0xaf (size before relaxing)
 *fill*         0x0000000000116bb7        0x1 
 .rodata.str1.4
                0x0000000000116bb8       0x77 binaries/xsh_ping.o
                                         0xc6 (size before relaxing)
 .rodata.str1.1
                0x0000000000116c2f        0x9 binaries/xsh_ps.o
                                         0xde (size before relaxing)
 .rodata.str1.4
                0x0000000000116c38       0x88 binaries/xsh_ps.o
                                         0xd8 (size before relaxing)
 .rodata        0x0000000000116cc0       0x20 binaries/xsh_ps.o
 .rodata.str1.1
                0x0000000000116ce0       0x31 binaries/xsh_sleep.o
                                         0x72 (size before relaxing)
 *fill*         0x0000000000116d11        0x3 
 .rodata.str1.4
                0x0000000000116d14       0x2a binaries/xsh_sleep.o
                                         0x7a (size before relaxing)
 .rodata.str1.1
                0x0000000000116d3e       0x6b binaries/xsh_udpdump.o
                                         0xd2 (size before relaxing)
 *fill*         0x0000000000116da9        0x3 
 .rodata.str1.4
                0x0000000000116dac       0x94 binaries/xsh_udpdump.o
                                         0xe4 (size before relaxing)
 .rodata.str1.1
                0x0000000000116e40       0xdb binaries/xsh_udpecho.o
                                         0xfa (size before relaxing)
 *fill*         0x0000000000116f1b        0x1 
 .rodata.str1.4
                0x0000000000116f1c       0xc7 binaries/xsh_udpecho.o
                                        0x116 (size before relaxing)
 .rodata.str1.1
                0x0000000000116fe3       0x66 binaries/xsh_udpeserver.o
                                         0x8f (size before relaxing)
 *fill*         0x0000000000117049        0x3 
 .rodata.str1.4
                0x000000000011704c       0x29 binaries/xsh_udpeserver.o
                                         0x9f (size before relaxing)
 .rodata.str1.1
                0x0000000000117075       0x49 binaries/xsh_uptime.o
                                         0x8c (size before relaxing)
 *fill*         0x00000000001170be        0x2 
 .rodata.str1.4
                0x00000000001170c0       0x28 binaries/xsh_uptime.o
                                         0x76 (size before relaxing)
                0x00000000001170e8                etext = ABSOLUTE (.)
                0x0000000000118000                . = ALIGN (0x1000)
 *fill*         0x00000000001170e8      0xf18 

.eh_frame       0x0000000000118000     0x37c8
 .eh_frame      0x0000000000118000       0x3c binaries/app1.o
 .eh_frame      0x000000000011803c       0x28 binaries/app2.o
                                         0x40 (size before relaxing)
 .eh_frame      0x0000000000118064       0x24 binaries/app3.o
                                         0x3c (size before relaxing)
 .eh_frame      0x0000000000118088       0x30 binaries/ascdate.o
                                         0x48 (size before relaxing)
 .eh_frame      0x00000000001180b8       0x20 binaries/bufinit.o
                                         0x38 (size before relaxing)
 .eh_frame      0x00000000001180d8       0x2c binaries/chprio.o
                                         0x44 (size before relaxing)
 .eh_frame      0x0000000000118104       0x20 binaries/clkhandler.o
                                         0x38 (size before relaxing)
 .eh_frame      0x0000000000118124       0x20 binaries/clkinit.o
                                         0x38 (size before relaxing)
 .eh_frame      0x0000000000118144       0x28 binaries/close.o
                                         0x40 (size before relaxing)
 .eh_frame      0x000000000011816c       0x28 binaries/control.o
                                         0x40 (size before relaxing)
 .eh_frame      0x0000000000118194       0x30 binaries/cpubound.o
                                         0x48 (size before relaxing)
 .eh_frame      0x00000000001181c4       0x30 binaries/create.o
                                         0x48 (size before relaxing)
 .eh_frame      0x00000000001181f4       0x94 binaries/early_imr.o
                                         0xac (size before relaxing)
 .eh_frame      0x0000000000118288       0x94 binaries/evec.o
                                         0xac (size before relaxing)
 .eh_frame      0x000000000011831c       0x24 binaries/factorial.o
                                         0x3c (size before relaxing)
 .eh_frame      0x0000000000118340       0x2c binaries/freebuf.o
                                         0x44 (size before relaxing)
 .eh_frame      0x000000000011836c       0x2c binaries/freemem.o
                                         0x44 (size before relaxing)
 .eh_frame      0x0000000000118398       0x2c binaries/getbuf.o
                                         0x44 (size before relaxing)
 .eh_frame      0x00000000001183c4       0x28 binaries/getc.o
                                         0x40 (size before relaxing)
 .eh_frame      0x00000000001183ec       0x2c binaries/getdev.o
                                         0x44 (size before relaxing)
 .eh_frame      0x0000000000118418       0xc8 binaries/getitem.o
                                         0xe0 (size before relaxing)
 .eh_frame      0x00000000001184e0       0x28 binaries/getmem.o
                                         0x40 (size before relaxing)
 .eh_frame      0x0000000000118508       0x20 binaries/getpid.o
                                         0x38 (size before relaxing)
 .eh_frame      0x0000000000118528       0x20 binaries/getpname.o
                                         0x38 (size before relaxing)
 .eh_frame      0x0000000000118548       0x20 binaries/getppid.o
                                         0x38 (size before relaxing)
 .eh_frame      0x0000000000118568       0x24 binaries/getprio.o
                                         0x3c (size before relaxing)
 .eh_frame      0x000000000011858c       0x2c binaries/getstk.o
                                         0x44 (size before relaxing)
 .eh_frame      0x00000000001185b8       0x20 binaries/gettime.o
                                         0x38 (size before relaxing)
 .eh_frame      0x00000000001185d8       0x24 binaries/getutime.o
                                         0x3c (size before relaxing)
 .eh_frame      0x00000000001185fc       0x20 binaries/host2netlb.o
                                         0x38 (size before relaxing)
 .eh_frame      0x000000000011861c       0x28 binaries/init.o
                                         0x40 (size before relaxing)
 .eh_frame      0x0000000000118644       0x68 binaries/initialize.o
                                         0x80 (size before relaxing)
 .eh_frame      0x00000000001186ac       0x28 binaries/insert.o
                                         0x40 (size before relaxing)
 .eh_frame      0x00000000001186d4       0x2c binaries/insertd.o
                                         0x44 (size before relaxing)
 .eh_frame      0x0000000000118700       0x2c binaries/iobound.o
                                         0x44 (size before relaxing)
 .eh_frame      0x000000000011872c       0x20 binaries/ioerr.o
                                         0x38 (size before relaxing)
 .eh_frame      0x000000000011874c       0x20 binaries/ionull.o
                                         0x38 (size before relaxing)
 .eh_frame      0x000000000011876c       0x30 binaries/kill.o
                                         0x48 (size before relaxing)
 .eh_frame      0x000000000011879c       0x80 binaries/kprintf.o
                                         0x98 (size before relaxing)
 .eh_frame      0x000000000011881c      0x108 binaries/lab2q3.o
                                        0x120 (size before relaxing)
 .eh_frame      0x0000000000118924      0x114 binaries/lab2q4.o
                                        0x12c (size before relaxing)
 .eh_frame      0x0000000000118a38       0x30 binaries/lab2q5.o
                                         0x48 (size before relaxing)
 .eh_frame      0x0000000000118a68       0x70 binaries/main.o
                                         0x88 (size before relaxing)
 .eh_frame      0x0000000000118ad8       0x44 binaries/mark.o
                                         0x5c (size before relaxing)
 .eh_frame      0x0000000000118b1c       0x50 binaries/meminit.o
                                         0x68 (size before relaxing)
 .eh_frame      0x0000000000118b6c       0x30 binaries/mkbufpool.o
                                         0x48 (size before relaxing)
 .eh_frame      0x0000000000118b9c       0x44 binaries/multilevelfbq.o
                                         0x5c (size before relaxing)
 .eh_frame      0x0000000000118be0       0x2c binaries/myappA.o
                                         0x44 (size before relaxing)
 .eh_frame      0x0000000000118c0c       0x20 binaries/myfuncA.o
                                         0x38 (size before relaxing)
 .eh_frame      0x0000000000118c2c       0x64 binaries/myhacker.o
                                         0x7c (size before relaxing)
 .eh_frame      0x0000000000118c90       0x74 binaries/myqueue.o
                                         0x8c (size before relaxing)
 .eh_frame      0x0000000000118d04       0x60 binaries/myvictim.o
                                         0x78 (size before relaxing)
 .eh_frame      0x0000000000118d64       0x20 binaries/mywelcomemsg.o
                                         0x38 (size before relaxing)
 .eh_frame      0x0000000000118d84       0x40 binaries/newqueue.o
                                         0x58 (size before relaxing)
 .eh_frame      0x0000000000118dc4       0x28 binaries/open.o
                                         0x40 (size before relaxing)
 .eh_frame      0x0000000000118dec       0x1c binaries/panic.o
                                         0x34 (size before relaxing)
 .eh_frame      0x0000000000118e08      0x12c binaries/pci.o
                                        0x144 (size before relaxing)
 .eh_frame      0x0000000000118f34       0x20 binaries/platinit.o
                                         0x38 (size before relaxing)
 .eh_frame      0x0000000000118f54       0x20 binaries/printsegaddr.o
                                         0x38 (size before relaxing)
 .eh_frame      0x0000000000118f74       0x30 binaries/process_state.o
                                         0x48 (size before relaxing)
 .eh_frame      0x0000000000118fa4       0x2c binaries/ptclear.o
                                         0x44 (size before relaxing)
 .eh_frame      0x0000000000118fd0       0x2c binaries/ptcount.o
                                         0x44 (size before relaxing)
 .eh_frame      0x0000000000118ffc       0x2c binaries/ptcreate.o
                                         0x44 (size before relaxing)
 .eh_frame      0x0000000000119028       0x28 binaries/ptdelete.o
                                         0x40 (size before relaxing)
 .eh_frame      0x0000000000119050       0x28 binaries/ptinit.o
                                         0x40 (size before relaxing)
 .eh_frame      0x0000000000119078       0x2c binaries/ptrecv.o
                                         0x44 (size before relaxing)
 .eh_frame      0x00000000001190a4       0x28 binaries/ptreset.o
                                         0x40 (size before relaxing)
 .eh_frame      0x00000000001190cc       0x30 binaries/ptsend.o
                                         0x48 (size before relaxing)
 .eh_frame      0x00000000001190fc       0x2c binaries/putc.o
                                         0x44 (size before relaxing)
 .eh_frame      0x0000000000119128       0x24 binaries/quark_irq.o
                                         0x3c (size before relaxing)
 .eh_frame      0x000000000011914c       0x54 binaries/quark_pdat.o
                                         0x6c (size before relaxing)
 .eh_frame      0x00000000001191a0       0x74 binaries/queue.o
                                         0x8c (size before relaxing)
 .eh_frame      0x0000000000119214       0x28 binaries/read.o
                                         0x40 (size before relaxing)
 .eh_frame      0x000000000011923c       0x20 binaries/ready.o
                                         0x38 (size before relaxing)
 .eh_frame      0x000000000011925c       0x2c binaries/receive.o
                                         0x44 (size before relaxing)
 .eh_frame      0x0000000000119288       0x30 binaries/receivebt.o
                                         0x48 (size before relaxing)
 .eh_frame      0x00000000001192b8       0x24 binaries/recvclr.o
                                         0x3c (size before relaxing)
 .eh_frame      0x00000000001192dc       0x2c binaries/recvtime.o
                                         0x44 (size before relaxing)
 .eh_frame      0x0000000000119308      0x104 binaries/resched.o
                                        0x11c (size before relaxing)
 .eh_frame      0x000000000011940c       0x2c binaries/resume.o
                                         0x44 (size before relaxing)
 .eh_frame      0x0000000000119438       0x28 binaries/seek.o
                                         0x40 (size before relaxing)
 .eh_frame      0x0000000000119460       0x24 binaries/semcount.o
                                         0x3c (size before relaxing)
 .eh_frame      0x0000000000119484       0x2c binaries/semcreate.o
                                         0x44 (size before relaxing)
 .eh_frame      0x00000000001194b0       0x2c binaries/semdelete.o
                                         0x44 (size before relaxing)
 .eh_frame      0x00000000001194dc       0x2c binaries/semreset.o
                                         0x44 (size before relaxing)
 .eh_frame      0x0000000000119508       0x28 binaries/send.o
                                         0x40 (size before relaxing)
 .eh_frame      0x0000000000119530       0x30 binaries/sendbt.o
                                         0x48 (size before relaxing)
 .eh_frame      0x0000000000119560       0x28 binaries/signal.o
                                         0x40 (size before relaxing)
 .eh_frame      0x0000000000119588       0x2c binaries/signaln.o
                                         0x44 (size before relaxing)
 .eh_frame      0x00000000001195b4       0x48 binaries/sleep.o
                                         0x60 (size before relaxing)
 .eh_frame      0x00000000001195fc       0x2c binaries/stackdepth.o
                                         0x44 (size before relaxing)
 .eh_frame      0x0000000000119628       0x30 binaries/stacktrace.o
                                         0x48 (size before relaxing)
 .eh_frame      0x0000000000119658       0x28 binaries/suspend.o
                                         0x40 (size before relaxing)
 .eh_frame      0x0000000000119680       0x20 binaries/teststackdepth.o
                                         0x38 (size before relaxing)
 .eh_frame      0x00000000001196a0       0x28 binaries/unsleep.o
                                         0x40 (size before relaxing)
 .eh_frame      0x00000000001196c8       0x20 binaries/userret.o
                                         0x38 (size before relaxing)
 .eh_frame      0x00000000001196e8       0x28 binaries/wait.o
                                         0x40 (size before relaxing)
 .eh_frame      0x0000000000119710       0x20 binaries/wakeup.o
                                         0x38 (size before relaxing)
 .eh_frame      0x0000000000119730       0x28 binaries/write.o
                                         0x40 (size before relaxing)
 .eh_frame      0x0000000000119758       0x20 binaries/xdone.o
                                         0x38 (size before relaxing)
 .eh_frame      0x0000000000119778       0x24 binaries/yield.o
                                         0x3c (size before relaxing)
 .eh_frame      0x000000000011979c       0x20 binaries/abs.o
                                         0x38 (size before relaxing)
 .eh_frame      0x00000000001197bc       0x28 binaries/atoi.o
                                         0x40 (size before relaxing)
 .eh_frame      0x00000000001197e4       0x28 binaries/atol.o
                                         0x40 (size before relaxing)
 .eh_frame      0x000000000011980c       0x20 binaries/bzero.o
                                         0x38 (size before relaxing)
 .eh_frame      0x000000000011982c       0xac binaries/doprnt.o
                                         0xc4 (size before relaxing)
 .eh_frame      0x00000000001198d8       0x30 binaries/doscan.o
                                         0x48 (size before relaxing)
 .eh_frame      0x0000000000119908       0x5c binaries/fdoprnt.o
                                         0x74 (size before relaxing)
 .eh_frame      0x0000000000119964       0x20 binaries/fgetc.o
                                         0x38 (size before relaxing)
 .eh_frame      0x0000000000119984       0x2c binaries/fgets.o
                                         0x44 (size before relaxing)
 .eh_frame      0x00000000001199b0       0x20 binaries/fprintf.o
                                         0x38 (size before relaxing)
 .eh_frame      0x00000000001199d0       0x20 binaries/fputc.o
                                         0x38 (size before relaxing)
 .eh_frame      0x00000000001199f0       0x28 binaries/fputs.o
                                         0x40 (size before relaxing)
 .eh_frame      0x0000000000119a18       0x64 binaries/fscanf.o
                                         0x7c (size before relaxing)
 .eh_frame      0x0000000000119a7c       0x20 binaries/getchar.o
                                         0x38 (size before relaxing)
 .eh_frame      0x0000000000119a9c       0x20 binaries/labs.o
                                         0x38 (size before relaxing)
 .eh_frame      0x0000000000119abc       0x20 binaries/memchr.o
                                         0x38 (size before relaxing)
 .eh_frame      0x0000000000119adc       0x28 binaries/memcmp.o
                                         0x40 (size before relaxing)
 .eh_frame      0x0000000000119b04       0x28 binaries/memcpy.o
                                         0x40 (size before relaxing)
 .eh_frame      0x0000000000119b2c       0x24 binaries/memset.o
                                         0x3c (size before relaxing)
 .eh_frame      0x0000000000119b50       0x20 binaries/printf.o
                                         0x38 (size before relaxing)
 .eh_frame      0x0000000000119b70       0x20 binaries/putchar.o
                                         0x38 (size before relaxing)
 .eh_frame      0x0000000000119b90       0xa4 binaries/qsort.o
                                         0xbc (size before relaxing)
 .eh_frame      0x0000000000119c34       0x40 binaries/rand.o
                                         0x58 (size before relaxing)
 .eh_frame      0x0000000000119c74       0x48 binaries/sprintf.o
                                         0x60 (size before relaxing)
 .eh_frame      0x0000000000119cbc       0x60 binaries/sscanf.o
                                         0x78 (size before relaxing)
 .eh_frame      0x0000000000119d1c       0x24 binaries/strchr.o
                                         0x3c (size before relaxing)
 .eh_frame      0x0000000000119d40       0x24 binaries/strcmp.o
                                         0x3c (size before relaxing)
 .eh_frame      0x0000000000119d64       0x20 binaries/strcpy.o
                                         0x38 (size before relaxing)
 .eh_frame      0x0000000000119d84       0x20 binaries/strlen.o
                                         0x38 (size before relaxing)
 .eh_frame      0x0000000000119da4       0x2c binaries/strncat.o
                                         0x44 (size before relaxing)
 .eh_frame      0x0000000000119dd0       0x24 binaries/strncmp.o
                                         0x3c (size before relaxing)
 .eh_frame      0x0000000000119df4       0x2c binaries/strncpy.o
                                         0x44 (size before relaxing)
 .eh_frame      0x0000000000119e20       0x24 binaries/strnlen.o
                                         0x3c (size before relaxing)
 .eh_frame      0x0000000000119e44       0x24 binaries/strrchr.o
                                         0x3c (size before relaxing)
 .eh_frame      0x0000000000119e68       0x2c binaries/strstr.o
                                         0x44 (size before relaxing)
 .eh_frame      0x0000000000119e94       0x30 binaries/ttycontrol.o
                                         0x48 (size before relaxing)
 .eh_frame      0x0000000000119ec4       0x2c binaries/ttygetc.o
                                         0x44 (size before relaxing)
 .eh_frame      0x0000000000119ef0       0x84 binaries/ttyhandle_in.o
                                         0x9c (size before relaxing)
 .eh_frame      0x0000000000119f74       0x30 binaries/ttyhandle_out.o
                                         0x48 (size before relaxing)
 .eh_frame      0x0000000000119fa4       0x28 binaries/ttyhandler.o
                                         0x40 (size before relaxing)
 .eh_frame      0x0000000000119fcc       0x30 binaries/ttyinit.o
                                         0x48 (size before relaxing)
 .eh_frame      0x0000000000119ffc       0x20 binaries/ttykickout.o
                                         0x38 (size before relaxing)
 .eh_frame      0x000000000011a01c       0x2c binaries/ttyputc.o
                                         0x44 (size before relaxing)
 .eh_frame      0x000000000011a048       0x2c binaries/ttyread.o
                                         0x44 (size before relaxing)
 .eh_frame      0x000000000011a074       0x2c binaries/ttywrite.o
                                         0x44 (size before relaxing)
 .eh_frame      0x000000000011a0a0       0x4c binaries/mount.o
                                         0x64 (size before relaxing)
 .eh_frame      0x000000000011a0ec       0x30 binaries/naminit.o
                                         0x48 (size before relaxing)
 .eh_frame      0x000000000011a11c       0x84 binaries/nammap.o
                                         0x9c (size before relaxing)
 .eh_frame      0x000000000011a1a0       0x20 binaries/namopen.o
                                         0x38 (size before relaxing)
 .eh_frame      0x000000000011a1c0       0x2c binaries/colon2mac.o
                                         0x44 (size before relaxing)
 .eh_frame      0x000000000011a1ec       0x20 binaries/ethcontrol.o
                                         0x38 (size before relaxing)
 .eh_frame      0x000000000011a20c       0x30 binaries/ethhandler.o
                                         0x48 (size before relaxing)
 .eh_frame      0x000000000011a23c       0x98 binaries/ethinit.o
                                         0xb0 (size before relaxing)
 .eh_frame      0x000000000011a2d4       0x54 binaries/ethmcast.o
                                         0x6c (size before relaxing)
 .eh_frame      0x000000000011a328       0x30 binaries/ethread.o
                                         0x48 (size before relaxing)
 .eh_frame      0x000000000011a358       0x2c binaries/ethwrite.o
                                         0x44 (size before relaxing)
 .eh_frame      0x000000000011a384       0x24 binaries/rdsbufalloc.o
                                         0x3c (size before relaxing)
 .eh_frame      0x000000000011a3a8       0x2c binaries/rdsclose.o
                                         0x44 (size before relaxing)
 .eh_frame      0x000000000011a3d4       0x30 binaries/rdscomm.o
                                         0x48 (size before relaxing)
 .eh_frame      0x000000000011a404       0x30 binaries/rdscontrol.o
                                         0x48 (size before relaxing)
 .eh_frame      0x000000000011a434       0x30 binaries/rdsinit.o
                                         0x48 (size before relaxing)
 .eh_frame      0x000000000011a464       0x30 binaries/rdsopen.o
                                         0x48 (size before relaxing)
 .eh_frame      0x000000000011a494       0x20 binaries/rdsprocess.o
                                         0x38 (size before relaxing)
 .eh_frame      0x000000000011a4b4       0x30 binaries/rdsread.o
                                         0x48 (size before relaxing)
 .eh_frame      0x000000000011a4e4       0x30 binaries/rdswrite.o
                                         0x48 (size before relaxing)
 .eh_frame      0x000000000011a514       0x20 binaries/ramclose.o
                                         0x38 (size before relaxing)
 .eh_frame      0x000000000011a534       0x20 binaries/raminit.o
                                         0x38 (size before relaxing)
 .eh_frame      0x000000000011a554       0x20 binaries/ramopen.o
                                         0x38 (size before relaxing)
 .eh_frame      0x000000000011a574       0x20 binaries/ramread.o
                                         0x38 (size before relaxing)
 .eh_frame      0x000000000011a594       0x20 binaries/ramwrite.o
                                         0x38 (size before relaxing)
 .eh_frame      0x000000000011a5b4       0x28 binaries/lfdballoc.o
                                         0x40 (size before relaxing)
 .eh_frame      0x000000000011a5dc       0x24 binaries/lfdbfree.o
                                         0x3c (size before relaxing)
 .eh_frame      0x000000000011a600       0x24 binaries/lfflush.o
                                         0x3c (size before relaxing)
 .eh_frame      0x000000000011a624       0x20 binaries/lfgetmode.o
                                         0x38 (size before relaxing)
 .eh_frame      0x000000000011a644       0x24 binaries/lfiballoc.o
                                         0x3c (size before relaxing)
 .eh_frame      0x000000000011a668       0x20 binaries/lfibclear.o
                                         0x38 (size before relaxing)
 .eh_frame      0x000000000011a688       0x2c binaries/lfibget.o
                                         0x44 (size before relaxing)
 .eh_frame      0x000000000011a6b4       0x2c binaries/lfibput.o
                                         0x44 (size before relaxing)
 .eh_frame      0x000000000011a6e0       0x28 binaries/lflclose.o
                                         0x40 (size before relaxing)
 .eh_frame      0x000000000011a708       0x2c binaries/lflcontrol.o
                                         0x44 (size before relaxing)
 .eh_frame      0x000000000011a734       0x2c binaries/lflgetc.o
                                         0x44 (size before relaxing)
 .eh_frame      0x000000000011a760       0x2c binaries/lflinit.o
                                         0x44 (size before relaxing)
 .eh_frame      0x000000000011a78c       0x30 binaries/lflputc.o
                                         0x48 (size before relaxing)
 .eh_frame      0x000000000011a7bc       0x2c binaries/lflread.o
                                         0x44 (size before relaxing)
 .eh_frame      0x000000000011a7e8       0x2c binaries/lflseek.o
                                         0x44 (size before relaxing)
 .eh_frame      0x000000000011a814       0x2c binaries/lflwrite.o
                                         0x44 (size before relaxing)
 .eh_frame      0x000000000011a840       0x30 binaries/lfsckfmt.o
                                         0x48 (size before relaxing)
 .eh_frame      0x000000000011a870       0x30 binaries/lfscreate.o
                                         0x48 (size before relaxing)
 .eh_frame      0x000000000011a8a0       0x30 binaries/lfsetup.o
                                         0x48 (size before relaxing)
 .eh_frame      0x000000000011a8d0       0x20 binaries/lfsinit.o
                                         0x38 (size before relaxing)
 .eh_frame      0x000000000011a8f0       0x30 binaries/lfsopen.o
                                         0x48 (size before relaxing)
 .eh_frame      0x000000000011a920       0x30 binaries/lftruncate.o
                                         0x48 (size before relaxing)
 .eh_frame      0x000000000011a950       0x20 binaries/rflclose.o
                                         0x38 (size before relaxing)
 .eh_frame      0x000000000011a970       0x20 binaries/rflgetc.o
                                         0x38 (size before relaxing)
 .eh_frame      0x000000000011a990       0x24 binaries/rflinit.o
                                         0x3c (size before relaxing)
 .eh_frame      0x000000000011a9b4       0x20 binaries/rflputc.o
                                         0x38 (size before relaxing)
 .eh_frame      0x000000000011a9d4       0x30 binaries/rflread.o
                                         0x48 (size before relaxing)
 .eh_frame      0x000000000011aa04       0x20 binaries/rflseek.o
                                         0x38 (size before relaxing)
 .eh_frame      0x000000000011aa24       0x30 binaries/rflwrite.o
                                         0x48 (size before relaxing)
 .eh_frame      0x000000000011aa54       0x30 binaries/rfscomm.o
                                         0x48 (size before relaxing)
 .eh_frame      0x000000000011aa84       0x2c binaries/rfscontrol.o
                                         0x44 (size before relaxing)
 .eh_frame      0x000000000011aab0       0x20 binaries/rfsgetmode.o
                                         0x38 (size before relaxing)
 .eh_frame      0x000000000011aad0       0x20 binaries/rfsinit.o
                                         0x38 (size before relaxing)
 .eh_frame      0x000000000011aaf0       0x20 binaries/rfsndmsg.o
                                         0x38 (size before relaxing)
 .eh_frame      0x000000000011ab10       0x2c binaries/rfsopen.o
                                         0x44 (size before relaxing)
 .eh_frame      0x000000000011ab3c       0xec binaries/arp.o
                                        0x104 (size before relaxing)
 .eh_frame      0x000000000011ac28       0xd0 binaries/dhcp.o
                                         0xe8 (size before relaxing)
 .eh_frame      0x000000000011acf8       0x2c binaries/dot2ip.o
                                         0x44 (size before relaxing)
 .eh_frame      0x000000000011ad24       0x60 binaries/hexdump.o
                                         0x78 (size before relaxing)
 .eh_frame      0x000000000011ad84      0x198 binaries/icmp.o
                                        0x1b0 (size before relaxing)
 .eh_frame      0x000000000011af1c      0x148 binaries/ip.o
                                        0x160 (size before relaxing)
 .eh_frame      0x000000000011b064       0x7c binaries/net.o
                                         0x94 (size before relaxing)
 .eh_frame      0x000000000011b0e0       0x24 binaries/netstart.o
                                         0x3c (size before relaxing)
 .eh_frame      0x000000000011b104       0x50 binaries/pdump.o
                                         0x68 (size before relaxing)
 .eh_frame      0x000000000011b154       0x80 binaries/tftp.o
                                         0x98 (size before relaxing)
 .eh_frame      0x000000000011b1d4      0x1b0 binaries/udp.o
                                        0x1c8 (size before relaxing)
 .eh_frame      0x000000000011b384       0x30 binaries/addargs.o
                                         0x48 (size before relaxing)
 .eh_frame      0x000000000011b3b4       0x30 binaries/lexan.o
                                         0x48 (size before relaxing)
 .eh_frame      0x000000000011b3e4       0x30 binaries/shell.o
                                         0x48 (size before relaxing)
 .eh_frame      0x000000000011b414       0x2c binaries/xsh_argecho.o
                                         0x44 (size before relaxing)
 .eh_frame      0x000000000011b440       0x30 binaries/xsh_arp.o
                                         0x48 (size before relaxing)
 .eh_frame      0x000000000011b470       0x30 binaries/xsh_cat.o
                                         0x48 (size before relaxing)
 .eh_frame      0x000000000011b4a0       0x20 binaries/xsh_clear.o
                                         0x38 (size before relaxing)
 .eh_frame      0x000000000011b4c0       0x24 binaries/xsh_date.o
                                         0x3c (size before relaxing)
 .eh_frame      0x000000000011b4e4       0x28 binaries/xsh_devdump.o
                                         0x40 (size before relaxing)
 .eh_frame      0x000000000011b50c       0x2c binaries/xsh_echo.o
                                         0x44 (size before relaxing)
 .eh_frame      0x000000000011b538       0x20 binaries/xsh_exit.o
                                         0x38 (size before relaxing)
 .eh_frame      0x000000000011b558       0x30 binaries/xsh_help.o
                                         0x48 (size before relaxing)
 .eh_frame      0x000000000011b588       0x2c binaries/xsh_ipaddr.o
                                         0x44 (size before relaxing)
 .eh_frame      0x000000000011b5b4       0x2c binaries/xsh_kill.o
                                         0x44 (size before relaxing)
 .eh_frame      0x000000000011b5e0       0x58 binaries/xsh_memdump.o
                                         0x70 (size before relaxing)
 .eh_frame      0x000000000011b638       0x30 binaries/xsh_memstat.o
                                         0x48 (size before relaxing)
 .eh_frame      0x000000000011b668       0x30 binaries/xsh_ping.o
                                         0x48 (size before relaxing)
 .eh_frame      0x000000000011b698       0x30 binaries/xsh_ps.o
                                         0x48 (size before relaxing)
 .eh_frame      0x000000000011b6c8       0x30 binaries/xsh_sleep.o
                                         0x48 (size before relaxing)
 .eh_frame      0x000000000011b6f8       0x2c binaries/xsh_udpdump.o
                                         0x44 (size before relaxing)
 .eh_frame      0x000000000011b724       0x30 binaries/xsh_udpecho.o
                                         0x48 (size before relaxing)
 .eh_frame      0x000000000011b754       0x30 binaries/xsh_udpeserver.o
                                         0x48 (size before relaxing)
 .eh_frame      0x000000000011b784       0x30 binaries/xsh_uptime.o
                                         0x48 (size before relaxing)
 .eh_frame      0x000000000011b7b4       0x14 binaries/host2netlc.o
                                         0x2c (size before relaxing)

.iplt           0x000000000011b7d0        0x0
 .iplt          0x000000000011b7d0        0x0 binaries/start.o

.rel.dyn        0x000000000011b7c8        0x0
 .rel.iplt      0x000000000011b7c8        0x0 binaries/start.o
 .rel.text      0x000000000011b7c8        0x0 binaries/start.o
 .rel.data      0x000000000011b7c8        0x0 binaries/start.o
 .rel.rodata    0x000000000011b7c8        0x0 binaries/start.o

.data           0x000000000011b7e0     0x1820
                0x000000000011b7e0                data = ABSOLUTE (.)
 *(.data .data.*)
 .data          0x000000000011b7e0      0x85a binaries/start.o
                0x000000000011b7e0                gdt
                0x000000000011b830                idt
                0x000000000011c036                cpudelay
 .data          0x000000000011c03a        0x0 binaries/app1.o
 .data          0x000000000011c03a        0x0 binaries/app2.o
 .data          0x000000000011c03a        0x0 binaries/app3.o
 *fill*         0x000000000011c03a        0x6 
 .data          0x000000000011c040       0x88 binaries/ascdate.o
                0x000000000011c040                Date
 .data          0x000000000011c0c8        0x0 binaries/bufinit.o
 .data          0x000000000011c0c8        0x0 binaries/chprio.o
 .data          0x000000000011c0c8        0x4 binaries/clkhandler.o
 .data          0x000000000011c0cc        0x0 binaries/clkinit.o
 .data          0x000000000011c0cc        0x0 binaries/close.o
 *fill*         0x000000000011c0cc       0x14 
 .data          0x000000000011c0e0      0x30c binaries/conf.o
                0x000000000011c0e0                devtab
 .data          0x000000000011c3ec        0x0 binaries/control.o
 .data          0x000000000011c3ec        0x0 binaries/cpubound.o
 .data          0x000000000011c3ec        0x4 binaries/create.o
 .data          0x000000000011c3f0        0x0 binaries/early_imr.o
 *fill*         0x000000000011c3f0       0x10 
 .data          0x000000000011c400       0x40 binaries/evec.o
                0x000000000011c400                inames
 .data          0x000000000011c440        0x0 binaries/factorial.o
 .data          0x000000000011c440        0x0 binaries/freebuf.o
 .data          0x000000000011c440        0x0 binaries/freemem.o
 .data          0x000000000011c440        0x0 binaries/getbuf.o
 .data          0x000000000011c440        0x0 binaries/getc.o
 .data          0x000000000011c440        0x0 binaries/getdev.o
 .data          0x000000000011c440        0x0 binaries/getitem.o
 .data          0x000000000011c440        0x0 binaries/getmem.o
 .data          0x000000000011c440        0x0 binaries/getpid.o
 .data          0x000000000011c440        0x0 binaries/getpname.o
 .data          0x000000000011c440        0x0 binaries/getppid.o
 .data          0x000000000011c440        0x0 binaries/getprio.o
 .data          0x000000000011c440        0x0 binaries/getstk.o
 .data          0x000000000011c440        0x0 binaries/gettime.o
 .data          0x000000000011c440        0x0 binaries/getutime.o
 .data          0x000000000011c440        0x0 binaries/host2netlb.o
 .data          0x000000000011c440        0x0 binaries/init.o
 .data          0x000000000011c440        0x0 binaries/initialize.o
 .data          0x000000000011c440        0x0 binaries/insert.o
 .data          0x000000000011c440        0x0 binaries/insertd.o
 .data          0x000000000011c440        0x0 binaries/iobound.o
 .data          0x000000000011c440        0x0 binaries/ioerr.o
 .data          0x000000000011c440        0x0 binaries/ionull.o
 .data          0x000000000011c440        0x0 binaries/kill.o
 .data          0x000000000011c440        0x0 binaries/kprintf.o
 .data          0x000000000011c440        0x0 binaries/lab2q3.o
 .data          0x000000000011c440        0x0 binaries/lab2q4.o
 .data          0x000000000011c440        0x0 binaries/lab2q5.o
 .data          0x000000000011c440        0x8 binaries/main.o
                0x000000000011c440                lab2flag
                0x000000000011c444                lab
 .data          0x000000000011c448        0x0 binaries/mark.o
 *fill*         0x000000000011c448       0x18 
 .data          0x000000000011c460       0x48 binaries/meminit.o
                0x000000000011c460                gdt_copy
                0x000000000011c4a0                bootinfo
                0x000000000011c4a4                bootsign
 .data          0x000000000011c4a8        0x0 binaries/mkbufpool.o
 .data          0x000000000011c4a8        0x0 binaries/multilevelfbq.o
 .data          0x000000000011c4a8        0x0 binaries/myappA.o
 .data          0x000000000011c4a8        0x0 binaries/myfuncA.o
 .data          0x000000000011c4a8        0x0 binaries/myhacker.o
 .data          0x000000000011c4a8        0x0 binaries/myqueue.o
 .data          0x000000000011c4a8        0x0 binaries/myvictim.o
 .data          0x000000000011c4a8        0x0 binaries/mywelcomemsg.o
 .data          0x000000000011c4a8        0x4 binaries/newqueue.o
 .data          0x000000000011c4ac        0x0 binaries/open.o
 .data          0x000000000011c4ac        0x0 binaries/panic.o
 .data          0x000000000011c4ac        0x0 binaries/pci.o
 .data          0x000000000011c4ac        0x0 binaries/platinit.o
 .data          0x000000000011c4ac        0x0 binaries/printsegaddr.o
 .data          0x000000000011c4ac        0x0 binaries/process_state.o
 .data          0x000000000011c4ac        0x0 binaries/ptclear.o
 .data          0x000000000011c4ac        0x0 binaries/ptcount.o
 .data          0x000000000011c4ac        0x0 binaries/ptcreate.o
 .data          0x000000000011c4ac        0x0 binaries/ptdelete.o
 .data          0x000000000011c4ac        0x0 binaries/ptinit.o
 .data          0x000000000011c4ac        0x0 binaries/ptrecv.o
 .data          0x000000000011c4ac        0x0 binaries/ptreset.o
 .data          0x000000000011c4ac        0x0 binaries/ptsend.o
 .data          0x000000000011c4ac        0x0 binaries/putc.o
 .data          0x000000000011c4ac        0x0 binaries/quark_irq.o
 .data          0x000000000011c4ac        0x0 binaries/quark_pdat.o
 .data          0x000000000011c4ac        0x0 binaries/queue.o
 .data          0x000000000011c4ac        0x0 binaries/read.o
 .data          0x000000000011c4ac        0x0 binaries/ready.o
 .data          0x000000000011c4ac        0x0 binaries/receive.o
 .data          0x000000000011c4ac        0x0 binaries/receivebt.o
 .data          0x000000000011c4ac        0x0 binaries/recvclr.o
 .data          0x000000000011c4ac        0x0 binaries/recvtime.o
 .data          0x000000000011c4ac        0x0 binaries/resched.o
 .data          0x000000000011c4ac        0x0 binaries/resume.o
 .data          0x000000000011c4ac        0x0 binaries/seek.o
 .data          0x000000000011c4ac        0x0 binaries/semcount.o
 .data          0x000000000011c4ac        0x0 binaries/semcreate.o
 .data          0x000000000011c4ac        0x0 binaries/semdelete.o
 .data          0x000000000011c4ac        0x0 binaries/semreset.o
 .data          0x000000000011c4ac        0x0 binaries/send.o
 .data          0x000000000011c4ac        0x0 binaries/sendbt.o
 .data          0x000000000011c4ac        0x0 binaries/signal.o
 .data          0x000000000011c4ac        0x0 binaries/signaln.o
 .data          0x000000000011c4ac        0x0 binaries/sleep.o
 .data          0x000000000011c4ac        0x0 binaries/stackdepth.o
 .data          0x000000000011c4ac        0x0 binaries/stacktrace.o
 .data          0x000000000011c4ac        0x0 binaries/suspend.o
 .data          0x000000000011c4ac        0x0 binaries/teststackdepth.o
 *fill*         0x000000000011c4ac       0x14 
 .data          0x000000000011c4c0       0xf0 binaries/tsdtab.o
                0x000000000011c4c0                tsdtab
 .data          0x000000000011c5b0        0x0 binaries/unsleep.o
 .data          0x000000000011c5b0        0x0 binaries/userret.o
 .data          0x000000000011c5b0        0x0 binaries/wait.o
 .data          0x000000000011c5b0        0x0 binaries/wakeup.o
 .data          0x000000000011c5b0        0x0 binaries/write.o
 .data          0x000000000011c5b0        0x0 binaries/xdone.o
 .data          0x000000000011c5b0        0x0 binaries/yield.o
 .data          0x000000000011c5b0        0x0 binaries/abs.o
 .data          0x000000000011c5b0        0x0 binaries/atoi.o
 .data          0x000000000011c5b0        0x0 binaries/atol.o
 .data          0x000000000011c5b0        0x0 binaries/bzero.o
 .data          0x000000000011c5b0        0x0 binaries/ctype_.o
 .data          0x000000000011c5b0        0x0 binaries/doprnt.o
 *fill*         0x000000000011c5b0       0x10 
 .data          0x000000000011c5c0       0x80 binaries/doscan.o
                0x000000000011c5c0                _sctab
 .data          0x000000000011c640        0x0 binaries/fdoprnt.o
 .data          0x000000000011c640        0x0 binaries/fgetc.o
 .data          0x000000000011c640        0x0 binaries/fgets.o
 .data          0x000000000011c640        0x0 binaries/fprintf.o
 .data          0x000000000011c640        0x0 binaries/fputc.o
 .data          0x000000000011c640        0x0 binaries/fputs.o
 .data          0x000000000011c640        0x0 binaries/fscanf.o
 .data          0x000000000011c640        0x0 binaries/getchar.o
 .data          0x000000000011c640        0x0 binaries/labs.o
 .data          0x000000000011c640        0x0 binaries/memchr.o
 .data          0x000000000011c640        0x0 binaries/memcmp.o
 .data          0x000000000011c640        0x0 binaries/memcpy.o
 .data          0x000000000011c640        0x0 binaries/memset.o
 .data          0x000000000011c640        0x0 binaries/printf.o
 .data          0x000000000011c640        0x0 binaries/putchar.o
 .data          0x000000000011c640        0x0 binaries/qsort.o
 .data          0x000000000011c640        0x4 binaries/rand.o
 .data          0x000000000011c644        0x0 binaries/sprintf.o
 .data          0x000000000011c644        0x0 binaries/sscanf.o
 .data          0x000000000011c644        0x0 binaries/strchr.o
 .data          0x000000000011c644        0x0 binaries/strcmp.o
 .data          0x000000000011c644        0x0 binaries/strcpy.o
 .data          0x000000000011c644        0x0 binaries/strlen.o
 .data          0x000000000011c644        0x0 binaries/strncat.o
 .data          0x000000000011c644        0x0 binaries/strncmp.o
 .data          0x000000000011c644        0x0 binaries/strncpy.o
 .data          0x000000000011c644        0x0 binaries/strnlen.o
 .data          0x000000000011c644        0x0 binaries/strrchr.o
 .data          0x000000000011c644        0x0 binaries/strstr.o
 .data          0x000000000011c644        0x0 binaries/ttycontrol.o
 .data          0x000000000011c644        0x0 binaries/ttygetc.o
 .data          0x000000000011c644        0x0 binaries/ttyhandle_in.o
 .data          0x000000000011c644        0x0 binaries/ttyhandle_out.o
 .data          0x000000000011c644        0x0 binaries/ttyhandler.o
 .data          0x000000000011c644        0x0 binaries/ttyinit.o
 .data          0x000000000011c644        0x0 binaries/ttykickout.o
 .data          0x000000000011c644        0x0 binaries/ttyputc.o
 .data          0x000000000011c644        0x0 binaries/ttyread.o
 .data          0x000000000011c644        0x0 binaries/ttywrite.o
 .data          0x000000000011c644        0x0 binaries/mount.o
 .data          0x000000000011c644        0x0 binaries/naminit.o
 .data          0x000000000011c644        0x0 binaries/nammap.o
 .data          0x000000000011c644        0x0 binaries/namopen.o
 .data          0x000000000011c644        0x0 binaries/colon2mac.o
 .data          0x000000000011c644        0x0 binaries/ethcontrol.o
 .data          0x000000000011c644        0x0 binaries/ethhandler.o
 .data          0x000000000011c644        0x0 binaries/ethinit.o
 .data          0x000000000011c644        0x0 binaries/ethmcast.o
 .data          0x000000000011c644        0x0 binaries/ethread.o
 .data          0x000000000011c644        0x0 binaries/ethwrite.o
 .data          0x000000000011c644        0x0 binaries/rdsbufalloc.o
 .data          0x000000000011c644        0x0 binaries/rdsclose.o
 .data          0x000000000011c644        0x0 binaries/rdscomm.o
 .data          0x000000000011c644        0x0 binaries/rdscontrol.o
 .data          0x000000000011c644        0x0 binaries/rdsinit.o
 .data          0x000000000011c644        0x0 binaries/rdsopen.o
 .data          0x000000000011c644        0x0 binaries/rdsprocess.o
 .data          0x000000000011c644        0x0 binaries/rdsread.o
 .data          0x000000000011c644        0x0 binaries/rdswrite.o
 .data          0x000000000011c644        0x0 binaries/ramclose.o
 .data          0x000000000011c644        0x0 binaries/raminit.o
 .data          0x000000000011c644        0x0 binaries/ramopen.o
 .data          0x000000000011c644        0x0 binaries/ramread.o
 .data          0x000000000011c644        0x0 binaries/ramwrite.o
 .data          0x000000000011c644        0x0 binaries/lfdballoc.o
 .data          0x000000000011c644        0x0 binaries/lfdbfree.o
 .data          0x000000000011c644        0x0 binaries/lfflush.o
 .data          0x000000000011c644        0x0 binaries/lfgetmode.o
 .data          0x000000000011c644        0x0 binaries/lfiballoc.o
 .data          0x000000000011c644        0x0 binaries/lfibclear.o
 .data          0x000000000011c644        0x0 binaries/lfibget.o
 .data          0x000000000011c644        0x0 binaries/lfibput.o
 .data          0x000000000011c644        0x0 binaries/lflclose.o
 .data          0x000000000011c644        0x0 binaries/lflcontrol.o
 .data          0x000000000011c644        0x0 binaries/lflgetc.o
 .data          0x000000000011c644        0x0 binaries/lflinit.o
 .data          0x000000000011c644        0x0 binaries/lflputc.o
 .data          0x000000000011c644        0x0 binaries/lflread.o
 .data          0x000000000011c644        0x0 binaries/lflseek.o
 .data          0x000000000011c644        0x0 binaries/lflwrite.o
 .data          0x000000000011c644        0x0 binaries/lfsckfmt.o
 .data          0x000000000011c644        0x0 binaries/lfscreate.o
 .data          0x000000000011c644        0x0 binaries/lfsetup.o
 .data          0x000000000011c644        0x0 binaries/lfsinit.o
 .data          0x000000000011c644        0x0 binaries/lfsopen.o
 .data          0x000000000011c644        0x0 binaries/lftruncate.o
 .data          0x000000000011c644        0x0 binaries/rflclose.o
 .data          0x000000000011c644        0x0 binaries/rflgetc.o
 .data          0x000000000011c644        0x0 binaries/rflinit.o
 .data          0x000000000011c644        0x0 binaries/rflputc.o
 .data          0x000000000011c644        0x0 binaries/rflread.o
 .data          0x000000000011c644        0x0 binaries/rflseek.o
 .data          0x000000000011c644        0x0 binaries/rflwrite.o
 .data          0x000000000011c644        0x0 binaries/rfscomm.o
 .data          0x000000000011c644        0x0 binaries/rfscontrol.o
 .data          0x000000000011c644        0x0 binaries/rfsgetmode.o
 .data          0x000000000011c644        0x0 binaries/rfsinit.o
 .data          0x000000000011c644        0x0 binaries/rfsndmsg.o
 .data          0x000000000011c644        0x0 binaries/rfsopen.o
 .data          0x000000000011c644        0x0 binaries/arp.o
 .data          0x000000000011c644        0x0 binaries/dhcp.o
 .data          0x000000000011c644        0x0 binaries/dot2ip.o
 .data          0x000000000011c644        0x0 binaries/hexdump.o
 .data          0x000000000011c644        0x4 binaries/icmp.o
 .data          0x000000000011c648        0x0 binaries/ip.o
 .data          0x000000000011c648        0x0 binaries/net.o
 .data          0x000000000011c648        0x0 binaries/netstart.o
 .data          0x000000000011c648        0x0 binaries/pdump.o
 .data          0x000000000011c648        0x0 binaries/tftp.o
 .data          0x000000000011c648        0x4 binaries/udp.o
 .data          0x000000000011c64c        0x0 binaries/addargs.o
 .data          0x000000000011c64c        0x0 binaries/lexan.o
 .data          0x000000000011c64c        0x4 binaries/shell.o
                0x000000000011c64c                ncmd
 .data          0x000000000011c650        0x0 binaries/xsh_argecho.o
 .data          0x000000000011c650        0x0 binaries/xsh_arp.o
 .data          0x000000000011c650        0x0 binaries/xsh_cat.o
 .data          0x000000000011c650        0x0 binaries/xsh_clear.o
 .data          0x000000000011c650        0x0 binaries/xsh_date.o
 .data          0x000000000011c650        0x0 binaries/xsh_devdump.o
 .data          0x000000000011c650        0x0 binaries/xsh_echo.o
 .data          0x000000000011c650        0x0 binaries/xsh_exit.o
 .data          0x000000000011c650        0x0 binaries/xsh_help.o
 .data          0x000000000011c650        0x0 binaries/xsh_ipaddr.o
 .data          0x000000000011c650        0x0 binaries/xsh_kill.o
 .data          0x000000000011c650        0x0 binaries/xsh_memdump.o
 .data          0x000000000011c650        0x0 binaries/xsh_memstat.o
 .data          0x000000000011c650        0x0 binaries/xsh_ping.o
 .data          0x000000000011c650        0x0 binaries/xsh_ps.o
 .data          0x000000000011c650        0x0 binaries/xsh_sleep.o
 .data          0x000000000011c650        0x0 binaries/xsh_udpdump.o
 .data          0x000000000011c650        0x0 binaries/xsh_udpecho.o
 .data          0x000000000011c650        0x0 binaries/xsh_udpeserver.o
 .data          0x000000000011c650        0x0 binaries/xsh_uptime.o
 .data          0x000000000011c650        0x0 binaries/clkdisp.o
 .data          0x000000000011c650        0x0 binaries/ctxsw.o
 .data          0x000000000011c650        0x0 binaries/host2netla.o
 .data          0x000000000011c650        0x0 binaries/host2netlc.o
 .data          0x000000000011c650        0x0 binaries/intr.o
 .data          0x000000000011c650        0x0 binaries/ttydispatch.o
 .data          0x000000000011c650        0x0 binaries/ethdispatch.o
                0x000000000011c650                edata = ABSOLUTE (.)
                0x000000000011d000                . = ALIGN (0x1000)
 *fill*         0x000000000011c650      0x9b0 

.igot.plt       0x000000000011d000        0x0
 .igot.plt      0x000000000011d000        0x0 binaries/start.o

.bss            0x000000000011d000    0x21000
                0x000000000011d000                bss = ABSOLUTE (.)
 *(.bss .bss.*)
 .bss           0x000000000011d000        0x0 binaries/start.o
 .bss           0x000000000011d000        0x0 binaries/app1.o
 .bss           0x000000000011d000        0x0 binaries/app2.o
 .bss           0x000000000011d000        0x0 binaries/app3.o
 .bss           0x000000000011d000        0x0 binaries/ascdate.o
 .bss           0x000000000011d000        0x0 binaries/bufinit.o
 .bss           0x000000000011d000        0x0 binaries/chprio.o
 .bss           0x000000000011d000        0x0 binaries/clkhandler.o
 .bss           0x000000000011d000        0x4 binaries/clkinit.o
                0x000000000011d000                ctr1000
 .bss           0x000000000011d004        0x0 binaries/close.o
 .bss           0x000000000011d004        0x0 binaries/conf.o
 .bss           0x000000000011d004        0x0 binaries/control.o
 .bss           0x000000000011d004        0x0 binaries/cpubound.o
 .bss           0x000000000011d004        0x0 binaries/create.o
 .bss           0x000000000011d004        0x0 binaries/early_imr.o
 .bss           0x000000000011d004        0x0 binaries/evec.o
 .bss           0x000000000011d004        0x0 binaries/factorial.o
 .bss           0x000000000011d004        0x0 binaries/freebuf.o
 .bss           0x000000000011d004        0x0 binaries/freemem.o
 .bss           0x000000000011d004        0x0 binaries/getbuf.o
 .bss           0x000000000011d004        0x0 binaries/getc.o
 .bss           0x000000000011d004        0x0 binaries/getdev.o
 .bss           0x000000000011d004        0x0 binaries/getitem.o
 .bss           0x000000000011d004        0x0 binaries/getmem.o
 .bss           0x000000000011d004        0x0 binaries/getpid.o
 .bss           0x000000000011d004        0x0 binaries/getpname.o
 .bss           0x000000000011d004        0x0 binaries/getppid.o
 .bss           0x000000000011d004        0x0 binaries/getprio.o
 .bss           0x000000000011d004        0x0 binaries/getstk.o
 .bss           0x000000000011d004        0x0 binaries/gettime.o
 .bss           0x000000000011d004        0x0 binaries/getutime.o
 .bss           0x000000000011d004        0x0 binaries/host2netlb.o
 .bss           0x000000000011d004        0x0 binaries/init.o
 .bss           0x000000000011d004        0x0 binaries/initialize.o
 .bss           0x000000000011d004        0x0 binaries/insert.o
 .bss           0x000000000011d004        0x0 binaries/insertd.o
 .bss           0x000000000011d004        0x0 binaries/iobound.o
 .bss           0x000000000011d004        0x0 binaries/ioerr.o
 .bss           0x000000000011d004        0x0 binaries/ionull.o
 .bss           0x000000000011d004        0x0 binaries/kill.o
 .bss           0x000000000011d004        0x0 binaries/kprintf.o
 .bss           0x000000000011d004        0x0 binaries/lab2q3.o
 .bss           0x000000000011d004        0x0 binaries/lab2q4.o
 .bss           0x000000000011d004        0x0 binaries/lab2q5.o
 .bss           0x000000000011d004        0x0 binaries/main.o
 .bss           0x000000000011d004        0x0 binaries/mark.o
 .bss           0x000000000011d004        0x0 binaries/meminit.o
 .bss           0x000000000011d004        0x0 binaries/mkbufpool.o
 .bss           0x000000000011d004        0x0 binaries/multilevelfbq.o
 .bss           0x000000000011d004        0x0 binaries/myappA.o
 .bss           0x000000000011d004        0x0 binaries/myfuncA.o
 .bss           0x000000000011d004        0x0 binaries/myhacker.o
 .bss           0x000000000011d004        0x0 binaries/myqueue.o
 .bss           0x000000000011d004        0x0 binaries/myvictim.o
 .bss           0x000000000011d004        0x0 binaries/mywelcomemsg.o
 .bss           0x000000000011d004        0x0 binaries/newqueue.o
 .bss           0x000000000011d004        0x0 binaries/open.o
 .bss           0x000000000011d004        0x0 binaries/panic.o
 .bss           0x000000000011d004        0x0 binaries/pci.o
 .bss           0x000000000011d004        0x0 binaries/platinit.o
 .bss           0x000000000011d004        0x0 binaries/printsegaddr.o
 .bss           0x000000000011d004        0x0 binaries/process_state.o
 .bss           0x000000000011d004        0x0 binaries/ptclear.o
 .bss           0x000000000011d004        0x0 binaries/ptcount.o
 .bss           0x000000000011d004        0x0 binaries/ptcreate.o
 .bss           0x000000000011d004        0x0 binaries/ptdelete.o
 .bss           0x000000000011d004        0x0 binaries/ptinit.o
 .bss           0x000000000011d004        0x0 binaries/ptrecv.o
 .bss           0x000000000011d004        0x0 binaries/ptreset.o
 .bss           0x000000000011d004        0x0 binaries/ptsend.o
 .bss           0x000000000011d004        0x0 binaries/putc.o
 .bss           0x000000000011d004        0x0 binaries/quark_irq.o
 .bss           0x000000000011d004        0x0 binaries/quark_pdat.o
 .bss           0x000000000011d004        0x0 binaries/queue.o
 .bss           0x000000000011d004        0x0 binaries/read.o
 .bss           0x000000000011d004        0x0 binaries/ready.o
 .bss           0x000000000011d004        0x0 binaries/receive.o
 .bss           0x000000000011d004        0x0 binaries/receivebt.o
 .bss           0x000000000011d004        0x0 binaries/recvclr.o
 .bss           0x000000000011d004        0x0 binaries/recvtime.o
 .bss           0x000000000011d004        0x0 binaries/resched.o
 .bss           0x000000000011d004        0x0 binaries/resume.o
 .bss           0x000000000011d004        0x0 binaries/seek.o
 .bss           0x000000000011d004        0x0 binaries/semcount.o
 .bss           0x000000000011d004        0x4 binaries/semcreate.o
 .bss           0x000000000011d008        0x0 binaries/semdelete.o
 .bss           0x000000000011d008        0x0 binaries/semreset.o
 .bss           0x000000000011d008        0x0 binaries/send.o
 .bss           0x000000000011d008        0x0 binaries/sendbt.o
 .bss           0x000000000011d008        0x0 binaries/signal.o
 .bss           0x000000000011d008        0x0 binaries/signaln.o
 .bss           0x000000000011d008        0x0 binaries/sleep.o
 .bss           0x000000000011d008        0x0 binaries/stackdepth.o
 .bss           0x000000000011d008        0x8 binaries/stacktrace.o
 .bss           0x000000000011d010        0x0 binaries/suspend.o
 .bss           0x000000000011d010        0x0 binaries/teststackdepth.o
 .bss           0x000000000011d010        0x0 binaries/tsdtab.o
 .bss           0x000000000011d010        0x0 binaries/unsleep.o
 .bss           0x000000000011d010        0x0 binaries/userret.o
 .bss           0x000000000011d010        0x0 binaries/wait.o
 .bss           0x000000000011d010        0x0 binaries/wakeup.o
 .bss           0x000000000011d010        0x0 binaries/write.o
 .bss           0x000000000011d010        0x0 binaries/xdone.o
 .bss           0x000000000011d010        0x0 binaries/yield.o
 .bss           0x000000000011d010        0x0 binaries/abs.o
 .bss           0x000000000011d010        0x0 binaries/atoi.o
 .bss           0x000000000011d010        0x0 binaries/atol.o
 .bss           0x000000000011d010        0x0 binaries/bzero.o
 .bss           0x000000000011d010        0x0 binaries/ctype_.o
 .bss           0x000000000011d010        0x0 binaries/doprnt.o
 .bss           0x000000000011d010        0x0 binaries/doscan.o
 .bss           0x000000000011d010        0x0 binaries/fdoprnt.o
 .bss           0x000000000011d010        0x0 binaries/fgetc.o
 .bss           0x000000000011d010        0x0 binaries/fgets.o
 .bss           0x000000000011d010        0x0 binaries/fprintf.o
 .bss           0x000000000011d010        0x0 binaries/fputc.o
 .bss           0x000000000011d010        0x0 binaries/fputs.o
 .bss           0x000000000011d010        0x0 binaries/fscanf.o
 .bss           0x000000000011d010        0x0 binaries/getchar.o
 .bss           0x000000000011d010        0x0 binaries/labs.o
 .bss           0x000000000011d010        0x0 binaries/memchr.o
 .bss           0x000000000011d010        0x0 binaries/memcmp.o
 .bss           0x000000000011d010        0x0 binaries/memcpy.o
 .bss           0x000000000011d010        0x0 binaries/memset.o
 .bss           0x000000000011d010        0x0 binaries/printf.o
 .bss           0x000000000011d010        0x0 binaries/putchar.o
 .bss           0x000000000011d010        0x8 binaries/qsort.o
 .bss           0x000000000011d018        0x0 binaries/rand.o
 .bss           0x000000000011d018        0x0 binaries/sprintf.o
 .bss           0x000000000011d018        0x0 binaries/sscanf.o
 .bss           0x000000000011d018        0x0 binaries/strchr.o
 .bss           0x000000000011d018        0x0 binaries/strcmp.o
 .bss           0x000000000011d018        0x0 binaries/strcpy.o
 .bss           0x000000000011d018        0x0 binaries/strlen.o
 .bss           0x000000000011d018        0x0 binaries/strncat.o
 .bss           0x000000000011d018        0x0 binaries/strncmp.o
 .bss           0x000000000011d018        0x0 binaries/strncpy.o
 .bss           0x000000000011d018        0x0 binaries/strnlen.o
 .bss           0x000000000011d018        0x0 binaries/strrchr.o
 .bss           0x000000000011d018        0x0 binaries/strstr.o
 .bss           0x000000000011d018        0x0 binaries/ttycontrol.o
 .bss           0x000000000011d018        0x0 binaries/ttygetc.o
 .bss           0x000000000011d018        0x0 binaries/ttyhandle_in.o
 .bss           0x000000000011d018        0x0 binaries/ttyhandle_out.o
 .bss           0x000000000011d018        0x0 binaries/ttyhandler.o
 .bss           0x000000000011d018        0x0 binaries/ttyinit.o
 .bss           0x000000000011d018        0x0 binaries/ttykickout.o
 .bss           0x000000000011d018        0x0 binaries/ttyputc.o
 .bss           0x000000000011d018        0x0 binaries/ttyread.o
 .bss           0x000000000011d018        0x0 binaries/ttywrite.o
 .bss           0x000000000011d018        0x0 binaries/mount.o
 .bss           0x000000000011d018        0x0 binaries/naminit.o
 .bss           0x000000000011d018        0x0 binaries/nammap.o
 .bss           0x000000000011d018        0x0 binaries/namopen.o
 .bss           0x000000000011d018        0x0 binaries/colon2mac.o
 .bss           0x000000000011d018        0x0 binaries/ethcontrol.o
 .bss           0x000000000011d018        0x0 binaries/ethhandler.o
 .bss           0x000000000011d018        0x0 binaries/ethinit.o
 .bss           0x000000000011d018        0x0 binaries/ethmcast.o
 .bss           0x000000000011d018        0x0 binaries/ethread.o
 .bss           0x000000000011d018        0x0 binaries/ethwrite.o
 .bss           0x000000000011d018        0x0 binaries/rdsbufalloc.o
 .bss           0x000000000011d018        0x0 binaries/rdsclose.o
 .bss           0x000000000011d018        0x0 binaries/rdscomm.o
 .bss           0x000000000011d018        0x0 binaries/rdscontrol.o
 .bss           0x000000000011d018        0x0 binaries/rdsinit.o
 .bss           0x000000000011d018        0x0 binaries/rdsopen.o
 .bss           0x000000000011d018        0x0 binaries/rdsprocess.o
 .bss           0x000000000011d018        0x0 binaries/rdsread.o
 .bss           0x000000000011d018        0x0 binaries/rdswrite.o
 .bss           0x000000000011d018        0x0 binaries/ramclose.o
 .bss           0x000000000011d018        0x0 binaries/raminit.o
 .bss           0x000000000011d018        0x0 binaries/ramopen.o
 .bss           0x000000000011d018        0x0 binaries/ramread.o
 .bss           0x000000000011d018        0x0 binaries/ramwrite.o
 .bss           0x000000000011d018        0x0 binaries/lfdballoc.o
 .bss           0x000000000011d018        0x0 binaries/lfdbfree.o
 .bss           0x000000000011d018        0x0 binaries/lfflush.o
 .bss           0x000000000011d018        0x0 binaries/lfgetmode.o
 .bss           0x000000000011d018        0x0 binaries/lfiballoc.o
 .bss           0x000000000011d018        0x0 binaries/lfibclear.o
 .bss           0x000000000011d018        0x0 binaries/lfibget.o
 .bss           0x000000000011d018        0x0 binaries/lfibput.o
 .bss           0x000000000011d018        0x0 binaries/lflclose.o
 .bss           0x000000000011d018        0x0 binaries/lflcontrol.o
 .bss           0x000000000011d018        0x0 binaries/lflgetc.o
 .bss           0x000000000011d018        0x0 binaries/lflinit.o
 .bss           0x000000000011d018        0x0 binaries/lflputc.o
 .bss           0x000000000011d018        0x0 binaries/lflread.o
 .bss           0x000000000011d018        0x0 binaries/lflseek.o
 .bss           0x000000000011d018        0x0 binaries/lflwrite.o
 .bss           0x000000000011d018        0x0 binaries/lfsckfmt.o
 .bss           0x000000000011d018        0x0 binaries/lfscreate.o
 .bss           0x000000000011d018        0x0 binaries/lfsetup.o
 .bss           0x000000000011d018        0x0 binaries/lfsinit.o
 .bss           0x000000000011d018        0x0 binaries/lfsopen.o
 .bss           0x000000000011d018        0x0 binaries/lftruncate.o
 .bss           0x000000000011d018        0x0 binaries/rflclose.o
 .bss           0x000000000011d018        0x0 binaries/rflgetc.o
 .bss           0x000000000011d018        0x0 binaries/rflinit.o
 .bss           0x000000000011d018        0x0 binaries/rflputc.o
 .bss           0x000000000011d018        0x0 binaries/rflread.o
 .bss           0x000000000011d018        0x0 binaries/rflseek.o
 .bss           0x000000000011d018        0x0 binaries/rflwrite.o
 .bss           0x000000000011d018        0x0 binaries/rfscomm.o
 .bss           0x000000000011d018        0x0 binaries/rfscontrol.o
 .bss           0x000000000011d018        0x0 binaries/rfsgetmode.o
 .bss           0x000000000011d018        0x0 binaries/rfsinit.o
 .bss           0x000000000011d018        0x0 binaries/rfsndmsg.o
 .bss           0x000000000011d018        0x0 binaries/rfsopen.o
 .bss           0x000000000011d018        0x0 binaries/arp.o
 .bss           0x000000000011d018        0x0 binaries/dhcp.o
 .bss           0x000000000011d018        0x0 binaries/dot2ip.o
 .bss           0x000000000011d018        0x0 binaries/hexdump.o
 .bss           0x000000000011d018        0x0 binaries/icmp.o
 .bss           0x000000000011d018        0x0 binaries/ip.o
 .bss           0x000000000011d018        0x0 binaries/net.o
 .bss           0x000000000011d018        0x0 binaries/netstart.o
 .bss           0x000000000011d018        0x0 binaries/pdump.o
 .bss           0x000000000011d018        0x0 binaries/tftp.o
 .bss           0x000000000011d018        0x0 binaries/udp.o
 .bss           0x000000000011d018        0x0 binaries/addargs.o
 .bss           0x000000000011d018        0x0 binaries/lexan.o
 .bss           0x000000000011d018        0x0 binaries/shell.o
 .bss           0x000000000011d018        0x0 binaries/xsh_argecho.o
 .bss           0x000000000011d018        0x0 binaries/xsh_arp.o
 .bss           0x000000000011d018        0x0 binaries/xsh_cat.o
 .bss           0x000000000011d018        0x0 binaries/xsh_clear.o
 .bss           0x000000000011d018        0x0 binaries/xsh_date.o
 .bss           0x000000000011d018        0x0 binaries/xsh_devdump.o
 .bss           0x000000000011d018        0x0 binaries/xsh_echo.o
 .bss           0x000000000011d018        0x0 binaries/xsh_exit.o
 .bss           0x000000000011d018        0x0 binaries/xsh_help.o
 .bss           0x000000000011d018        0x0 binaries/xsh_ipaddr.o
 .bss           0x000000000011d018        0x0 binaries/xsh_kill.o
 .bss           0x000000000011d018        0x0 binaries/xsh_memdump.o
 .bss           0x000000000011d018        0x0 binaries/xsh_memstat.o
 .bss           0x000000000011d018        0x4 binaries/xsh_ping.o
 .bss           0x000000000011d01c        0x0 binaries/xsh_ps.o
 .bss           0x000000000011d01c        0x0 binaries/xsh_sleep.o
 .bss           0x000000000011d01c        0x0 binaries/xsh_udpdump.o
 .bss           0x000000000011d01c        0x0 binaries/xsh_udpecho.o
 .bss           0x000000000011d01c        0x0 binaries/xsh_udpeserver.o
 .bss           0x000000000011d01c        0x0 binaries/xsh_uptime.o
 .bss           0x000000000011d01c        0x0 binaries/clkdisp.o
 .bss           0x000000000011d01c        0x0 binaries/ctxsw.o
 .bss           0x000000000011d01c        0x0 binaries/host2netla.o
 .bss           0x000000000011d01c        0x0 binaries/host2netlc.o
 .bss           0x000000000011d01c        0x0 binaries/intr.o
 .bss           0x000000000011d01c        0x0 binaries/ttydispatch.o
 .bss           0x000000000011d01c        0x0 binaries/ethdispatch.o
 *(COMMON)
 *fill*         0x000000000011d01c        0x4 
 COMMON         0x000000000011d020       0xf4 binaries/bufinit.o
                0x000000000011d020                buftab
                0x000000000011d110                nbpools
 COMMON         0x000000000011d114       0x10 binaries/clkinit.o
                0x000000000011d114                sleepq
                0x000000000011d118                preempt
                0x000000000011d11c                clktimemsec
                0x000000000011d120                clktime
 COMMON         0x000000000011d124        0x2 binaries/evec.o
                0x000000000011d124                girmask
 *fill*         0x000000000011d126       0x1a 
 COMMON         0x000000000011d140     0x2138 binaries/initialize.o
                0x000000000011d140                queueArr
                0x000000000011d168                currpid
                0x000000000011d180                proctab
                0x000000000011eda0                prcount
                0x000000000011edc0                semtab
                0x000000000011f270                memlist
 *fill*         0x000000000011f278        0x8 
 COMMON         0x000000000011f280       0x58 binaries/mark.o
                0x000000000011f280                marks
                0x000000000011f2d0                nmarks
                0x000000000011f2d4                mkmutex
 COMMON         0x000000000011f2d8        0x8 binaries/meminit.o
                0x000000000011f2d8                minheap
                0x000000000011f2dc                maxheap
 COMMON         0x000000000011f2e0        0x8 binaries/myhacker.o
                0x000000000011f2e0                victimglobal
                0x000000000011f2e4                victimsRetAddress
 *fill*         0x000000000011f2e8       0x18 
 COMMON         0x000000000011f300      0xca0 binaries/myqueue.o
                0x000000000011f300                myqueuetab
 COMMON         0x000000000011ffa0      0x2d8 binaries/ptinit.o
                0x000000000011ffa0                porttab
                0x0000000000120270                ptnextid
                0x0000000000120274                ptfree
 *fill*         0x0000000000120278        0x8 
 COMMON         0x0000000000120280      0xca0 binaries/queue.o
                0x0000000000120280                queuetab
 COMMON         0x0000000000120f20        0x2 binaries/ready.o
                0x0000000000120f20                readylist
 *fill*         0x0000000000120f22        0x2 
 COMMON         0x0000000000120f24        0x8 binaries/resched.o
                0x0000000000120f24                Defer
 *fill*         0x0000000000120f2c       0x14 
 COMMON         0x0000000000120f40      0x10c binaries/ttyinit.o
                0x0000000000120f40                ttytab
 *fill*         0x000000000012104c       0x14 
 COMMON         0x0000000000121060     0x19c0 binaries/naminit.o
                0x0000000000121060                nnames
                0x0000000000121080                nametab
 COMMON         0x0000000000122a20      0x138 binaries/ethinit.o
                0x0000000000122a20                ethertab
 *fill*         0x0000000000122b58        0x8 
 COMMON         0x0000000000122b60       0x8c binaries/rdsinit.o
                0x0000000000122b60                rdstab
 *fill*         0x0000000000122bec       0x14 
 COMMON         0x0000000000122c00    0x19000 binaries/raminit.o
                0x0000000000122c00                Ram
 COMMON         0x000000000013bc00      0xf00 binaries/lflinit.o
                0x000000000013bc00                lfltab
 COMMON         0x000000000013cb00      0x20c binaries/lfsinit.o
                0x000000000013cb00                Lf_data
 *fill*         0x000000000013cd0c       0x14 
 COMMON         0x000000000013cd20      0x5a0 binaries/rflinit.o
                0x000000000013cd20                rfltab
 COMMON         0x000000000013d2c0       0x18 binaries/rfsinit.o
                0x000000000013d2c0                Rf_data
 *fill*         0x000000000013d2d8        0x8 
 COMMON         0x000000000013d2e0      0x140 binaries/arp.o
                0x000000000013d2e0                arpcache
 COMMON         0x000000000013d420      0x230 binaries/icmp.o
                0x000000000013d420                icmptab
 *fill*         0x000000000013d650       0x10 
 COMMON         0x000000000013d660       0x2c binaries/ip.o
                0x000000000013d660                ipoqueue
 *fill*         0x000000000013d68c       0x14 
 COMMON         0x000000000013d6a0       0xc8 binaries/net.o
                0x000000000013d6a0                netbufpool
                0x000000000013d6c0                NetData
 *fill*         0x000000000013d768       0x18 
 COMMON         0x000000000013d780      0x168 binaries/udp.o
                0x000000000013d780                udptab
                0x000000000013d8e8                ebss = ABSOLUTE (.)
                0x000000000013e000                . = ALIGN (0x1000)
 *fill*         0x000000000013d8e8      0x718 
 */()
                0x000000000013e000                end = ABSOLUTE (.)
                0x000000000013e000                _end = ABSOLUTE (.)
                0x000000000013e000                . = ALIGN (0x1000)
LOAD binaries/start.o
LOAD binaries/app1.o
LOAD binaries/app2.o
LOAD binaries/app3.o
LOAD binaries/ascdate.o
LOAD binaries/bufinit.o
LOAD binaries/chprio.o
LOAD binaries/clkhandler.o
LOAD binaries/clkinit.o
LOAD binaries/close.o
LOAD binaries/conf.o
LOAD binaries/control.o
LOAD binaries/cpubound.o
LOAD binaries/create.o
LOAD binaries/early_imr.o
LOAD binaries/evec.o
LOAD binaries/factorial.o
LOAD binaries/freebuf.o
LOAD binaries/freemem.o
LOAD binaries/getbuf.o
LOAD binaries/getc.o
LOAD binaries/getdev.o
LOAD binaries/getitem.o
LOAD binaries/getmem.o
LOAD binaries/getpid.o
LOAD binaries/getpname.o
LOAD binaries/getppid.o
LOAD binaries/getprio.o
LOAD binaries/getstk.o
LOAD binaries/gettime.o
LOAD binaries/getutime.o
LOAD binaries/host2netlb.o
LOAD binaries/init.o
LOAD binaries/initialize.o
LOAD binaries/insert.o
LOAD binaries/insertd.o
LOAD binaries/iobound.o
LOAD binaries/ioerr.o
LOAD binaries/ionull.o
LOAD binaries/kill.o
LOAD binaries/kprintf.o
LOAD binaries/lab2q3.o
LOAD binaries/lab2q4.o
LOAD binaries/lab2q5.o
LOAD binaries/main.o
LOAD binaries/mark.o
LOAD binaries/meminit.o
LOAD binaries/mkbufpool.o
LOAD binaries/multilevelfbq.o
LOAD binaries/myappA.o
LOAD binaries/myfuncA.o
LOAD binaries/myhacker.o
LOAD binaries/myqueue.o
LOAD binaries/myvictim.o
LOAD binaries/mywelcomemsg.o
LOAD binaries/newqueue.o
LOAD binaries/open.o
LOAD binaries/panic.o
LOAD binaries/pci.o
LOAD binaries/platinit.o
LOAD binaries/printsegaddr.o
LOAD binaries/process_state.o
LOAD binaries/ptclear.o
LOAD binaries/ptcount.o
LOAD binaries/ptcreate.o
LOAD binaries/ptdelete.o
LOAD binaries/ptinit.o
LOAD binaries/ptrecv.o
LOAD binaries/ptreset.o
LOAD binaries/ptsend.o
LOAD binaries/putc.o
LOAD binaries/quark_irq.o
LOAD binaries/quark_pdat.o
LOAD binaries/queue.o
LOAD binaries/read.o
LOAD binaries/ready.o
LOAD binaries/receive.o
LOAD binaries/receivebt.o
LOAD binaries/recvclr.o
LOAD binaries/recvtime.o
LOAD binaries/resched.o
LOAD binaries/resume.o
LOAD binaries/seek.o
LOAD binaries/semcount.o
LOAD binaries/semcreate.o
LOAD binaries/semdelete.o
LOAD binaries/semreset.o
LOAD binaries/send.o
LOAD binaries/sendbt.o
LOAD binaries/signal.o
LOAD binaries/signaln.o
LOAD binaries/sleep.o
LOAD binaries/stackdepth.o
LOAD binaries/stacktrace.o
LOAD binaries/suspend.o
LOAD binaries/teststackdepth.o
LOAD binaries/tsdtab.o
LOAD binaries/unsleep.o
LOAD binaries/userret.o
LOAD binaries/wait.o
LOAD binaries/wakeup.o
LOAD binaries/write.o
LOAD binaries/xdone.o
LOAD binaries/yield.o
LOAD binaries/abs.o
LOAD binaries/atoi.o
LOAD binaries/atol.o
LOAD binaries/bzero.o
LOAD binaries/ctype_.o
LOAD binaries/doprnt.o
LOAD binaries/doscan.o
LOAD binaries/fdoprnt.o
LOAD binaries/fgetc.o
LOAD binaries/fgets.o
LOAD binaries/fprintf.o
LOAD binaries/fputc.o
LOAD binaries/fputs.o
LOAD binaries/fscanf.o
LOAD binaries/getchar.o
LOAD binaries/labs.o
LOAD binaries/memchr.o
LOAD binaries/memcmp.o
LOAD binaries/memcpy.o
LOAD binaries/memset.o
LOAD binaries/printf.o
LOAD binaries/putchar.o
LOAD binaries/qsort.o
LOAD binaries/rand.o
LOAD binaries/sprintf.o
LOAD binaries/sscanf.o
LOAD binaries/strchr.o
LOAD binaries/strcmp.o
LOAD binaries/strcpy.o
LOAD binaries/strlen.o
LOAD binaries/strncat.o
LOAD binaries/strncmp.o
LOAD binaries/strncpy.o
LOAD binaries/strnlen.o
LOAD binaries/strrchr.o
LOAD binaries/strstr.o
LOAD binaries/ttycontrol.o
LOAD binaries/ttygetc.o
LOAD binaries/ttyhandle_in.o
LOAD binaries/ttyhandle_out.o
LOAD binaries/ttyhandler.o
LOAD binaries/ttyinit.o
LOAD binaries/ttykickout.o
LOAD binaries/ttyputc.o
LOAD binaries/ttyread.o
LOAD binaries/ttywrite.o
LOAD binaries/mount.o
LOAD binaries/naminit.o
LOAD binaries/nammap.o
LOAD binaries/namopen.o
LOAD binaries/colon2mac.o
LOAD binaries/ethcontrol.o
LOAD binaries/ethhandler.o
LOAD binaries/ethinit.o
LOAD binaries/ethmcast.o
LOAD binaries/ethread.o
LOAD binaries/ethwrite.o
LOAD binaries/rdsbufalloc.o
LOAD binaries/rdsclose.o
LOAD binaries/rdscomm.o
LOAD binaries/rdscontrol.o
LOAD binaries/rdsinit.o
LOAD binaries/rdsopen.o
LOAD binaries/rdsprocess.o
LOAD binaries/rdsread.o
LOAD binaries/rdswrite.o
LOAD binaries/ramclose.o
LOAD binaries/raminit.o
LOAD binaries/ramopen.o
LOAD binaries/ramread.o
LOAD binaries/ramwrite.o
LOAD binaries/lfdballoc.o
LOAD binaries/lfdbfree.o
LOAD binaries/lfflush.o
LOAD binaries/lfgetmode.o
LOAD binaries/lfiballoc.o
LOAD binaries/lfibclear.o
LOAD binaries/lfibget.o
LOAD binaries/lfibput.o
LOAD binaries/lflclose.o
LOAD binaries/lflcontrol.o
LOAD binaries/lflgetc.o
LOAD binaries/lflinit.o
LOAD binaries/lflputc.o
LOAD binaries/lflread.o
LOAD binaries/lflseek.o
LOAD binaries/lflwrite.o
LOAD binaries/lfsckfmt.o
LOAD binaries/lfscreate.o
LOAD binaries/lfsetup.o
LOAD binaries/lfsinit.o
LOAD binaries/lfsopen.o
LOAD binaries/lftruncate.o
LOAD binaries/rflclose.o
LOAD binaries/rflgetc.o
LOAD binaries/rflinit.o
LOAD binaries/rflputc.o
LOAD binaries/rflread.o
LOAD binaries/rflseek.o
LOAD binaries/rflwrite.o
LOAD binaries/rfscomm.o
LOAD binaries/rfscontrol.o
LOAD binaries/rfsgetmode.o
LOAD binaries/rfsinit.o
LOAD binaries/rfsndmsg.o
LOAD binaries/rfsopen.o
LOAD binaries/arp.o
LOAD binaries/dhcp.o
LOAD binaries/dot2ip.o
LOAD binaries/hexdump.o
LOAD binaries/icmp.o
LOAD binaries/ip.o
LOAD binaries/net.o
LOAD binaries/netstart.o
LOAD binaries/pdump.o
LOAD binaries/tftp.o
LOAD binaries/udp.o
LOAD binaries/addargs.o
LOAD binaries/lexan.o
LOAD binaries/shell.o
LOAD binaries/xsh_argecho.o
LOAD binaries/xsh_arp.o
LOAD binaries/xsh_cat.o
LOAD binaries/xsh_clear.o
LOAD binaries/xsh_date.o
LOAD binaries/xsh_devdump.o
LOAD binaries/xsh_echo.o
LOAD binaries/xsh_exit.o
LOAD binaries/xsh_help.o
LOAD binaries/xsh_ipaddr.o
LOAD binaries/xsh_kill.o
LOAD binaries/xsh_memdump.o
LOAD binaries/xsh_memstat.o
LOAD binaries/xsh_ping.o
LOAD binaries/xsh_ps.o
LOAD binaries/xsh_sleep.o
LOAD binaries/xsh_udpdump.o
LOAD binaries/xsh_udpecho.o
LOAD binaries/xsh_udpeserver.o
LOAD binaries/xsh_uptime.o
LOAD binaries/clkdisp.o
LOAD binaries/ctxsw.o
LOAD binaries/host2netla.o
LOAD binaries/host2netlc.o
LOAD binaries/intr.o
LOAD binaries/ttydispatch.o
LOAD binaries/ethdispatch.o
OUTPUT(../compile/xinu elf32-i386)

.comment        0x0000000000000000       0x2a
 .comment       0x0000000000000000       0x2a binaries/app1.o
                                         0x2b (size before relaxing)
 .comment       0x000000000000002a       0x2b binaries/app2.o
 .comment       0x000000000000002a       0x2b binaries/app3.o
 .comment       0x000000000000002a       0x2b binaries/ascdate.o
 .comment       0x000000000000002a       0x2b binaries/bufinit.o
 .comment       0x000000000000002a       0x2b binaries/chprio.o
 .comment       0x000000000000002a       0x2b binaries/clkhandler.o
 .comment       0x000000000000002a       0x2b binaries/clkinit.o
 .comment       0x000000000000002a       0x2b binaries/close.o
 .comment       0x000000000000002a       0x2b binaries/conf.o
 .comment       0x000000000000002a       0x2b binaries/control.o
 .comment       0x000000000000002a       0x2b binaries/cpubound.o
 .comment       0x000000000000002a       0x2b binaries/create.o
 .comment       0x000000000000002a       0x2b binaries/early_imr.o
 .comment       0x000000000000002a       0x2b binaries/evec.o
 .comment       0x000000000000002a       0x2b binaries/factorial.o
 .comment       0x000000000000002a       0x2b binaries/freebuf.o
 .comment       0x000000000000002a       0x2b binaries/freemem.o
 .comment       0x000000000000002a       0x2b binaries/getbuf.o
 .comment       0x000000000000002a       0x2b binaries/getc.o
 .comment       0x000000000000002a       0x2b binaries/getdev.o
 .comment       0x000000000000002a       0x2b binaries/getitem.o
 .comment       0x000000000000002a       0x2b binaries/getmem.o
 .comment       0x000000000000002a       0x2b binaries/getpid.o
 .comment       0x000000000000002a       0x2b binaries/getpname.o
 .comment       0x000000000000002a       0x2b binaries/getppid.o
 .comment       0x000000000000002a       0x2b binaries/getprio.o
 .comment       0x000000000000002a       0x2b binaries/getstk.o
 .comment       0x000000000000002a       0x2b binaries/gettime.o
 .comment       0x000000000000002a       0x2b binaries/getutime.o
 .comment       0x000000000000002a       0x2b binaries/host2netlb.o
 .comment       0x000000000000002a       0x2b binaries/init.o
 .comment       0x000000000000002a       0x2b binaries/initialize.o
 .comment       0x000000000000002a       0x2b binaries/insert.o
 .comment       0x000000000000002a       0x2b binaries/insertd.o
 .comment       0x000000000000002a       0x2b binaries/iobound.o
 .comment       0x000000000000002a       0x2b binaries/ioerr.o
 .comment       0x000000000000002a       0x2b binaries/ionull.o
 .comment       0x000000000000002a       0x2b binaries/kill.o
 .comment       0x000000000000002a       0x2b binaries/kprintf.o
 .comment       0x000000000000002a       0x2b binaries/lab2q3.o
 .comment       0x000000000000002a       0x2b binaries/lab2q4.o
 .comment       0x000000000000002a       0x2b binaries/lab2q5.o
 .comment       0x000000000000002a       0x2b binaries/main.o
 .comment       0x000000000000002a       0x2b binaries/mark.o
 .comment       0x000000000000002a       0x2b binaries/meminit.o
 .comment       0x000000000000002a       0x2b binaries/mkbufpool.o
 .comment       0x000000000000002a       0x2b binaries/multilevelfbq.o
 .comment       0x000000000000002a       0x2b binaries/myappA.o
 .comment       0x000000000000002a       0x2b binaries/myfuncA.o
 .comment       0x000000000000002a       0x2b binaries/myhacker.o
 .comment       0x000000000000002a       0x2b binaries/myqueue.o
 .comment       0x000000000000002a       0x2b binaries/myvictim.o
 .comment       0x000000000000002a       0x2b binaries/mywelcomemsg.o
 .comment       0x000000000000002a       0x2b binaries/newqueue.o
 .comment       0x000000000000002a       0x2b binaries/open.o
 .comment       0x000000000000002a       0x2b binaries/panic.o
 .comment       0x000000000000002a       0x2b binaries/pci.o
 .comment       0x000000000000002a       0x2b binaries/platinit.o
 .comment       0x000000000000002a       0x2b binaries/printsegaddr.o
 .comment       0x000000000000002a       0x2b binaries/process_state.o
 .comment       0x000000000000002a       0x2b binaries/ptclear.o
 .comment       0x000000000000002a       0x2b binaries/ptcount.o
 .comment       0x000000000000002a       0x2b binaries/ptcreate.o
 .comment       0x000000000000002a       0x2b binaries/ptdelete.o
 .comment       0x000000000000002a       0x2b binaries/ptinit.o
 .comment       0x000000000000002a       0x2b binaries/ptrecv.o
 .comment       0x000000000000002a       0x2b binaries/ptreset.o
 .comment       0x000000000000002a       0x2b binaries/ptsend.o
 .comment       0x000000000000002a       0x2b binaries/putc.o
 .comment       0x000000000000002a       0x2b binaries/quark_irq.o
 .comment       0x000000000000002a       0x2b binaries/quark_pdat.o
 .comment       0x000000000000002a       0x2b binaries/queue.o
 .comment       0x000000000000002a       0x2b binaries/read.o
 .comment       0x000000000000002a       0x2b binaries/ready.o
 .comment       0x000000000000002a       0x2b binaries/receive.o
 .comment       0x000000000000002a       0x2b binaries/receivebt.o
 .comment       0x000000000000002a       0x2b binaries/recvclr.o
 .comment       0x000000000000002a       0x2b binaries/recvtime.o
 .comment       0x000000000000002a       0x2b binaries/resched.o
 .comment       0x000000000000002a       0x2b binaries/resume.o
 .comment       0x000000000000002a       0x2b binaries/seek.o
 .comment       0x000000000000002a       0x2b binaries/semcount.o
 .comment       0x000000000000002a       0x2b binaries/semcreate.o
 .comment       0x000000000000002a       0x2b binaries/semdelete.o
 .comment       0x000000000000002a       0x2b binaries/semreset.o
 .comment       0x000000000000002a       0x2b binaries/send.o
 .comment       0x000000000000002a       0x2b binaries/sendbt.o
 .comment       0x000000000000002a       0x2b binaries/signal.o
 .comment       0x000000000000002a       0x2b binaries/signaln.o
 .comment       0x000000000000002a       0x2b binaries/sleep.o
 .comment       0x000000000000002a       0x2b binaries/stackdepth.o
 .comment       0x000000000000002a       0x2b binaries/stacktrace.o
 .comment       0x000000000000002a       0x2b binaries/suspend.o
 .comment       0x000000000000002a       0x2b binaries/teststackdepth.o
 .comment       0x000000000000002a       0x2b binaries/tsdtab.o
 .comment       0x000000000000002a       0x2b binaries/unsleep.o
 .comment       0x000000000000002a       0x2b binaries/userret.o
 .comment       0x000000000000002a       0x2b binaries/wait.o
 .comment       0x000000000000002a       0x2b binaries/wakeup.o
 .comment       0x000000000000002a       0x2b binaries/write.o
 .comment       0x000000000000002a       0x2b binaries/xdone.o
 .comment       0x000000000000002a       0x2b binaries/yield.o
 .comment       0x000000000000002a       0x2b binaries/abs.o
 .comment       0x000000000000002a       0x2b binaries/atoi.o
 .comment       0x000000000000002a       0x2b binaries/atol.o
 .comment       0x000000000000002a       0x2b binaries/bzero.o
 .comment       0x000000000000002a       0x2b binaries/ctype_.o
 .comment       0x000000000000002a       0x2b binaries/doprnt.o
 .comment       0x000000000000002a       0x2b binaries/doscan.o
 .comment       0x000000000000002a       0x2b binaries/fdoprnt.o
 .comment       0x000000000000002a       0x2b binaries/fgetc.o
 .comment       0x000000000000002a       0x2b binaries/fgets.o
 .comment       0x000000000000002a       0x2b binaries/fprintf.o
 .comment       0x000000000000002a       0x2b binaries/fputc.o
 .comment       0x000000000000002a       0x2b binaries/fputs.o
 .comment       0x000000000000002a       0x2b binaries/fscanf.o
 .comment       0x000000000000002a       0x2b binaries/getchar.o
 .comment       0x000000000000002a       0x2b binaries/labs.o
 .comment       0x000000000000002a       0x2b binaries/memchr.o
 .comment       0x000000000000002a       0x2b binaries/memcmp.o
 .comment       0x000000000000002a       0x2b binaries/memcpy.o
 .comment       0x000000000000002a       0x2b binaries/memset.o
 .comment       0x000000000000002a       0x2b binaries/printf.o
 .comment       0x000000000000002a       0x2b binaries/putchar.o
 .comment       0x000000000000002a       0x2b binaries/qsort.o
 .comment       0x000000000000002a       0x2b binaries/rand.o
 .comment       0x000000000000002a       0x2b binaries/sprintf.o
 .comment       0x000000000000002a       0x2b binaries/sscanf.o
 .comment       0x000000000000002a       0x2b binaries/strchr.o
 .comment       0x000000000000002a       0x2b binaries/strcmp.o
 .comment       0x000000000000002a       0x2b binaries/strcpy.o
 .comment       0x000000000000002a       0x2b binaries/strlen.o
 .comment       0x000000000000002a       0x2b binaries/strncat.o
 .comment       0x000000000000002a       0x2b binaries/strncmp.o
 .comment       0x000000000000002a       0x2b binaries/strncpy.o
 .comment       0x000000000000002a       0x2b binaries/strnlen.o
 .comment       0x000000000000002a       0x2b binaries/strrchr.o
 .comment       0x000000000000002a       0x2b binaries/strstr.o
 .comment       0x000000000000002a       0x2b binaries/ttycontrol.o
 .comment       0x000000000000002a       0x2b binaries/ttygetc.o
 .comment       0x000000000000002a       0x2b binaries/ttyhandle_in.o
 .comment       0x000000000000002a       0x2b binaries/ttyhandle_out.o
 .comment       0x000000000000002a       0x2b binaries/ttyhandler.o
 .comment       0x000000000000002a       0x2b binaries/ttyinit.o
 .comment       0x000000000000002a       0x2b binaries/ttykickout.o
 .comment       0x000000000000002a       0x2b binaries/ttyputc.o
 .comment       0x000000000000002a       0x2b binaries/ttyread.o
 .comment       0x000000000000002a       0x2b binaries/ttywrite.o
 .comment       0x000000000000002a       0x2b binaries/mount.o
 .comment       0x000000000000002a       0x2b binaries/naminit.o
 .comment       0x000000000000002a       0x2b binaries/nammap.o
 .comment       0x000000000000002a       0x2b binaries/namopen.o
 .comment       0x000000000000002a       0x2b binaries/colon2mac.o
 .comment       0x000000000000002a       0x2b binaries/ethcontrol.o
 .comment       0x000000000000002a       0x2b binaries/ethhandler.o
 .comment       0x000000000000002a       0x2b binaries/ethinit.o
 .comment       0x000000000000002a       0x2b binaries/ethmcast.o
 .comment       0x000000000000002a       0x2b binaries/ethread.o
 .comment       0x000000000000002a       0x2b binaries/ethwrite.o
 .comment       0x000000000000002a       0x2b binaries/rdsbufalloc.o
 .comment       0x000000000000002a       0x2b binaries/rdsclose.o
 .comment       0x000000000000002a       0x2b binaries/rdscomm.o
 .comment       0x000000000000002a       0x2b binaries/rdscontrol.o
 .comment       0x000000000000002a       0x2b binaries/rdsinit.o
 .comment       0x000000000000002a       0x2b binaries/rdsopen.o
 .comment       0x000000000000002a       0x2b binaries/rdsprocess.o
 .comment       0x000000000000002a       0x2b binaries/rdsread.o
 .comment       0x000000000000002a       0x2b binaries/rdswrite.o
 .comment       0x000000000000002a       0x2b binaries/ramclose.o
 .comment       0x000000000000002a       0x2b binaries/raminit.o
 .comment       0x000000000000002a       0x2b binaries/ramopen.o
 .comment       0x000000000000002a       0x2b binaries/ramread.o
 .comment       0x000000000000002a       0x2b binaries/ramwrite.o
 .comment       0x000000000000002a       0x2b binaries/lfdballoc.o
 .comment       0x000000000000002a       0x2b binaries/lfdbfree.o
 .comment       0x000000000000002a       0x2b binaries/lfflush.o
 .comment       0x000000000000002a       0x2b binaries/lfgetmode.o
 .comment       0x000000000000002a       0x2b binaries/lfiballoc.o
 .comment       0x000000000000002a       0x2b binaries/lfibclear.o
 .comment       0x000000000000002a       0x2b binaries/lfibget.o
 .comment       0x000000000000002a       0x2b binaries/lfibput.o
 .comment       0x000000000000002a       0x2b binaries/lflclose.o
 .comment       0x000000000000002a       0x2b binaries/lflcontrol.o
 .comment       0x000000000000002a       0x2b binaries/lflgetc.o
 .comment       0x000000000000002a       0x2b binaries/lflinit.o
 .comment       0x000000000000002a       0x2b binaries/lflputc.o
 .comment       0x000000000000002a       0x2b binaries/lflread.o
 .comment       0x000000000000002a       0x2b binaries/lflseek.o
 .comment       0x000000000000002a       0x2b binaries/lflwrite.o
 .comment       0x000000000000002a       0x2b binaries/lfsckfmt.o
 .comment       0x000000000000002a       0x2b binaries/lfscreate.o
 .comment       0x000000000000002a       0x2b binaries/lfsetup.o
 .comment       0x000000000000002a       0x2b binaries/lfsinit.o
 .comment       0x000000000000002a       0x2b binaries/lfsopen.o
 .comment       0x000000000000002a       0x2b binaries/lftruncate.o
 .comment       0x000000000000002a       0x2b binaries/rflclose.o
 .comment       0x000000000000002a       0x2b binaries/rflgetc.o
 .comment       0x000000000000002a       0x2b binaries/rflinit.o
 .comment       0x000000000000002a       0x2b binaries/rflputc.o
 .comment       0x000000000000002a       0x2b binaries/rflread.o
 .comment       0x000000000000002a       0x2b binaries/rflseek.o
 .comment       0x000000000000002a       0x2b binaries/rflwrite.o
 .comment       0x000000000000002a       0x2b binaries/rfscomm.o
 .comment       0x000000000000002a       0x2b binaries/rfscontrol.o
 .comment       0x000000000000002a       0x2b binaries/rfsgetmode.o
 .comment       0x000000000000002a       0x2b binaries/rfsinit.o
 .comment       0x000000000000002a       0x2b binaries/rfsndmsg.o
 .comment       0x000000000000002a       0x2b binaries/rfsopen.o
 .comment       0x000000000000002a       0x2b binaries/arp.o
 .comment       0x000000000000002a       0x2b binaries/dhcp.o
 .comment       0x000000000000002a       0x2b binaries/dot2ip.o
 .comment       0x000000000000002a       0x2b binaries/hexdump.o
 .comment       0x000000000000002a       0x2b binaries/icmp.o
 .comment       0x000000000000002a       0x2b binaries/ip.o
 .comment       0x000000000000002a       0x2b binaries/net.o
 .comment       0x000000000000002a       0x2b binaries/netstart.o
 .comment       0x000000000000002a       0x2b binaries/pdump.o
 .comment       0x000000000000002a       0x2b binaries/tftp.o
 .comment       0x000000000000002a       0x2b binaries/udp.o
 .comment       0x000000000000002a       0x2b binaries/addargs.o
 .comment       0x000000000000002a       0x2b binaries/lexan.o
 .comment       0x000000000000002a       0x2b binaries/shell.o
 .comment       0x000000000000002a       0x2b binaries/xsh_argecho.o
 .comment       0x000000000000002a       0x2b binaries/xsh_arp.o
 .comment       0x000000000000002a       0x2b binaries/xsh_cat.o
 .comment       0x000000000000002a       0x2b binaries/xsh_clear.o
 .comment       0x000000000000002a       0x2b binaries/xsh_date.o
 .comment       0x000000000000002a       0x2b binaries/xsh_devdump.o
 .comment       0x000000000000002a       0x2b binaries/xsh_echo.o
 .comment       0x000000000000002a       0x2b binaries/xsh_exit.o
 .comment       0x000000000000002a       0x2b binaries/xsh_help.o
 .comment       0x000000000000002a       0x2b binaries/xsh_ipaddr.o
 .comment       0x000000000000002a       0x2b binaries/xsh_kill.o
 .comment       0x000000000000002a       0x2b binaries/xsh_memdump.o
 .comment       0x000000000000002a       0x2b binaries/xsh_memstat.o
 .comment       0x000000000000002a       0x2b binaries/xsh_ping.o
 .comment       0x000000000000002a       0x2b binaries/xsh_ps.o
 .comment       0x000000000000002a       0x2b binaries/xsh_sleep.o
 .comment       0x000000000000002a       0x2b binaries/xsh_udpdump.o
 .comment       0x000000000000002a       0x2b binaries/xsh_udpecho.o
 .comment       0x000000000000002a       0x2b binaries/xsh_udpeserver.o
 .comment       0x000000000000002a       0x2b binaries/xsh_uptime.o
 .comment       0x000000000000002a       0x2b binaries/host2netlc.o

.note.GNU-stack
                0x0000000000000000        0x0
 .note.GNU-stack
                0x0000000000000000        0x0 binaries/app1.o
 .note.GNU-stack
                0x0000000000000000        0x0 binaries/app2.o
 .note.GNU-stack
                0x0000000000000000        0x0 binaries/app3.o
 .note.GNU-stack
                0x0000000000000000        0x0 binaries/ascdate.o
 .note.GNU-stack
                0x0000000000000000        0x0 binaries/bufinit.o
 .note.GNU-stack
                0x0000000000000000        0x0 binaries/chprio.o
 .note.GNU-stack
                0x0000000000000000        0x0 binaries/clkhandler.o
 .note.GNU-stack
                0x0000000000000000        0x0 binaries/clkinit.o
 .note.GNU-stack
                0x0000000000000000        0x0 binaries/close.o
 .note.GNU-stack
                0x0000000000000000        0x0 binaries/conf.o
 .note.GNU-stack
                0x0000000000000000        0x0 binaries/control.o
 .note.GNU-stack
                0x0000000000000000        0x0 binaries/cpubound.o
 .note.GNU-stack
                0x0000000000000000        0x0 binaries/create.o
 .note.GNU-stack
                0x0000000000000000        0x0 binaries/early_imr.o
 .note.GNU-stack
                0x0000000000000000        0x0 binaries/evec.o
 .note.GNU-stack
                0x0000000000000000        0x0 binaries/factorial.o
 .note.GNU-stack
                0x0000000000000000        0x0 binaries/freebuf.o
 .note.GNU-stack
                0x0000000000000000        0x0 binaries/freemem.o
 .note.GNU-stack
                0x0000000000000000        0x0 binaries/getbuf.o
 .note.GNU-stack
                0x0000000000000000        0x0 binaries/getc.o
 .note.GNU-stack
                0x0000000000000000        0x0 binaries/getdev.o
 .note.GNU-stack
                0x0000000000000000        0x0 binaries/getitem.o
 .note.GNU-stack
                0x0000000000000000        0x0 binaries/getmem.o
 .note.GNU-stack
                0x0000000000000000        0x0 binaries/getpid.o
 .note.GNU-stack
                0x0000000000000000        0x0 binaries/getpname.o
 .note.GNU-stack
                0x0000000000000000        0x0 binaries/getppid.o
 .note.GNU-stack
                0x0000000000000000        0x0 binaries/getprio.o
 .note.GNU-stack
                0x0000000000000000        0x0 binaries/getstk.o
 .note.GNU-stack
                0x0000000000000000        0x0 binaries/gettime.o
 .note.GNU-stack
                0x0000000000000000        0x0 binaries/getutime.o
 .note.GNU-stack
                0x0000000000000000        0x0 binaries/host2netlb.o
 .note.GNU-stack
                0x0000000000000000        0x0 binaries/init.o
 .note.GNU-stack
                0x0000000000000000        0x0 binaries/initialize.o
 .note.GNU-stack
                0x0000000000000000        0x0 binaries/insert.o
 .note.GNU-stack
                0x0000000000000000        0x0 binaries/insertd.o
 .note.GNU-stack
                0x0000000000000000        0x0 binaries/iobound.o
 .note.GNU-stack
                0x0000000000000000        0x0 binaries/ioerr.o
 .note.GNU-stack
                0x0000000000000000        0x0 binaries/ionull.o
 .note.GNU-stack
                0x0000000000000000        0x0 binaries/kill.o
 .note.GNU-stack
                0x0000000000000000        0x0 binaries/kprintf.o
 .note.GNU-stack
                0x0000000000000000        0x0 binaries/lab2q3.o
 .note.GNU-stack
                0x0000000000000000        0x0 binaries/lab2q4.o
 .note.GNU-stack
                0x0000000000000000        0x0 binaries/lab2q5.o
 .note.GNU-stack
                0x0000000000000000        0x0 binaries/main.o
 .note.GNU-stack
                0x0000000000000000        0x0 binaries/mark.o
 .note.GNU-stack
                0x0000000000000000        0x0 binaries/meminit.o
 .note.GNU-stack
                0x0000000000000000        0x0 binaries/mkbufpool.o
 .note.GNU-stack
                0x0000000000000000        0x0 binaries/multilevelfbq.o
 .note.GNU-stack
                0x0000000000000000        0x0 binaries/myappA.o
 .note.GNU-stack
                0x0000000000000000        0x0 binaries/myfuncA.o
 .note.GNU-stack
                0x0000000000000000        0x0 binaries/myhacker.o
 .note.GNU-stack
                0x0000000000000000        0x0 binaries/myqueue.o
 .note.GNU-stack
                0x0000000000000000        0x0 binaries/myvictim.o
 .note.GNU-stack
                0x0000000000000000        0x0 binaries/mywelcomemsg.o
 .note.GNU-stack
                0x0000000000000000        0x0 binaries/newqueue.o
 .note.GNU-stack
                0x0000000000000000        0x0 binaries/open.o
 .note.GNU-stack
                0x0000000000000000        0x0 binaries/panic.o
 .note.GNU-stack
                0x0000000000000000        0x0 binaries/pci.o
 .note.GNU-stack
                0x0000000000000000        0x0 binaries/platinit.o
 .note.GNU-stack
                0x0000000000000000        0x0 binaries/printsegaddr.o
 .note.GNU-stack
                0x0000000000000000        0x0 binaries/process_state.o
 .note.GNU-stack
                0x0000000000000000        0x0 binaries/ptclear.o
 .note.GNU-stack
                0x0000000000000000        0x0 binaries/ptcount.o
 .note.GNU-stack
                0x0000000000000000        0x0 binaries/ptcreate.o
 .note.GNU-stack
                0x0000000000000000        0x0 binaries/ptdelete.o
 .note.GNU-stack
                0x0000000000000000        0x0 binaries/ptinit.o
 .note.GNU-stack
                0x0000000000000000        0x0 binaries/ptrecv.o
 .note.GNU-stack
                0x0000000000000000        0x0 binaries/ptreset.o
 .note.GNU-stack
                0x0000000000000000        0x0 binaries/ptsend.o
 .note.GNU-stack
                0x0000000000000000        0x0 binaries/putc.o
 .note.GNU-stack
                0x0000000000000000        0x0 binaries/quark_irq.o
 .note.GNU-stack
                0x0000000000000000        0x0 binaries/quark_pdat.o
 .note.GNU-stack
                0x0000000000000000        0x0 binaries/queue.o
 .note.GNU-stack
                0x0000000000000000        0x0 binaries/read.o
 .note.GNU-stack
                0x0000000000000000        0x0 binaries/ready.o
 .note.GNU-stack
                0x0000000000000000        0x0 binaries/receive.o
 .note.GNU-stack
                0x0000000000000000        0x0 binaries/receivebt.o
 .note.GNU-stack
                0x0000000000000000        0x0 binaries/recvclr.o
 .note.GNU-stack
                0x0000000000000000        0x0 binaries/recvtime.o
 .note.GNU-stack
                0x0000000000000000        0x0 binaries/resched.o
 .note.GNU-stack
                0x0000000000000000        0x0 binaries/resume.o
 .note.GNU-stack
                0x0000000000000000        0x0 binaries/seek.o
 .note.GNU-stack
                0x0000000000000000        0x0 binaries/semcount.o
 .note.GNU-stack
                0x0000000000000000        0x0 binaries/semcreate.o
 .note.GNU-stack
                0x0000000000000000        0x0 binaries/semdelete.o
 .note.GNU-stack
                0x0000000000000000        0x0 binaries/semreset.o
 .note.GNU-stack
                0x0000000000000000        0x0 binaries/send.o
 .note.GNU-stack
                0x0000000000000000        0x0 binaries/sendbt.o
 .note.GNU-stack
                0x0000000000000000        0x0 binaries/signal.o
 .note.GNU-stack
                0x0000000000000000        0x0 binaries/signaln.o
 .note.GNU-stack
                0x0000000000000000        0x0 binaries/sleep.o
 .note.GNU-stack
                0x0000000000000000        0x0 binaries/stackdepth.o
 .note.GNU-stack
                0x0000000000000000        0x0 binaries/stacktrace.o
 .note.GNU-stack
                0x0000000000000000        0x0 binaries/suspend.o
 .note.GNU-stack
                0x0000000000000000        0x0 binaries/teststackdepth.o
 .note.GNU-stack
                0x0000000000000000        0x0 binaries/tsdtab.o
 .note.GNU-stack
                0x0000000000000000        0x0 binaries/unsleep.o
 .note.GNU-stack
                0x0000000000000000        0x0 binaries/userret.o
 .note.GNU-stack
                0x0000000000000000        0x0 binaries/wait.o
 .note.GNU-stack
                0x0000000000000000        0x0 binaries/wakeup.o
 .note.GNU-stack
                0x0000000000000000        0x0 binaries/write.o
 .note.GNU-stack
                0x0000000000000000        0x0 binaries/xdone.o
 .note.GNU-stack
                0x0000000000000000        0x0 binaries/yield.o
 .note.GNU-stack
                0x0000000000000000        0x0 binaries/abs.o
 .note.GNU-stack
                0x0000000000000000        0x0 binaries/atoi.o
 .note.GNU-stack
                0x0000000000000000        0x0 binaries/atol.o
 .note.GNU-stack
                0x0000000000000000        0x0 binaries/bzero.o
 .note.GNU-stack
                0x0000000000000000        0x0 binaries/ctype_.o
 .note.GNU-stack
                0x0000000000000000        0x0 binaries/doprnt.o
 .note.GNU-stack
                0x0000000000000000        0x0 binaries/doscan.o
 .note.GNU-stack
                0x0000000000000000        0x0 binaries/fdoprnt.o
 .note.GNU-stack
                0x0000000000000000        0x0 binaries/fgetc.o
 .note.GNU-stack
                0x0000000000000000        0x0 binaries/fgets.o
 .note.GNU-stack
                0x0000000000000000        0x0 binaries/fprintf.o
 .note.GNU-stack
                0x0000000000000000        0x0 binaries/fputc.o
 .note.GNU-stack
                0x0000000000000000        0x0 binaries/fputs.o
 .note.GNU-stack
                0x0000000000000000        0x0 binaries/fscanf.o
 .note.GNU-stack
                0x0000000000000000        0x0 binaries/getchar.o
 .note.GNU-stack
                0x0000000000000000        0x0 binaries/labs.o
 .note.GNU-stack
                0x0000000000000000        0x0 binaries/memchr.o
 .note.GNU-stack
                0x0000000000000000        0x0 binaries/memcmp.o
 .note.GNU-stack
                0x0000000000000000        0x0 binaries/memcpy.o
 .note.GNU-stack
                0x0000000000000000        0x0 binaries/memset.o
 .note.GNU-stack
                0x0000000000000000        0x0 binaries/printf.o
 .note.GNU-stack
                0x0000000000000000        0x0 binaries/putchar.o
 .note.GNU-stack
                0x0000000000000000        0x0 binaries/qsort.o
 .note.GNU-stack
                0x0000000000000000        0x0 binaries/rand.o
 .note.GNU-stack
                0x0000000000000000        0x0 binaries/sprintf.o
 .note.GNU-stack
                0x0000000000000000        0x0 binaries/sscanf.o
 .note.GNU-stack
                0x0000000000000000        0x0 binaries/strchr.o
 .note.GNU-stack
                0x0000000000000000        0x0 binaries/strcmp.o
 .note.GNU-stack
                0x0000000000000000        0x0 binaries/strcpy.o
 .note.GNU-stack
                0x0000000000000000        0x0 binaries/strlen.o
 .note.GNU-stack
                0x0000000000000000        0x0 binaries/strncat.o
 .note.GNU-stack
                0x0000000000000000        0x0 binaries/strncmp.o
 .note.GNU-stack
                0x0000000000000000        0x0 binaries/strncpy.o
 .note.GNU-stack
                0x0000000000000000        0x0 binaries/strnlen.o
 .note.GNU-stack
                0x0000000000000000        0x0 binaries/strrchr.o
 .note.GNU-stack
                0x0000000000000000        0x0 binaries/strstr.o
 .note.GNU-stack
                0x0000000000000000        0x0 binaries/ttycontrol.o
 .note.GNU-stack
                0x0000000000000000        0x0 binaries/ttygetc.o
 .note.GNU-stack
                0x0000000000000000        0x0 binaries/ttyhandle_in.o
 .note.GNU-stack
                0x0000000000000000        0x0 binaries/ttyhandle_out.o
 .note.GNU-stack
                0x0000000000000000        0x0 binaries/ttyhandler.o
 .note.GNU-stack
                0x0000000000000000        0x0 binaries/ttyinit.o
 .note.GNU-stack
                0x0000000000000000        0x0 binaries/ttykickout.o
 .note.GNU-stack
                0x0000000000000000        0x0 binaries/ttyputc.o
 .note.GNU-stack
                0x0000000000000000        0x0 binaries/ttyread.o
 .note.GNU-stack
                0x0000000000000000        0x0 binaries/ttywrite.o
 .note.GNU-stack
                0x0000000000000000        0x0 binaries/mount.o
 .note.GNU-stack
                0x0000000000000000        0x0 binaries/naminit.o
 .note.GNU-stack
                0x0000000000000000        0x0 binaries/nammap.o
 .note.GNU-stack
                0x0000000000000000        0x0 binaries/namopen.o
 .note.GNU-stack
                0x0000000000000000        0x0 binaries/colon2mac.o
 .note.GNU-stack
                0x0000000000000000        0x0 binaries/ethcontrol.o
 .note.GNU-stack
                0x0000000000000000        0x0 binaries/ethhandler.o
 .note.GNU-stack
                0x0000000000000000        0x0 binaries/ethinit.o
 .note.GNU-stack
                0x0000000000000000        0x0 binaries/ethmcast.o
 .note.GNU-stack
                0x0000000000000000        0x0 binaries/ethread.o
 .note.GNU-stack
                0x0000000000000000        0x0 binaries/ethwrite.o
 .note.GNU-stack
                0x0000000000000000        0x0 binaries/rdsbufalloc.o
 .note.GNU-stack
                0x0000000000000000        0x0 binaries/rdsclose.o
 .note.GNU-stack
                0x0000000000000000        0x0 binaries/rdscomm.o
 .note.GNU-stack
                0x0000000000000000        0x0 binaries/rdscontrol.o
 .note.GNU-stack
                0x0000000000000000        0x0 binaries/rdsinit.o
 .note.GNU-stack
                0x0000000000000000        0x0 binaries/rdsopen.o
 .note.GNU-stack
                0x0000000000000000        0x0 binaries/rdsprocess.o
 .note.GNU-stack
                0x0000000000000000        0x0 binaries/rdsread.o
 .note.GNU-stack
                0x0000000000000000        0x0 binaries/rdswrite.o
 .note.GNU-stack
                0x0000000000000000        0x0 binaries/ramclose.o
 .note.GNU-stack
                0x0000000000000000        0x0 binaries/raminit.o
 .note.GNU-stack
                0x0000000000000000        0x0 binaries/ramopen.o
 .note.GNU-stack
                0x0000000000000000        0x0 binaries/ramread.o
 .note.GNU-stack
                0x0000000000000000        0x0 binaries/ramwrite.o
 .note.GNU-stack
                0x0000000000000000        0x0 binaries/lfdballoc.o
 .note.GNU-stack
                0x0000000000000000        0x0 binaries/lfdbfree.o
 .note.GNU-stack
                0x0000000000000000        0x0 binaries/lfflush.o
 .note.GNU-stack
                0x0000000000000000        0x0 binaries/lfgetmode.o
 .note.GNU-stack
                0x0000000000000000        0x0 binaries/lfiballoc.o
 .note.GNU-stack
                0x0000000000000000        0x0 binaries/lfibclear.o
 .note.GNU-stack
                0x0000000000000000        0x0 binaries/lfibget.o
 .note.GNU-stack
                0x0000000000000000        0x0 binaries/lfibput.o
 .note.GNU-stack
                0x0000000000000000        0x0 binaries/lflclose.o
 .note.GNU-stack
                0x0000000000000000        0x0 binaries/lflcontrol.o
 .note.GNU-stack
                0x0000000000000000        0x0 binaries/lflgetc.o
 .note.GNU-stack
                0x0000000000000000        0x0 binaries/lflinit.o
 .note.GNU-stack
                0x0000000000000000        0x0 binaries/lflputc.o
 .note.GNU-stack
                0x0000000000000000        0x0 binaries/lflread.o
 .note.GNU-stack
                0x0000000000000000        0x0 binaries/lflseek.o
 .note.GNU-stack
                0x0000000000000000        0x0 binaries/lflwrite.o
 .note.GNU-stack
                0x0000000000000000        0x0 binaries/lfsckfmt.o
 .note.GNU-stack
                0x0000000000000000        0x0 binaries/lfscreate.o
 .note.GNU-stack
                0x0000000000000000        0x0 binaries/lfsetup.o
 .note.GNU-stack
                0x0000000000000000        0x0 binaries/lfsinit.o
 .note.GNU-stack
                0x0000000000000000        0x0 binaries/lfsopen.o
 .note.GNU-stack
                0x0000000000000000        0x0 binaries/lftruncate.o
 .note.GNU-stack
                0x0000000000000000        0x0 binaries/rflclose.o
 .note.GNU-stack
                0x0000000000000000        0x0 binaries/rflgetc.o
 .note.GNU-stack
                0x0000000000000000        0x0 binaries/rflinit.o
 .note.GNU-stack
                0x0000000000000000        0x0 binaries/rflputc.o
 .note.GNU-stack
                0x0000000000000000        0x0 binaries/rflread.o
 .note.GNU-stack
                0x0000000000000000        0x0 binaries/rflseek.o
 .note.GNU-stack
                0x0000000000000000        0x0 binaries/rflwrite.o
 .note.GNU-stack
                0x0000000000000000        0x0 binaries/rfscomm.o
 .note.GNU-stack
                0x0000000000000000        0x0 binaries/rfscontrol.o
 .note.GNU-stack
                0x0000000000000000        0x0 binaries/rfsgetmode.o
 .note.GNU-stack
                0x0000000000000000        0x0 binaries/rfsinit.o
 .note.GNU-stack
                0x0000000000000000        0x0 binaries/rfsndmsg.o
 .note.GNU-stack
                0x0000000000000000        0x0 binaries/rfsopen.o
 .note.GNU-stack
                0x0000000000000000        0x0 binaries/arp.o
 .note.GNU-stack
                0x0000000000000000        0x0 binaries/dhcp.o
 .note.GNU-stack
                0x0000000000000000        0x0 binaries/dot2ip.o
 .note.GNU-stack
                0x0000000000000000        0x0 binaries/hexdump.o
 .note.GNU-stack
                0x0000000000000000        0x0 binaries/icmp.o
 .note.GNU-stack
                0x0000000000000000        0x0 binaries/ip.o
 .note.GNU-stack
                0x0000000000000000        0x0 binaries/net.o
 .note.GNU-stack
                0x0000000000000000        0x0 binaries/netstart.o
 .note.GNU-stack
                0x0000000000000000        0x0 binaries/pdump.o
 .note.GNU-stack
                0x0000000000000000        0x0 binaries/tftp.o
 .note.GNU-stack
                0x0000000000000000        0x0 binaries/udp.o
 .note.GNU-stack
                0x0000000000000000        0x0 binaries/addargs.o
 .note.GNU-stack
                0x0000000000000000        0x0 binaries/lexan.o
 .note.GNU-stack
                0x0000000000000000        0x0 binaries/shell.o
 .note.GNU-stack
                0x0000000000000000        0x0 binaries/xsh_argecho.o
 .note.GNU-stack
                0x0000000000000000        0x0 binaries/xsh_arp.o
 .note.GNU-stack
                0x0000000000000000        0x0 binaries/xsh_cat.o
 .note.GNU-stack
                0x0000000000000000        0x0 binaries/xsh_clear.o
 .note.GNU-stack
                0x0000000000000000        0x0 binaries/xsh_date.o
 .note.GNU-stack
                0x0000000000000000        0x0 binaries/xsh_devdump.o
 .note.GNU-stack
                0x0000000000000000        0x0 binaries/xsh_echo.o
 .note.GNU-stack
                0x0000000000000000        0x0 binaries/xsh_exit.o
 .note.GNU-stack
                0x0000000000000000        0x0 binaries/xsh_help.o
 .note.GNU-stack
                0x0000000000000000        0x0 binaries/xsh_ipaddr.o
 .note.GNU-stack
                0x0000000000000000        0x0 binaries/xsh_kill.o
 .note.GNU-stack
                0x0000000000000000        0x0 binaries/xsh_memdump.o
 .note.GNU-stack
                0x0000000000000000        0x0 binaries/xsh_memstat.o
 .note.GNU-stack
                0x0000000000000000        0x0 binaries/xsh_ping.o
 .note.GNU-stack
                0x0000000000000000        0x0 binaries/xsh_ps.o
 .note.GNU-stack
                0x0000000000000000        0x0 binaries/xsh_sleep.o
 .note.GNU-stack
                0x0000000000000000        0x0 binaries/xsh_udpdump.o
 .note.GNU-stack
                0x0000000000000000        0x0 binaries/xsh_udpecho.o
 .note.GNU-stack
                0x0000000000000000        0x0 binaries/xsh_udpeserver.o
 .note.GNU-stack
                0x0000000000000000        0x0 binaries/xsh_uptime.o
 .note.GNU-stack
                0x0000000000000000        0x0 binaries/host2netlc.o
